
uploader_win64.exe:     file format pei-x86-64


Disassembly of section .text:

0000000000401000 <__mingw_invalidParameterHandler>:
  401000:	c3                   	ret
  401001:	66 66 2e 0f 1f 84 00 	data16 cs nop WORD PTR [rax+rax*1+0x0]
  401008:	00 00 00 00 
  40100c:	0f 1f 40 00          	nop    DWORD PTR [rax+0x0]

0000000000401010 <pre_c_init>:
  401010:	48 83 ec 28          	sub    rsp,0x28
  401014:	48 8b 05 15 0c 01 00 	mov    rax,QWORD PTR [rip+0x10c15]        # 411c30 <.refptr.mingw_initltsdrot_force>
  40101b:	31 c9                	xor    ecx,ecx
  40101d:	c7 00 01 00 00 00    	mov    DWORD PTR [rax],0x1
  401023:	48 8b 05 16 0c 01 00 	mov    rax,QWORD PTR [rip+0x10c16]        # 411c40 <.refptr.mingw_initltsdyn_force>
  40102a:	c7 00 01 00 00 00    	mov    DWORD PTR [rax],0x1
  401030:	48 8b 05 19 0c 01 00 	mov    rax,QWORD PTR [rip+0x10c19]        # 411c50 <.refptr.mingw_initltssuo_force>
  401037:	c7 00 01 00 00 00    	mov    DWORD PTR [rax],0x1
  40103d:	48 8b 05 dc 0b 01 00 	mov    rax,QWORD PTR [rip+0x10bdc]        # 411c20 <.refptr.mingw_initcharmax>
  401044:	c7 00 01 00 00 00    	mov    DWORD PTR [rax],0x1
  40104a:	48 8b 05 8f 0a 01 00 	mov    rax,QWORD PTR [rip+0x10a8f]        # 411ae0 <.refptr.__image_base__>
  401051:	66 81 38 4d 5a       	cmp    WORD PTR [rax],0x5a4d
  401056:	75 0f                	jne    401067 <pre_c_init+0x57>
  401058:	48 63 50 3c          	movsxd rdx,DWORD PTR [rax+0x3c]
  40105c:	48 01 d0             	add    rax,rdx
  40105f:	81 38 50 45 00 00    	cmp    DWORD PTR [rax],0x4550
  401065:	74 69                	je     4010d0 <pre_c_init+0xc0>
  401067:	48 8b 05 a2 0b 01 00 	mov    rax,QWORD PTR [rip+0x10ba2]        # 411c10 <.refptr.mingw_app_type>
  40106e:	89 0d ac 3f 01 00    	mov    DWORD PTR [rip+0x13fac],ecx        # 415020 <managedapp>
  401074:	8b 00                	mov    eax,DWORD PTR [rax]
  401076:	85 c0                	test   eax,eax
  401078:	74 46                	je     4010c0 <pre_c_init+0xb0>
  40107a:	b9 02 00 00 00       	mov    ecx,0x2
  40107f:	e8 4c d8 00 00       	call   40e8d0 <__set_app_type>
  401084:	e8 d7 de 00 00       	call   40ef60 <__p__fmode>
  401089:	48 8b 15 40 0b 01 00 	mov    rdx,QWORD PTR [rip+0x10b40]        # 411bd0 <.refptr._fmode>
  401090:	8b 12                	mov    edx,DWORD PTR [rdx]
  401092:	89 10                	mov    DWORD PTR [rax],edx
  401094:	e8 b7 de 00 00       	call   40ef50 <__p__commode>
  401099:	48 8b 15 10 0b 01 00 	mov    rdx,QWORD PTR [rip+0x10b10]        # 411bb0 <.refptr._commode>
  4010a0:	8b 12                	mov    edx,DWORD PTR [rdx]
  4010a2:	89 10                	mov    DWORD PTR [rax],edx
  4010a4:	e8 37 7a 00 00       	call   408ae0 <_setargv>
  4010a9:	48 8b 05 e0 09 01 00 	mov    rax,QWORD PTR [rip+0x109e0]        # 411a90 <.refptr._MINGW_INSTALL_DEBUG_MATHERR>
  4010b0:	83 38 01             	cmp    DWORD PTR [rax],0x1
  4010b3:	74 53                	je     401108 <pre_c_init+0xf8>
  4010b5:	31 c0                	xor    eax,eax
  4010b7:	48 83 c4 28          	add    rsp,0x28
  4010bb:	c3                   	ret
  4010bc:	0f 1f 40 00          	nop    DWORD PTR [rax+0x0]
  4010c0:	b9 01 00 00 00       	mov    ecx,0x1
  4010c5:	e8 06 d8 00 00       	call   40e8d0 <__set_app_type>
  4010ca:	eb b8                	jmp    401084 <pre_c_init+0x74>
  4010cc:	0f 1f 40 00          	nop    DWORD PTR [rax+0x0]
  4010d0:	0f b7 50 18          	movzx  edx,WORD PTR [rax+0x18]
  4010d4:	66 81 fa 0b 01       	cmp    dx,0x10b
  4010d9:	74 45                	je     401120 <pre_c_init+0x110>
  4010db:	66 81 fa 0b 02       	cmp    dx,0x20b
  4010e0:	75 85                	jne    401067 <pre_c_init+0x57>
  4010e2:	83 b8 84 00 00 00 0e 	cmp    DWORD PTR [rax+0x84],0xe
  4010e9:	0f 86 78 ff ff ff    	jbe    401067 <pre_c_init+0x57>
  4010ef:	8b 90 f8 00 00 00    	mov    edx,DWORD PTR [rax+0xf8]
  4010f5:	31 c9                	xor    ecx,ecx
  4010f7:	85 d2                	test   edx,edx
  4010f9:	0f 95 c1             	setne  cl
  4010fc:	e9 66 ff ff ff       	jmp    401067 <pre_c_init+0x57>
  401101:	0f 1f 80 00 00 00 00 	nop    DWORD PTR [rax+0x0]
  401108:	48 8d 0d b1 7a 00 00 	lea    rcx,[rip+0x7ab1]        # 408bc0 <_matherr>
  40110f:	e8 7c 80 00 00       	call   409190 <__mingw_setusermatherr>
  401114:	31 c0                	xor    eax,eax
  401116:	48 83 c4 28          	add    rsp,0x28
  40111a:	c3                   	ret
  40111b:	0f 1f 44 00 00       	nop    DWORD PTR [rax+rax*1+0x0]
  401120:	83 78 74 0e          	cmp    DWORD PTR [rax+0x74],0xe
  401124:	0f 86 3d ff ff ff    	jbe    401067 <pre_c_init+0x57>
  40112a:	44 8b 80 e8 00 00 00 	mov    r8d,DWORD PTR [rax+0xe8]
  401131:	31 c9                	xor    ecx,ecx
  401133:	45 85 c0             	test   r8d,r8d
  401136:	0f 95 c1             	setne  cl
  401139:	e9 29 ff ff ff       	jmp    401067 <pre_c_init+0x57>
  40113e:	66 90                	xchg   ax,ax

0000000000401140 <pre_cpp_init>:
  401140:	48 83 ec 38          	sub    rsp,0x38
  401144:	48 8b 05 b5 0a 01 00 	mov    rax,QWORD PTR [rip+0x10ab5]        # 411c00 <.refptr._newmode>
  40114b:	4c 8d 05 d6 3e 01 00 	lea    r8,[rip+0x13ed6]        # 415028 <envp>
  401152:	48 8d 15 d7 3e 01 00 	lea    rdx,[rip+0x13ed7]        # 415030 <argv>
  401159:	48 8d 0d d8 3e 01 00 	lea    rcx,[rip+0x13ed8]        # 415038 <argc>
  401160:	8b 00                	mov    eax,DWORD PTR [rax]
  401162:	89 05 b0 3e 01 00    	mov    DWORD PTR [rip+0x13eb0],eax        # 415018 <startinfo>
  401168:	48 8d 05 a9 3e 01 00 	lea    rax,[rip+0x13ea9]        # 415018 <startinfo>
  40116f:	48 89 44 24 20       	mov    QWORD PTR [rsp+0x20],rax
  401174:	48 8b 05 45 0a 01 00 	mov    rax,QWORD PTR [rip+0x10a45]        # 411bc0 <.refptr._dowildcard>
  40117b:	44 8b 08             	mov    r9d,DWORD PTR [rax]
  40117e:	e8 5d d7 00 00       	call   40e8e0 <__getmainargs>
  401183:	90                   	nop
  401184:	48 83 c4 38          	add    rsp,0x38
  401188:	c3                   	ret
  401189:	0f 1f 80 00 00 00 00 	nop    DWORD PTR [rax+0x0]

0000000000401190 <__tmainCRTStartup>:
  401190:	41 55                	push   r13
  401192:	41 54                	push   r12
  401194:	55                   	push   rbp
  401195:	57                   	push   rdi
  401196:	56                   	push   rsi
  401197:	53                   	push   rbx
  401198:	48 81 ec 98 00 00 00 	sub    rsp,0x98
  40119f:	b9 0d 00 00 00       	mov    ecx,0xd
  4011a4:	31 c0                	xor    eax,eax
  4011a6:	4c 8d 44 24 20       	lea    r8,[rsp+0x20]
  4011ab:	4c 89 c7             	mov    rdi,r8
  4011ae:	f3 48 ab             	rep stos QWORD PTR es:[rdi],rax
  4011b1:	48 8b 3d 58 0a 01 00 	mov    rdi,QWORD PTR [rip+0x10a58]        # 411c10 <.refptr.mingw_app_type>
  4011b8:	44 8b 0f             	mov    r9d,DWORD PTR [rdi]
  4011bb:	45 85 c9             	test   r9d,r9d
  4011be:	0f 85 9c 02 00 00    	jne    401460 <__tmainCRTStartup+0x2d0>
  4011c4:	65 48 8b 04 25 30 00 	mov    rax,QWORD PTR gs:0x30
  4011cb:	00 00 
  4011cd:	48 8b 1d 6c 09 01 00 	mov    rbx,QWORD PTR [rip+0x1096c]        # 411b40 <.refptr.__native_startup_lock>
  4011d4:	48 8b 70 08          	mov    rsi,QWORD PTR [rax+0x8]
  4011d8:	31 ed                	xor    ebp,ebp
  4011da:	4c 8b 25 d3 50 01 00 	mov    r12,QWORD PTR [rip+0x150d3]        # 4162b4 <__imp_Sleep>
  4011e1:	eb 16                	jmp    4011f9 <__tmainCRTStartup+0x69>
  4011e3:	0f 1f 44 00 00       	nop    DWORD PTR [rax+rax*1+0x0]
  4011e8:	48 39 c6             	cmp    rsi,rax
  4011eb:	0f 84 17 02 00 00    	je     401408 <__tmainCRTStartup+0x278>
  4011f1:	b9 e8 03 00 00       	mov    ecx,0x3e8
  4011f6:	41 ff d4             	call   r12
  4011f9:	48 89 e8             	mov    rax,rbp
  4011fc:	f0 48 0f b1 33       	lock cmpxchg QWORD PTR [rbx],rsi
  401201:	48 85 c0             	test   rax,rax
  401204:	75 e2                	jne    4011e8 <__tmainCRTStartup+0x58>
  401206:	48 8b 35 43 09 01 00 	mov    rsi,QWORD PTR [rip+0x10943]        # 411b50 <.refptr.__native_startup_state>
  40120d:	31 ed                	xor    ebp,ebp
  40120f:	8b 06                	mov    eax,DWORD PTR [rsi]
  401211:	83 f8 01             	cmp    eax,0x1
  401214:	0f 84 05 02 00 00    	je     40141f <__tmainCRTStartup+0x28f>
  40121a:	8b 06                	mov    eax,DWORD PTR [rsi]
  40121c:	85 c0                	test   eax,eax
  40121e:	0f 84 6c 02 00 00    	je     401490 <__tmainCRTStartup+0x300>
  401224:	c7 05 ee 3d 01 00 01 	mov    DWORD PTR [rip+0x13dee],0x1        # 41501c <has_cctor>
  40122b:	00 00 00 
  40122e:	8b 06                	mov    eax,DWORD PTR [rsi]
  401230:	83 f8 01             	cmp    eax,0x1
  401233:	0f 84 fb 01 00 00    	je     401434 <__tmainCRTStartup+0x2a4>
  401239:	85 ed                	test   ebp,ebp
  40123b:	0f 84 14 02 00 00    	je     401455 <__tmainCRTStartup+0x2c5>
  401241:	48 8b 05 88 08 01 00 	mov    rax,QWORD PTR [rip+0x10888]        # 411ad0 <.refptr.__dyn_tls_init_callback>
  401248:	48 8b 00             	mov    rax,QWORD PTR [rax]
  40124b:	48 85 c0             	test   rax,rax
  40124e:	74 0c                	je     40125c <__tmainCRTStartup+0xcc>
  401250:	45 31 c0             	xor    r8d,r8d
  401253:	ba 02 00 00 00       	mov    edx,0x2
  401258:	31 c9                	xor    ecx,ecx
  40125a:	ff d0                	call   rax
  40125c:	e8 4f 7c 00 00       	call   408eb0 <_pei386_runtime_relocator>
  401261:	48 8d 0d 38 7f 00 00 	lea    rcx,[rip+0x7f38]        # 4091a0 <_gnu_exception_handler>
  401268:	ff 15 3e 50 01 00    	call   QWORD PTR [rip+0x1503e]        # 4162ac <__imp_SetUnhandledExceptionFilter>
  40126e:	48 8b 15 bb 08 01 00 	mov    rdx,QWORD PTR [rip+0x108bb]        # 411b30 <.refptr.__mingw_oldexcpt_handler>
  401275:	48 8d 0d 84 fd ff ff 	lea    rcx,[rip+0xfffffffffffffd84]        # 401000 <__mingw_invalidParameterHandler>
  40127c:	48 89 02             	mov    QWORD PTR [rdx],rax
  40127f:	e8 dc db 00 00       	call   40ee60 <_set_invalid_parameter_handler>
  401284:	e8 37 7a 00 00       	call   408cc0 <_fpreset>
  401289:	48 8b 05 50 08 01 00 	mov    rax,QWORD PTR [rip+0x10850]        # 411ae0 <.refptr.__image_base__>
  401290:	48 89 05 79 3d 01 00 	mov    QWORD PTR [rip+0x13d79],rax        # 415010 <__mingw_winmain_hInstance>
  401297:	e8 a4 dc 00 00       	call   40ef40 <__p__acmdln>
  40129c:	31 c9                	xor    ecx,ecx
  40129e:	48 8b 00             	mov    rax,QWORD PTR [rax]
  4012a1:	48 85 c0             	test   rax,rax
  4012a4:	75 1c                	jne    4012c2 <__tmainCRTStartup+0x132>
  4012a6:	eb 58                	jmp    401300 <__tmainCRTStartup+0x170>
  4012a8:	0f 1f 84 00 00 00 00 	nop    DWORD PTR [rax+rax*1+0x0]
  4012af:	00 
  4012b0:	84 d2                	test   dl,dl
  4012b2:	74 45                	je     4012f9 <__tmainCRTStartup+0x169>
  4012b4:	83 e1 01             	and    ecx,0x1
  4012b7:	74 27                	je     4012e0 <__tmainCRTStartup+0x150>
  4012b9:	b9 01 00 00 00       	mov    ecx,0x1
  4012be:	48 83 c0 01          	add    rax,0x1
  4012c2:	0f b6 10             	movzx  edx,BYTE PTR [rax]
  4012c5:	80 fa 20             	cmp    dl,0x20
  4012c8:	7e e6                	jle    4012b0 <__tmainCRTStartup+0x120>
  4012ca:	41 89 c8             	mov    r8d,ecx
  4012cd:	41 83 f0 01          	xor    r8d,0x1
  4012d1:	80 fa 22             	cmp    dl,0x22
  4012d4:	41 0f 44 c8          	cmove  ecx,r8d
  4012d8:	eb e4                	jmp    4012be <__tmainCRTStartup+0x12e>
  4012da:	66 0f 1f 44 00 00    	nop    WORD PTR [rax+rax*1+0x0]
  4012e0:	84 d2                	test   dl,dl
  4012e2:	74 15                	je     4012f9 <__tmainCRTStartup+0x169>
  4012e4:	0f 1f 40 00          	nop    DWORD PTR [rax+0x0]
  4012e8:	0f b6 50 01          	movzx  edx,BYTE PTR [rax+0x1]
  4012ec:	48 83 c0 01          	add    rax,0x1
  4012f0:	84 d2                	test   dl,dl
  4012f2:	74 05                	je     4012f9 <__tmainCRTStartup+0x169>
  4012f4:	80 fa 20             	cmp    dl,0x20
  4012f7:	7e ef                	jle    4012e8 <__tmainCRTStartup+0x158>
  4012f9:	48 89 05 08 3d 01 00 	mov    QWORD PTR [rip+0x13d08],rax        # 415008 <__mingw_winmain_lpCmdLine>
  401300:	44 8b 07             	mov    r8d,DWORD PTR [rdi]
  401303:	45 85 c0             	test   r8d,r8d
  401306:	74 16                	je     40131e <__tmainCRTStartup+0x18e>
  401308:	b8 0a 00 00 00       	mov    eax,0xa
  40130d:	f6 44 24 5c 01       	test   BYTE PTR [rsp+0x5c],0x1
  401312:	0f 85 e0 00 00 00    	jne    4013f8 <__tmainCRTStartup+0x268>
  401318:	89 05 e2 ec 00 00    	mov    DWORD PTR [rip+0xece2],eax        # 410000 <__data_start__>
  40131e:	48 63 2d 13 3d 01 00 	movsxd rbp,DWORD PTR [rip+0x13d13]        # 415038 <argc>
  401325:	44 8d 65 01          	lea    r12d,[rbp+0x1]
  401329:	4d 63 e4             	movsxd r12,r12d
  40132c:	49 c1 e4 03          	shl    r12,0x3
  401330:	4c 89 e1             	mov    rcx,r12
  401333:	e8 08 d5 00 00       	call   40e840 <malloc>
  401338:	4c 8b 2d f1 3c 01 00 	mov    r13,QWORD PTR [rip+0x13cf1]        # 415030 <argv>
  40133f:	48 89 c7             	mov    rdi,rax
  401342:	85 ed                	test   ebp,ebp
  401344:	7e 42                	jle    401388 <__tmainCRTStartup+0x1f8>
  401346:	31 db                	xor    ebx,ebx
  401348:	0f 1f 84 00 00 00 00 	nop    DWORD PTR [rax+rax*1+0x0]
  40134f:	00 
  401350:	49 8b 4c dd 00       	mov    rcx,QWORD PTR [r13+rbx*8+0x0]
  401355:	e8 be d4 00 00       	call   40e818 <strlen>
  40135a:	48 8d 70 01          	lea    rsi,[rax+0x1]
  40135e:	48 89 f1             	mov    rcx,rsi
  401361:	e8 da d4 00 00       	call   40e840 <malloc>
  401366:	49 89 f0             	mov    r8,rsi
  401369:	48 89 04 df          	mov    QWORD PTR [rdi+rbx*8],rax
  40136d:	49 8b 54 dd 00       	mov    rdx,QWORD PTR [r13+rbx*8+0x0]
  401372:	48 89 c1             	mov    rcx,rax
  401375:	48 83 c3 01          	add    rbx,0x1
  401379:	e8 ba d4 00 00       	call   40e838 <memcpy>
  40137e:	48 39 dd             	cmp    rbp,rbx
  401381:	75 cd                	jne    401350 <__tmainCRTStartup+0x1c0>
  401383:	4a 8d 44 27 f8       	lea    rax,[rdi+r12*1-0x8]
  401388:	48 c7 00 00 00 00 00 	mov    QWORD PTR [rax],0x0
  40138f:	48 89 3d 9a 3c 01 00 	mov    QWORD PTR [rip+0x13c9a],rdi        # 415030 <argv>
  401396:	e8 15 77 00 00       	call   408ab0 <__main>
  40139b:	48 8b 05 4e 07 01 00 	mov    rax,QWORD PTR [rip+0x1074e]        # 411af0 <.refptr.__imp___initenv>
  4013a2:	4c 8b 05 7f 3c 01 00 	mov    r8,QWORD PTR [rip+0x13c7f]        # 415028 <envp>
  4013a9:	8b 0d 89 3c 01 00    	mov    ecx,DWORD PTR [rip+0x13c89]        # 415038 <argc>
  4013af:	48 8b 00             	mov    rax,QWORD PTR [rax]
  4013b2:	4c 89 00             	mov    QWORD PTR [rax],r8
  4013b5:	48 8b 15 74 3c 01 00 	mov    rdx,QWORD PTR [rip+0x13c74]        # 415030 <argv>
  4013bc:	e8 cc 02 00 00       	call   40168d <main>
  4013c1:	8b 0d 59 3c 01 00    	mov    ecx,DWORD PTR [rip+0x13c59]        # 415020 <managedapp>
  4013c7:	89 05 57 3c 01 00    	mov    DWORD PTR [rip+0x13c57],eax        # 415024 <mainret>
  4013cd:	85 c9                	test   ecx,ecx
  4013cf:	0f 84 d9 00 00 00    	je     4014ae <__tmainCRTStartup+0x31e>
  4013d5:	8b 15 41 3c 01 00    	mov    edx,DWORD PTR [rip+0x13c41]        # 41501c <has_cctor>
  4013db:	85 d2                	test   edx,edx
  4013dd:	0f 84 8d 00 00 00    	je     401470 <__tmainCRTStartup+0x2e0>
  4013e3:	48 81 c4 98 00 00 00 	add    rsp,0x98
  4013ea:	5b                   	pop    rbx
  4013eb:	5e                   	pop    rsi
  4013ec:	5f                   	pop    rdi
  4013ed:	5d                   	pop    rbp
  4013ee:	41 5c                	pop    r12
  4013f0:	41 5d                	pop    r13
  4013f2:	c3                   	ret
  4013f3:	0f 1f 44 00 00       	nop    DWORD PTR [rax+rax*1+0x0]
  4013f8:	0f b7 44 24 60       	movzx  eax,WORD PTR [rsp+0x60]
  4013fd:	e9 16 ff ff ff       	jmp    401318 <__tmainCRTStartup+0x188>
  401402:	66 0f 1f 44 00 00    	nop    WORD PTR [rax+rax*1+0x0]
  401408:	48 8b 35 41 07 01 00 	mov    rsi,QWORD PTR [rip+0x10741]        # 411b50 <.refptr.__native_startup_state>
  40140f:	bd 01 00 00 00       	mov    ebp,0x1
  401414:	8b 06                	mov    eax,DWORD PTR [rsi]
  401416:	83 f8 01             	cmp    eax,0x1
  401419:	0f 85 fb fd ff ff    	jne    40121a <__tmainCRTStartup+0x8a>
  40141f:	b9 1f 00 00 00       	mov    ecx,0x1f
  401424:	e8 97 d4 00 00       	call   40e8c0 <_amsg_exit>
  401429:	8b 06                	mov    eax,DWORD PTR [rsi]
  40142b:	83 f8 01             	cmp    eax,0x1
  40142e:	0f 85 05 fe ff ff    	jne    401239 <__tmainCRTStartup+0xa9>
  401434:	48 8b 15 45 07 01 00 	mov    rdx,QWORD PTR [rip+0x10745]        # 411b80 <.refptr.__xc_z>
  40143b:	48 8b 0d 2e 07 01 00 	mov    rcx,QWORD PTR [rip+0x1072e]        # 411b70 <.refptr.__xc_a>
  401442:	e8 61 d4 00 00       	call   40e8a8 <_initterm>
  401447:	c7 06 02 00 00 00    	mov    DWORD PTR [rsi],0x2
  40144d:	85 ed                	test   ebp,ebp
  40144f:	0f 85 ec fd ff ff    	jne    401241 <__tmainCRTStartup+0xb1>
  401455:	31 c0                	xor    eax,eax
  401457:	48 87 03             	xchg   QWORD PTR [rbx],rax
  40145a:	e9 e2 fd ff ff       	jmp    401241 <__tmainCRTStartup+0xb1>
  40145f:	90                   	nop
  401460:	4c 89 c1             	mov    rcx,r8
  401463:	ff 15 fb 4d 01 00    	call   QWORD PTR [rip+0x14dfb]        # 416264 <__imp_GetStartupInfoA>
  401469:	e9 56 fd ff ff       	jmp    4011c4 <__tmainCRTStartup+0x34>
  40146e:	66 90                	xchg   ax,ax
  401470:	e8 43 d4 00 00       	call   40e8b8 <_cexit>
  401475:	8b 05 a9 3b 01 00    	mov    eax,DWORD PTR [rip+0x13ba9]        # 415024 <mainret>
  40147b:	48 81 c4 98 00 00 00 	add    rsp,0x98
  401482:	5b                   	pop    rbx
  401483:	5e                   	pop    rsi
  401484:	5f                   	pop    rdi
  401485:	5d                   	pop    rbp
  401486:	41 5c                	pop    r12
  401488:	41 5d                	pop    r13
  40148a:	c3                   	ret
  40148b:	0f 1f 44 00 00       	nop    DWORD PTR [rax+rax*1+0x0]
  401490:	48 8b 15 09 07 01 00 	mov    rdx,QWORD PTR [rip+0x10709]        # 411ba0 <.refptr.__xi_z>
  401497:	48 8b 0d f2 06 01 00 	mov    rcx,QWORD PTR [rip+0x106f2]        # 411b90 <.refptr.__xi_a>
  40149e:	c7 06 01 00 00 00    	mov    DWORD PTR [rsi],0x1
  4014a4:	e8 ff d3 00 00       	call   40e8a8 <_initterm>
  4014a9:	e9 80 fd ff ff       	jmp    40122e <__tmainCRTStartup+0x9e>
  4014ae:	89 c1                	mov    ecx,eax
  4014b0:	e8 d3 d3 00 00       	call   40e888 <exit>
  4014b5:	90                   	nop
  4014b6:	66 2e 0f 1f 84 00 00 	cs nop WORD PTR [rax+rax*1+0x0]
  4014bd:	00 00 00 

00000000004014c0 <WinMainCRTStartup>:
  4014c0:	48 83 ec 28          	sub    rsp,0x28

00000000004014c4 <.l_startw>:
  4014c4:	48 8b 05 45 07 01 00 	mov    rax,QWORD PTR [rip+0x10745]        # 411c10 <.refptr.mingw_app_type>
  4014cb:	c7 00 01 00 00 00    	mov    DWORD PTR [rax],0x1
  4014d1:	e8 ba fc ff ff       	call   401190 <__tmainCRTStartup>
  4014d6:	90                   	nop

00000000004014d7 <.l_endw>:
  4014d7:	90                   	nop
  4014d8:	48 83 c4 28          	add    rsp,0x28
  4014dc:	c3                   	ret
  4014dd:	0f 1f 00             	nop    DWORD PTR [rax]

00000000004014e0 <mainCRTStartup>:
  4014e0:	48 83 ec 28          	sub    rsp,0x28

00000000004014e4 <.l_start>:
  4014e4:	48 8b 05 25 07 01 00 	mov    rax,QWORD PTR [rip+0x10725]        # 411c10 <.refptr.mingw_app_type>
  4014eb:	c7 00 00 00 00 00    	mov    DWORD PTR [rax],0x0
  4014f1:	e8 9a fc ff ff       	call   401190 <__tmainCRTStartup>
  4014f6:	90                   	nop

00000000004014f7 <.l_end>:
  4014f7:	90                   	nop
  4014f8:	48 83 c4 28          	add    rsp,0x28
  4014fc:	c3                   	ret
  4014fd:	0f 1f 00             	nop    DWORD PTR [rax]

0000000000401500 <atexit>:
  401500:	48 83 ec 28          	sub    rsp,0x28
  401504:	e8 97 d3 00 00       	call   40e8a0 <_onexit>
  401509:	48 85 c0             	test   rax,rax
  40150c:	0f 94 c0             	sete   al
  40150f:	0f b6 c0             	movzx  eax,al
  401512:	f7 d8                	neg    eax
  401514:	48 83 c4 28          	add    rsp,0x28
  401518:	c3                   	ret
  401519:	90                   	nop
  40151a:	90                   	nop
  40151b:	90                   	nop
  40151c:	90                   	nop
  40151d:	90                   	nop
  40151e:	90                   	nop
  40151f:	90                   	nop

0000000000401520 <__gcc_register_frame>:
  401520:	48 8d 0d 09 00 00 00 	lea    rcx,[rip+0x9]        # 401530 <__gcc_deregister_frame>
  401527:	e9 d4 ff ff ff       	jmp    401500 <atexit>
  40152c:	0f 1f 40 00          	nop    DWORD PTR [rax+0x0]

0000000000401530 <__gcc_deregister_frame>:
  401530:	c3                   	ret
  401531:	90                   	nop
  401532:	90                   	nop
  401533:	90                   	nop
  401534:	90                   	nop
  401535:	90                   	nop
  401536:	90                   	nop
  401537:	90                   	nop
  401538:	90                   	nop
  401539:	90                   	nop
  40153a:	90                   	nop
  40153b:	90                   	nop
  40153c:	90                   	nop
  40153d:	90                   	nop
  40153e:	90                   	nop
  40153f:	90                   	nop

0000000000401540 <fprintf>:
  401540:	55                   	push   rbp
  401541:	48 89 e5             	mov    rbp,rsp
  401544:	48 83 ec 30          	sub    rsp,0x30
  401548:	48 89 4d 10          	mov    QWORD PTR [rbp+0x10],rcx
  40154c:	48 89 55 18          	mov    QWORD PTR [rbp+0x18],rdx
  401550:	4c 89 45 20          	mov    QWORD PTR [rbp+0x20],r8
  401554:	4c 89 4d 28          	mov    QWORD PTR [rbp+0x28],r9
  401558:	48 8d 45 20          	lea    rax,[rbp+0x20]
  40155c:	48 89 45 f0          	mov    QWORD PTR [rbp-0x10],rax
  401560:	48 8b 55 f0          	mov    rdx,QWORD PTR [rbp-0x10]
  401564:	48 8b 45 18          	mov    rax,QWORD PTR [rbp+0x18]
  401568:	49 89 d0             	mov    r8,rdx
  40156b:	48 89 c2             	mov    rdx,rax
  40156e:	48 8b 4d 10          	mov    rcx,QWORD PTR [rbp+0x10]
  401572:	e8 79 84 00 00       	call   4099f0 <__mingw_vfprintf>
  401577:	89 45 fc             	mov    DWORD PTR [rbp-0x4],eax
  40157a:	8b 45 fc             	mov    eax,DWORD PTR [rbp-0x4]
  40157d:	48 83 c4 30          	add    rsp,0x30
  401581:	5d                   	pop    rbp
  401582:	c3                   	ret

0000000000401583 <printf>:
  401583:	55                   	push   rbp
  401584:	53                   	push   rbx
  401585:	48 83 ec 38          	sub    rsp,0x38
  401589:	48 8d ac 24 80 00 00 	lea    rbp,[rsp+0x80]
  401590:	00 
  401591:	48 89 4d d0          	mov    QWORD PTR [rbp-0x30],rcx
  401595:	48 89 55 d8          	mov    QWORD PTR [rbp-0x28],rdx
  401599:	4c 89 45 e0          	mov    QWORD PTR [rbp-0x20],r8
  40159d:	4c 89 4d e8          	mov    QWORD PTR [rbp-0x18],r9
  4015a1:	48 8d 45 d8          	lea    rax,[rbp-0x28]
  4015a5:	48 89 45 a0          	mov    QWORD PTR [rbp-0x60],rax
  4015a9:	48 8b 5d a0          	mov    rbx,QWORD PTR [rbp-0x60]
  4015ad:	b9 01 00 00 00       	mov    ecx,0x1
  4015b2:	48 8b 05 d7 ea 00 00 	mov    rax,QWORD PTR [rip+0xead7]        # 410090 <__imp___acrt_iob_func>
  4015b9:	ff d0                	call   rax
  4015bb:	49 89 d8             	mov    r8,rbx
  4015be:	48 8b 55 d0          	mov    rdx,QWORD PTR [rbp-0x30]
  4015c2:	48 89 c1             	mov    rcx,rax
  4015c5:	e8 26 84 00 00       	call   4099f0 <__mingw_vfprintf>
  4015ca:	89 45 ac             	mov    DWORD PTR [rbp-0x54],eax
  4015cd:	8b 45 ac             	mov    eax,DWORD PTR [rbp-0x54]
  4015d0:	48 83 c4 38          	add    rsp,0x38
  4015d4:	5b                   	pop    rbx
  4015d5:	5d                   	pop    rbp
  4015d6:	c3                   	ret

00000000004015d7 <concat>:
  4015d7:	55                   	push   rbp
  4015d8:	48 89 e5             	mov    rbp,rsp
  4015db:	48 83 ec 40          	sub    rsp,0x40
  4015df:	48 89 4d 10          	mov    QWORD PTR [rbp+0x10],rcx
  4015e3:	48 89 55 18          	mov    QWORD PTR [rbp+0x18],rdx
  4015e7:	48 8b 4d 10          	mov    rcx,QWORD PTR [rbp+0x10]
  4015eb:	e8 28 d2 00 00       	call   40e818 <strlen>
  4015f0:	48 89 45 f8          	mov    QWORD PTR [rbp-0x8],rax
  4015f4:	48 8b 45 18          	mov    rax,QWORD PTR [rbp+0x18]
  4015f8:	48 89 c1             	mov    rcx,rax
  4015fb:	e8 18 d2 00 00       	call   40e818 <strlen>
  401600:	48 89 45 f0          	mov    QWORD PTR [rbp-0x10],rax
  401604:	48 8b 55 f8          	mov    rdx,QWORD PTR [rbp-0x8]
  401608:	48 8b 45 f0          	mov    rax,QWORD PTR [rbp-0x10]
  40160c:	48 01 d0             	add    rax,rdx
  40160f:	48 83 c0 01          	add    rax,0x1
  401613:	48 89 c1             	mov    rcx,rax
  401616:	e8 25 d2 00 00       	call   40e840 <malloc>
  40161b:	48 89 45 e8          	mov    QWORD PTR [rbp-0x18],rax
  40161f:	48 83 7d e8 00       	cmp    QWORD PTR [rbp-0x18],0x0
  401624:	75 24                	jne    40164a <concat+0x73>
  401626:	b9 02 00 00 00       	mov    ecx,0x2
  40162b:	48 8b 05 5e ea 00 00 	mov    rax,QWORD PTR [rip+0xea5e]        # 410090 <__imp___acrt_iob_func>
  401632:	ff d0                	call   rax
  401634:	48 8d 15 c5 f9 00 00 	lea    rdx,[rip+0xf9c5]        # 411000 <.rdata>
  40163b:	48 89 c1             	mov    rcx,rax
  40163e:	e8 fd fe ff ff       	call   401540 <fprintf>
  401643:	b8 00 00 00 00       	mov    eax,0x0
  401648:	eb 3d                	jmp    401687 <concat+0xb0>
  40164a:	48 8b 55 f8          	mov    rdx,QWORD PTR [rbp-0x8]
  40164e:	48 8b 45 e8          	mov    rax,QWORD PTR [rbp-0x18]
  401652:	49 89 d0             	mov    r8,rdx
  401655:	48 8b 55 10          	mov    rdx,QWORD PTR [rbp+0x10]
  401659:	48 89 c1             	mov    rcx,rax
  40165c:	e8 d7 d1 00 00       	call   40e838 <memcpy>
  401661:	48 8b 45 f0          	mov    rax,QWORD PTR [rbp-0x10]
  401665:	48 8d 50 01          	lea    rdx,[rax+0x1]
  401669:	48 8b 4d e8          	mov    rcx,QWORD PTR [rbp-0x18]
  40166d:	48 8b 45 f8          	mov    rax,QWORD PTR [rbp-0x8]
  401671:	48 01 c1             	add    rcx,rax
  401674:	48 8b 45 18          	mov    rax,QWORD PTR [rbp+0x18]
  401678:	49 89 d0             	mov    r8,rdx
  40167b:	48 89 c2             	mov    rdx,rax
  40167e:	e8 b5 d1 00 00       	call   40e838 <memcpy>
  401683:	48 8b 45 e8          	mov    rax,QWORD PTR [rbp-0x18]
  401687:	48 83 c4 40          	add    rsp,0x40
  40168b:	5d                   	pop    rbp
  40168c:	c3                   	ret

000000000040168d <main>:
  40168d:	55                   	push   rbp
  40168e:	57                   	push   rdi
  40168f:	b8 b8 4c 00 00       	mov    eax,0x4cb8
  401694:	e8 17 83 00 00       	call   4099b0 <___chkstk_ms>
  401699:	48 29 c4             	sub    rsp,rax
  40169c:	48 8d ac 24 80 00 00 	lea    rbp,[rsp+0x80]
  4016a3:	00 
  4016a4:	89 8d 50 4c 00 00    	mov    DWORD PTR [rbp+0x4c50],ecx
  4016aa:	48 89 95 58 4c 00 00 	mov    QWORD PTR [rbp+0x4c58],rdx
  4016b1:	e8 fa 73 00 00       	call   408ab0 <__main>
  4016b6:	b9 f5 ff ff ff       	mov    ecx,0xfffffff5
  4016bb:	48 8b 05 aa 4b 01 00 	mov    rax,QWORD PTR [rip+0x14baa]        # 41626c <__imp_GetStdHandle>
  4016c2:	ff d0                	call   rax
  4016c4:	48 89 85 20 4c 00 00 	mov    QWORD PTR [rbp+0x4c20],rax
  4016cb:	48 c7 85 71 4b 00 00 	mov    QWORD PTR [rbp+0x4b71],0x799610ff
  4016d2:	ff 10 96 79 
  4016d6:	66 c7 85 79 4b 00 00 	mov    WORD PTR [rbp+0x4b79],0x0
  4016dd:	00 00 
  4016df:	48 c7 85 50 4b 00 00 	mov    QWORD PTR [rbp+0x4b50],0x0
  4016e6:	00 00 00 00 
  4016ea:	48 c7 85 58 4b 00 00 	mov    QWORD PTR [rbp+0x4b58],0x0
  4016f1:	00 00 00 00 
  4016f5:	c7 85 60 4b 00 00 00 	mov    DWORD PTR [rbp+0x4b60],0x0
  4016fc:	00 00 00 
  4016ff:	48 c7 85 46 4b 00 00 	mov    QWORD PTR [rbp+0x4b46],0x900031a
  401706:	1a 03 00 09 
  40170a:	66 c7 85 4e 4b 00 00 	mov    WORD PTR [rbp+0x4b4e],0x0
  401711:	00 00 
  401713:	c7 85 28 4c 00 00 00 	mov    DWORD PTR [rbp+0x4c28],0x0
  40171a:	00 00 00 
  40171d:	83 bd 50 4c 00 00 03 	cmp    DWORD PTR [rbp+0x4c50],0x3
  401724:	0f 84 d2 00 00 00    	je     4017fc <main+0x16f>
  40172a:	83 bd 50 4c 00 00 02 	cmp    DWORD PTR [rbp+0x4c50],0x2
  401731:	0f 84 c5 00 00 00    	je     4017fc <main+0x16f>
  401737:	48 8d 0d ea f8 00 00 	lea    rcx,[rip+0xf8ea]        # 411028 <.rdata+0x28>
  40173e:	e8 40 fe ff ff       	call   401583 <printf>
  401743:	48 8d 0d 20 f9 00 00 	lea    rcx,[rip+0xf920]        # 41106a <.rdata+0x6a>
  40174a:	e8 34 fe ff ff       	call   401583 <printf>
  40174f:	48 8b 85 20 4c 00 00 	mov    rax,QWORD PTR [rbp+0x4c20]
  401756:	ba 07 80 00 00       	mov    edx,0x8007
  40175b:	48 89 c1             	mov    rcx,rax
  40175e:	48 8b 05 3f 4b 01 00 	mov    rax,QWORD PTR [rip+0x14b3f]        # 4162a4 <__imp_SetConsoleTextAttribute>
  401765:	ff d0                	call   rax
  401767:	48 8d 0d 1a f9 00 00 	lea    rcx,[rip+0xf91a]        # 411088 <.rdata+0x88>
  40176e:	e8 10 fe ff ff       	call   401583 <printf>
  401773:	48 8b 85 20 4c 00 00 	mov    rax,QWORD PTR [rbp+0x4c20]
  40177a:	ba 07 00 00 00       	mov    edx,0x7
  40177f:	48 89 c1             	mov    rcx,rax
  401782:	48 8b 05 1b 4b 01 00 	mov    rax,QWORD PTR [rip+0x14b1b]        # 4162a4 <__imp_SetConsoleTextAttribute>
  401789:	ff d0                	call   rax
  40178b:	48 8d 0d 08 f9 00 00 	lea    rcx,[rip+0xf908]        # 41109a <.rdata+0x9a>
  401792:	e8 ec fd ff ff       	call   401583 <printf>
  401797:	48 8d 0d 12 f9 00 00 	lea    rcx,[rip+0xf912]        # 4110b0 <.rdata+0xb0>
  40179e:	e8 e0 fd ff ff       	call   401583 <printf>
  4017a3:	48 8d 0d 4e f9 00 00 	lea    rcx,[rip+0xf94e]        # 4110f8 <.rdata+0xf8>
  4017aa:	e8 d4 fd ff ff       	call   401583 <printf>
  4017af:	48 8d 0d 72 f8 00 00 	lea    rcx,[rip+0xf872]        # 411028 <.rdata+0x28>
  4017b6:	e8 c8 fd ff ff       	call   401583 <printf>
  4017bb:	48 8d 0d 78 f9 00 00 	lea    rcx,[rip+0xf978]        # 41113a <.rdata+0x13a>
  4017c2:	e8 bc fd ff ff       	call   401583 <printf>
  4017c7:	48 8d 0d 72 f9 00 00 	lea    rcx,[rip+0xf972]        # 411140 <.rdata+0x140>
  4017ce:	e8 b0 fd ff ff       	call   401583 <printf>
  4017d3:	48 8d 0d 9e f9 00 00 	lea    rcx,[rip+0xf99e]        # 411178 <.rdata+0x178>
  4017da:	e8 a4 fd ff ff       	call   401583 <printf>
  4017df:	48 8d 0d a2 f9 00 00 	lea    rcx,[rip+0xf9a2]        # 411188 <.rdata+0x188>
  4017e6:	e8 98 fd ff ff       	call   401583 <printf>
  4017eb:	48 8d 0d de f9 00 00 	lea    rcx,[rip+0xf9de]        # 4111d0 <.rdata+0x1d0>
  4017f2:	e8 8c fd ff ff       	call   401583 <printf>
  4017f7:	e9 fa 71 00 00       	jmp    4089f6 <main+0x7369>
  4017fc:	83 bd 50 4c 00 00 03 	cmp    DWORD PTR [rbp+0x4c50],0x3
  401803:	0f 85 8e 00 00 00    	jne    401897 <main+0x20a>
  401809:	48 8b 85 58 4c 00 00 	mov    rax,QWORD PTR [rbp+0x4c58]
  401810:	48 83 c0 10          	add    rax,0x10
  401814:	48 8b 00             	mov    rax,QWORD PTR [rax]
  401817:	48 8d 15 f9 f9 00 00 	lea    rdx,[rip+0xf9f9]        # 411217 <.rdata+0x217>
  40181e:	48 89 c1             	mov    rcx,rax
  401821:	e8 52 d0 00 00       	call   40e878 <fopen>
  401826:	48 89 85 18 4c 00 00 	mov    QWORD PTR [rbp+0x4c18],rax
  40182d:	48 83 bd 18 4c 00 00 	cmp    QWORD PTR [rbp+0x4c18],0x0
  401834:	00 
  401835:	75 11                	jne    401848 <main+0x1bb>
  401837:	48 8d 0d dc f9 00 00 	lea    rcx,[rip+0xf9dc]        # 41121a <.rdata+0x21a>
  40183e:	e8 40 fd ff ff       	call   401583 <printf>
  401843:	e9 ae 71 00 00       	jmp    4089f6 <main+0x7369>
  401848:	48 8b 95 18 4c 00 00 	mov    rdx,QWORD PTR [rbp+0x4c18]
  40184f:	48 8d 85 80 4b 00 00 	lea    rax,[rbp+0x4b80]
  401856:	49 89 d1             	mov    r9,rdx
  401859:	41 b8 5a 00 00 00    	mov    r8d,0x5a
  40185f:	ba 04 00 00 00       	mov    edx,0x4
  401864:	48 89 c1             	mov    rcx,rax
  401867:	e8 f4 cf 00 00       	call   40e860 <fread>
  40186c:	0f b6 85 80 4b 00 00 	movzx  eax,BYTE PTR [rbp+0x4b80]
  401873:	3c 7d                	cmp    al,0x7d
  401875:	74 11                	je     401888 <main+0x1fb>
  401877:	48 8d 0d ad f9 00 00 	lea    rcx,[rip+0xf9ad]        # 41122b <.rdata+0x22b>
  40187e:	e8 00 fd ff ff       	call   401583 <printf>
  401883:	e9 6e 71 00 00       	jmp    4089f6 <main+0x7369>
  401888:	48 8b 85 18 4c 00 00 	mov    rax,QWORD PTR [rbp+0x4c18]
  40188f:	48 89 c1             	mov    rcx,rax
  401892:	e8 e9 cf 00 00       	call   40e880 <fclose>
  401897:	48 c7 85 20 4a 00 00 	mov    QWORD PTR [rbp+0x4a20],0x6005000
  40189e:	00 50 00 06 
  4018a2:	48 c7 85 28 4a 00 00 	mov    QWORD PTR [rbp+0x4a28],0x0
  4018a9:	00 00 00 00 
  4018ad:	48 8d 95 30 4a 00 00 	lea    rdx,[rbp+0x4a30]
  4018b4:	b8 00 00 00 00       	mov    eax,0x0
  4018b9:	b9 1f 00 00 00       	mov    ecx,0x1f
  4018be:	48 89 d7             	mov    rdi,rdx
  4018c1:	f3 48 ab             	rep stos QWORD PTR es:[rdi],rax
  4018c4:	48 89 fa             	mov    rdx,rdi
  4018c7:	89 02                	mov    DWORD PTR [rdx],eax
  4018c9:	48 83 c2 04          	add    rdx,0x4
  4018cd:	66 89 02             	mov    WORD PTR [rdx],ax
  4018d0:	48 83 c2 02          	add    rdx,0x2
  4018d4:	48 b8 00 3e 82 00 02 	movabs rax,0x200823e00
  4018db:	00 00 00 
  4018de:	ba 00 00 00 00       	mov    edx,0x0
  4018e3:	48 89 85 10 49 00 00 	mov    QWORD PTR [rbp+0x4910],rax
  4018ea:	48 89 95 18 49 00 00 	mov    QWORD PTR [rbp+0x4918],rdx
  4018f1:	48 8d 95 20 49 00 00 	lea    rdx,[rbp+0x4920]
  4018f8:	b8 00 00 00 00       	mov    eax,0x0
  4018fd:	b9 1f 00 00 00       	mov    ecx,0x1f
  401902:	48 89 d7             	mov    rdi,rdx
  401905:	f3 48 ab             	rep stos QWORD PTR es:[rdi],rax
  401908:	48 89 fa             	mov    rdx,rdi
  40190b:	89 02                	mov    DWORD PTR [rdx],eax
  40190d:	48 83 c2 04          	add    rdx,0x4
  401911:	66 89 02             	mov    WORD PTR [rdx],ax
  401914:	48 83 c2 02          	add    rdx,0x2
  401918:	48 c7 85 00 48 00 00 	mov    QWORD PTR [rbp+0x4800],0xe00
  40191f:	00 0e 00 00 
  401923:	48 c7 85 08 48 00 00 	mov    QWORD PTR [rbp+0x4808],0x0
  40192a:	00 00 00 00 
  40192e:	48 8d 95 10 48 00 00 	lea    rdx,[rbp+0x4810]
  401935:	b8 00 00 00 00       	mov    eax,0x0
  40193a:	b9 1f 00 00 00       	mov    ecx,0x1f
  40193f:	48 89 d7             	mov    rdi,rdx
  401942:	f3 48 ab             	rep stos QWORD PTR es:[rdi],rax
  401945:	48 89 fa             	mov    rdx,rdi
  401948:	89 02                	mov    DWORD PTR [rdx],eax
  40194a:	48 83 c2 04          	add    rdx,0x4
  40194e:	66 89 02             	mov    WORD PTR [rdx],ax
  401951:	48 83 c2 02          	add    rdx,0x2
  401955:	48 c7 85 f0 46 00 00 	mov    QWORD PTR [rbp+0x46f0],0x6005000
  40195c:	00 50 00 06 
  401960:	48 c7 85 f8 46 00 00 	mov    QWORD PTR [rbp+0x46f8],0x0
  401967:	00 00 00 00 
  40196b:	48 8d 95 00 47 00 00 	lea    rdx,[rbp+0x4700]
  401972:	b8 00 00 00 00       	mov    eax,0x0
  401977:	b9 1f 00 00 00       	mov    ecx,0x1f
  40197c:	48 89 d7             	mov    rdi,rdx
  40197f:	f3 48 ab             	rep stos QWORD PTR es:[rdi],rax
  401982:	48 89 fa             	mov    rdx,rdi
  401985:	89 02                	mov    DWORD PTR [rdx],eax
  401987:	48 83 c2 04          	add    rdx,0x4
  40198b:	66 89 02             	mov    WORD PTR [rdx],ax
  40198e:	48 83 c2 02          	add    rdx,0x2
  401992:	48 b8 00 58 82 00 ff 	movabs rax,0xff00825800
  401999:	00 00 00 
  40199c:	ba 00 00 00 00       	mov    edx,0x0
  4019a1:	48 89 85 e0 45 00 00 	mov    QWORD PTR [rbp+0x45e0],rax
  4019a8:	48 89 95 e8 45 00 00 	mov    QWORD PTR [rbp+0x45e8],rdx
  4019af:	48 8d 95 f0 45 00 00 	lea    rdx,[rbp+0x45f0]
  4019b6:	b8 00 00 00 00       	mov    eax,0x0
  4019bb:	b9 1f 00 00 00       	mov    ecx,0x1f
  4019c0:	48 89 d7             	mov    rdi,rdx
  4019c3:	f3 48 ab             	rep stos QWORD PTR es:[rdi],rax
  4019c6:	48 89 fa             	mov    rdx,rdi
  4019c9:	89 02                	mov    DWORD PTR [rdx],eax
  4019cb:	48 83 c2 04          	add    rdx,0x4
  4019cf:	66 89 02             	mov    WORD PTR [rdx],ax
  4019d2:	48 83 c2 02          	add    rdx,0x2
  4019d6:	48 b8 e4 90 06 a8 f0 	movabs rax,0xe81812f0a80690e4
  4019dd:	12 18 e8 
  4019e0:	48 ba d2 af f5 b8 75 	movabs rdx,0x7503de75b8f5afd2
  4019e7:	de 03 75 
  4019ea:	48 89 85 d0 44 00 00 	mov    QWORD PTR [rbp+0x44d0],rax
  4019f1:	48 89 95 d8 44 00 00 	mov    QWORD PTR [rbp+0x44d8],rdx
  4019f8:	48 b8 e1 01 75 da 11 	movabs rax,0x123b7f11da7501e1
  4019ff:	7f 3b 12 
  401a02:	48 ba 1d d3 7f 24 12 	movabs rdx,0xe4d31d12247fd31d
  401a09:	1d d3 e4 
  401a0c:	48 89 85 e0 44 00 00 	mov    QWORD PTR [rbp+0x44e0],rax
  401a13:	48 89 95 e8 44 00 00 	mov    QWORD PTR [rbp+0x44e8],rdx
  401a1a:	48 b8 ff 12 0d 4c 7f 	movabs rax,0xd12427f4c0d12ff
  401a21:	42 12 0d 
  401a24:	48 ba 4c 7f 30 12 1d 	movabs rdx,0x1b12d31d12307f4c
  401a2b:	d3 12 1b 
  401a2e:	48 89 85 f0 44 00 00 	mov    QWORD PTR [rbp+0x44f0],rax
  401a35:	48 89 95 f8 44 00 00 	mov    QWORD PTR [rbp+0x44f8],rdx
  401a3c:	48 b8 98 12 1d df 90 	movabs rax,0xef0d0090df1d1298
  401a43:	00 0d ef 
  401a46:	48 ba f0 12 1d df 90 	movabs rdx,0xef0e0090df1d12f0
  401a4d:	00 0e ef 
  401a50:	48 89 85 00 45 00 00 	mov    QWORD PTR [rbp+0x4500],rax
  401a57:	48 89 95 08 45 00 00 	mov    QWORD PTR [rbp+0x4508],rdx
  401a5e:	48 b8 f0 90 00 0d e0 	movabs rax,0x606664e00d0090f0
  401a65:	64 66 60 
  401a68:	48 ba 08 12 1d df 90 	movabs rdx,0xef0f0090df1d1208
  401a6f:	00 0f ef 
  401a72:	48 89 85 10 45 00 00 	mov    QWORD PTR [rbp+0x4510],rax
  401a79:	48 89 95 18 45 00 00 	mov    QWORD PTR [rbp+0x4518],rdx
  401a80:	48 b8 f0 90 00 0d e0 	movabs rax,0x911412e00d0090f0
  401a87:	12 14 91 
  401a8a:	48 ba 05 87 10 05 c8 	movabs rdx,0xeb0a11c805108705
  401a91:	11 0a eb 
  401a94:	48 89 85 20 45 00 00 	mov    QWORD PTR [rbp+0x4520],rax
  401a9b:	48 89 95 28 45 00 00 	mov    QWORD PTR [rbp+0x4528],rdx
  401aa2:	48 b8 12 08 17 14 02 	movabs rax,0x61a7a0214170812
  401aa9:	7a 1a 06 
  401aac:	48 ba 92 1c 04 62 1e 	movabs rdx,0x1f34041e62041c92
  401ab3:	04 34 1f 
  401ab6:	48 89 85 30 45 00 00 	mov    QWORD PTR [rbp+0x4530],rax
  401abd:	48 89 95 38 45 00 00 	mov    QWORD PTR [rbp+0x4538],rdx
  401ac4:	48 b8 0c b0 66 04 b1 	movabs rax,0xddb10466b00c
  401acb:	dd 00 00 
  401ace:	48 ba 0c e5 12 0d 21 	movabs rdx,0x140290210d12e50c
  401ad5:	90 02 14 
  401ad8:	48 89 85 40 45 00 00 	mov    QWORD PTR [rbp+0x4540],rax
  401adf:	48 89 95 48 45 00 00 	mov    QWORD PTR [rbp+0x4548],rdx
  401ae6:	48 b8 e0 04 f0 90 00 	movabs rax,0x14e00e0090f004e0
  401aed:	0e e0 14 
  401af0:	48 ba 70 03 02 03 66 	movabs rdx,0x370146603020370
  401af7:	14 70 03 
  401afa:	48 89 85 50 45 00 00 	mov    QWORD PTR [rbp+0x4550],rax
  401b01:	48 89 95 58 45 00 00 	mov    QWORD PTR [rbp+0x4558],rdx
  401b08:	48 b8 02 03 94 14 70 	movabs rax,0x302037014940302
  401b0f:	03 02 03 
  401b12:	48 ba bd 24 03 60 03 	movabs rdx,0x32040203600324bd
  401b19:	02 04 32 
  401b1c:	48 89 85 60 45 00 00 	mov    QWORD PTR [rbp+0x4560],rax
  401b23:	48 89 95 68 45 00 00 	mov    QWORD PTR [rbp+0x4568],rdx
  401b2a:	48 b8 90 00 0f e0 f4 	movabs rax,0x908a70f4e00f0090
  401b31:	70 8a 90 
  401b34:	48 ba 02 14 e0 64 01 	movabs rdx,0x7b82700164e01402
  401b3b:	70 82 7b 
  401b3e:	48 89 85 70 45 00 00 	mov    QWORD PTR [rbp+0x4570],rax
  401b45:	48 89 95 78 45 00 00 	mov    QWORD PTR [rbp+0x4578],rdx
  401b4c:	48 b8 01 7a 00 79 12 	movabs rax,0x12fcfd1279007a01
  401b53:	fd fc 12 
  401b56:	48 ba 1d 15 12 1c 79 	movabs rdx,0x12a17f791c12151d
  401b5d:	7f a1 12 
  401b60:	48 89 85 80 45 00 00 	mov    QWORD PTR [rbp+0x4580],rax
  401b67:	48 89 95 88 45 00 00 	mov    QWORD PTR [rbp+0x4588],rdx
  401b6e:	48 b8 1d d3 12 19 33 	movabs rax,0xa80690331912d31d
  401b75:	90 06 a8 
  401b78:	48 ba e0 fe a3 e0 ff 	movabs rdx,0xff94c3ffe0a3fee0
  401b7f:	c3 94 ff 
  401b82:	48 89 85 90 45 00 00 	mov    QWORD PTR [rbp+0x4590],rax
  401b89:	48 89 95 98 45 00 00 	mov    QWORD PTR [rbp+0x4598],rdx
  401b90:	48 b8 ee 64 80 94 80 	movabs rax,0x2034080948064ee
  401b97:	40 03 02 
  401b9a:	48 ba 03 58 ef 64 87 	movabs rdx,0x6604e8764ef5803
  401ba1:	4e 60 06 
  401ba4:	48 89 85 a0 45 00 00 	mov    QWORD PTR [rbp+0x45a0],rax
  401bab:	48 89 95 a8 45 00 00 	mov    QWORD PTR [rbp+0x45a8],rdx
  401bb2:	48 b8 ef 64 da 4e 70 	movabs rax,0x12740d704eda64ef
  401bb9:	0d 74 12 
  401bbc:	48 ba 2f 12 18 d5 ff 	movabs rdx,0xf40690ffd518122f
  401bc3:	90 06 f4 
  401bc6:	48 89 85 b0 45 00 00 	mov    QWORD PTR [rbp+0x45b0],rax
  401bcd:	48 89 95 b8 45 00 00 	mov    QWORD PTR [rbp+0x45b8],rdx
  401bd4:	48 b8 e0 2f f0 12 18 	movabs rax,0x12ffcc1812f02fe0
  401bdb:	cc ff 12 
  401bde:	48 ba 1d d3 90 06 a8 	movabs rdx,0xfae0a80690d31d
  401be5:	e0 fa 00 
  401be8:	48 89 85 c0 45 00 00 	mov    QWORD PTR [rbp+0x45c0],rax
  401bef:	48 89 95 c8 45 00 00 	mov    QWORD PTR [rbp+0x45c8],rdx
  401bf6:	48 c7 85 d0 45 00 00 	mov    QWORD PTR [rbp+0x45d0],0x0
  401bfd:	00 00 00 00 
  401c01:	c7 85 d8 45 00 00 00 	mov    DWORD PTR [rbp+0x45d8],0x0
  401c08:	00 00 00 
  401c0b:	66 c7 85 dc 45 00 00 	mov    WORD PTR [rbp+0x45dc],0x0
  401c12:	00 00 
  401c14:	48 b8 00 58 82 ff ff 	movabs rax,0xffff825800
  401c1b:	00 00 00 
  401c1e:	ba 00 00 00 00       	mov    edx,0x0
  401c23:	48 89 85 c0 43 00 00 	mov    QWORD PTR [rbp+0x43c0],rax
  401c2a:	48 89 95 c8 43 00 00 	mov    QWORD PTR [rbp+0x43c8],rdx
  401c31:	48 8d 95 d0 43 00 00 	lea    rdx,[rbp+0x43d0]
  401c38:	b8 00 00 00 00       	mov    eax,0x0
  401c3d:	b9 1f 00 00 00       	mov    ecx,0x1f
  401c42:	48 89 d7             	mov    rdi,rdx
  401c45:	f3 48 ab             	rep stos QWORD PTR es:[rdi],rax
  401c48:	48 89 fa             	mov    rdx,rdi
  401c4b:	89 02                	mov    DWORD PTR [rdx],eax
  401c4d:	48 83 c2 04          	add    rdx,0x4
  401c51:	66 89 02             	mov    WORD PTR [rdx],ax
  401c54:	48 83 c2 02          	add    rdx,0x2
  401c58:	48 b8 a3 e0 fb 7c 00 	movabs rax,0xff027d007cfbe0a3
  401c5f:	7d 02 ff 
  401c62:	48 ba ae 02 12 13 e6 	movabs rdx,0x164ede6131202ae
  401c69:	ed 64 01 
  401c6c:	48 89 85 b0 42 00 00 	mov    QWORD PTR [rbp+0x42b0],rax
  401c73:	48 89 95 b8 42 00 00 	mov    QWORD PTR [rbp+0x42b8],rdx
  401c7a:	48 b8 4c 70 13 74 12 	movabs rax,0x82f52b127413704c
  401c81:	2b f5 82 
  401c84:	48 ba 74 00 3a f5 83 	movabs rdx,0x1313e083f53a0074
  401c8b:	e0 13 13 
  401c8e:	48 89 85 c0 42 00 00 	mov    QWORD PTR [rbp+0x42c0],rax
  401c95:	48 89 95 c8 42 00 00 	mov    QWORD PTR [rbp+0x42c8],rdx
  401c9c:	48 b8 13 54 1f f0 80 	movabs rax,0x18120880f01f5413
  401ca3:	08 12 18 
  401ca6:	48 ba cc c4 13 54 07 	movabs rdx,0x690f0075413c4cc
  401cad:	f0 90 06 
  401cb0:	48 89 85 d0 42 00 00 	mov    QWORD PTR [rbp+0x42d0],rax
  401cb7:	48 89 95 d8 42 00 00 	mov    QWORD PTR [rbp+0x42d8],rdx
  401cbe:	48 b8 a8 e0 fe a3 e0 	movabs rax,0x1812ffe0a3fee0a8
  401cc5:	ff 12 18 
  401cc8:	48 ba d3 fd 90 02 12 	movabs rdx,0xf02de0120290fdd3
  401ccf:	e0 2d f0 
  401cd2:	48 89 85 e0 42 00 00 	mov    QWORD PTR [rbp+0x42e0],rax
  401cd9:	48 89 95 e8 42 00 00 	mov    QWORD PTR [rbp+0x42e8],rdx
  401ce0:	48 b8 90 02 15 e0 fd 	movabs rax,0x2f1274fde0150290
  401ce7:	74 12 2f 
  401cea:	48 ba 12 18 d5 ff c3 	movabs rdx,0x909fedc3ffd51812
  401cf1:	ed 9f 90 
  401cf4:	48 89 85 f0 42 00 00 	mov    QWORD PTR [rbp+0x42f0],rax
  401cfb:	48 89 95 f8 42 00 00 	mov    QWORD PTR [rbp+0x42f8],rdx
  401d02:	48 b8 02 15 f0 12 19 	movabs rax,0x202291912f01502
  401d09:	29 02 02 
  401d0c:	48 ba c5 90 02 13 74 	movabs rdx,0x90f00174130290c5
  401d13:	01 f0 90 
  401d16:	48 89 85 00 43 00 00 	mov    QWORD PTR [rbp+0x4300],rax
  401d1d:	48 89 95 08 43 00 00 	mov    QWORD PTR [rbp+0x4308],rdx
  401d24:	48 b8 06 f4 e0 ff 02 	movabs rax,0x12ab0402ffe0f406
  401d2b:	04 ab 12 
  401d2e:	48 ba 0d 43 12 0d 70 	movabs rdx,0x122460700d12430d
  401d35:	60 24 12 
  401d38:	48 89 85 10 43 00 00 	mov    QWORD PTR [rbp+0x4310],rax
  401d3f:	48 89 95 18 43 00 00 	mov    QWORD PTR [rbp+0x4318],rdx
  401d46:	48 b8 19 66 70 1f 12 	movabs rax,0x6f7c19121f706619
  401d4d:	19 7c 6f 
  401d50:	48 ba 70 19 90 02 13 	movabs rdx,0x164e01302901970
  401d57:	e0 64 01 
  401d5a:	48 89 85 20 43 00 00 	mov    QWORD PTR [rbp+0x4320],rax
  401d61:	48 89 95 28 43 00 00 	mov    QWORD PTR [rbp+0x4328],rdx
  401d68:	48 b8 70 11 a3 e0 64 	movabs rax,0xb700264e0a31170
  401d6f:	02 70 0b 
  401d72:	48 ba 90 04 63 74 ca 	movabs rdx,0xff0c12ca74630490
  401d79:	12 0c ff 
  401d7c:	48 89 85 30 43 00 00 	mov    QWORD PTR [rbp+0x4330],rax
  401d83:	48 89 95 38 43 00 00 	mov    QWORD PTR [rbp+0x4338],rdx
  401d8a:	48 b8 02 02 31 80 fe 	movabs rax,0x430d12fe80310202
  401d91:	12 0d 43 
  401d94:	48 ba 12 0d 70 60 1f 	movabs rdx,0x6619121f60700d12
  401d9b:	12 19 66 
  401d9e:	48 89 85 40 43 00 00 	mov    QWORD PTR [rbp+0x4340],rax
  401da5:	48 89 95 48 43 00 00 	mov    QWORD PTR [rbp+0x4348],rdx
  401dac:	48 b8 70 1a 12 19 7c 	movabs rax,0x1407b57c19121a70
  401db3:	b5 07 14 
  401db6:	48 ba 90 02 13 e0 64 	movabs rdx,0xc700164e0130290
  401dbd:	01 70 0c 
  401dc0:	48 89 85 50 43 00 00 	mov    QWORD PTR [rbp+0x4350],rax
  401dc7:	48 89 95 58 43 00 00 	mov    QWORD PTR [rbp+0x4358],rdx
  401dce:	48 b8 a3 e0 64 03 70 	movabs rax,0x1c1206700364e0a3
  401dd5:	06 12 1c 
  401dd8:	48 ba d0 02 02 31 80 	movabs rdx,0xd12fe80310202d0
  401ddf:	fe 12 0d 
  401de2:	48 89 85 60 43 00 00 	mov    QWORD PTR [rbp+0x4360],rax
  401de9:	48 89 95 68 43 00 00 	mov    QWORD PTR [rbp+0x4368],rdx
  401df0:	48 b8 7a ef f0 12 19 	movabs rax,0x1200331912f0ef7a
  401df7:	33 00 12 
  401dfa:	48 ba 19 29 90 06 a8 	movabs rdx,0x470e0a806902919
  401e01:	e0 70 04 
  401e04:	48 89 85 70 43 00 00 	mov    QWORD PTR [rbp+0x4370],rax
  401e0b:	48 89 95 78 43 00 00 	mov    QWORD PTR [rbp+0x4378],rdx
  401e12:	48 b8 a3 e0 64 64 70 	movabs rax,0x1c12f0706464e0a3
  401e19:	f0 12 1c 
  401e1c:	48 ba 79 90 00 10 e0 	movabs rdx,0x700964e010009079
  401e23:	64 09 70 
  401e26:	48 89 85 80 43 00 00 	mov    QWORD PTR [rbp+0x4380],rax
  401e2d:	48 89 95 88 43 00 00 	mov    QWORD PTR [rbp+0x4388],rdx
  401e34:	48 b8 50 90 02 14 e0 	movabs rax,0x700164e014029050
  401e3b:	64 01 70 
  401e3e:	48 ba 48 90 06 f0 e0 	movabs rdx,0x1d12ffe0f0069048
  401e45:	ff 12 1d 
  401e48:	48 89 85 90 43 00 00 	mov    QWORD PTR [rbp+0x4390],rax
  401e4f:	48 89 95 98 43 00 00 	mov    QWORD PTR [rbp+0x4398],rdx
  401e56:	48 b8 d3 90 06 f1 e0 	movabs rax,0x1d12ffe0f10690d3
  401e5d:	ff 12 1d 
  401e60:	48 ba d3 90 06 f2 e0 	movabs rdx,0x12ffe0f20690d3
  401e67:	ff 12 00 
  401e6a:	48 89 85 a0 43 00 00 	mov    QWORD PTR [rbp+0x43a0],rax
  401e71:	48 89 95 a8 43 00 00 	mov    QWORD PTR [rbp+0x43a8],rdx
  401e78:	48 c7 85 b0 43 00 00 	mov    QWORD PTR [rbp+0x43b0],0x0
  401e7f:	00 00 00 00 
  401e83:	c7 85 b8 43 00 00 00 	mov    DWORD PTR [rbp+0x43b8],0x0
  401e8a:	00 00 00 
  401e8d:	66 c7 85 bc 43 00 00 	mov    WORD PTR [rbp+0x43bc],0x0
  401e94:	00 00 
  401e96:	48 b8 00 58 83 fe ff 	movabs rax,0xfffe835800
  401e9d:	00 00 00 
  401ea0:	ba 00 00 00 00       	mov    edx,0x0
  401ea5:	48 89 85 a0 41 00 00 	mov    QWORD PTR [rbp+0x41a0],rax
  401eac:	48 89 95 a8 41 00 00 	mov    QWORD PTR [rbp+0x41a8],rdx
  401eb3:	48 8d 95 b0 41 00 00 	lea    rdx,[rbp+0x41b0]
  401eba:	b8 00 00 00 00       	mov    eax,0x0
  401ebf:	b9 1f 00 00 00       	mov    ecx,0x1f
  401ec4:	48 89 d7             	mov    rdi,rdx
  401ec7:	f3 48 ab             	rep stos QWORD PTR es:[rdi],rax
  401eca:	48 89 fa             	mov    rdx,rdi
  401ecd:	89 02                	mov    DWORD PTR [rdx],eax
  401ecf:	48 83 c2 04          	add    rdx,0x4
  401ed3:	66 89 02             	mov    WORD PTR [rdx],ax
  401ed6:	48 83 c2 02          	add    rdx,0x2
  401eda:	48 b8 1d d3 90 06 f3 	movabs rax,0x12ffe0f30690d31d
  401ee1:	e0 ff 12 
  401ee4:	48 ba 1d d3 90 06 dd 	movabs rdx,0x12ffe0dd0690d31d
  401eeb:	e0 ff 12 
  401eee:	48 89 85 90 40 00 00 	mov    QWORD PTR [rbp+0x4090],rax
  401ef5:	48 89 95 98 40 00 00 	mov    QWORD PTR [rbp+0x4098],rdx
  401efc:	48 b8 1d d3 90 06 de 	movabs rax,0x12ffe0de0690d31d
  401f03:	e0 ff 12 
  401f06:	48 ba 1d d3 90 06 df 	movabs rdx,0x12ffe0df0690d31d
  401f0d:	e0 ff 12 
  401f10:	48 89 85 a0 40 00 00 	mov    QWORD PTR [rbp+0x40a0],rax
  401f17:	48 89 95 a8 40 00 00 	mov    QWORD PTR [rbp+0x40a8],rdx
  401f1e:	48 b8 1d d3 90 06 e0 	movabs rax,0x12ffe0e00690d31d
  401f25:	e0 ff 12 
  401f28:	48 ba 1d d3 90 04 5d 	movabs rdx,0x12ffe05d0490d31d
  401f2f:	e0 ff 12 
  401f32:	48 89 85 b0 40 00 00 	mov    QWORD PTR [rbp+0x40b0],rax
  401f39:	48 89 95 b8 40 00 00 	mov    QWORD PTR [rbp+0x40b8],rdx
  401f40:	48 b8 1d d3 80 fe 80 	movabs rax,0xd12fe80fe80d31d
  401f47:	fe 12 0d 
  401f4a:	48 ba 55 70 1d 12 0d 	movabs rdx,0x6fe0810d121d7055
  401f51:	81 e0 6f 
  401f54:	48 89 85 c0 40 00 00 	mov    QWORD PTR [rbp+0x40c0],rax
  401f5b:	48 89 95 c8 40 00 00 	mov    QWORD PTR [rbp+0x40c8],rdx
  401f62:	48 b8 70 16 12 0d 88 	movabs rax,0x706fe0880d121670
  401f69:	e0 6f 70 
  401f6c:	48 ba 0f 12 0d 8f e0 	movabs rdx,0x807b5e08f0d120f
  401f73:	b5 07 08 
  401f76:	48 89 85 d0 40 00 00 	mov    QWORD PTR [rbp+0x40d0],rax
  401f7d:	48 89 95 d8 40 00 00 	mov    QWORD PTR [rbp+0x40d8],rdx
  401f84:	48 b8 12 1d df 90 04 	movabs rax,0x4480980490df1d12
  401f8b:	98 80 44 
  401f8e:	48 ba 12 1d df 7f 90 	movabs rdx,0xd31d12907fdf1d12
  401f95:	12 1d d3 
  401f98:	48 89 85 e0 40 00 00 	mov    QWORD PTR [rbp+0x40e0],rax
  401f9f:	48 89 95 e8 40 00 00 	mov    QWORD PTR [rbp+0x40e8],rdx
  401fa6:	48 b8 7f 17 80 49 12 	movabs rax,0x70550d124980177f
  401fad:	0d 55 70 
  401fb0:	48 ba 3a 12 0d 81 e0 	movabs rdx,0x33706fe0810d123a
  401fb7:	6f 70 33 
  401fba:	48 89 85 f0 40 00 00 	mov    QWORD PTR [rbp+0x40f0],rax
  401fc1:	48 89 95 f8 40 00 00 	mov    QWORD PTR [rbp+0x40f8],rdx
  401fc8:	48 b8 12 0d 88 e0 6f 	movabs rax,0x122c706fe0880d12
  401fcf:	70 2c 12 
  401fd2:	48 ba 0d 8f e0 6f 70 	movabs rdx,0x1d1225706fe08f0d
  401fd9:	25 12 1d 
  401fdc:	48 89 85 00 41 00 00 	mov    QWORD PTR [rbp+0x4100],rax
  401fe3:	48 89 95 08 41 00 00 	mov    QWORD PTR [rbp+0x4108],rdx
  401fea:	48 b8 df 90 04 99 ef 	movabs rax,0x1d12f0ef990490df
  401ff1:	f0 12 1d 
  401ff4:	48 ba df 90 04 9a ef 	movabs rdx,0x1d12f0ef9a0490df
  401ffb:	f0 12 1d 
  401ffe:	48 89 85 10 41 00 00 	mov    QWORD PTR [rbp+0x4110],rax
  402005:	48 89 95 18 41 00 00 	mov    QWORD PTR [rbp+0x4118],rdx
  40200c:	48 b8 df 90 04 9b ef 	movabs rax,0x1d12f0ef9b0490df
  402013:	f0 12 1d 
  402016:	48 ba df 90 04 9c ef 	movabs rdx,0xff0c12ef9c0490df
  40201d:	12 0c ff 
  402020:	48 89 85 20 41 00 00 	mov    QWORD PTR [rbp+0x4120],rax
  402027:	48 89 95 28 41 00 00 	mov    QWORD PTR [rbp+0x4128],rdx
  40202e:	48 b8 02 0c ac 12 0d 	movabs rax,0x907f140d12ac0c02
  402035:	14 7f 90 
  402038:	48 ba 12 1d d3 7f 17 	movabs rdx,0xd31d12177fd31d12
  40203f:	12 1d d3 
  402042:	48 89 85 30 41 00 00 	mov    QWORD PTR [rbp+0x4130],rax
  402049:	48 89 95 38 41 00 00 	mov    QWORD PTR [rbp+0x4138],rdx
  402050:	48 b8 02 02 31 12 0d 	movabs rax,0xf0ef7a0d12310202
  402057:	7a ef f0 
  40205a:	48 ba 12 1d df 90 00 	movabs rdx,0xf0ef110090df1d12
  402061:	11 ef f0 
  402064:	48 89 85 40 41 00 00 	mov    QWORD PTR [rbp+0x4140],rax
  40206b:	48 89 95 48 41 00 00 	mov    QWORD PTR [rbp+0x4148],rdx
  402072:	48 b8 12 1c 79 90 00 	movabs rax,0xffe00e0090791c12
  402079:	0e e0 ff 
  40207c:	48 ba 12 1d d3 90 00 	movabs rdx,0x24e00e0090d31d12
  402083:	0e e0 24 
  402086:	48 89 85 50 41 00 00 	mov    QWORD PTR [rbp+0x4150],rax
  40208d:	48 89 95 58 41 00 00 	mov    QWORD PTR [rbp+0x4158],rdx
  402094:	48 b8 ef 60 40 24 47 	movabs rax,0x240a6047244060ef
  40209b:	60 0a 24 
  40209e:	48 ba 31 60 03 02 02 	movabs rdx,0xc02310202036031
  4020a5:	31 02 0c 
  4020a8:	48 89 85 60 41 00 00 	mov    QWORD PTR [rbp+0x4160],rax
  4020af:	48 89 95 68 41 00 00 	mov    QWORD PTR [rbp+0x4168],rdx
  4020b6:	48 b8 ac 12 19 33 90 	movabs rax,0xe0110090331912ac
  4020bd:	00 11 e0 
  4020c0:	48 ba ff 90 06 a8 e0 	movabs rdx,0xe0a3fce0a80690ff
  4020c7:	fc a3 e0 
  4020ca:	48 89 85 70 41 00 00 	mov    QWORD PTR [rbp+0x4170],rax
  4020d1:	48 89 95 78 41 00 00 	mov    QWORD PTR [rbp+0x4178],rdx
  4020d8:	48 b8 fd c3 9f 74 80 	movabs rax,0x64ecf880749fc3fd
  4020df:	f8 ec 64 
  4020e2:	48 ba 80 98 50 14 74 	movabs rdx,0x2d127414509880
  4020e9:	12 2d 00 
  4020ec:	48 89 85 80 41 00 00 	mov    QWORD PTR [rbp+0x4180],rax
  4020f3:	48 89 95 88 41 00 00 	mov    QWORD PTR [rbp+0x4188],rdx
  4020fa:	48 c7 85 90 41 00 00 	mov    QWORD PTR [rbp+0x4190],0x0
  402101:	00 00 00 00 
  402105:	c7 85 98 41 00 00 00 	mov    DWORD PTR [rbp+0x4198],0x0
  40210c:	00 00 00 
  40210f:	66 c7 85 9c 41 00 00 	mov    WORD PTR [rbp+0x419c],0x0
  402116:	00 00 
  402118:	48 b8 00 58 84 fd ff 	movabs rax,0xfffd845800
  40211f:	00 00 00 
  402122:	ba 00 00 00 00       	mov    edx,0x0
  402127:	48 89 85 80 3f 00 00 	mov    QWORD PTR [rbp+0x3f80],rax
  40212e:	48 89 95 88 3f 00 00 	mov    QWORD PTR [rbp+0x3f88],rdx
  402135:	48 8d 95 90 3f 00 00 	lea    rdx,[rbp+0x3f90]
  40213c:	b8 00 00 00 00       	mov    eax,0x0
  402141:	b9 1f 00 00 00       	mov    ecx,0x1f
  402146:	48 89 d7             	mov    rdi,rdx
  402149:	f3 48 ab             	rep stos QWORD PTR es:[rdi],rax
  40214c:	48 89 fa             	mov    rdx,rdi
  40214f:	89 02                	mov    DWORD PTR [rdx],eax
  402151:	48 83 c2 04          	add    rdx,0x4
  402155:	66 89 02             	mov    WORD PTR [rdx],ax
  402158:	48 83 c2 02          	add    rdx,0x2
  40215c:	48 b8 f5 82 74 00 3c 	movabs rax,0xe083f53c007482f5
  402163:	f5 83 e0 
  402166:	48 ba ff 12 1d d3 12 	movabs rdx,0x80291912d31d12ff
  40216d:	19 29 80 
  402170:	48 89 85 70 3e 00 00 	mov    QWORD PTR [rbp+0x3e70],rax
  402177:	48 89 95 78 3e 00 00 	mov    QWORD PTR [rbp+0x3e78],rdx
  40217e:	48 b8 d4 02 0c ac 90 	movabs rax,0x74120090ac0c02d4
  402185:	00 12 74 
  402188:	48 ba 7e f0 a3 74 33 	movabs rdx,0x74a3f03374a3f07e
  40218f:	f0 a3 74 
  402192:	48 89 85 80 3e 00 00 	mov    QWORD PTR [rbp+0x3e80],rax
  402199:	48 89 95 88 3e 00 00 	mov    QWORD PTR [rbp+0x3e88],rdx
  4021a0:	48 b8 a2 f0 a3 74 78 	movabs rax,0x74a3f07874a3f0a2
  4021a7:	f0 a3 74 
  4021aa:	48 ba b3 f0 a3 74 61 	movabs rdx,0x74a3f06174a3f0b3
  4021b1:	f0 a3 74 
  4021b4:	48 89 85 90 3e 00 00 	mov    QWORD PTR [rbp+0x3e90],rax
  4021bb:	48 89 95 98 3e 00 00 	mov    QWORD PTR [rbp+0x3e98],rdx
  4021c2:	48 b8 7a f0 a3 74 30 	movabs rax,0x74a3f03074a3f07a
  4021c9:	f0 a3 74 
  4021cc:	48 ba 9b f0 a3 74 18 	movabs rdx,0x74a3f01874a3f09b
  4021d3:	f0 a3 74 
  4021d6:	48 89 85 a0 3e 00 00 	mov    QWORD PTR [rbp+0x3ea0],rax
  4021dd:	48 89 95 a8 3e 00 00 	mov    QWORD PTR [rbp+0x3ea8],rdx
  4021e4:	48 b8 22 12 19 86 74 	movabs rax,0xa3f0377486191222
  4021eb:	37 f0 a3 
  4021ee:	48 ba 74 2a f0 a3 74 	movabs rdx,0xa3f02374a3f02a74
  4021f5:	23 f0 a3 
  4021f8:	48 89 85 b0 3e 00 00 	mov    QWORD PTR [rbp+0x3eb0],rax
  4021ff:	48 89 95 b8 3e 00 00 	mov    QWORD PTR [rbp+0x3eb8],rdx
  402206:	48 b8 74 19 f0 a3 74 	movabs rax,0xa3f04574a3f01974
  40220d:	45 f0 a3 
  402210:	48 ba 74 90 f0 a3 74 	movabs rdx,0xa3f04c74a3f09074
  402217:	4c f0 a3 
  40221a:	48 89 85 c0 3e 00 00 	mov    QWORD PTR [rbp+0x3ec0],rax
  402221:	48 89 95 c8 3e 00 00 	mov    QWORD PTR [rbp+0x3ec8],rdx
  402228:	48 b8 74 4a f0 a3 74 	movabs rax,0xa3f0d874a3f04a74
  40222f:	d8 f0 a3 
  402232:	48 ba 74 46 f0 a3 74 	movabs rdx,0xa3f05474a3f04674
  402239:	54 f0 a3 
  40223c:	48 89 85 d0 3e 00 00 	mov    QWORD PTR [rbp+0x3ed0],rax
  402243:	48 89 95 d8 3e 00 00 	mov    QWORD PTR [rbp+0x3ed8],rdx
  40224a:	48 b8 74 99 f0 12 19 	movabs rax,0xfde43b1912f09974
  402251:	3b e4 fd 
  402254:	48 ba 7f 01 12 11 e5 	movabs rdx,0x3b1912e51112017f
  40225b:	12 19 3b 
  40225e:	48 89 85 e0 3e 00 00 	mov    QWORD PTR [rbp+0x3ee0],rax
  402265:	48 89 95 e8 3e 00 00 	mov    QWORD PTR [rbp+0x3ee8],rdx
  40226c:	48 b8 7d 10 7f 01 12 	movabs rax,0x2e51112017f107d
  402273:	11 e5 02 
  402276:	48 ba 0c ac 12 0d 96 	movabs rdx,0x122074960d12ac0c
  40227d:	74 20 12 
  402280:	48 89 85 f0 3e 00 00 	mov    QWORD PTR [rbp+0x3ef0],rax
  402287:	48 89 95 f8 3e 00 00 	mov    QWORD PTR [rbp+0x3ef8],rdx
  40228e:	48 b8 19 8d 74 40 f0 	movabs rax,0x2874a3f040748d19
  402295:	a3 74 28 
  402298:	48 ba f0 74 02 12 19 	movabs rdx,0x907119120274f0
  40229f:	71 90 00 
  4022a2:	48 89 85 00 3f 00 00 	mov    QWORD PTR [rbp+0x3f00],rax
  4022a9:	48 89 95 08 3f 00 00 	mov    QWORD PTR [rbp+0x3f08],rdx
  4022b0:	48 b8 18 12 19 86 74 	movabs rax,0xe4f0027486191218
  4022b7:	02 f0 e4 
  4022ba:	48 ba a3 f0 a3 74 2c 	movabs rdx,0x74a3f02c74a3f0a3
  4022c1:	f0 a3 74 
  4022c4:	48 89 85 10 3f 00 00 	mov    QWORD PTR [rbp+0x3f10],rax
  4022cb:	48 89 95 18 3f 00 00 	mov    QWORD PTR [rbp+0x3f18],rdx
  4022d2:	48 b8 30 f0 a3 74 01 	movabs rax,0x490f00174a3f030
  4022d9:	f0 90 04 
  4022dc:	48 ba 98 e0 90 00 1f 	movabs rdx,0x74a3f01f0090e098
  4022e3:	f0 a3 74 
  4022e6:	48 89 85 20 3f 00 00 	mov    QWORD PTR [rbp+0x3f20],rax
  4022ed:	48 89 95 28 3f 00 00 	mov    QWORD PTR [rbp+0x3f28],rdx
  4022f4:	48 b8 23 12 19 8d 04 	movabs rax,0x117ff0048d191223
  4022fb:	f0 7f 11 
  4022fe:	48 ba 02 0c df 12 19 	movabs rdx,0xd12331912df0c02
  402305:	33 12 0d 
  402308:	48 89 85 30 3f 00 00 	mov    QWORD PTR [rbp+0x3f30],rax
  40230f:	48 89 95 38 3f 00 00 	mov    QWORD PTR [rbp+0x3f38],rdx
  402316:	48 b8 35 c3 90 06 a9 	movabs rax,0xb94e0a90690c335
  40231d:	e0 94 0b 
  402320:	48 ba 90 06 a8 e0 64 	movabs rdx,0x80948064e0a80690
  402327:	80 94 80 
  40232a:	48 89 85 40 3f 00 00 	mov    QWORD PTR [rbp+0x3f40],rax
  402331:	48 89 95 48 3f 00 00 	mov    QWORD PTR [rbp+0x3f48],rdx
  402338:	48 b8 40 ec 90 00 11 	movabs rax,0xe64e0110090ec40
  40233f:	e0 64 0e 
  402342:	48 ba 70 04 ff 02 0c 	movabs rdx,0x1d12df0c02ff0470
  402349:	df 12 1d 
  40234c:	48 89 85 50 3f 00 00 	mov    QWORD PTR [rbp+0x3f50],rax
  402353:	48 89 95 58 3f 00 00 	mov    QWORD PTR [rbp+0x3f58],rdx
  40235a:	48 b8 df 90 06 f4 ef 	movabs rax,0x1d12f0eff40690df
  402361:	f0 12 1d 
  402364:	48 ba df 90 06 f5 ef 	movabs rdx,0x12f0eff50690df
  40236b:	f0 12 00 
  40236e:	48 89 85 60 3f 00 00 	mov    QWORD PTR [rbp+0x3f60],rax
  402375:	48 89 95 68 3f 00 00 	mov    QWORD PTR [rbp+0x3f68],rdx
  40237c:	48 c7 85 70 3f 00 00 	mov    QWORD PTR [rbp+0x3f70],0x0
  402383:	00 00 00 00 
  402387:	c7 85 78 3f 00 00 00 	mov    DWORD PTR [rbp+0x3f78],0x0
  40238e:	00 00 00 
  402391:	66 c7 85 7c 3f 00 00 	mov    WORD PTR [rbp+0x3f7c],0x0
  402398:	00 00 
  40239a:	48 b8 00 58 85 fc ff 	movabs rax,0xfffc855800
  4023a1:	00 00 00 
  4023a4:	ba 00 00 00 00       	mov    edx,0x0
  4023a9:	48 89 85 60 3d 00 00 	mov    QWORD PTR [rbp+0x3d60],rax
  4023b0:	48 89 95 68 3d 00 00 	mov    QWORD PTR [rbp+0x3d68],rdx
  4023b7:	48 8d 95 70 3d 00 00 	lea    rdx,[rbp+0x3d70]
  4023be:	b8 00 00 00 00       	mov    eax,0x0
  4023c3:	b9 1f 00 00 00       	mov    ecx,0x1f
  4023c8:	48 89 d7             	mov    rdi,rdx
  4023cb:	f3 48 ab             	rep stos QWORD PTR es:[rdi],rax
  4023ce:	48 89 fa             	mov    rdx,rdi
  4023d1:	89 02                	mov    DWORD PTR [rdx],eax
  4023d3:	48 83 c2 04          	add    rdx,0x4
  4023d7:	66 89 02             	mov    WORD PTR [rdx],ax
  4023da:	48 83 c2 02          	add    rdx,0x2
  4023de:	48 b8 1d df 90 06 f6 	movabs rax,0x90f0eff60690df1d
  4023e5:	ef f0 90 
  4023e8:	48 ba 06 a8 e4 f0 a3 	movabs rdx,0xf01174a3f0e4a806
  4023ef:	74 11 f0 
  4023f2:	48 89 85 50 3c 00 00 	mov    QWORD PTR [rbp+0x3c50],rax
  4023f9:	48 89 95 58 3c 00 00 	mov    QWORD PTR [rbp+0x3c58],rdx
  402400:	48 b8 90 00 11 e0 ff 	movabs rax,0x690c3ffe0110090
  402407:	c3 90 06 
  40240a:	48 ba a9 e0 9f 74 80 	movabs rdx,0x690f880749fe0a9
  402411:	f8 90 06 
  402414:	48 89 85 60 3c 00 00 	mov    QWORD PTR [rbp+0x3c60],rax
  40241b:	48 89 95 68 3c 00 00 	mov    QWORD PTR [rbp+0x3c68],rdx
  402422:	48 b8 a8 e0 64 80 98 	movabs rax,0x120550988064e0a8
  402429:	50 05 12 
  40242c:	48 ba 0d 35 80 e4 12 	movabs rdx,0x74960d12e480350d
  402433:	0d 96 74 
  402436:	48 89 85 70 3c 00 00 	mov    QWORD PTR [rbp+0x3c70],rax
  40243d:	48 89 95 78 3c 00 00 	mov    QWORD PTR [rbp+0x3c78],rdx
  402444:	48 b8 22 f0 a3 74 18 	movabs rax,0x74a3f01874a3f022
  40244b:	f0 a3 74 
  40244e:	48 ba 09 f0 74 04 12 	movabs rdx,0x907119120474f009
  402455:	19 71 90 
  402458:	48 89 85 80 3c 00 00 	mov    QWORD PTR [rbp+0x3c80],rax
  40245f:	48 89 95 88 3c 00 00 	mov    QWORD PTR [rbp+0x3c88],rdx
  402466:	48 b8 00 17 f0 90 06 	movabs rax,0x90e0f40690f01700
  40246d:	f4 e0 90 
  402470:	48 ba 00 18 f0 90 06 	movabs rdx,0x90e0f50690f01800
  402477:	f5 e0 90 
  40247a:	48 89 85 90 3c 00 00 	mov    QWORD PTR [rbp+0x3c90],rax
  402481:	48 89 95 98 3c 00 00 	mov    QWORD PTR [rbp+0x3c98],rdx
  402488:	48 b8 00 19 12 18 de 	movabs rax,0xf00690de18121900
  40248f:	90 06 f0 
  402492:	48 ba e0 90 00 1f f0 	movabs rdx,0xf10690f01f0090e0
  402499:	90 06 f1 
  40249c:	48 89 85 a0 3c 00 00 	mov    QWORD PTR [rbp+0x3ca0],rax
  4024a3:	48 89 95 a8 3c 00 00 	mov    QWORD PTR [rbp+0x3ca8],rdx
  4024aa:	48 b8 e0 90 00 20 f0 	movabs rax,0xf20690f0200090e0
  4024b1:	90 06 f2 
  4024b4:	48 ba e0 90 00 21 f0 	movabs rdx,0xf30690f0210090e0
  4024bb:	90 06 f3 
  4024be:	48 89 85 b0 3c 00 00 	mov    QWORD PTR [rbp+0x3cb0],rax
  4024c5:	48 89 95 b8 3c 00 00 	mov    QWORD PTR [rbp+0x3cb8],rdx
  4024cc:	48 b8 e0 90 00 22 12 	movabs rax,0xa3de1812220090e0
  4024d3:	18 de a3 
  4024d6:	48 ba f0 90 06 de e0 	movabs rdx,0x290090e0de0690f0
  4024dd:	90 00 29 
  4024e0:	48 89 85 c0 3c 00 00 	mov    QWORD PTR [rbp+0x3cc0],rax
  4024e7:	48 89 95 c8 3c 00 00 	mov    QWORD PTR [rbp+0x3cc8],rdx
  4024ee:	48 b8 f0 90 06 df e0 	movabs rax,0x2a0090e0df0690f0
  4024f5:	90 00 2a 
  4024f8:	48 ba f0 90 06 e0 e0 	movabs rdx,0x2b0090e0e00690f0
  4024ff:	90 00 2b 
  402502:	48 89 85 d0 3c 00 00 	mov    QWORD PTR [rbp+0x3cd0],rax
  402509:	48 89 95 d8 3c 00 00 	mov    QWORD PTR [rbp+0x3cd8],rdx
  402510:	48 b8 f0 7f 1a 02 0c 	movabs rax,0x1c12df0c021a7ff0
  402517:	df 12 1c 
  40251a:	48 ba 79 90 00 0f e0 	movabs rdx,0x700164e00f009079
  402521:	64 01 70 
  402524:	48 89 85 e0 3c 00 00 	mov    QWORD PTR [rbp+0x3ce0],rax
  40252b:	48 89 95 e8 3c 00 00 	mov    QWORD PTR [rbp+0x3ce8],rdx
  402532:	48 b8 04 ff 02 0c df 	movabs rax,0x210d12df0c02ff04
  402539:	12 0d 21 
  40253c:	48 ba 90 00 12 74 32 	movabs rdx,0x8619123274120090
  402543:	12 19 86 
  402546:	48 89 85 f0 3c 00 00 	mov    QWORD PTR [rbp+0x3cf0],rax
  40254d:	48 89 95 f8 3c 00 00 	mov    QWORD PTR [rbp+0x3cf8],rdx
  402554:	48 b8 74 10 f0 a3 12 	movabs rax,0x748d1912a3f01074
  40255b:	19 8d 74 
  40255e:	48 ba 0f f0 90 04 63 	movabs rdx,0x164e0630490f00f
  402565:	e0 64 01 
  402568:	48 89 85 00 3d 00 00 	mov    QWORD PTR [rbp+0x3d00],rax
  40256f:	48 89 95 08 3d 00 00 	mov    QWORD PTR [rbp+0x3d08],rdx
  402576:	48 b8 70 36 90 00 18 	movabs rax,0xf043741800903670
  40257d:	74 43 f0 
  402580:	48 ba a3 74 41 f0 a3 	movabs rdx,0xf05274a3f04174a3
  402587:	74 52 f0 
  40258a:	48 89 85 10 3d 00 00 	mov    QWORD PTR [rbp+0x3d10],rax
  402591:	48 89 95 18 3d 00 00 	mov    QWORD PTR [rbp+0x3d18],rdx
  402598:	48 b8 a3 74 44 12 19 	movabs rax,0x42745319124474a3
  40259f:	53 74 42 
  4025a2:	48 ba f0 a3 74 4c f0 	movabs rdx,0x4f74a3f04c74a3f0
  4025a9:	a3 74 4f 
  4025ac:	48 89 85 20 3d 00 00 	mov    QWORD PTR [rbp+0x3d20],rax
  4025b3:	48 89 95 28 3d 00 00 	mov    QWORD PTR [rbp+0x3d28],rdx
  4025ba:	48 b8 f0 a3 74 43 f0 	movabs rax,0x4b74a3f04374a3f0
  4025c1:	a3 74 4b 
  4025c4:	48 ba f0 a3 74 45 f0 	movabs rdx,0x1214a3f04574a3f0
  4025cb:	a3 14 12 
  4025ce:	48 89 85 30 3d 00 00 	mov    QWORD PTR [rbp+0x3d30],rax
  4025d5:	48 89 95 38 3d 00 00 	mov    QWORD PTR [rbp+0x3d38],rdx
  4025dc:	48 b8 19 53 f0 a3 f0 	movabs rax,0x7c0702f0a3f05319
  4025e3:	02 07 7c 
  4025e6:	48 ba 90 06 e1 e0 90 	movabs rdx,0x180090e0e10690
  4025ed:	00 18 00 
  4025f0:	48 89 85 40 3d 00 00 	mov    QWORD PTR [rbp+0x3d40],rax
  4025f7:	48 89 95 48 3d 00 00 	mov    QWORD PTR [rbp+0x3d48],rdx
  4025fe:	48 c7 85 50 3d 00 00 	mov    QWORD PTR [rbp+0x3d50],0x0
  402605:	00 00 00 00 
  402609:	c7 85 58 3d 00 00 00 	mov    DWORD PTR [rbp+0x3d58],0x0
  402610:	00 00 00 
  402613:	66 c7 85 5c 3d 00 00 	mov    WORD PTR [rbp+0x3d5c],0x0
  40261a:	00 00 
  40261c:	48 b8 00 58 86 fb ff 	movabs rax,0xfffb865800
  402623:	00 00 00 
  402626:	ba 00 00 00 00       	mov    edx,0x0
  40262b:	48 89 85 40 3b 00 00 	mov    QWORD PTR [rbp+0x3b40],rax
  402632:	48 89 95 48 3b 00 00 	mov    QWORD PTR [rbp+0x3b48],rdx
  402639:	48 8d 95 50 3b 00 00 	lea    rdx,[rbp+0x3b50]
  402640:	b8 00 00 00 00       	mov    eax,0x0
  402645:	b9 1f 00 00 00       	mov    ecx,0x1f
  40264a:	48 89 d7             	mov    rdi,rdx
  40264d:	f3 48 ab             	rep stos QWORD PTR es:[rdi],rax
  402650:	48 89 fa             	mov    rdx,rdi
  402653:	89 02                	mov    DWORD PTR [rdx],eax
  402655:	48 83 c2 04          	add    rdx,0x4
  402659:	66 89 02             	mov    WORD PTR [rdx],ax
  40265c:	48 83 c2 02          	add    rdx,0x2
  402660:	48 b8 f0 90 06 e2 e0 	movabs rax,0x190090e0e20690f0
  402667:	90 00 19 
  40266a:	48 ba f0 90 06 e3 e0 	movabs rdx,0x1a0090e0e30690f0
  402671:	90 00 1a 
  402674:	48 89 85 30 3a 00 00 	mov    QWORD PTR [rbp+0x3a30],rax
  40267b:	48 89 95 38 3a 00 00 	mov    QWORD PTR [rbp+0x3a38],rdx
  402682:	48 b8 f0 90 06 e4 e0 	movabs rax,0x1b0090e0e40690f0
  402689:	90 00 1b 
  40268c:	48 ba f0 90 06 e5 e0 	movabs rdx,0x1c0090e0e50690f0
  402693:	90 00 1c 
  402696:	48 89 85 40 3a 00 00 	mov    QWORD PTR [rbp+0x3a40],rax
  40269d:	48 89 95 48 3a 00 00 	mov    QWORD PTR [rbp+0x3a48],rdx
  4026a4:	48 b8 f0 90 06 e6 e0 	movabs rax,0x1d0090e0e60690f0
  4026ab:	90 00 1d 
  4026ae:	48 ba f0 90 06 e7 e0 	movabs rdx,0x1e0090e0e70690f0
  4026b5:	90 00 1e 
  4026b8:	48 89 85 50 3a 00 00 	mov    QWORD PTR [rbp+0x3a50],rax
  4026bf:	48 89 95 58 3a 00 00 	mov    QWORD PTR [rbp+0x3a58],rdx
  4026c6:	48 b8 f0 90 06 e8 e0 	movabs rax,0x1f0090e0e80690f0
  4026cd:	90 00 1f 
  4026d0:	48 ba f0 90 06 e9 e0 	movabs rdx,0x200090e0e90690f0
  4026d7:	90 00 20 
  4026da:	48 89 85 60 3a 00 00 	mov    QWORD PTR [rbp+0x3a60],rax
  4026e1:	48 89 95 68 3a 00 00 	mov    QWORD PTR [rbp+0x3a68],rdx
  4026e8:	48 b8 f0 90 06 ea e0 	movabs rax,0x210090e0ea0690f0
  4026ef:	90 00 21 
  4026f2:	48 ba f0 90 06 eb e0 	movabs rdx,0x220090e0eb0690f0
  4026f9:	90 00 22 
  4026fc:	48 89 85 70 3a 00 00 	mov    QWORD PTR [rbp+0x3a70],rax
  402703:	48 89 95 78 3a 00 00 	mov    QWORD PTR [rbp+0x3a78],rdx
  40270a:	48 b8 f0 90 06 ec e0 	movabs rax,0x230090e0ec0690f0
  402711:	90 00 23 
  402714:	48 ba f0 90 06 ed e0 	movabs rdx,0x240090e0ed0690f0
  40271b:	90 00 24 
  40271e:	48 89 85 80 3a 00 00 	mov    QWORD PTR [rbp+0x3a80],rax
  402725:	48 89 95 88 3a 00 00 	mov    QWORD PTR [rbp+0x3a88],rdx
  40272c:	48 b8 f0 90 06 ee e0 	movabs rax,0x250090e0ee0690f0
  402733:	90 00 25 
  402736:	48 ba f0 90 04 58 e0 	movabs rdx,0x700164e0580490f0
  40273d:	64 01 70 
  402740:	48 89 85 90 3a 00 00 	mov    QWORD PTR [rbp+0x3a90],rax
  402747:	48 89 95 98 3a 00 00 	mov    QWORD PTR [rbp+0x3a98],rdx
  40274e:	48 b8 08 90 00 26 74 	movabs rax,0x80f02b7426009008
  402755:	2b f0 80 
  402758:	48 ba 08 90 06 ef e0 	movabs rdx,0x260090e0ef069008
  40275f:	90 00 26 
  402762:	48 89 85 a0 3a 00 00 	mov    QWORD PTR [rbp+0x3aa0],rax
  402769:	48 89 95 a8 3a 00 00 	mov    QWORD PTR [rbp+0x3aa8],rdx
  402770:	48 b8 f0 90 00 27 12 	movabs rax,0x90f11812270090f0
  402777:	18 f1 90 
  40277a:	48 ba 04 54 e0 90 00 	movabs rdx,0x90f0290090e05404
  402781:	29 f0 90 
  402784:	48 89 85 b0 3a 00 00 	mov    QWORD PTR [rbp+0x3ab0],rax
  40278b:	48 89 95 b8 3a 00 00 	mov    QWORD PTR [rbp+0x3ab8],rdx
  402792:	48 b8 04 55 e0 90 00 	movabs rax,0x18122a0090e05504
  402799:	2a 12 18 
  40279c:	48 ba ef 90 04 56 e0 	movabs rdx,0x2d0090e0560490ef
  4027a3:	90 00 2d 
  4027a6:	48 89 85 c0 3a 00 00 	mov    QWORD PTR [rbp+0x3ac0],rax
  4027ad:	48 89 95 c8 3a 00 00 	mov    QWORD PTR [rbp+0x3ac8],rdx
  4027b4:	48 b8 f0 90 04 57 e0 	movabs rax,0x2e0090e0570490f0
  4027bb:	90 00 2e 
  4027be:	48 ba 12 19 53 74 04 	movabs rdx,0x490f00474531912
  4027c5:	f0 90 04 
  4027c8:	48 89 85 d0 3a 00 00 	mov    QWORD PTR [rbp+0x3ad0],rax
  4027cf:	48 89 95 d8 3a 00 00 	mov    QWORD PTR [rbp+0x3ad8],rdx
  4027d6:	48 b8 50 e0 90 00 31 	movabs rax,0x490f0310090e050
  4027dd:	f0 90 04 
  4027e0:	48 ba 51 e0 90 00 32 	movabs rdx,0x490f0320090e051
  4027e7:	f0 90 04 
  4027ea:	48 89 85 e0 3a 00 00 	mov    QWORD PTR [rbp+0x3ae0],rax
  4027f1:	48 89 95 e8 3a 00 00 	mov    QWORD PTR [rbp+0x3ae8],rdx
  4027f8:	48 b8 52 e0 90 00 33 	movabs rax,0x490f0330090e052
  4027ff:	f0 90 04 
  402802:	48 ba 53 e0 90 00 34 	movabs rdx,0xef1812340090e053
  402809:	12 18 ef 
  40280c:	48 89 85 f0 3a 00 00 	mov    QWORD PTR [rbp+0x3af0],rax
  402813:	48 89 95 f8 3a 00 00 	mov    QWORD PTR [rbp+0x3af8],rdx
  40281a:	48 b8 90 04 54 e0 90 	movabs rax,0xf0370090e0540490
  402821:	00 37 f0 
  402824:	48 ba 90 04 55 e0 90 	movabs rdx,0x12380090e0550490
  40282b:	00 38 12 
  40282e:	48 89 85 00 3b 00 00 	mov    QWORD PTR [rbp+0x3b00],rax
  402835:	48 89 95 08 3b 00 00 	mov    QWORD PTR [rbp+0x3b08],rdx
  40283c:	48 b8 18 ef 90 04 56 	movabs rax,0x90e0560490ef18
  402843:	e0 90 00 
  402846:	48 ba 3b f0 90 04 57 	movabs rdx,0x90e0570490f03b
  40284d:	e0 90 00 
  402850:	48 89 85 10 3b 00 00 	mov    QWORD PTR [rbp+0x3b10],rax
  402857:	48 89 95 18 3b 00 00 	mov    QWORD PTR [rbp+0x3b18],rdx
  40285e:	48 b8 3c 12 19 53 74 	movabs rax,0x90f004745319123c
  402865:	04 f0 90 
  402868:	48 ba 04 5b e0 90 00 	movabs rdx,0xf03f0090e05b04
  40286f:	3f f0 00 
  402872:	48 89 85 20 3b 00 00 	mov    QWORD PTR [rbp+0x3b20],rax
  402879:	48 89 95 28 3b 00 00 	mov    QWORD PTR [rbp+0x3b28],rdx
  402880:	48 c7 85 30 3b 00 00 	mov    QWORD PTR [rbp+0x3b30],0x0
  402887:	00 00 00 00 
  40288b:	c7 85 38 3b 00 00 00 	mov    DWORD PTR [rbp+0x3b38],0x0
  402892:	00 00 00 
  402895:	66 c7 85 3c 3b 00 00 	mov    WORD PTR [rbp+0x3b3c],0x0
  40289c:	00 00 
  40289e:	48 b8 00 58 87 fa ff 	movabs rax,0xfffa875800
  4028a5:	00 00 00 
  4028a8:	ba 00 00 00 00       	mov    edx,0x0
  4028ad:	48 89 85 20 39 00 00 	mov    QWORD PTR [rbp+0x3920],rax
  4028b4:	48 89 95 28 39 00 00 	mov    QWORD PTR [rbp+0x3928],rdx
  4028bb:	48 8d 95 30 39 00 00 	lea    rdx,[rbp+0x3930]
  4028c2:	b8 00 00 00 00       	mov    eax,0x0
  4028c7:	b9 1f 00 00 00       	mov    ecx,0x1f
  4028cc:	48 89 d7             	mov    rdi,rdx
  4028cf:	f3 48 ab             	rep stos QWORD PTR es:[rdi],rax
  4028d2:	48 89 fa             	mov    rdx,rdi
  4028d5:	89 02                	mov    DWORD PTR [rdx],eax
  4028d7:	48 83 c2 04          	add    rdx,0x4
  4028db:	66 89 02             	mov    WORD PTR [rdx],ax
  4028de:	48 83 c2 02          	add    rdx,0x2
  4028e2:	48 b8 90 04 5f e0 90 	movabs rax,0xf0400090e05f0490
  4028e9:	00 40 f0 
  4028ec:	48 ba 90 04 60 e0 90 	movabs rdx,0xf0410090e0600490
  4028f3:	00 41 f0 
  4028f6:	48 89 85 10 38 00 00 	mov    QWORD PTR [rbp+0x3810],rax
  4028fd:	48 89 95 18 38 00 00 	mov    QWORD PTR [rbp+0x3818],rdx
  402904:	48 b8 90 04 5c e0 90 	movabs rax,0xf0420090e05c0490
  40290b:	00 42 f0 
  40290e:	48 ba 7f 31 02 0c df 	movabs rdx,0xdf1d12df0c02317f
  402915:	12 1d df 
  402918:	48 89 85 20 38 00 00 	mov    QWORD PTR [rbp+0x3820],rax
  40291f:	48 89 95 28 38 00 00 	mov    QWORD PTR [rbp+0x3828],rdx
  402926:	48 b8 90 00 10 12 0c 	movabs rax,0x1d12f00c12100090
  40292d:	f0 12 1d 
  402930:	48 ba df 12 1d df e4 	movabs rdx,0xc20690e4df1d12df
  402937:	90 06 c2 
  40293a:	48 89 85 30 38 00 00 	mov    QWORD PTR [rbp+0x3830],rax
  402941:	48 89 95 38 38 00 00 	mov    QWORD PTR [rbp+0x3838],rdx
  402948:	48 b8 12 19 21 a3 f0 	movabs rax,0x707cfdf0a3211912
  40294f:	fd 7c 70 
  402952:	48 ba 12 1d 4e 12 17 	movabs rdx,0x1c12d317124e1d12
  402959:	d3 12 1c 
  40295c:	48 89 85 40 38 00 00 	mov    QWORD PTR [rbp+0x3840],rax
  402963:	48 89 95 48 38 00 00 	mov    QWORD PTR [rbp+0x3848],rdx
  40296a:	48 b8 79 90 04 5c e0 	movabs rax,0x90f004e05c049079
  402971:	04 f0 90 
  402974:	48 ba 02 16 e0 90 06 	movabs rdx,0x90f0ac0690e01602
  40297b:	ac f0 90 
  40297e:	48 89 85 50 38 00 00 	mov    QWORD PTR [rbp+0x3850],rax
  402985:	48 89 95 58 38 00 00 	mov    QWORD PTR [rbp+0x3858],rdx
  40298c:	48 b8 02 17 e0 90 06 	movabs rax,0x90f0ad0690e01702
  402993:	ad f0 90 
  402996:	48 ba 02 18 e0 90 06 	movabs rdx,0x90f0ae0690e01802
  40299d:	ae f0 90 
  4029a0:	48 89 85 60 38 00 00 	mov    QWORD PTR [rbp+0x3860],rax
  4029a7:	48 89 95 68 38 00 00 	mov    QWORD PTR [rbp+0x3868],rdx
  4029ae:	48 b8 02 19 e0 90 06 	movabs rax,0x90f0af0690e01902
  4029b5:	af f0 90 
  4029b8:	48 ba 04 63 e0 64 ca 	movabs rdx,0x670ca64e06304
  4029bf:	70 06 00 
  4029c2:	48 89 85 70 38 00 00 	mov    QWORD PTR [rbp+0x3870],rax
  4029c9:	48 89 95 78 38 00 00 	mov    QWORD PTR [rbp+0x3878],rdx
  4029d0:	48 b8 00 00 02 09 25 	movabs rax,0x6304902509020000
  4029d7:	90 04 63 
  4029da:	48 ba e0 70 6f 90 06 	movabs rdx,0x90e0af06906f70e0
  4029e1:	af e0 90 
  4029e4:	48 89 85 80 38 00 00 	mov    QWORD PTR [rbp+0x3880],rax
  4029eb:	48 89 95 88 38 00 00 	mov    QWORD PTR [rbp+0x3888],rdx
  4029f2:	48 b8 06 aa f0 e0 ff 	movabs rax,0x1e94d3ffe0f0aa06
  4029f9:	d3 94 1e 
  4029fc:	48 ba 74 80 94 80 40 	movabs rdx,0x490124080948074
  402a03:	12 90 04 
  402a06:	48 89 85 90 38 00 00 	mov    QWORD PTR [rbp+0x3890],rax
  402a0d:	48 89 95 98 38 00 00 	mov    QWORD PTR [rbp+0x3898],rdx
  402a14:	48 b8 64 e0 fe ef d3 	movabs rax,0x8509ed3effee064
  402a1b:	9e 50 08 
  402a1e:	48 ba 90 04 62 e0 04 	movabs rdx,0xd80f004e0620490
  402a25:	f0 80 0d 
  402a28:	48 89 85 a0 38 00 00 	mov    QWORD PTR [rbp+0x38a0],rax
  402a2f:	48 89 95 a8 38 00 00 	mov    QWORD PTR [rbp+0x38a8],rdx
  402a36:	48 b8 90 04 62 e0 d3 	movabs rax,0x151912d3e0620490
  402a3d:	12 19 15 
  402a40:	48 ba 40 03 e0 14 f0 	movabs rdx,0xaa0690f014e00340
  402a47:	90 06 aa 
  402a4a:	48 89 85 b0 38 00 00 	mov    QWORD PTR [rbp+0x38b0],rax
  402a51:	48 89 95 b8 38 00 00 	mov    QWORD PTR [rbp+0x38b8],rdx
  402a58:	48 b8 e0 24 05 90 04 	movabs rax,0x90f06404900524e0
  402a5f:	64 f0 90 
  402a62:	48 ba 04 62 e0 d3 94 	movabs rdx,0x8074f094d3e06204
  402a69:	f0 74 80 
  402a6c:	48 89 85 c0 38 00 00 	mov    QWORD PTR [rbp+0x38c0],rax
  402a73:	48 89 95 c8 38 00 00 	mov    QWORD PTR [rbp+0x38c8],rdx
  402a7a:	48 b8 94 80 40 67 a3 	movabs rax,0xf00174a367408094
  402a81:	74 01 f0 
  402a84:	48 ba 90 06 ac e0 90 	movabs rdx,0xf0640490e0ac0690
  402a8b:	04 64 f0 
  402a8e:	48 89 85 d0 38 00 00 	mov    QWORD PTR [rbp+0x38d0],rax
  402a95:	48 89 95 d8 38 00 00 	mov    QWORD PTR [rbp+0x38d8],rdx
  402a9c:	48 b8 90 06 ad e0 90 	movabs rax,0xf0650490e0ad0690
  402aa3:	04 65 f0 
  402aa6:	48 ba 90 06 ae e0 90 	movabs rdx,0xf0660490e0ae0690
  402aad:	04 66 f0 
  402ab0:	48 89 85 e0 38 00 00 	mov    QWORD PTR [rbp+0x38e0],rax
  402ab7:	48 89 95 e8 38 00 00 	mov    QWORD PTR [rbp+0x38e8],rdx
  402abe:	48 b8 90 06 af e0 90 	movabs rax,0xf0670490e0af0690
  402ac5:	04 67 f0 
  402ac8:	48 ba 80 41 90 04 64 	movabs rdx,0x690e06404904180
  402acf:	e0 90 06 
  402ad2:	48 89 85 f0 38 00 00 	mov    QWORD PTR [rbp+0x38f0],rax
  402ad9:	48 89 95 f8 38 00 00 	mov    QWORD PTR [rbp+0x38f8],rdx
  402ae0:	48 b8 b8 f0 90 04 65 	movabs rax,0x690e0650490f0b8
  402ae7:	e0 90 06 
  402aea:	48 ba b9 f0 90 04 66 	movabs rdx,0x90e0660490f0b9
  402af1:	e0 90 00 
  402af4:	48 89 85 00 39 00 00 	mov    QWORD PTR [rbp+0x3900],rax
  402afb:	48 89 95 08 39 00 00 	mov    QWORD PTR [rbp+0x3908],rdx
  402b02:	48 c7 85 10 39 00 00 	mov    QWORD PTR [rbp+0x3910],0x0
  402b09:	00 00 00 00 
  402b0d:	c7 85 18 39 00 00 00 	mov    DWORD PTR [rbp+0x3918],0x0
  402b14:	00 00 00 
  402b17:	66 c7 85 1c 39 00 00 	mov    WORD PTR [rbp+0x391c],0x0
  402b1e:	00 00 
  402b20:	48 b8 00 58 88 f9 ff 	movabs rax,0xfff9885800
  402b27:	00 00 00 
  402b2a:	ba 00 00 00 00       	mov    edx,0x0
  402b2f:	48 89 85 00 37 00 00 	mov    QWORD PTR [rbp+0x3700],rax
  402b36:	48 89 95 08 37 00 00 	mov    QWORD PTR [rbp+0x3708],rdx
  402b3d:	48 8d 95 10 37 00 00 	lea    rdx,[rbp+0x3710]
  402b44:	b8 00 00 00 00       	mov    eax,0x0
  402b49:	b9 1f 00 00 00       	mov    ecx,0x1f
  402b4e:	48 89 d7             	mov    rdi,rdx
  402b51:	f3 48 ab             	rep stos QWORD PTR es:[rdi],rax
  402b54:	48 89 fa             	mov    rdx,rdi
  402b57:	89 02                	mov    DWORD PTR [rdx],eax
  402b59:	48 83 c2 04          	add    rdx,0x4
  402b5d:	66 89 02             	mov    WORD PTR [rdx],ax
  402b60:	48 83 c2 02          	add    rdx,0x2
  402b64:	48 b8 06 ba f0 90 04 	movabs rax,0x90e0670490f0ba06
  402b6b:	67 e0 90 
  402b6e:	48 ba 06 bb f0 90 06 	movabs rdx,0x1412b80690f0bb06
  402b75:	b8 12 14 
  402b78:	48 89 85 f0 35 00 00 	mov    QWORD PTR [rbp+0x35f0],rax
  402b7f:	48 89 95 f8 35 00 00 	mov    QWORD PTR [rbp+0x35f8],rdx
  402b86:	48 b8 73 12 19 94 12 	movabs rax,0x7b32141294191273
  402b8d:	14 32 7b 
  402b90:	48 ba 80 7a 3a 79 09 	movabs rdx,0xc3007809793a7a80
  402b97:	78 00 c3 
  402b9a:	48 89 85 00 36 00 00 	mov    QWORD PTR [rbp+0x3600],rax
  402ba1:	48 89 95 08 36 00 00 	mov    QWORD PTR [rbp+0x3608],rdx
  402ba8:	48 b8 12 14 56 50 07 	movabs rax,0x490e40750561412
  402baf:	e4 90 04 
  402bb2:	48 ba 62 f0 a3 f0 12 	movabs rdx,0x7f1c1912f0a3f062
  402bb9:	19 1c 7f 
  402bbc:	48 89 85 10 36 00 00 	mov    QWORD PTR [rbp+0x3610],rax
  402bc3:	48 89 95 18 36 00 00 	mov    QWORD PTR [rbp+0x3618],rdx
  402bca:	48 b8 00 7e 70 12 10 	movabs rax,0x490421012707e00
  402bd1:	42 90 04 
  402bd4:	48 ba 48 e0 90 06 b0 	movabs rdx,0x490f0b00690e048
  402bdb:	f0 90 04 
  402bde:	48 89 85 20 36 00 00 	mov    QWORD PTR [rbp+0x3620],rax
  402be5:	48 89 95 28 36 00 00 	mov    QWORD PTR [rbp+0x3628],rdx
  402bec:	48 b8 49 e0 90 06 b1 	movabs rax,0x490f0b10690e049
  402bf3:	f0 90 04 
  402bf6:	48 ba 4a e0 90 06 b2 	movabs rdx,0x490f0b20690e04a
  402bfd:	f0 90 04 
  402c00:	48 89 85 30 36 00 00 	mov    QWORD PTR [rbp+0x3630],rax
  402c07:	48 89 95 38 36 00 00 	mov    QWORD PTR [rbp+0x3638],rdx
  402c0e:	48 b8 4b e0 90 06 b3 	movabs rax,0x490f0b30690e04b
  402c15:	f0 90 04 
  402c18:	48 ba 4c e0 90 06 b4 	movabs rdx,0x490f0b40690e04c
  402c1f:	f0 90 04 
  402c22:	48 89 85 40 36 00 00 	mov    QWORD PTR [rbp+0x3640],rax
  402c29:	48 89 95 48 36 00 00 	mov    QWORD PTR [rbp+0x3648],rdx
  402c30:	48 b8 4d e0 90 06 b5 	movabs rax,0x490f0b50690e04d
  402c37:	f0 90 04 
  402c3a:	48 ba 4e e0 90 06 b6 	movabs rdx,0x490f0b60690e04e
  402c41:	f0 90 04 
  402c44:	48 89 85 50 36 00 00 	mov    QWORD PTR [rbp+0x3650],rax
  402c4b:	48 89 95 58 36 00 00 	mov    QWORD PTR [rbp+0x3658],rdx
  402c52:	48 b8 4f e0 90 06 b7 	movabs rax,0x1912f0b70690e04f
  402c59:	f0 12 19 
  402c5c:	48 ba 9a 12 19 5a 50 	movabs rdx,0x181205505a19129a
  402c63:	05 12 18 
  402c66:	48 89 85 60 36 00 00 	mov    QWORD PTR [rbp+0x3660],rax
  402c6d:	48 89 95 68 36 00 00 	mov    QWORD PTR [rbp+0x3668],rdx
  402c74:	48 b8 f9 80 f6 90 04 	movabs rax,0x60e0630490f680f9
  402c7b:	63 e0 60 
  402c7e:	48 ba 07 64 ca 60 03 	movabs rdx,0xdb0a020360ca6407
  402c85:	02 0a db 
  402c88:	48 89 85 70 36 00 00 	mov    QWORD PTR [rbp+0x3670],rax
  402c8f:	48 89 95 78 36 00 00 	mov    QWORD PTR [rbp+0x3678],rdx
  402c96:	48 b8 90 02 45 e0 ff 	movabs rax,0x70290ffe0450290
  402c9d:	90 02 07 
  402ca0:	48 ba e0 6f 60 03 02 	movabs rdx,0x12db0a0203606fe0
  402ca7:	0a db 12 
  402caa:	48 89 85 80 36 00 00 	mov    QWORD PTR [rbp+0x3680],rax
  402cb1:	48 89 95 88 36 00 00 	mov    QWORD PTR [rbp+0x3688],rdx
  402cb8:	48 b8 19 94 90 06 b0 	movabs rax,0x731412b006909419
  402cbf:	12 14 73 
  402cc2:	48 ba c3 12 14 56 40 	movabs rdx,0xa020340561412c3
  402cc9:	03 02 0a 
  402ccc:	48 89 85 90 36 00 00 	mov    QWORD PTR [rbp+0x3690],rax
  402cd3:	48 89 95 98 36 00 00 	mov    QWORD PTR [rbp+0x3698],rdx
  402cda:	48 b8 db 12 19 94 90 	movabs rax,0x12b40690941912db
  402ce1:	06 b4 12 
  402ce4:	48 ba 14 73 d3 12 14 	movabs rdx,0x350561412d37314
  402ceb:	56 50 03 
  402cee:	48 89 85 a0 36 00 00 	mov    QWORD PTR [rbp+0x36a0],rax
  402cf5:	48 89 95 a8 36 00 00 	mov    QWORD PTR [rbp+0x36a8],rdx
  402cfc:	48 b8 02 0a db 90 02 	movabs rax,0xffe02a0290db0a02
  402d03:	2a e0 ff 
  402d06:	48 ba 90 04 50 e0 5f 	movabs rdx,0x1912d35fe0500490
  402d0d:	d3 12 19 
  402d10:	48 89 85 b0 36 00 00 	mov    QWORD PTR [rbp+0x36b0],rax
  402d17:	48 89 95 b8 36 00 00 	mov    QWORD PTR [rbp+0x36b8],rdx
  402d1e:	48 b8 15 50 28 90 02 	movabs rax,0x90e02b0290285015
  402d25:	2b e0 90 
  402d28:	48 ba 04 51 12 19 12 	movabs rdx,0x901c501219125104
  402d2f:	50 1c 90 
  402d32:	48 89 85 c0 36 00 00 	mov    QWORD PTR [rbp+0x36c0],rax
  402d39:	48 89 95 c8 36 00 00 	mov    QWORD PTR [rbp+0x36c8],rdx
  402d40:	48 b8 02 2c e0 90 04 	movabs rax,0x1912520490e02c02
  402d47:	52 12 19 
  402d4a:	48 ba 12 50 10 90 02 	movabs rdx,0xffe02d0290105012
  402d51:	2d e0 ff 
  402d54:	48 89 85 d0 36 00 00 	mov    QWORD PTR [rbp+0x36d0],rax
  402d5b:	48 89 95 d8 36 00 00 	mov    QWORD PTR [rbp+0x36d8],rdx
  402d62:	48 b8 90 04 53 12 19 	movabs rax,0x350131912530490
  402d69:	13 50 03 
  402d6c:	48 ba 02 0a db 90 04 	movabs rdx,0xe0580490db0a02
  402d73:	58 e0 00 
  402d76:	48 89 85 e0 36 00 00 	mov    QWORD PTR [rbp+0x36e0],rax
  402d7d:	48 89 95 e8 36 00 00 	mov    QWORD PTR [rbp+0x36e8],rdx
  402d84:	48 c7 85 f0 36 00 00 	mov    QWORD PTR [rbp+0x36f0],0x0
  402d8b:	00 00 00 00 
  402d8f:	c7 85 f8 36 00 00 00 	mov    DWORD PTR [rbp+0x36f8],0x0
  402d96:	00 00 00 
  402d99:	66 c7 85 fc 36 00 00 	mov    WORD PTR [rbp+0x36fc],0x0
  402da0:	00 00 
  402da2:	48 b8 00 58 89 f8 ff 	movabs rax,0xfff8895800
  402da9:	00 00 00 
  402dac:	ba 00 00 00 00       	mov    edx,0x0
  402db1:	48 89 85 e0 34 00 00 	mov    QWORD PTR [rbp+0x34e0],rax
  402db8:	48 89 95 e8 34 00 00 	mov    QWORD PTR [rbp+0x34e8],rdx
  402dbf:	48 8d 95 f0 34 00 00 	lea    rdx,[rbp+0x34f0]
  402dc6:	b8 00 00 00 00       	mov    eax,0x0
  402dcb:	b9 1f 00 00 00       	mov    ecx,0x1f
  402dd0:	48 89 d7             	mov    rdi,rdx
  402dd3:	f3 48 ab             	rep stos QWORD PTR es:[rdi],rax
  402dd6:	48 89 fa             	mov    rdx,rdi
  402dd9:	89 02                	mov    DWORD PTR [rdx],eax
  402ddb:	48 83 c2 04          	add    rdx,0x4
  402ddf:	66 89 02             	mov    WORD PTR [rdx],ax
  402de2:	48 83 c2 02          	add    rdx,0x2
  402de6:	48 b8 60 2d 90 06 f4 	movabs rax,0x90ffe0f406902d60
  402ded:	e0 ff 90 
  402df0:	48 ba 04 59 e0 6f 60 	movabs rdx,0xa0203606fe05904
  402df7:	03 02 0a 
  402dfa:	48 89 85 d0 33 00 00 	mov    QWORD PTR [rbp+0x33d0],rax
  402e01:	48 89 95 d8 33 00 00 	mov    QWORD PTR [rbp+0x33d8],rdx
  402e08:	48 b8 db 90 06 f5 e0 	movabs rax,0x490ffe0f50690db
  402e0f:	ff 90 04 
  402e12:	48 ba 5a e0 6f 60 03 	movabs rdx,0xdb0a0203606fe05a
  402e19:	02 0a db 
  402e1c:	48 89 85 e0 33 00 00 	mov    QWORD PTR [rbp+0x33e0],rax
  402e23:	48 89 95 e8 33 00 00 	mov    QWORD PTR [rbp+0x33e8],rdx
  402e2a:	48 b8 90 06 f6 e0 ff 	movabs rax,0x610490ffe0f60690
  402e31:	90 04 61 
  402e34:	48 ba e0 6f 60 03 02 	movabs rdx,0x90db0a0203606fe0
  402e3b:	0a db 90 
  402e3e:	48 89 85 f0 33 00 00 	mov    QWORD PTR [rbp+0x33f0],rax
  402e45:	48 89 95 f8 33 00 00 	mov    QWORD PTR [rbp+0x33f8],rdx
  402e4c:	48 b8 00 12 74 25 f0 	movabs rax,0xd74a3f025741200
  402e53:	a3 74 0d 
  402e56:	48 ba f0 e4 a3 f0 a3 	movabs rdx,0x4a3f0a3f0a3e4f0
  402e5d:	f0 a3 04 
  402e60:	48 89 85 00 34 00 00 	mov    QWORD PTR [rbp+0x3400],rax
  402e67:	48 89 95 08 34 00 00 	mov    QWORD PTR [rbp+0x3408],rdx
  402e6e:	48 b8 f0 e4 a3 f0 a3 	movabs rax,0x290f0a3f0a3e4f0
  402e75:	f0 90 02 
  402e78:	48 ba 1a e0 90 00 19 	movabs rdx,0x290f0190090e01a
  402e7f:	f0 90 02 
  402e82:	48 89 85 10 34 00 00 	mov    QWORD PTR [rbp+0x3410],rax
  402e89:	48 89 95 18 34 00 00 	mov    QWORD PTR [rbp+0x3418],rdx
  402e90:	48 b8 1b e0 90 00 1a 	movabs rax,0x290f01a0090e01b
  402e97:	f0 90 02 
  402e9a:	48 ba 1c e0 90 00 1b 	movabs rdx,0x290f01b0090e01c
  402ea1:	f0 90 02 
  402ea4:	48 89 85 20 34 00 00 	mov    QWORD PTR [rbp+0x3420],rax
  402eab:	48 89 95 28 34 00 00 	mov    QWORD PTR [rbp+0x3428],rdx
  402eb2:	48 b8 1d e0 90 00 1c 	movabs rax,0x290f01c0090e01d
  402eb9:	f0 90 02 
  402ebc:	48 ba 1e e0 90 00 1d 	movabs rdx,0x290f01d0090e01e
  402ec3:	f0 90 02 
  402ec6:	48 89 85 30 34 00 00 	mov    QWORD PTR [rbp+0x3430],rax
  402ecd:	48 89 95 38 34 00 00 	mov    QWORD PTR [rbp+0x3438],rdx
  402ed4:	48 b8 1f e0 90 00 1e 	movabs rax,0x290f01e0090e01f
  402edb:	f0 90 02 
  402ede:	48 ba 20 e0 90 00 1f 	movabs rdx,0x290f01f0090e020
  402ee5:	f0 90 02 
  402ee8:	48 89 85 40 34 00 00 	mov    QWORD PTR [rbp+0x3440],rax
  402eef:	48 89 95 48 34 00 00 	mov    QWORD PTR [rbp+0x3448],rdx
  402ef6:	48 b8 21 e0 90 00 20 	movabs rax,0x74a3f0200090e021
  402efd:	f0 a3 74 
  402f00:	48 ba 25 f0 74 0d 12 	movabs rdx,0xa3e518120d74f025
  402f07:	18 e5 a3 
  402f0a:	48 89 85 50 34 00 00 	mov    QWORD PTR [rbp+0x3450],rax
  402f11:	48 89 95 58 34 00 00 	mov    QWORD PTR [rbp+0x3458],rdx
  402f18:	48 b8 f0 a3 f0 90 02 	movabs rax,0x90e0220290f0a3f0
  402f1f:	22 e0 90 
  402f22:	48 ba 00 28 f0 90 02 	movabs rdx,0x90e0230290f02800
  402f29:	23 e0 90 
  402f2c:	48 89 85 60 34 00 00 	mov    QWORD PTR [rbp+0x3460],rax
  402f33:	48 89 95 68 34 00 00 	mov    QWORD PTR [rbp+0x3468],rdx
  402f3a:	48 b8 00 29 f0 90 02 	movabs rax,0x90e0240290f02900
  402f41:	24 e0 90 
  402f44:	48 ba 00 2a f0 90 02 	movabs rdx,0x90e0250290f02a00
  402f4b:	25 e0 90 
  402f4e:	48 89 85 70 34 00 00 	mov    QWORD PTR [rbp+0x3470],rax
  402f55:	48 89 95 78 34 00 00 	mov    QWORD PTR [rbp+0x3478],rdx
  402f5c:	48 b8 00 2b f0 90 02 	movabs rax,0x90e0260290f02b00
  402f63:	26 e0 90 
  402f66:	48 ba 00 2c f0 90 02 	movabs rdx,0x90e0270290f02c00
  402f6d:	27 e0 90 
  402f70:	48 89 85 80 34 00 00 	mov    QWORD PTR [rbp+0x3480],rax
  402f77:	48 89 95 88 34 00 00 	mov    QWORD PTR [rbp+0x3488],rdx
  402f7e:	48 b8 00 2d f0 90 02 	movabs rax,0x90e0280290f02d00
  402f85:	28 e0 90 
  402f88:	48 ba 00 2e f0 90 02 	movabs rdx,0x90e0290290f02e00
  402f8f:	29 e0 90 
  402f92:	48 89 85 90 34 00 00 	mov    QWORD PTR [rbp+0x3490],rax
  402f99:	48 89 95 98 34 00 00 	mov    QWORD PTR [rbp+0x3498],rdx
  402fa0:	48 b8 00 2f f0 a3 12 	movabs rax,0xa34b1912a3f02f00
  402fa7:	19 4b a3 
  402faa:	48 ba 74 40 f0 e4 a3 	movabs rdx,0x227ff0a3e4f04074
  402fb1:	f0 7f 22 
  402fb4:	48 89 85 a0 34 00 00 	mov    QWORD PTR [rbp+0x34a0],rax
  402fbb:	48 89 95 a8 34 00 00 	mov    QWORD PTR [rbp+0x34a8],rdx
  402fc2:	48 b8 02 0c df 90 00 	movabs rax,0x1912120090df0c02
  402fc9:	12 12 19 
  402fcc:	48 ba 4b e4 a3 f0 a3 	movabs rdx,0x47ff0a3f0a3e44b
  402fd3:	f0 7f 04 
  402fd6:	48 89 85 b0 34 00 00 	mov    QWORD PTR [rbp+0x34b0],rax
  402fdd:	48 89 95 b8 34 00 00 	mov    QWORD PTR [rbp+0x34b8],rdx
  402fe4:	48 b8 02 0c df 90 00 	movabs rax,0xa3e00f0090df0c02
  402feb:	0f e0 a3 
  402fee:	48 ba f0 64 82 60 03 	movabs rdx,0xc0203608264f0
  402ff5:	02 0c 00 
  402ff8:	48 89 85 c0 34 00 00 	mov    QWORD PTR [rbp+0x34c0],rax
  402fff:	48 89 95 c8 34 00 00 	mov    QWORD PTR [rbp+0x34c8],rdx
  403006:	48 c7 85 d0 34 00 00 	mov    QWORD PTR [rbp+0x34d0],0x0
  40300d:	00 00 00 00 
  403011:	c7 85 d8 34 00 00 00 	mov    DWORD PTR [rbp+0x34d8],0x0
  403018:	00 00 00 
  40301b:	66 c7 85 dc 34 00 00 	mov    WORD PTR [rbp+0x34dc],0x0
  403022:	00 00 
  403024:	48 b8 00 58 8a f7 ff 	movabs rax,0xfff78a5800
  40302b:	00 00 00 
  40302e:	ba 00 00 00 00       	mov    edx,0x0
  403033:	48 89 85 c0 32 00 00 	mov    QWORD PTR [rbp+0x32c0],rax
  40303a:	48 89 95 c8 32 00 00 	mov    QWORD PTR [rbp+0x32c8],rdx
  403041:	48 8d 95 d0 32 00 00 	lea    rdx,[rbp+0x32d0]
  403048:	b8 00 00 00 00       	mov    eax,0x0
  40304d:	b9 1f 00 00 00       	mov    ecx,0x1f
  403052:	48 89 d7             	mov    rdi,rdx
  403055:	f3 48 ab             	rep stos QWORD PTR es:[rdi],rax
  403058:	48 89 fa             	mov    rdx,rdi
  40305b:	89 02                	mov    DWORD PTR [rdx],eax
  40305d:	48 83 c2 04          	add    rdx,0x4
  403061:	66 89 02             	mov    WORD PTR [rdx],ax
  403064:	48 83 c2 02          	add    rdx,0x2
  403068:	48 b8 a9 12 0d 14 12 	movabs rax,0x12df1d12140d12a9
  40306f:	1d df 12 
  403072:	48 ba 1d df 90 06 dd 	movabs rdx,0x12f0efdd0690df1d
  403079:	ef f0 12 
  40307c:	48 89 85 b0 31 00 00 	mov    QWORD PTR [rbp+0x31b0],rax
  403083:	48 89 95 b8 31 00 00 	mov    QWORD PTR [rbp+0x31b8],rdx
  40308a:	48 b8 1d df 90 06 de 	movabs rax,0x12f0efde0690df1d
  403091:	ef f0 12 
  403094:	48 ba 1d df 90 06 df 	movabs rdx,0x12f0efdf0690df1d
  40309b:	ef f0 12 
  40309e:	48 89 85 c0 31 00 00 	mov    QWORD PTR [rbp+0x31c0],rax
  4030a5:	48 89 95 c8 31 00 00 	mov    QWORD PTR [rbp+0x31c8],rdx
  4030ac:	48 b8 1d df 90 06 e0 	movabs rax,0xf00c12e00690df1d
  4030b3:	12 0c f0 
  4030b6:	48 ba 12 19 a4 e4 12 	movabs rdx,0x12630d12e4a41912
  4030bd:	0d 63 12 
  4030c0:	48 89 85 d0 31 00 00 	mov    QWORD PTR [rbp+0x31d0],rax
  4030c7:	48 89 95 d8 31 00 00 	mov    QWORD PTR [rbp+0x31d8],rdx
  4030ce:	48 b8 17 d3 90 06 f0 	movabs rax,0x90ffe0f00690d317
  4030d5:	e0 ff 90 
  4030d8:	48 ba 06 dd e0 6f 60 	movabs rdx,0xc0203606fe0dd06
  4030df:	03 02 0c 
  4030e2:	48 89 85 e0 31 00 00 	mov    QWORD PTR [rbp+0x31e0],rax
  4030e9:	48 89 95 e8 31 00 00 	mov    QWORD PTR [rbp+0x31e8],rdx
  4030f0:	48 b8 a9 90 06 f1 e0 	movabs rax,0x690ffe0f10690a9
  4030f7:	ff 90 06 
  4030fa:	48 ba de e0 6f 60 03 	movabs rdx,0xa90c0203606fe0de
  403101:	02 0c a9 
  403104:	48 89 85 f0 31 00 00 	mov    QWORD PTR [rbp+0x31f0],rax
  40310b:	48 89 95 f8 31 00 00 	mov    QWORD PTR [rbp+0x31f8],rdx
  403112:	48 b8 90 06 f2 e0 ff 	movabs rax,0xdf0690ffe0f20690
  403119:	90 06 df 
  40311c:	48 ba e0 6f 60 03 02 	movabs rdx,0x90a90c0203606fe0
  403123:	0c a9 90 
  403126:	48 89 85 00 32 00 00 	mov    QWORD PTR [rbp+0x3200],rax
  40312d:	48 89 95 08 32 00 00 	mov    QWORD PTR [rbp+0x3208],rdx
  403134:	48 b8 06 f3 e0 ff 90 	movabs rax,0xe0e00690ffe0f306
  40313b:	06 e0 e0 
  40313e:	48 ba 6f 60 03 02 0c 	movabs rdx,0x1912a90c0203606f
  403145:	a9 12 19 
  403148:	48 89 85 10 32 00 00 	mov    QWORD PTR [rbp+0x3210],rax
  40314f:	48 89 95 18 32 00 00 	mov    QWORD PTR [rbp+0x3218],rdx
  403156:	48 b8 a4 12 0d 63 90 	movabs rax,0xe05b0490630d12a4
  40315d:	04 5b e0 
  403160:	48 ba 04 f0 12 19 9a 	movabs rdx,0x5a19129a1912f004
  403167:	12 19 5a 
  40316a:	48 89 85 20 32 00 00 	mov    QWORD PTR [rbp+0x3220],rax
  403171:	48 89 95 28 32 00 00 	mov    QWORD PTR [rbp+0x3228],rdx
  403178:	48 b8 50 05 12 18 f9 	movabs rax,0x90f680f918120550
  40317f:	80 f6 90 
  403182:	48 ba 02 16 e0 ff 90 	movabs rdx,0xe0f00690ffe01602
  403189:	06 f0 e0 
  40318c:	48 89 85 30 32 00 00 	mov    QWORD PTR [rbp+0x3230],rax
  403193:	48 89 95 38 32 00 00 	mov    QWORD PTR [rbp+0x3238],rdx
  40319a:	48 b8 6f 60 03 02 0c 	movabs rax,0x2908f0c0203606f
  4031a1:	8f 90 02 
  4031a4:	48 ba 17 e0 ff 90 06 	movabs rdx,0x6fe0f10690ffe017
  4031ab:	f1 e0 6f 
  4031ae:	48 89 85 40 32 00 00 	mov    QWORD PTR [rbp+0x3240],rax
  4031b5:	48 89 95 48 32 00 00 	mov    QWORD PTR [rbp+0x3248],rdx
  4031bc:	48 b8 60 03 02 0c 8f 	movabs rax,0x1802908f0c020360
  4031c3:	90 02 18 
  4031c6:	48 ba e0 ff 90 06 f2 	movabs rdx,0x606fe0f20690ffe0
  4031cd:	e0 6f 60 
  4031d0:	48 89 85 50 32 00 00 	mov    QWORD PTR [rbp+0x3250],rax
  4031d7:	48 89 95 58 32 00 00 	mov    QWORD PTR [rbp+0x3258],rdx
  4031de:	48 b8 03 02 0c 8f 90 	movabs rax,0xe01902908f0c0203
  4031e5:	02 19 e0 
  4031e8:	48 ba ff 90 06 f3 e0 	movabs rdx,0x3606fe0f30690ff
  4031ef:	6f 60 03 
  4031f2:	48 89 85 60 32 00 00 	mov    QWORD PTR [rbp+0x3260],rax
  4031f9:	48 89 95 68 32 00 00 	mov    QWORD PTR [rbp+0x3268],rdx
  403200:	48 b8 02 0c 8f 90 02 	movabs rax,0x90e01a02908f0c02
  403207:	1a e0 90 
  40320a:	48 ba 04 50 f0 90 02 	movabs rdx,0x90e01b0290f05004
  403211:	1b e0 90 
  403214:	48 89 85 70 32 00 00 	mov    QWORD PTR [rbp+0x3270],rax
  40321b:	48 89 95 78 32 00 00 	mov    QWORD PTR [rbp+0x3278],rdx
  403222:	48 b8 04 51 f0 90 02 	movabs rax,0x90e01c0290f05104
  403229:	1c e0 90 
  40322c:	48 ba 04 52 f0 90 02 	movabs rdx,0x90e01d0290f05204
  403233:	1d e0 90 
  403236:	48 89 85 80 32 00 00 	mov    QWORD PTR [rbp+0x3280],rax
  40323d:	48 89 95 88 32 00 00 	mov    QWORD PTR [rbp+0x3288],rdx
  403244:	48 b8 04 53 f0 90 02 	movabs rax,0x90e01e0290f05304
  40324b:	1e e0 90 
  40324e:	48 ba 04 48 f0 90 02 	movabs rdx,0x90e01f0290f04804
  403255:	1f e0 90 
  403258:	48 89 85 90 32 00 00 	mov    QWORD PTR [rbp+0x3290],rax
  40325f:	48 89 95 98 32 00 00 	mov    QWORD PTR [rbp+0x3298],rdx
  403266:	48 b8 04 49 f0 90 02 	movabs rax,0x90e0200290f04904
  40326d:	20 e0 90 
  403270:	48 ba 04 4a f0 90 02 	movabs rdx,0xe0210290f04a04
  403277:	21 e0 00 
  40327a:	48 89 85 a0 32 00 00 	mov    QWORD PTR [rbp+0x32a0],rax
  403281:	48 89 95 a8 32 00 00 	mov    QWORD PTR [rbp+0x32a8],rdx
  403288:	48 c7 85 b0 32 00 00 	mov    QWORD PTR [rbp+0x32b0],0x0
  40328f:	00 00 00 00 
  403293:	c7 85 b8 32 00 00 00 	mov    DWORD PTR [rbp+0x32b8],0x0
  40329a:	00 00 00 
  40329d:	66 c7 85 bc 32 00 00 	mov    WORD PTR [rbp+0x32bc],0x0
  4032a4:	00 00 
  4032a6:	48 b8 00 58 8b f6 ff 	movabs rax,0xfff68b5800
  4032ad:	00 00 00 
  4032b0:	ba 00 00 00 00       	mov    edx,0x0
  4032b5:	48 89 85 a0 30 00 00 	mov    QWORD PTR [rbp+0x30a0],rax
  4032bc:	48 89 95 a8 30 00 00 	mov    QWORD PTR [rbp+0x30a8],rdx
  4032c3:	48 8d 95 b0 30 00 00 	lea    rdx,[rbp+0x30b0]
  4032ca:	b8 00 00 00 00       	mov    eax,0x0
  4032cf:	b9 1f 00 00 00       	mov    ecx,0x1f
  4032d4:	48 89 d7             	mov    rdi,rdx
  4032d7:	f3 48 ab             	rep stos QWORD PTR es:[rdi],rax
  4032da:	48 89 fa             	mov    rdx,rdi
  4032dd:	89 02                	mov    DWORD PTR [rdx],eax
  4032df:	48 83 c2 04          	add    rdx,0x4
  4032e3:	66 89 02             	mov    WORD PTR [rdx],ax
  4032e6:	48 83 c2 02          	add    rdx,0x2
  4032ea:	48 b8 90 04 4b f0 90 	movabs rax,0xe0220290f04b0490
  4032f1:	02 22 e0 
  4032f4:	48 ba 90 04 4c f0 90 	movabs rdx,0xe0230290f04c0490
  4032fb:	02 23 e0 
  4032fe:	48 89 85 90 2f 00 00 	mov    QWORD PTR [rbp+0x2f90],rax
  403305:	48 89 95 98 2f 00 00 	mov    QWORD PTR [rbp+0x2f98],rdx
  40330c:	48 b8 90 04 4d f0 90 	movabs rax,0xe0240290f04d0490
  403313:	02 24 e0 
  403316:	48 ba 90 04 4e f0 90 	movabs rdx,0xe0250290f04e0490
  40331d:	02 25 e0 
  403320:	48 89 85 a0 2f 00 00 	mov    QWORD PTR [rbp+0x2fa0],rax
  403327:	48 89 95 a8 2f 00 00 	mov    QWORD PTR [rbp+0x2fa8],rdx
  40332e:	48 b8 90 04 4f f0 90 	movabs rax,0xe0260290f04f0490
  403335:	02 26 e0 
  403338:	48 ba 90 04 54 f0 90 	movabs rdx,0xe0270290f0540490
  40333f:	02 27 e0 
  403342:	48 89 85 b0 2f 00 00 	mov    QWORD PTR [rbp+0x2fb0],rax
  403349:	48 89 95 b8 2f 00 00 	mov    QWORD PTR [rbp+0x2fb8],rdx
  403350:	48 b8 90 04 55 f0 90 	movabs rax,0xe0280290f0550490
  403357:	02 28 e0 
  40335a:	48 ba 90 04 56 f0 90 	movabs rdx,0xe0290290f0560490
  403361:	02 29 e0 
  403364:	48 89 85 c0 2f 00 00 	mov    QWORD PTR [rbp+0x2fc0],rax
  40336b:	48 89 95 c8 2f 00 00 	mov    QWORD PTR [rbp+0x2fc8],rdx
  403372:	48 b8 90 04 57 f0 90 	movabs rax,0xe02a0290f0570490
  403379:	02 2a e0 
  40337c:	48 ba 90 04 58 f0 90 	movabs rdx,0xe02b0290f0580490
  403383:	02 2b e0 
  403386:	48 89 85 d0 2f 00 00 	mov    QWORD PTR [rbp+0x2fd0],rax
  40338d:	48 89 95 d8 2f 00 00 	mov    QWORD PTR [rbp+0x2fd8],rdx
  403394:	48 b8 64 01 70 09 90 	movabs rax,0xe063049009700164
  40339b:	04 63 e0 
  40339e:	48 ba 64 ca 70 01 f0 	movabs rdx,0x2b0290f00170ca64
  4033a5:	90 02 2b 
  4033a8:	48 89 85 e0 2f 00 00 	mov    QWORD PTR [rbp+0x2fe0],rax
  4033af:	48 89 95 e8 2f 00 00 	mov    QWORD PTR [rbp+0x2fe8],rdx
  4033b6:	48 b8 e0 90 04 5d f0 	movabs rax,0x2c0290f05d0490e0
  4033bd:	90 02 2c 
  4033c0:	48 ba e0 90 04 5e f0 	movabs rdx,0x580490f05e0490e0
  4033c7:	90 04 58 
  4033ca:	48 89 85 f0 2f 00 00 	mov    QWORD PTR [rbp+0x2ff0],rax
  4033d1:	48 89 95 f8 2f 00 00 	mov    QWORD PTR [rbp+0x2ff8],rdx
  4033d8:	48 b8 e0 60 0e a3 e0 	movabs rax,0xa32270e0a30e60e0
  4033df:	70 22 a3 
  4033e2:	48 ba e0 70 1e 90 04 	movabs rdx,0x70e06104901e70e0
  4033e9:	61 e0 70 
  4033ec:	48 89 85 00 30 00 00 	mov    QWORD PTR [rbp+0x3000],rax
  4033f3:	48 89 95 08 30 00 00 	mov    QWORD PTR [rbp+0x3008],rdx
  4033fa:	48 b8 18 90 06 f4 e0 	movabs rax,0x590490e0f4069018
  403401:	90 04 59 
  403404:	48 ba f0 90 06 f5 e0 	movabs rdx,0x5a0490e0f50690f0
  40340b:	90 04 5a 
  40340e:	48 89 85 10 30 00 00 	mov    QWORD PTR [rbp+0x3010],rax
  403415:	48 89 95 18 30 00 00 	mov    QWORD PTR [rbp+0x3018],rdx
  40341c:	48 b8 f0 90 06 f6 e0 	movabs rax,0x610490e0f60690f0
  403423:	90 04 61 
  403426:	48 ba f0 90 02 07 e0 	movabs rdx,0x5f0490e0070290f0
  40342d:	90 04 5f 
  403430:	48 89 85 20 30 00 00 	mov    QWORD PTR [rbp+0x3020],rax
  403437:	48 89 95 28 30 00 00 	mov    QWORD PTR [rbp+0x3028],rdx
  40343e:	48 b8 f0 90 02 45 e0 	movabs rax,0x600490e0450290f0
  403445:	90 04 60 
  403448:	48 ba f0 12 19 1c 7f 	movabs rdx,0x707e007f1c1912f0
  40344f:	00 7e 70 
  403452:	48 89 85 30 30 00 00 	mov    QWORD PTR [rbp+0x3030],rax
  403459:	48 89 95 38 30 00 00 	mov    QWORD PTR [rbp+0x3038],rdx
  403460:	48 b8 12 10 42 12 1c 	movabs rax,0xffe4791c12421012
  403467:	79 e4 ff 
  40346a:	48 ba 80 2f 12 1c 79 	movabs rdx,0x120090791c122f80
  403471:	90 00 12 
  403474:	48 89 85 40 30 00 00 	mov    QWORD PTR [rbp+0x3040],rax
  40347b:	48 89 95 48 30 00 00 	mov    QWORD PTR [rbp+0x3048],rdx
  403482:	48 b8 74 74 f0 a3 74 	movabs rax,0x90f00474a3f07474
  403489:	04 f0 90 
  40348c:	48 ba 06 f0 e0 90 00 	movabs rdx,0x90f0140090e0f006
  403493:	14 f0 90 
  403496:	48 89 85 50 30 00 00 	mov    QWORD PTR [rbp+0x3050],rax
  40349d:	48 89 95 58 30 00 00 	mov    QWORD PTR [rbp+0x3058],rdx
  4034a4:	48 b8 06 f1 e0 90 00 	movabs rax,0x90f0150090e0f106
  4034ab:	15 f0 90 
  4034ae:	48 ba 06 f2 e0 90 00 	movabs rdx,0x90f0160090e0f206
  4034b5:	16 f0 90 
  4034b8:	48 89 85 60 30 00 00 	mov    QWORD PTR [rbp+0x3060],rax
  4034bf:	48 89 95 68 30 00 00 	mov    QWORD PTR [rbp+0x3068],rdx
  4034c6:	48 b8 06 f3 e0 90 00 	movabs rax,0x7ff0170090e0f306
  4034cd:	17 f0 7f 
  4034d0:	48 ba 06 12 1d b5 02 	movabs rdx,0x12310202b51d1206
  4034d7:	02 31 12 
  4034da:	48 89 85 70 30 00 00 	mov    QWORD PTR [rbp+0x3070],rax
  4034e1:	48 89 95 78 30 00 00 	mov    QWORD PTR [rbp+0x3078],rdx
  4034e8:	48 b8 1c 79 e4 ff 12 	movabs rax,0x2b51d12ffe4791c
  4034ef:	1d b5 02 
  4034f2:	48 ba 02 31 ef f0 12 	movabs rdx,0xdf1d12f0ef3102
  4034f9:	1d df 00 
  4034fc:	48 89 85 80 30 00 00 	mov    QWORD PTR [rbp+0x3080],rax
  403503:	48 89 95 88 30 00 00 	mov    QWORD PTR [rbp+0x3088],rdx
  40350a:	48 c7 85 90 30 00 00 	mov    QWORD PTR [rbp+0x3090],0x0
  403511:	00 00 00 00 
  403515:	c7 85 98 30 00 00 00 	mov    DWORD PTR [rbp+0x3098],0x0
  40351c:	00 00 00 
  40351f:	66 c7 85 9c 30 00 00 	mov    WORD PTR [rbp+0x309c],0x0
  403526:	00 00 
  403528:	48 b8 00 58 8c f5 ff 	movabs rax,0xfff58c5800
  40352f:	00 00 00 
  403532:	ba 00 00 00 00       	mov    edx,0x0
  403537:	48 89 85 80 2e 00 00 	mov    QWORD PTR [rbp+0x2e80],rax
  40353e:	48 89 95 88 2e 00 00 	mov    QWORD PTR [rbp+0x2e88],rdx
  403545:	48 8d 95 90 2e 00 00 	lea    rdx,[rbp+0x2e90]
  40354c:	b8 00 00 00 00       	mov    eax,0x0
  403551:	b9 1f 00 00 00       	mov    ecx,0x1f
  403556:	48 89 d7             	mov    rdi,rdx
  403559:	f3 48 ab             	rep stos QWORD PTR es:[rdi],rax
  40355c:	48 89 fa             	mov    rdx,rdi
  40355f:	89 02                	mov    DWORD PTR [rdx],eax
  403561:	48 83 c2 04          	add    rdx,0x4
  403565:	66 89 02             	mov    WORD PTR [rdx],ax
  403568:	48 83 c2 02          	add    rdx,0x2
  40356c:	48 8d 95 70 2d 00 00 	lea    rdx,[rbp+0x2d70]
  403573:	b8 00 00 00 00       	mov    eax,0x0
  403578:	b9 21 00 00 00       	mov    ecx,0x21
  40357d:	48 89 d7             	mov    rdi,rdx
  403580:	f3 48 ab             	rep stos QWORD PTR es:[rdi],rax
  403583:	48 89 fa             	mov    rdx,rdi
  403586:	89 02                	mov    DWORD PTR [rdx],eax
  403588:	48 83 c2 04          	add    rdx,0x4
  40358c:	66 89 02             	mov    WORD PTR [rdx],ax
  40358f:	48 83 c2 02          	add    rdx,0x2
  403593:	c6 85 70 2d 00 00 12 	mov    BYTE PTR [rbp+0x2d70],0x12
  40359a:	c6 85 71 2d 00 00 1d 	mov    BYTE PTR [rbp+0x2d71],0x1d
  4035a1:	c6 85 72 2d 00 00 df 	mov    BYTE PTR [rbp+0x2d72],0xdf
  4035a8:	c6 85 73 2d 00 00 12 	mov    BYTE PTR [rbp+0x2d73],0x12
  4035af:	c6 85 74 2d 00 00 1d 	mov    BYTE PTR [rbp+0x2d74],0x1d
  4035b6:	c6 85 75 2d 00 00 df 	mov    BYTE PTR [rbp+0x2d75],0xdf
  4035bd:	c6 85 76 2d 00 00 12 	mov    BYTE PTR [rbp+0x2d76],0x12
  4035c4:	c6 85 77 2d 00 00 1d 	mov    BYTE PTR [rbp+0x2d77],0x1d
  4035cb:	c6 85 78 2d 00 00 df 	mov    BYTE PTR [rbp+0x2d78],0xdf
  4035d2:	c6 85 79 2d 00 00 22 	mov    BYTE PTR [rbp+0x2d79],0x22
  4035d9:	c6 85 7a 2d 00 00 f0 	mov    BYTE PTR [rbp+0x2d7a],0xf0
  4035e0:	c6 85 7b 2d 00 00 7b 	mov    BYTE PTR [rbp+0x2d7b],0x7b
  4035e7:	c6 85 7c 2d 00 00 01 	mov    BYTE PTR [rbp+0x2d7c],0x1
  4035ee:	c6 85 7d 2d 00 00 7a 	mov    BYTE PTR [rbp+0x2d7d],0x7a
  4035f5:	c6 85 7e 2d 00 00 04 	mov    BYTE PTR [rbp+0x2d7e],0x4
  4035fc:	c6 85 7f 2d 00 00 79 	mov    BYTE PTR [rbp+0x2d7f],0x79
  403603:	c6 85 80 2d 00 00 48 	mov    BYTE PTR [rbp+0x2d80],0x48
  40360a:	c6 85 81 2d 00 00 90 	mov    BYTE PTR [rbp+0x2d81],0x90
  403611:	c6 85 82 2d 00 00 06 	mov    BYTE PTR [rbp+0x2d82],0x6
  403618:	c6 85 83 2d 00 00 c2 	mov    BYTE PTR [rbp+0x2d83],0xc2
  40361f:	c6 85 84 2d 00 00 74 	mov    BYTE PTR [rbp+0x2d84],0x74
  403626:	c6 85 85 2d 00 00 ff 	mov    BYTE PTR [rbp+0x2d85],0xff
  40362d:	c6 85 86 2d 00 00 f0 	mov    BYTE PTR [rbp+0x2d86],0xf0
  403634:	c6 85 87 2d 00 00 7f 	mov    BYTE PTR [rbp+0x2d87],0x7f
  40363b:	c6 85 89 2d 00 00 7e 	mov    BYTE PTR [rbp+0x2d89],0x7e
  403642:	c6 85 8a 2d 00 00 70 	mov    BYTE PTR [rbp+0x2d8a],0x70
  403649:	c6 85 8b 2d 00 00 12 	mov    BYTE PTR [rbp+0x2d8b],0x12
  403650:	c6 85 8c 2d 00 00 10 	mov    BYTE PTR [rbp+0x2d8c],0x10
  403657:	c6 85 8d 2d 00 00 42 	mov    BYTE PTR [rbp+0x2d8d],0x42
  40365e:	c6 85 8e 2d 00 00 22 	mov    BYTE PTR [rbp+0x2d8e],0x22
  403665:	c6 85 8f 2d 00 00 12 	mov    BYTE PTR [rbp+0x2d8f],0x12
  40366c:	c6 85 90 2d 00 00 1d 	mov    BYTE PTR [rbp+0x2d90],0x1d
  403673:	c6 85 91 2d 00 00 df 	mov    BYTE PTR [rbp+0x2d91],0xdf
  40367a:	c6 85 92 2d 00 00 12 	mov    BYTE PTR [rbp+0x2d92],0x12
  403681:	c6 85 93 2d 00 00 1d 	mov    BYTE PTR [rbp+0x2d93],0x1d
  403688:	c6 85 94 2d 00 00 df 	mov    BYTE PTR [rbp+0x2d94],0xdf
  40368f:	c6 85 95 2d 00 00 12 	mov    BYTE PTR [rbp+0x2d95],0x12
  403696:	c6 85 96 2d 00 00 1d 	mov    BYTE PTR [rbp+0x2d96],0x1d
  40369d:	c6 85 97 2d 00 00 df 	mov    BYTE PTR [rbp+0x2d97],0xdf
  4036a4:	c6 85 98 2d 00 00 12 	mov    BYTE PTR [rbp+0x2d98],0x12
  4036ab:	c6 85 99 2d 00 00 1d 	mov    BYTE PTR [rbp+0x2d99],0x1d
  4036b2:	c6 85 9a 2d 00 00 df 	mov    BYTE PTR [rbp+0x2d9a],0xdf
  4036b9:	c6 85 9b 2d 00 00 22 	mov    BYTE PTR [rbp+0x2d9b],0x22
  4036c0:	c6 85 9c 2d 00 00 7b 	mov    BYTE PTR [rbp+0x2d9c],0x7b
  4036c7:	c6 85 9d 2d 00 00 01 	mov    BYTE PTR [rbp+0x2d9d],0x1
  4036ce:	c6 85 9e 2d 00 00 7a 	mov    BYTE PTR [rbp+0x2d9e],0x7a
  4036d5:	c6 85 9f 2d 00 00 04 	mov    BYTE PTR [rbp+0x2d9f],0x4
  4036dc:	c6 85 a0 2d 00 00 79 	mov    BYTE PTR [rbp+0x2da0],0x79
  4036e3:	c6 85 a1 2d 00 00 48 	mov    BYTE PTR [rbp+0x2da1],0x48
  4036ea:	c6 85 a2 2d 00 00 e4 	mov    BYTE PTR [rbp+0x2da2],0xe4
  4036f1:	c6 85 a3 2d 00 00 90 	mov    BYTE PTR [rbp+0x2da3],0x90
  4036f8:	c6 85 a4 2d 00 00 06 	mov    BYTE PTR [rbp+0x2da4],0x6
  4036ff:	c6 85 a5 2d 00 00 c2 	mov    BYTE PTR [rbp+0x2da5],0xc2
  403706:	c6 85 a6 2d 00 00 f0 	mov    BYTE PTR [rbp+0x2da6],0xf0
  40370d:	c6 85 a7 2d 00 00 a3 	mov    BYTE PTR [rbp+0x2da7],0xa3
  403714:	c6 85 a8 2d 00 00 f0 	mov    BYTE PTR [rbp+0x2da8],0xf0
  40371b:	c6 85 a9 2d 00 00 fd 	mov    BYTE PTR [rbp+0x2da9],0xfd
  403722:	c6 85 aa 2d 00 00 7c 	mov    BYTE PTR [rbp+0x2daa],0x7c
  403729:	c6 85 ab 2d 00 00 70 	mov    BYTE PTR [rbp+0x2dab],0x70
  403730:	c6 85 ac 2d 00 00 12 	mov    BYTE PTR [rbp+0x2dac],0x12
  403737:	c6 85 ad 2d 00 00 1d 	mov    BYTE PTR [rbp+0x2dad],0x1d
  40373e:	c6 85 ae 2d 00 00 4e 	mov    BYTE PTR [rbp+0x2dae],0x4e
  403745:	c6 85 af 2d 00 00 22 	mov    BYTE PTR [rbp+0x2daf],0x22
  40374c:	c6 85 b0 2d 00 00 12 	mov    BYTE PTR [rbp+0x2db0],0x12
  403753:	c6 85 b1 2d 00 00 1d 	mov    BYTE PTR [rbp+0x2db1],0x1d
  40375a:	c6 85 b2 2d 00 00 df 	mov    BYTE PTR [rbp+0x2db2],0xdf
  403761:	c6 85 b3 2d 00 00 90 	mov    BYTE PTR [rbp+0x2db3],0x90
  403768:	c6 85 b4 2d 00 00 06 	mov    BYTE PTR [rbp+0x2db4],0x6
  40376f:	c6 85 b5 2d 00 00 a8 	mov    BYTE PTR [rbp+0x2db5],0xa8
  403776:	c6 85 b6 2d 00 00 e4 	mov    BYTE PTR [rbp+0x2db6],0xe4
  40377d:	c6 85 b7 2d 00 00 75 	mov    BYTE PTR [rbp+0x2db7],0x75
  403784:	c6 85 b8 2d 00 00 f0 	mov    BYTE PTR [rbp+0x2db8],0xf0
  40378b:	c6 85 b9 2d 00 00 01 	mov    BYTE PTR [rbp+0x2db9],0x1
  403792:	c6 85 ba 2d 00 00 12 	mov    BYTE PTR [rbp+0x2dba],0x12
  403799:	c6 85 bb 2d 00 00 14 	mov    BYTE PTR [rbp+0x2dbb],0x14
  4037a0:	c6 85 bc 2d 00 00 1c 	mov    BYTE PTR [rbp+0x2dbc],0x1c
  4037a7:	c6 85 bd 2d 00 00 22 	mov    BYTE PTR [rbp+0x2dbd],0x22
  4037ae:	c6 85 be 2d 00 00 12 	mov    BYTE PTR [rbp+0x2dbe],0x12
  4037b5:	c6 85 bf 2d 00 00 1d 	mov    BYTE PTR [rbp+0x2dbf],0x1d
  4037bc:	c6 85 c0 2d 00 00 df 	mov    BYTE PTR [rbp+0x2dc0],0xdf
  4037c3:	c6 85 c1 2d 00 00 90 	mov    BYTE PTR [rbp+0x2dc1],0x90
  4037ca:	c6 85 c3 2d 00 00 10 	mov    BYTE PTR [rbp+0x2dc3],0x10
  4037d1:	c6 85 c4 2d 00 00 ef 	mov    BYTE PTR [rbp+0x2dc4],0xef
  4037d8:	c6 85 c5 2d 00 00 f0 	mov    BYTE PTR [rbp+0x2dc5],0xf0
  4037df:	c6 85 c6 2d 00 00 22 	mov    BYTE PTR [rbp+0x2dc6],0x22
  4037e6:	c6 85 c7 2d 00 00 12 	mov    BYTE PTR [rbp+0x2dc7],0x12
  4037ed:	c6 85 c8 2d 00 00 1d 	mov    BYTE PTR [rbp+0x2dc8],0x1d
  4037f4:	c6 85 c9 2d 00 00 d3 	mov    BYTE PTR [rbp+0x2dc9],0xd3
  4037fb:	c6 85 ca 2d 00 00 7f 	mov    BYTE PTR [rbp+0x2dca],0x7f
  403802:	c6 85 cb 2d 00 00 30 	mov    BYTE PTR [rbp+0x2dcb],0x30
  403809:	c6 85 cc 2d 00 00 12 	mov    BYTE PTR [rbp+0x2dcc],0x12
  403810:	c6 85 cd 2d 00 00 1d 	mov    BYTE PTR [rbp+0x2dcd],0x1d
  403817:	c6 85 ce 2d 00 00 d3 	mov    BYTE PTR [rbp+0x2dce],0xd3
  40381e:	c6 85 cf 2d 00 00 22 	mov    BYTE PTR [rbp+0x2dcf],0x22
  403825:	c6 85 d0 2d 00 00 12 	mov    BYTE PTR [rbp+0x2dd0],0x12
  40382c:	c6 85 d1 2d 00 00 1c 	mov    BYTE PTR [rbp+0x2dd1],0x1c
  403833:	c6 85 d2 2d 00 00 79 	mov    BYTE PTR [rbp+0x2dd2],0x79
  40383a:	c6 85 d3 2d 00 00 90 	mov    BYTE PTR [rbp+0x2dd3],0x90
  403841:	c6 85 d4 2d 00 00 04 	mov    BYTE PTR [rbp+0x2dd4],0x4
  403848:	c6 85 d5 2d 00 00 99 	mov    BYTE PTR [rbp+0x2dd5],0x99
  40384f:	c6 85 d6 2d 00 00 e0 	mov    BYTE PTR [rbp+0x2dd6],0xe0
  403856:	c6 85 d7 2d 00 00 ff 	mov    BYTE PTR [rbp+0x2dd7],0xff
  40385d:	c6 85 d8 2d 00 00 90 	mov    BYTE PTR [rbp+0x2dd8],0x90
  403864:	c6 85 da 2d 00 00 0f 	mov    BYTE PTR [rbp+0x2dda],0xf
  40386b:	c6 85 db 2d 00 00 e0 	mov    BYTE PTR [rbp+0x2ddb],0xe0
  403872:	c6 85 dc 2d 00 00 6f 	mov    BYTE PTR [rbp+0x2ddc],0x6f
  403879:	c6 85 dd 2d 00 00 22 	mov    BYTE PTR [rbp+0x2ddd],0x22
  403880:	c6 85 de 2d 00 00 f0 	mov    BYTE PTR [rbp+0x2dde],0xf0
  403887:	c6 85 df 2d 00 00 a3 	mov    BYTE PTR [rbp+0x2ddf],0xa3
  40388e:	c6 85 e0 2d 00 00 74 	mov    BYTE PTR [rbp+0x2de0],0x74
  403895:	c6 85 e1 2d 00 00 ff 	mov    BYTE PTR [rbp+0x2de1],0xff
  40389c:	c6 85 e2 2d 00 00 f0 	mov    BYTE PTR [rbp+0x2de2],0xf0
  4038a3:	c6 85 e3 2d 00 00 7d 	mov    BYTE PTR [rbp+0x2de3],0x7d
  4038aa:	c6 85 e5 2d 00 00 7c 	mov    BYTE PTR [rbp+0x2de5],0x7c
  4038b1:	c6 85 e6 2d 00 00 70 	mov    BYTE PTR [rbp+0x2de6],0x70
  4038b8:	c6 85 e7 2d 00 00 12 	mov    BYTE PTR [rbp+0x2de7],0x12
  4038bf:	c6 85 e8 2d 00 00 1d 	mov    BYTE PTR [rbp+0x2de8],0x1d
  4038c6:	c6 85 e9 2d 00 00 4e 	mov    BYTE PTR [rbp+0x2de9],0x4e
  4038cd:	c6 85 ea 2d 00 00 22 	mov    BYTE PTR [rbp+0x2dea],0x22
  4038d4:	c6 85 eb 2d 00 00 12 	mov    BYTE PTR [rbp+0x2deb],0x12
  4038db:	c6 85 ec 2d 00 00 1c 	mov    BYTE PTR [rbp+0x2dec],0x1c
  4038e2:	c6 85 ed 2d 00 00 79 	mov    BYTE PTR [rbp+0x2ded],0x79
  4038e9:	c6 85 ee 2d 00 00 90 	mov    BYTE PTR [rbp+0x2dee],0x90
  4038f0:	c6 85 ef 2d 00 00 04 	mov    BYTE PTR [rbp+0x2def],0x4
  4038f7:	c6 85 f0 2d 00 00 5d 	mov    BYTE PTR [rbp+0x2df0],0x5d
  4038fe:	c6 85 f1 2d 00 00 e0 	mov    BYTE PTR [rbp+0x2df1],0xe0
  403905:	c6 85 f2 2d 00 00 64 	mov    BYTE PTR [rbp+0x2df2],0x64
  40390c:	c6 85 f3 2d 00 00 01 	mov    BYTE PTR [rbp+0x2df3],0x1
  403913:	c6 85 f4 2d 00 00 22 	mov    BYTE PTR [rbp+0x2df4],0x22
  40391a:	c6 85 f5 2d 00 00 12 	mov    BYTE PTR [rbp+0x2df5],0x12
  403921:	c6 85 f6 2d 00 00 1d 	mov    BYTE PTR [rbp+0x2df6],0x1d
  403928:	c6 85 f7 2d 00 00 df 	mov    BYTE PTR [rbp+0x2df7],0xdf
  40392f:	c6 85 f8 2d 00 00 90 	mov    BYTE PTR [rbp+0x2df8],0x90
  403936:	c6 85 fa 2d 00 00 10 	mov    BYTE PTR [rbp+0x2dfa],0x10
  40393d:	c6 85 fb 2d 00 00 22 	mov    BYTE PTR [rbp+0x2dfb],0x22
  403944:	c6 85 fc 2d 00 00 12 	mov    BYTE PTR [rbp+0x2dfc],0x12
  40394b:	c6 85 fd 2d 00 00 1d 	mov    BYTE PTR [rbp+0x2dfd],0x1d
  403952:	c6 85 fe 2d 00 00 df 	mov    BYTE PTR [rbp+0x2dfe],0xdf
  403959:	c6 85 ff 2d 00 00 90 	mov    BYTE PTR [rbp+0x2dff],0x90
  403960:	c6 85 00 2e 00 00 04 	mov    BYTE PTR [rbp+0x2e00],0x4
  403967:	c6 85 01 2e 00 00 9a 	mov    BYTE PTR [rbp+0x2e01],0x9a
  40396e:	c6 85 02 2e 00 00 22 	mov    BYTE PTR [rbp+0x2e02],0x22
  403975:	c6 85 03 2e 00 00 12 	mov    BYTE PTR [rbp+0x2e03],0x12
  40397c:	c6 85 04 2e 00 00 1d 	mov    BYTE PTR [rbp+0x2e04],0x1d
  403983:	c6 85 05 2e 00 00 df 	mov    BYTE PTR [rbp+0x2e05],0xdf
  40398a:	c6 85 06 2e 00 00 90 	mov    BYTE PTR [rbp+0x2e06],0x90
  403991:	c6 85 07 2e 00 00 04 	mov    BYTE PTR [rbp+0x2e07],0x4
  403998:	c6 85 08 2e 00 00 9b 	mov    BYTE PTR [rbp+0x2e08],0x9b
  40399f:	c6 85 09 2e 00 00 22 	mov    BYTE PTR [rbp+0x2e09],0x22
  4039a6:	c6 85 0a 2e 00 00 12 	mov    BYTE PTR [rbp+0x2e0a],0x12
  4039ad:	c6 85 0b 2e 00 00 1d 	mov    BYTE PTR [rbp+0x2e0b],0x1d
  4039b4:	c6 85 0c 2e 00 00 df 	mov    BYTE PTR [rbp+0x2e0c],0xdf
  4039bb:	c6 85 0d 2e 00 00 90 	mov    BYTE PTR [rbp+0x2e0d],0x90
  4039c2:	c6 85 0e 2e 00 00 04 	mov    BYTE PTR [rbp+0x2e0e],0x4
  4039c9:	c6 85 0f 2e 00 00 9c 	mov    BYTE PTR [rbp+0x2e0f],0x9c
  4039d0:	c6 85 10 2e 00 00 22 	mov    BYTE PTR [rbp+0x2e10],0x22
  4039d7:	c6 85 11 2e 00 00 12 	mov    BYTE PTR [rbp+0x2e11],0x12
  4039de:	c6 85 12 2e 00 00 1c 	mov    BYTE PTR [rbp+0x2e12],0x1c
  4039e5:	c6 85 13 2e 00 00 79 	mov    BYTE PTR [rbp+0x2e13],0x79
  4039ec:	c6 85 14 2e 00 00 90 	mov    BYTE PTR [rbp+0x2e14],0x90
  4039f3:	c6 85 16 2e 00 00 12 	mov    BYTE PTR [rbp+0x2e16],0x12
  4039fa:	c6 85 17 2e 00 00 22 	mov    BYTE PTR [rbp+0x2e17],0x22
  403a01:	c6 85 18 2e 00 00 44 	mov    BYTE PTR [rbp+0x2e18],0x44
  403a08:	c6 85 19 2e 00 00 06 	mov    BYTE PTR [rbp+0x2e19],0x6
  403a0f:	c6 85 1a 2e 00 00 f0 	mov    BYTE PTR [rbp+0x2e1a],0xf0
  403a16:	0f b6 85 80 4b 00 00 	movzx  eax,BYTE PTR [rbp+0x4b80]
  403a1d:	88 85 1b 2e 00 00    	mov    BYTE PTR [rbp+0x2e1b],al
  403a23:	0f b6 85 81 4b 00 00 	movzx  eax,BYTE PTR [rbp+0x4b81]
  403a2a:	88 85 1c 2e 00 00    	mov    BYTE PTR [rbp+0x2e1c],al
  403a30:	0f b6 85 82 4b 00 00 	movzx  eax,BYTE PTR [rbp+0x4b82]
  403a37:	88 85 1d 2e 00 00    	mov    BYTE PTR [rbp+0x2e1d],al
  403a3d:	0f b6 85 83 4b 00 00 	movzx  eax,BYTE PTR [rbp+0x4b83]
  403a44:	88 85 1e 2e 00 00    	mov    BYTE PTR [rbp+0x2e1e],al
  403a4a:	c6 85 1f 2e 00 00 44 	mov    BYTE PTR [rbp+0x2e1f],0x44
  403a51:	c6 85 20 2e 00 00 06 	mov    BYTE PTR [rbp+0x2e20],0x6
  403a58:	c6 85 21 2e 00 00 dd 	mov    BYTE PTR [rbp+0x2e21],0xdd
  403a5f:	0f b6 85 84 4b 00 00 	movzx  eax,BYTE PTR [rbp+0x4b84]
  403a66:	88 85 22 2e 00 00    	mov    BYTE PTR [rbp+0x2e22],al
  403a6c:	0f b6 85 85 4b 00 00 	movzx  eax,BYTE PTR [rbp+0x4b85]
  403a73:	88 85 23 2e 00 00    	mov    BYTE PTR [rbp+0x2e23],al
  403a79:	0f b6 85 86 4b 00 00 	movzx  eax,BYTE PTR [rbp+0x4b86]
  403a80:	88 85 24 2e 00 00    	mov    BYTE PTR [rbp+0x2e24],al
  403a86:	0f b6 85 87 4b 00 00 	movzx  eax,BYTE PTR [rbp+0x4b87]
  403a8d:	88 85 25 2e 00 00    	mov    BYTE PTR [rbp+0x2e25],al
  403a93:	c6 85 26 2e 00 00 4f 	mov    BYTE PTR [rbp+0x2e26],0x4f
  403a9a:	c6 85 27 2e 00 00 06 	mov    BYTE PTR [rbp+0x2e27],0x6
  403aa1:	c6 85 28 2e 00 00 e1 	mov    BYTE PTR [rbp+0x2e28],0xe1
  403aa8:	0f b6 85 88 4b 00 00 	movzx  eax,BYTE PTR [rbp+0x4b88]
  403aaf:	88 85 29 2e 00 00    	mov    BYTE PTR [rbp+0x2e29],al
  403ab5:	0f b6 85 89 4b 00 00 	movzx  eax,BYTE PTR [rbp+0x4b89]
  403abc:	88 85 2a 2e 00 00    	mov    BYTE PTR [rbp+0x2e2a],al
  403ac2:	0f b6 85 8a 4b 00 00 	movzx  eax,BYTE PTR [rbp+0x4b8a]
  403ac9:	88 85 2b 2e 00 00    	mov    BYTE PTR [rbp+0x2e2b],al
  403acf:	0f b6 85 8b 4b 00 00 	movzx  eax,BYTE PTR [rbp+0x4b8b]
  403ad6:	88 85 2c 2e 00 00    	mov    BYTE PTR [rbp+0x2e2c],al
  403adc:	0f b6 85 8c 4b 00 00 	movzx  eax,BYTE PTR [rbp+0x4b8c]
  403ae3:	88 85 2d 2e 00 00    	mov    BYTE PTR [rbp+0x2e2d],al
  403ae9:	0f b6 85 8d 4b 00 00 	movzx  eax,BYTE PTR [rbp+0x4b8d]
  403af0:	88 85 2e 2e 00 00    	mov    BYTE PTR [rbp+0x2e2e],al
  403af6:	0f b6 85 8e 4b 00 00 	movzx  eax,BYTE PTR [rbp+0x4b8e]
  403afd:	88 85 2f 2e 00 00    	mov    BYTE PTR [rbp+0x2e2f],al
  403b03:	0f b6 85 8f 4b 00 00 	movzx  eax,BYTE PTR [rbp+0x4b8f]
  403b0a:	88 85 30 2e 00 00    	mov    BYTE PTR [rbp+0x2e30],al
  403b10:	0f b6 85 90 4b 00 00 	movzx  eax,BYTE PTR [rbp+0x4b90]
  403b17:	88 85 31 2e 00 00    	mov    BYTE PTR [rbp+0x2e31],al
  403b1d:	0f b6 85 91 4b 00 00 	movzx  eax,BYTE PTR [rbp+0x4b91]
  403b24:	88 85 32 2e 00 00    	mov    BYTE PTR [rbp+0x2e32],al
  403b2a:	0f b6 85 92 4b 00 00 	movzx  eax,BYTE PTR [rbp+0x4b92]
  403b31:	88 85 33 2e 00 00    	mov    BYTE PTR [rbp+0x2e33],al
  403b37:	0f b6 85 93 4b 00 00 	movzx  eax,BYTE PTR [rbp+0x4b93]
  403b3e:	88 85 34 2e 00 00    	mov    BYTE PTR [rbp+0x2e34],al
  403b44:	0f b6 85 94 4b 00 00 	movzx  eax,BYTE PTR [rbp+0x4b94]
  403b4b:	88 85 35 2e 00 00    	mov    BYTE PTR [rbp+0x2e35],al
  403b51:	0f b6 85 95 4b 00 00 	movzx  eax,BYTE PTR [rbp+0x4b95]
  403b58:	88 85 36 2e 00 00    	mov    BYTE PTR [rbp+0x2e36],al
  403b5e:	0f b6 85 96 4b 00 00 	movzx  eax,BYTE PTR [rbp+0x4b96]
  403b65:	88 85 37 2e 00 00    	mov    BYTE PTR [rbp+0x2e37],al
  403b6b:	c6 85 38 2e 00 00 43 	mov    BYTE PTR [rbp+0x2e38],0x43
  403b72:	c6 85 39 2e 00 00 06 	mov    BYTE PTR [rbp+0x2e39],0x6
  403b79:	c6 85 3a 2e 00 00 f4 	mov    BYTE PTR [rbp+0x2e3a],0xf4
  403b80:	c6 85 3e 2e 00 00 60 	mov    BYTE PTR [rbp+0x2e3e],0x60
  403b87:	c6 85 3f 2e 00 00 60 	mov    BYTE PTR [rbp+0x2e3f],0x60
  403b8e:	c6 85 40 2e 00 00 06 	mov    BYTE PTR [rbp+0x2e40],0x6
  403b95:	c6 85 41 2e 00 00 48 	mov    BYTE PTR [rbp+0x2e41],0x48
  403b9c:	c6 85 42 2e 00 00 02 	mov    BYTE PTR [rbp+0x2e42],0x2
  403ba3:	c6 85 44 2e 00 00 3b 	mov    BYTE PTR [rbp+0x2e44],0x3b
  403baa:	c6 85 45 2e 00 00 32 	mov    BYTE PTR [rbp+0x2e45],0x32
  403bb1:	c6 85 4d 2e 00 00 32 	mov    BYTE PTR [rbp+0x2e4d],0x32
  403bb8:	c6 85 55 2e 00 00 32 	mov    BYTE PTR [rbp+0x2e55],0x32
  403bbf:	c6 85 5d 2e 00 00 32 	mov    BYTE PTR [rbp+0x2e5d],0x32
  403bc6:	c6 85 65 2e 00 00 32 	mov    BYTE PTR [rbp+0x2e65],0x32
  403bcd:	c6 85 6d 2e 00 00 32 	mov    BYTE PTR [rbp+0x2e6d],0x32
  403bd4:	48 b8 00 58 8d f4 ff 	movabs rax,0xfff48d5800
  403bdb:	00 00 00 
  403bde:	ba 00 00 00 00       	mov    edx,0x0
  403be3:	48 89 85 60 2c 00 00 	mov    QWORD PTR [rbp+0x2c60],rax
  403bea:	48 89 95 68 2c 00 00 	mov    QWORD PTR [rbp+0x2c68],rdx
  403bf1:	48 8d 95 70 2c 00 00 	lea    rdx,[rbp+0x2c70]
  403bf8:	b8 00 00 00 00       	mov    eax,0x0
  403bfd:	b9 1f 00 00 00       	mov    ecx,0x1f
  403c02:	48 89 d7             	mov    rdi,rdx
  403c05:	f3 48 ab             	rep stos QWORD PTR es:[rdi],rax
  403c08:	48 89 fa             	mov    rdx,rdi
  403c0b:	89 02                	mov    DWORD PTR [rdx],eax
  403c0d:	48 83 c2 04          	add    rdx,0x4
  403c11:	66 89 02             	mov    WORD PTR [rdx],ax
  403c14:	48 83 c2 02          	add    rdx,0x2
  403c18:	48 8d 95 50 2b 00 00 	lea    rdx,[rbp+0x2b50]
  403c1f:	b8 00 00 00 00       	mov    eax,0x0
  403c24:	b9 21 00 00 00       	mov    ecx,0x21
  403c29:	48 89 d7             	mov    rdi,rdx
  403c2c:	f3 48 ab             	rep stos QWORD PTR es:[rdi],rax
  403c2f:	48 89 fa             	mov    rdx,rdi
  403c32:	89 02                	mov    DWORD PTR [rdx],eax
  403c34:	48 83 c2 04          	add    rdx,0x4
  403c38:	66 89 02             	mov    WORD PTR [rdx],ax
  403c3b:	48 83 c2 02          	add    rdx,0x2
  403c3f:	c6 85 56 2b 00 00 32 	mov    BYTE PTR [rbp+0x2b56],0x32
  403c46:	c6 85 5e 2b 00 00 78 	mov    BYTE PTR [rbp+0x2b5e],0x78
  403c4d:	c6 85 5f 2b 00 00 ff 	mov    BYTE PTR [rbp+0x2b5f],0xff
  403c54:	c6 85 60 2b 00 00 e4 	mov    BYTE PTR [rbp+0x2b60],0xe4
  403c5b:	c6 85 61 2b 00 00 f6 	mov    BYTE PTR [rbp+0x2b61],0xf6
  403c62:	c6 85 62 2b 00 00 d8 	mov    BYTE PTR [rbp+0x2b62],0xd8
  403c69:	c6 85 63 2b 00 00 fd 	mov    BYTE PTR [rbp+0x2b63],0xfd
  403c70:	c6 85 64 2b 00 00 90 	mov    BYTE PTR [rbp+0x2b64],0x90
  403c77:	c6 85 67 2b 00 00 7f 	mov    BYTE PTR [rbp+0x2b67],0x7f
  403c7e:	c6 85 68 2b 00 00 1c 	mov    BYTE PTR [rbp+0x2b68],0x1c
  403c85:	c6 85 69 2b 00 00 7e 	mov    BYTE PTR [rbp+0x2b69],0x7e
  403c8c:	c6 85 6a 2b 00 00 04 	mov    BYTE PTR [rbp+0x2b6a],0x4
  403c93:	c6 85 6b 2b 00 00 ef 	mov    BYTE PTR [rbp+0x2b6b],0xef
  403c9a:	c6 85 6c 2b 00 00 70 	mov    BYTE PTR [rbp+0x2b6c],0x70
  403ca1:	c6 85 6d 2b 00 00 03 	mov    BYTE PTR [rbp+0x2b6d],0x3
  403ca8:	c6 85 6e 2b 00 00 ee 	mov    BYTE PTR [rbp+0x2b6e],0xee
  403caf:	c6 85 6f 2b 00 00 60 	mov    BYTE PTR [rbp+0x2b6f],0x60
  403cb6:	c6 85 70 2b 00 00 08 	mov    BYTE PTR [rbp+0x2b70],0x8
  403cbd:	c6 85 71 2b 00 00 0e 	mov    BYTE PTR [rbp+0x2b71],0xe
  403cc4:	c6 85 72 2b 00 00 e4 	mov    BYTE PTR [rbp+0x2b72],0xe4
  403ccb:	c6 85 73 2b 00 00 f0 	mov    BYTE PTR [rbp+0x2b73],0xf0
  403cd2:	c6 85 74 2b 00 00 a3 	mov    BYTE PTR [rbp+0x2b74],0xa3
  403cd9:	c6 85 75 2b 00 00 df 	mov    BYTE PTR [rbp+0x2b75],0xdf
  403ce0:	c6 85 76 2b 00 00 fc 	mov    BYTE PTR [rbp+0x2b76],0xfc
  403ce7:	c6 85 77 2b 00 00 de 	mov    BYTE PTR [rbp+0x2b77],0xde
  403cee:	c6 85 78 2b 00 00 fa 	mov    BYTE PTR [rbp+0x2b78],0xfa
  403cf5:	c6 85 79 2b 00 00 75 	mov    BYTE PTR [rbp+0x2b79],0x75
  403cfc:	c6 85 7a 2b 00 00 90 	mov    BYTE PTR [rbp+0x2b7a],0x90
  403d03:	c6 85 7b 2b 00 00 03 	mov    BYTE PTR [rbp+0x2b7b],0x3
  403d0a:	c6 85 7c 2b 00 00 75 	mov    BYTE PTR [rbp+0x2b7c],0x75
  403d11:	c6 85 7d 2b 00 00 c3 	mov    BYTE PTR [rbp+0x2b7d],0xc3
  403d18:	c6 85 7e 2b 00 00 01 	mov    BYTE PTR [rbp+0x2b7e],0x1
  403d1f:	c6 85 7f 2b 00 00 02 	mov    BYTE PTR [rbp+0x2b7f],0x2
  403d26:	c6 85 80 2b 00 00 80 	mov    BYTE PTR [rbp+0x2b80],0x80
  403d2d:	c6 85 82 2b 00 00 ff 	mov    BYTE PTR [rbp+0x2b82],0xff
  403d34:	c6 85 83 2b 00 00 62 	mov    BYTE PTR [rbp+0x2b83],0x62
  403d3b:	c6 85 86 2b 00 00 12 	mov    BYTE PTR [rbp+0x2b86],0x12
  403d42:	0f b6 85 97 4b 00 00 	movzx  eax,BYTE PTR [rbp+0x4b97]
  403d49:	88 85 87 2b 00 00    	mov    BYTE PTR [rbp+0x2b87],al
  403d4f:	0f b6 85 98 4b 00 00 	movzx  eax,BYTE PTR [rbp+0x4b98]
  403d56:	88 85 88 2b 00 00    	mov    BYTE PTR [rbp+0x2b88],al
  403d5c:	0f b6 85 99 4b 00 00 	movzx  eax,BYTE PTR [rbp+0x4b99]
  403d63:	88 85 89 2b 00 00    	mov    BYTE PTR [rbp+0x2b89],al
  403d69:	0f b6 85 9a 4b 00 00 	movzx  eax,BYTE PTR [rbp+0x4b9a]
  403d70:	88 85 8a 2b 00 00    	mov    BYTE PTR [rbp+0x2b8a],al
  403d76:	0f b6 85 9b 4b 00 00 	movzx  eax,BYTE PTR [rbp+0x4b9b]
  403d7d:	88 85 8b 2b 00 00    	mov    BYTE PTR [rbp+0x2b8b],al
  403d83:	0f b6 85 9c 4b 00 00 	movzx  eax,BYTE PTR [rbp+0x4b9c]
  403d8a:	88 85 8c 2b 00 00    	mov    BYTE PTR [rbp+0x2b8c],al
  403d90:	0f b6 85 9d 4b 00 00 	movzx  eax,BYTE PTR [rbp+0x4b9d]
  403d97:	88 85 8d 2b 00 00    	mov    BYTE PTR [rbp+0x2b8d],al
  403d9d:	0f b6 85 9e 4b 00 00 	movzx  eax,BYTE PTR [rbp+0x4b9e]
  403da4:	88 85 8e 2b 00 00    	mov    BYTE PTR [rbp+0x2b8e],al
  403daa:	0f b6 85 9f 4b 00 00 	movzx  eax,BYTE PTR [rbp+0x4b9f]
  403db1:	88 85 8f 2b 00 00    	mov    BYTE PTR [rbp+0x2b8f],al
  403db7:	0f b6 85 a0 4b 00 00 	movzx  eax,BYTE PTR [rbp+0x4ba0]
  403dbe:	88 85 90 2b 00 00    	mov    BYTE PTR [rbp+0x2b90],al
  403dc4:	0f b6 85 a1 4b 00 00 	movzx  eax,BYTE PTR [rbp+0x4ba1]
  403dcb:	88 85 91 2b 00 00    	mov    BYTE PTR [rbp+0x2b91],al
  403dd1:	0f b6 85 a2 4b 00 00 	movzx  eax,BYTE PTR [rbp+0x4ba2]
  403dd8:	88 85 92 2b 00 00    	mov    BYTE PTR [rbp+0x2b92],al
  403dde:	0f b6 85 a3 4b 00 00 	movzx  eax,BYTE PTR [rbp+0x4ba3]
  403de5:	88 85 93 2b 00 00    	mov    BYTE PTR [rbp+0x2b93],al
  403deb:	0f b6 85 a4 4b 00 00 	movzx  eax,BYTE PTR [rbp+0x4ba4]
  403df2:	88 85 94 2b 00 00    	mov    BYTE PTR [rbp+0x2b94],al
  403df8:	0f b6 85 a5 4b 00 00 	movzx  eax,BYTE PTR [rbp+0x4ba5]
  403dff:	88 85 95 2b 00 00    	mov    BYTE PTR [rbp+0x2b95],al
  403e05:	0f b6 85 a6 4b 00 00 	movzx  eax,BYTE PTR [rbp+0x4ba6]
  403e0c:	88 85 96 2b 00 00    	mov    BYTE PTR [rbp+0x2b96],al
  403e12:	0f b6 85 a7 4b 00 00 	movzx  eax,BYTE PTR [rbp+0x4ba7]
  403e19:	88 85 97 2b 00 00    	mov    BYTE PTR [rbp+0x2b97],al
  403e1f:	0f b6 85 a8 4b 00 00 	movzx  eax,BYTE PTR [rbp+0x4ba8]
  403e26:	88 85 9c 2b 00 00    	mov    BYTE PTR [rbp+0x2b9c],al
  403e2c:	0f b6 85 a9 4b 00 00 	movzx  eax,BYTE PTR [rbp+0x4ba9]
  403e33:	88 85 9d 2b 00 00    	mov    BYTE PTR [rbp+0x2b9d],al
  403e39:	c6 85 9e 2b 00 00 ff 	mov    BYTE PTR [rbp+0x2b9e],0xff
  403e40:	c6 85 9f 2b 00 00 ff 	mov    BYTE PTR [rbp+0x2b9f],0xff
  403e47:	0f b6 85 aa 4b 00 00 	movzx  eax,BYTE PTR [rbp+0x4baa]
  403e4e:	88 85 a7 2b 00 00    	mov    BYTE PTR [rbp+0x2ba7],al
  403e54:	0f b6 85 ab 4b 00 00 	movzx  eax,BYTE PTR [rbp+0x4bab]
  403e5b:	88 85 a8 2b 00 00    	mov    BYTE PTR [rbp+0x2ba8],al
  403e61:	0f b6 85 ac 4b 00 00 	movzx  eax,BYTE PTR [rbp+0x4bac]
  403e68:	88 85 a9 2b 00 00    	mov    BYTE PTR [rbp+0x2ba9],al
  403e6e:	0f b6 85 ad 4b 00 00 	movzx  eax,BYTE PTR [rbp+0x4bad]
  403e75:	88 85 aa 2b 00 00    	mov    BYTE PTR [rbp+0x2baa],al
  403e7b:	0f b6 85 ae 4b 00 00 	movzx  eax,BYTE PTR [rbp+0x4bae]
  403e82:	88 85 ab 2b 00 00    	mov    BYTE PTR [rbp+0x2bab],al
  403e88:	0f b6 85 af 4b 00 00 	movzx  eax,BYTE PTR [rbp+0x4baf]
  403e8f:	88 85 ac 2b 00 00    	mov    BYTE PTR [rbp+0x2bac],al
  403e95:	0f b6 85 b0 4b 00 00 	movzx  eax,BYTE PTR [rbp+0x4bb0]
  403e9c:	88 85 ad 2b 00 00    	mov    BYTE PTR [rbp+0x2bad],al
  403ea2:	0f b6 85 b1 4b 00 00 	movzx  eax,BYTE PTR [rbp+0x4bb1]
  403ea9:	88 85 ae 2b 00 00    	mov    BYTE PTR [rbp+0x2bae],al
  403eaf:	0f b6 85 b2 4b 00 00 	movzx  eax,BYTE PTR [rbp+0x4bb2]
  403eb6:	88 85 af 2b 00 00    	mov    BYTE PTR [rbp+0x2baf],al
  403ebc:	0f b6 85 b3 4b 00 00 	movzx  eax,BYTE PTR [rbp+0x4bb3]
  403ec3:	88 85 b0 2b 00 00    	mov    BYTE PTR [rbp+0x2bb0],al
  403ec9:	0f b6 85 b4 4b 00 00 	movzx  eax,BYTE PTR [rbp+0x4bb4]
  403ed0:	88 85 b1 2b 00 00    	mov    BYTE PTR [rbp+0x2bb1],al
  403ed6:	0f b6 85 b5 4b 00 00 	movzx  eax,BYTE PTR [rbp+0x4bb5]
  403edd:	88 85 b2 2b 00 00    	mov    BYTE PTR [rbp+0x2bb2],al
  403ee3:	0f b6 85 b6 4b 00 00 	movzx  eax,BYTE PTR [rbp+0x4bb6]
  403eea:	88 85 b3 2b 00 00    	mov    BYTE PTR [rbp+0x2bb3],al
  403ef0:	0f b6 85 b7 4b 00 00 	movzx  eax,BYTE PTR [rbp+0x4bb7]
  403ef7:	88 85 b4 2b 00 00    	mov    BYTE PTR [rbp+0x2bb4],al
  403efd:	0f b6 85 b8 4b 00 00 	movzx  eax,BYTE PTR [rbp+0x4bb8]
  403f04:	88 85 b5 2b 00 00    	mov    BYTE PTR [rbp+0x2bb5],al
  403f0a:	0f b6 85 b9 4b 00 00 	movzx  eax,BYTE PTR [rbp+0x4bb9]
  403f11:	88 85 b6 2b 00 00    	mov    BYTE PTR [rbp+0x2bb6],al
  403f17:	0f b6 85 ba 4b 00 00 	movzx  eax,BYTE PTR [rbp+0x4bba]
  403f1e:	88 85 b7 2b 00 00    	mov    BYTE PTR [rbp+0x2bb7],al
  403f24:	0f b6 85 bb 4b 00 00 	movzx  eax,BYTE PTR [rbp+0x4bbb]
  403f2b:	88 85 b8 2b 00 00    	mov    BYTE PTR [rbp+0x2bb8],al
  403f31:	0f b6 85 bc 4b 00 00 	movzx  eax,BYTE PTR [rbp+0x4bbc]
  403f38:	88 85 b9 2b 00 00    	mov    BYTE PTR [rbp+0x2bb9],al
  403f3e:	0f b6 85 bd 4b 00 00 	movzx  eax,BYTE PTR [rbp+0x4bbd]
  403f45:	88 85 ba 2b 00 00    	mov    BYTE PTR [rbp+0x2bba],al
  403f4b:	0f b6 85 be 4b 00 00 	movzx  eax,BYTE PTR [rbp+0x4bbe]
  403f52:	88 85 bb 2b 00 00    	mov    BYTE PTR [rbp+0x2bbb],al
  403f58:	0f b6 85 bf 4b 00 00 	movzx  eax,BYTE PTR [rbp+0x4bbf]
  403f5f:	88 85 bc 2b 00 00    	mov    BYTE PTR [rbp+0x2bbc],al
  403f65:	0f b6 85 c0 4b 00 00 	movzx  eax,BYTE PTR [rbp+0x4bc0]
  403f6c:	88 85 bd 2b 00 00    	mov    BYTE PTR [rbp+0x2bbd],al
  403f72:	0f b6 85 c1 4b 00 00 	movzx  eax,BYTE PTR [rbp+0x4bc1]
  403f79:	88 85 be 2b 00 00    	mov    BYTE PTR [rbp+0x2bbe],al
  403f7f:	0f b6 85 c2 4b 00 00 	movzx  eax,BYTE PTR [rbp+0x4bc2]
  403f86:	88 85 bf 2b 00 00    	mov    BYTE PTR [rbp+0x2bbf],al
  403f8c:	0f b6 85 c3 4b 00 00 	movzx  eax,BYTE PTR [rbp+0x4bc3]
  403f93:	88 85 c0 2b 00 00    	mov    BYTE PTR [rbp+0x2bc0],al
  403f99:	0f b6 85 c4 4b 00 00 	movzx  eax,BYTE PTR [rbp+0x4bc4]
  403fa0:	88 85 c1 2b 00 00    	mov    BYTE PTR [rbp+0x2bc1],al
  403fa6:	0f b6 85 c5 4b 00 00 	movzx  eax,BYTE PTR [rbp+0x4bc5]
  403fad:	88 85 c2 2b 00 00    	mov    BYTE PTR [rbp+0x2bc2],al
  403fb3:	0f b6 85 c6 4b 00 00 	movzx  eax,BYTE PTR [rbp+0x4bc6]
  403fba:	88 85 c3 2b 00 00    	mov    BYTE PTR [rbp+0x2bc3],al
  403fc0:	0f b6 85 c7 4b 00 00 	movzx  eax,BYTE PTR [rbp+0x4bc7]
  403fc7:	88 85 c4 2b 00 00    	mov    BYTE PTR [rbp+0x2bc4],al
  403fcd:	0f b6 85 c8 4b 00 00 	movzx  eax,BYTE PTR [rbp+0x4bc8]
  403fd4:	88 85 c5 2b 00 00    	mov    BYTE PTR [rbp+0x2bc5],al
  403fda:	0f b6 85 c9 4b 00 00 	movzx  eax,BYTE PTR [rbp+0x4bc9]
  403fe1:	88 85 c6 2b 00 00    	mov    BYTE PTR [rbp+0x2bc6],al
  403fe7:	0f b6 85 ca 4b 00 00 	movzx  eax,BYTE PTR [rbp+0x4bca]
  403fee:	88 85 c7 2b 00 00    	mov    BYTE PTR [rbp+0x2bc7],al
  403ff4:	0f b6 85 cb 4b 00 00 	movzx  eax,BYTE PTR [rbp+0x4bcb]
  403ffb:	88 85 c8 2b 00 00    	mov    BYTE PTR [rbp+0x2bc8],al
  404001:	0f b6 85 cc 4b 00 00 	movzx  eax,BYTE PTR [rbp+0x4bcc]
  404008:	88 85 c9 2b 00 00    	mov    BYTE PTR [rbp+0x2bc9],al
  40400e:	0f b6 85 cd 4b 00 00 	movzx  eax,BYTE PTR [rbp+0x4bcd]
  404015:	88 85 ca 2b 00 00    	mov    BYTE PTR [rbp+0x2bca],al
  40401b:	0f b6 85 ce 4b 00 00 	movzx  eax,BYTE PTR [rbp+0x4bce]
  404022:	88 85 cb 2b 00 00    	mov    BYTE PTR [rbp+0x2bcb],al
  404028:	0f b6 85 cf 4b 00 00 	movzx  eax,BYTE PTR [rbp+0x4bcf]
  40402f:	88 85 cc 2b 00 00    	mov    BYTE PTR [rbp+0x2bcc],al
  404035:	0f b6 85 d0 4b 00 00 	movzx  eax,BYTE PTR [rbp+0x4bd0]
  40403c:	88 85 cd 2b 00 00    	mov    BYTE PTR [rbp+0x2bcd],al
  404042:	0f b6 85 d1 4b 00 00 	movzx  eax,BYTE PTR [rbp+0x4bd1]
  404049:	88 85 ce 2b 00 00    	mov    BYTE PTR [rbp+0x2bce],al
  40404f:	0f b6 85 d2 4b 00 00 	movzx  eax,BYTE PTR [rbp+0x4bd2]
  404056:	88 85 cf 2b 00 00    	mov    BYTE PTR [rbp+0x2bcf],al
  40405c:	0f b6 85 d3 4b 00 00 	movzx  eax,BYTE PTR [rbp+0x4bd3]
  404063:	88 85 d0 2b 00 00    	mov    BYTE PTR [rbp+0x2bd0],al
  404069:	0f b6 85 d4 4b 00 00 	movzx  eax,BYTE PTR [rbp+0x4bd4]
  404070:	88 85 d1 2b 00 00    	mov    BYTE PTR [rbp+0x2bd1],al
  404076:	0f b6 85 d5 4b 00 00 	movzx  eax,BYTE PTR [rbp+0x4bd5]
  40407d:	88 85 d2 2b 00 00    	mov    BYTE PTR [rbp+0x2bd2],al
  404083:	0f b6 85 d6 4b 00 00 	movzx  eax,BYTE PTR [rbp+0x4bd6]
  40408a:	88 85 d3 2b 00 00    	mov    BYTE PTR [rbp+0x2bd3],al
  404090:	0f b6 85 d7 4b 00 00 	movzx  eax,BYTE PTR [rbp+0x4bd7]
  404097:	88 85 d4 2b 00 00    	mov    BYTE PTR [rbp+0x2bd4],al
  40409d:	0f b6 85 d8 4b 00 00 	movzx  eax,BYTE PTR [rbp+0x4bd8]
  4040a4:	88 85 d5 2b 00 00    	mov    BYTE PTR [rbp+0x2bd5],al
  4040aa:	0f b6 85 d9 4b 00 00 	movzx  eax,BYTE PTR [rbp+0x4bd9]
  4040b1:	88 85 d6 2b 00 00    	mov    BYTE PTR [rbp+0x2bd6],al
  4040b7:	c6 85 d7 2b 00 00 02 	mov    BYTE PTR [rbp+0x2bd7],0x2
  4040be:	c6 85 d8 2b 00 00 31 	mov    BYTE PTR [rbp+0x2bd8],0x31
  4040c5:	c6 85 d9 2b 00 00 32 	mov    BYTE PTR [rbp+0x2bd9],0x32
  4040cc:	c6 85 da 2b 00 00 33 	mov    BYTE PTR [rbp+0x2bda],0x33
  4040d3:	c6 85 db 2b 00 00 34 	mov    BYTE PTR [rbp+0x2bdb],0x34
  4040da:	48 b8 00 58 8e f3 ff 	movabs rax,0xfff38e5800
  4040e1:	00 00 00 
  4040e4:	ba 00 00 00 00       	mov    edx,0x0
  4040e9:	48 89 85 40 2a 00 00 	mov    QWORD PTR [rbp+0x2a40],rax
  4040f0:	48 89 95 48 2a 00 00 	mov    QWORD PTR [rbp+0x2a48],rdx
  4040f7:	48 8d 95 50 2a 00 00 	lea    rdx,[rbp+0x2a50]
  4040fe:	b8 00 00 00 00       	mov    eax,0x0
  404103:	b9 1f 00 00 00       	mov    ecx,0x1f
  404108:	48 89 d7             	mov    rdi,rdx
  40410b:	f3 48 ab             	rep stos QWORD PTR es:[rdi],rax
  40410e:	48 89 fa             	mov    rdx,rdi
  404111:	89 02                	mov    DWORD PTR [rdx],eax
  404113:	48 83 c2 04          	add    rdx,0x4
  404117:	66 89 02             	mov    WORD PTR [rdx],ax
  40411a:	48 83 c2 02          	add    rdx,0x2
  40411e:	48 c7 85 30 29 00 00 	mov    QWORD PTR [rbp+0x2930],0x0
  404125:	00 00 00 00 
  404129:	48 c7 85 38 29 00 00 	mov    QWORD PTR [rbp+0x2938],0x0
  404130:	00 00 00 00 
  404134:	48 c7 85 40 29 00 00 	mov    QWORD PTR [rbp+0x2940],0x0
  40413b:	00 00 00 00 
  40413f:	48 c7 85 48 29 00 00 	mov    QWORD PTR [rbp+0x2948],0x0
  404146:	00 00 00 00 
  40414a:	48 c7 85 50 29 00 00 	mov    QWORD PTR [rbp+0x2950],0x0
  404151:	00 00 00 00 
  404155:	48 c7 85 58 29 00 00 	mov    QWORD PTR [rbp+0x2958],0x0
  40415c:	00 00 00 00 
  404160:	48 c7 85 60 29 00 00 	mov    QWORD PTR [rbp+0x2960],0x0
  404167:	00 00 00 00 
  40416b:	48 c7 85 68 29 00 00 	mov    QWORD PTR [rbp+0x2968],0x0
  404172:	00 00 00 00 
  404176:	48 c7 85 70 29 00 00 	mov    QWORD PTR [rbp+0x2970],0x0
  40417d:	00 00 00 00 
  404181:	48 c7 85 78 29 00 00 	mov    QWORD PTR [rbp+0x2978],0x0
  404188:	00 00 00 00 
  40418c:	48 c7 85 80 29 00 00 	mov    QWORD PTR [rbp+0x2980],0x0
  404193:	00 00 00 00 
  404197:	48 c7 85 88 29 00 00 	mov    QWORD PTR [rbp+0x2988],0x0
  40419e:	00 00 00 00 
  4041a2:	48 c7 85 90 29 00 00 	mov    QWORD PTR [rbp+0x2990],0x0
  4041a9:	00 00 00 00 
  4041ad:	48 c7 85 98 29 00 00 	mov    QWORD PTR [rbp+0x2998],0x0
  4041b4:	00 00 00 00 
  4041b8:	48 c7 85 a0 29 00 00 	mov    QWORD PTR [rbp+0x29a0],0x0
  4041bf:	00 00 00 00 
  4041c3:	48 c7 85 a8 29 00 00 	mov    QWORD PTR [rbp+0x29a8],0x0
  4041ca:	00 00 00 00 
  4041ce:	48 c7 85 b0 29 00 00 	mov    QWORD PTR [rbp+0x29b0],0x0
  4041d5:	00 00 00 00 
  4041d9:	48 c7 85 b8 29 00 00 	mov    QWORD PTR [rbp+0x29b8],0x0
  4041e0:	00 00 00 00 
  4041e4:	48 c7 85 c0 29 00 00 	mov    QWORD PTR [rbp+0x29c0],0x0
  4041eb:	00 00 00 00 
  4041ef:	48 c7 85 c8 29 00 00 	mov    QWORD PTR [rbp+0x29c8],0x0
  4041f6:	00 00 00 00 
  4041fa:	48 c7 85 d0 29 00 00 	mov    QWORD PTR [rbp+0x29d0],0x0
  404201:	00 00 00 00 
  404205:	48 c7 85 d8 29 00 00 	mov    QWORD PTR [rbp+0x29d8],0x0
  40420c:	00 00 00 00 
  404210:	48 c7 85 e0 29 00 00 	mov    QWORD PTR [rbp+0x29e0],0x0
  404217:	00 00 00 00 
  40421b:	48 c7 85 e8 29 00 00 	mov    QWORD PTR [rbp+0x29e8],0x0
  404222:	00 00 00 00 
  404226:	48 c7 85 f0 29 00 00 	mov    QWORD PTR [rbp+0x29f0],0x0
  40422d:	00 00 00 00 
  404231:	48 c7 85 f8 29 00 00 	mov    QWORD PTR [rbp+0x29f8],0x0
  404238:	00 00 00 00 
  40423c:	48 c7 85 00 2a 00 00 	mov    QWORD PTR [rbp+0x2a00],0x0
  404243:	00 00 00 00 
  404247:	48 c7 85 08 2a 00 00 	mov    QWORD PTR [rbp+0x2a08],0x0
  40424e:	00 00 00 00 
  404252:	48 c7 85 10 2a 00 00 	mov    QWORD PTR [rbp+0x2a10],0x0
  404259:	00 00 00 00 
  40425d:	48 c7 85 18 2a 00 00 	mov    QWORD PTR [rbp+0x2a18],0x0
  404264:	00 00 00 00 
  404268:	48 c7 85 20 2a 00 00 	mov    QWORD PTR [rbp+0x2a20],0x0
  40426f:	00 00 00 00 
  404273:	48 c7 85 28 2a 00 00 	mov    QWORD PTR [rbp+0x2a28],0x0
  40427a:	00 00 00 00 
  40427e:	48 c7 85 30 2a 00 00 	mov    QWORD PTR [rbp+0x2a30],0x0
  404285:	00 00 00 00 
  404289:	c7 85 38 2a 00 00 00 	mov    DWORD PTR [rbp+0x2a38],0x0
  404290:	00 00 00 
  404293:	66 c7 85 3c 2a 00 00 	mov    WORD PTR [rbp+0x2a3c],0x0
  40429a:	00 00 
  40429c:	48 b8 00 58 8f f2 ff 	movabs rax,0xfff28f5800
  4042a3:	00 00 00 
  4042a6:	ba 00 00 00 00       	mov    edx,0x0
  4042ab:	48 89 85 20 28 00 00 	mov    QWORD PTR [rbp+0x2820],rax
  4042b2:	48 89 95 28 28 00 00 	mov    QWORD PTR [rbp+0x2828],rdx
  4042b9:	48 8d 95 30 28 00 00 	lea    rdx,[rbp+0x2830]
  4042c0:	b8 00 00 00 00       	mov    eax,0x0
  4042c5:	b9 1f 00 00 00       	mov    ecx,0x1f
  4042ca:	48 89 d7             	mov    rdi,rdx
  4042cd:	f3 48 ab             	rep stos QWORD PTR es:[rdi],rax
  4042d0:	48 89 fa             	mov    rdx,rdi
  4042d3:	89 02                	mov    DWORD PTR [rdx],eax
  4042d5:	48 83 c2 04          	add    rdx,0x4
  4042d9:	66 89 02             	mov    WORD PTR [rdx],ax
  4042dc:	48 83 c2 02          	add    rdx,0x2
  4042e0:	48 c7 85 10 27 00 00 	mov    QWORD PTR [rbp+0x2710],0x0
  4042e7:	00 00 00 00 
  4042eb:	48 c7 85 18 27 00 00 	mov    QWORD PTR [rbp+0x2718],0x0
  4042f2:	00 00 00 00 
  4042f6:	48 c7 85 20 27 00 00 	mov    QWORD PTR [rbp+0x2720],0x0
  4042fd:	00 00 00 00 
  404301:	48 c7 85 28 27 00 00 	mov    QWORD PTR [rbp+0x2728],0x0
  404308:	00 00 00 00 
  40430c:	48 c7 85 30 27 00 00 	mov    QWORD PTR [rbp+0x2730],0x0
  404313:	00 00 00 00 
  404317:	48 c7 85 38 27 00 00 	mov    QWORD PTR [rbp+0x2738],0x0
  40431e:	00 00 00 00 
  404322:	b8 00 00 00 00       	mov    eax,0x0
  404327:	ba 00 44 02 12       	mov    edx,0x12024400
  40432c:	48 89 85 40 27 00 00 	mov    QWORD PTR [rbp+0x2740],rax
  404333:	48 89 95 48 27 00 00 	mov    QWORD PTR [rbp+0x2748],rdx
  40433a:	48 b8 4c 00 01 0b 11 	movabs rax,0x181312110b01004c
  404341:	12 13 18 
  404344:	48 ba 91 92 93 94 95 	movabs rdx,0x97969594939291
  40434b:	96 97 00 
  40434e:	48 89 85 50 27 00 00 	mov    QWORD PTR [rbp+0x2750],rax
  404355:	48 89 95 58 27 00 00 	mov    QWORD PTR [rbp+0x2758],rdx
  40435c:	48 b8 90 06 bd ee f0 	movabs rax,0xf0efa3f0eebd0690
  404363:	a3 ef f0 
  404366:	48 ba a3 12 14 88 e4 	movabs rdx,0xc70690e4881412a3
  40436d:	90 06 c7 
  404370:	48 89 85 60 27 00 00 	mov    QWORD PTR [rbp+0x2760],rax
  404377:	48 89 95 68 27 00 00 	mov    QWORD PTR [rbp+0x2768],rdx
  40437e:	48 b8 f0 a3 f0 a3 f0 	movabs rax,0xa3f0a3f0a3f0a3f0
  404385:	a3 f0 a3 
  404388:	48 ba f0 a3 f0 90 06 	movabs rdx,0xfae0bd0690f0a3f0
  40438f:	bd e0 fa 
  404392:	48 89 85 70 27 00 00 	mov    QWORD PTR [rbp+0x2770],rax
  404399:	48 89 95 78 27 00 00 	mov    QWORD PTR [rbp+0x2778],rdx
  4043a0:	48 b8 a3 e0 fb 90 06 	movabs rax,0xf0eac30690fbe0a3
  4043a7:	c3 ea f0 
  4043aa:	48 ba fe a3 eb f0 ff 	movabs rdx,0xc20690fff0eba3fe
  4043b1:	90 06 c2 
  4043b4:	48 89 85 80 27 00 00 	mov    QWORD PTR [rbp+0x2780],rax
  4043bb:	48 89 95 88 27 00 00 	mov    QWORD PTR [rbp+0x2788],rdx
  4043c2:	48 b8 e0 2f ff e4 3e 	movabs rax,0xff24cf3ee4ff2fe0
  4043c9:	cf 24 ff 
  4043cc:	48 ba cf 34 ff 90 06 	movabs rdx,0xa3f0c50690ff34cf
  4043d3:	c5 f0 a3 
  4043d6:	48 89 85 90 27 00 00 	mov    QWORD PTR [rbp+0x2790],rax
  4043dd:	48 89 95 98 27 00 00 	mov    QWORD PTR [rbp+0x2798],rdx
  4043e4:	48 b8 ef f0 c3 ea 94 	movabs rax,0x22400094eac3f0ef
  4043eb:	00 40 22 
  4043ee:	48 ba 90 06 bd a3 e0 	movabs rdx,0x94eeffe0a3bd0690
  4043f5:	ff ee 94 
  4043f8:	48 89 85 a0 27 00 00 	mov    QWORD PTR [rbp+0x27a0],rax
  4043ff:	48 89 95 a8 27 00 00 	mov    QWORD PTR [rbp+0x27a8],rdx
  404406:	48 b8 08 50 17 a9 07 	movabs rax,0xc0017b07a9175008
  40440d:	7b 01 c0 
  404410:	48 ba 03 c0 02 c0 01 	movabs rdx,0x1512a301c002c003
  404417:	a3 12 15 
  40441a:	48 89 85 b0 27 00 00 	mov    QWORD PTR [rbp+0x27b0],rax
  404421:	48 89 95 b8 27 00 00 	mov    QWORD PTR [rbp+0x27b8],rdx
  404428:	48 b8 c3 d0 01 d0 02 	movabs rax,0x203d002d001d0c3
  40442f:	d0 03 02 
  404432:	48 ba 1a 81 90 06 c5 	movabs rdx,0xa3fee0c50690811a
  404439:	e0 fe a3 
  40443c:	48 89 85 c0 27 00 00 	mov    QWORD PTR [rbp+0x27c0],rax
  404443:	48 89 95 c8 27 00 00 	mov    QWORD PTR [rbp+0x27c8],rdx
  40444a:	48 b8 e0 ff e4 fc fd 	movabs rax,0x79fafbfdfce4ffe0
  404451:	fb fa 79 
  404454:	48 ba 01 f8 d3 12 14 	movabs rdx,0x350401412d3f801
  40445b:	40 50 03 
  40445e:	48 89 85 d0 27 00 00 	mov    QWORD PTR [rbp+0x27d0],rax
  404465:	48 89 95 d8 27 00 00 	mov    QWORD PTR [rbp+0x27d8],rdx
  40446c:	48 b8 02 11 de 90 06 	movabs rax,0x1512bf0690de1102
  404473:	bf 12 15 
  404476:	48 ba c3 7b 01 7a 02 	movabs rdx,0x124679027a017bc3
  40447d:	79 46 12 
  404480:	48 89 85 e0 27 00 00 	mov    QWORD PTR [rbp+0x27e0],rax
  404487:	48 89 95 e8 27 00 00 	mov    QWORD PTR [rbp+0x27e8],rdx
  40448e:	48 b8 1a 81 90 06 c3 	movabs rax,0xfe54e0c30690811a
  404495:	e0 54 fe 
  404498:	48 ba f0 a3 e4 f0 90 	movabs rdx,0xe0bd0690f0e4a3f0
  40449f:	06 bd e0 
  4044a2:	48 89 85 f0 27 00 00 	mov    QWORD PTR [rbp+0x27f0],rax
  4044a9:	48 89 95 f8 27 00 00 	mov    QWORD PTR [rbp+0x27f8],rdx
  4044b0:	48 b8 54 01 f0 a3 e0 	movabs rax,0x690f0e0a3f00154
  4044b7:	f0 90 06 
  4044ba:	48 ba c2 e0 ff 90 06 	movabs rdx,0xe4c70690ffe0c2
  4044c1:	c7 e4 00 
  4044c4:	48 89 85 00 28 00 00 	mov    QWORD PTR [rbp+0x2800],rax
  4044cb:	48 89 95 08 28 00 00 	mov    QWORD PTR [rbp+0x2808],rdx
  4044d2:	48 c7 85 10 28 00 00 	mov    QWORD PTR [rbp+0x2810],0x0
  4044d9:	00 00 00 00 
  4044dd:	c7 85 18 28 00 00 00 	mov    DWORD PTR [rbp+0x2818],0x0
  4044e4:	00 00 00 
  4044e7:	66 c7 85 1c 28 00 00 	mov    WORD PTR [rbp+0x281c],0x0
  4044ee:	00 00 
  4044f0:	48 b8 00 58 90 f1 ff 	movabs rax,0xfff1905800
  4044f7:	00 00 00 
  4044fa:	ba 00 00 00 00       	mov    edx,0x0
  4044ff:	48 89 85 00 26 00 00 	mov    QWORD PTR [rbp+0x2600],rax
  404506:	48 89 95 08 26 00 00 	mov    QWORD PTR [rbp+0x2608],rdx
  40450d:	48 8d 95 10 26 00 00 	lea    rdx,[rbp+0x2610]
  404514:	b8 00 00 00 00       	mov    eax,0x0
  404519:	b9 1f 00 00 00       	mov    ecx,0x1f
  40451e:	48 89 d7             	mov    rdi,rdx
  404521:	f3 48 ab             	rep stos QWORD PTR es:[rdi],rax
  404524:	48 89 fa             	mov    rdx,rdi
  404527:	89 02                	mov    DWORD PTR [rdx],eax
  404529:	48 83 c2 04          	add    rdx,0x4
  40452d:	66 89 02             	mov    WORD PTR [rdx],ax
  404530:	48 83 c2 02          	add    rdx,0x2
  404534:	48 b8 f0 a3 ef f0 90 	movabs rax,0xe0c70690f0efa3f0
  40453b:	06 c7 e0 
  40453e:	48 ba fe a3 e0 ff 4e 	movabs rdx,0x203704effe0a3fe
  404545:	70 03 02 
  404548:	48 89 85 f0 24 00 00 	mov    QWORD PTR [rbp+0x24f0],rax
  40454f:	48 89 95 f8 24 00 00 	mov    QWORD PTR [rbp+0x24f8],rdx
  404556:	48 b8 11 e4 90 06 bd 	movabs rax,0xa3fce0bd0690e411
  40455d:	e0 fc a3 
  404560:	48 ba e0 fd 2f ec 3e 	movabs rdx,0x294c33eec2ffde0
  404567:	c3 94 02 
  40456a:	48 89 85 00 25 00 00 	mov    QWORD PTR [rbp+0x2500],rax
  404571:	48 89 95 08 25 00 00 	mov    QWORD PTR [rbp+0x2508],rdx
  404578:	48 b8 50 02 80 08 c3 	movabs rax,0xff9de4c308800250
  40457f:	e4 9d ff 
  404582:	48 ba 74 02 9c fe 90 	movabs rdx,0xeec90690fe9c0274
  404589:	06 c9 ee 
  40458c:	48 89 85 10 25 00 00 	mov    QWORD PTR [rbp+0x2510],rax
  404593:	48 89 95 18 25 00 00 	mov    QWORD PTR [rbp+0x2518],rdx
  40459a:	48 b8 f0 a3 ef f0 12 	movabs rax,0xf9611612f0efa3f0
  4045a1:	16 61 f9 
  4045a4:	48 ba 12 16 32 90 06 	movabs rdx,0x274d30690321612
  4045ab:	d3 74 02 
  4045ae:	48 89 85 20 25 00 00 	mov    QWORD PTR [rbp+0x2520],rax
  4045b5:	48 89 95 28 25 00 00 	mov    QWORD PTR [rbp+0x2528],rdx
  4045bc:	48 b8 f0 a3 e4 f0 12 	movabs rax,0x12741612f0e4a3f0
  4045c3:	16 74 12 
  4045c6:	48 ba 1a 81 12 16 74 	movabs rdx,0xbd0690741612811a
  4045cd:	90 06 bd 
  4045d0:	48 89 85 30 25 00 00 	mov    QWORD PTR [rbp+0x2530],rax
  4045d7:	48 89 95 38 25 00 00 	mov    QWORD PTR [rbp+0x2538],rdx
  4045de:	48 b8 e0 fe a3 e0 29 	movabs rax,0x3eeaf929e0a3fee0
  4045e5:	f9 ea 3e 
  4045e8:	48 ba fa c0 03 c0 02 	movabs rdx,0x9001c002c003c0fa
  4045ef:	c0 01 90 
  4045f2:	48 89 85 40 25 00 00 	mov    QWORD PTR [rbp+0x2540],rax
  4045f9:	48 89 95 48 25 00 00 	mov    QWORD PTR [rbp+0x2548],rdx
  404600:	48 b8 06 cb e0 fe a3 	movabs rax,0x4624e0a3fee0cb06
  404607:	e0 24 46 
  40460a:	48 ba f9 74 02 3e fa 	movabs rdx,0x341612fa3e0274f9
  404611:	12 16 34 
  404614:	48 89 85 50 25 00 00 	mov    QWORD PTR [rbp+0x2550],rax
  40461b:	48 89 95 58 25 00 00 	mov    QWORD PTR [rbp+0x2558],rdx
  404622:	48 b8 90 06 c9 e0 ff 	movabs rax,0x90e0a3ffe0c90690
  404629:	a3 e0 90 
  40462c:	48 ba 06 d3 cf f0 a3 	movabs rdx,0xd0f0efa3f0cfd306
  404633:	ef f0 d0 
  404636:	48 89 85 60 25 00 00 	mov    QWORD PTR [rbp+0x2560],rax
  40463d:	48 89 95 68 25 00 00 	mov    QWORD PTR [rbp+0x2568],rdx
  404644:	48 b8 01 d0 02 d0 03 	movabs rax,0x811a1203d002d001
  40464b:	12 1a 81 
  40464e:	48 ba 90 06 c9 e0 fe 	movabs rdx,0xffe0a3fee0c90690
  404655:	a3 e0 ff 
  404658:	48 89 85 70 25 00 00 	mov    QWORD PTR [rbp+0x2570],rax
  40465f:	48 89 95 78 25 00 00 	mov    QWORD PTR [rbp+0x2578],rdx
  404666:	48 b8 a3 ee 8f f0 12 	movabs rax,0x121c1412f08feea3
  40466d:	14 1c 12 
  404670:	48 ba 16 61 ff 12 1d 	movabs rdx,0x90831d12ff6116
  404677:	83 90 00 
  40467a:	48 89 85 80 25 00 00 	mov    QWORD PTR [rbp+0x2580],rax
  404681:	48 89 95 88 25 00 00 	mov    QWORD PTR [rbp+0x2588],rdx
  404688:	48 b8 00 ef f0 70 4e 	movabs rax,0x6116124e70f0ef00
  40468f:	12 16 61 
  404692:	48 ba ff 12 16 74 ac 	movabs rdx,0x1ad02ac741612ff
  404699:	02 ad 01 
  40469c:	48 89 85 90 25 00 00 	mov    QWORD PTR [rbp+0x2590],rax
  4046a3:	48 89 95 98 25 00 00 	mov    QWORD PTR [rbp+0x2598],rdx
  4046aa:	48 b8 12 19 ae 90 00 	movabs rax,0xf0ef000090ae1912
  4046b1:	00 ef f0 
  4046b4:	48 ba 70 39 90 06 bd 	movabs rdx,0xffe0a3bd06903970
  4046bb:	a3 e0 ff 
  4046be:	48 89 85 a0 25 00 00 	mov    QWORD PTR [rbp+0x25a0],rax
  4046c5:	48 89 95 a8 25 00 00 	mov    QWORD PTR [rbp+0x25a8],rdx
  4046cc:	48 b8 90 06 c9 e0 fc 	movabs rax,0xfde0a3fce0c90690
  4046d3:	a3 e0 fd 
  4046d6:	48 ba 2f ff e4 90 06 	movabs rdx,0xa3f0bd0690e4ff2f
  4046dd:	bd f0 a3 
  4046e0:	48 89 85 b0 25 00 00 	mov    QWORD PTR [rbp+0x25b0],rax
  4046e7:	48 89 95 b8 25 00 00 	mov    QWORD PTR [rbp+0x25b8],rdx
  4046ee:	48 b8 ef f0 90 06 c3 	movabs rax,0x750274c30690f0ef
  4046f5:	74 02 75 
  4046f8:	48 ba f0 00 12 14 1c 	movabs rdx,0x690c31c141200f0
  4046ff:	c3 90 06 
  404702:	48 89 85 c0 25 00 00 	mov    QWORD PTR [rbp+0x25c0],rax
  404709:	48 89 95 c8 25 00 00 	mov    QWORD PTR [rbp+0x25c8],rdx
  404710:	48 b8 c8 e0 9d f0 90 	movabs rax,0xe0c70690f09de0c8
  404717:	06 c7 e0 
  40471a:	48 ba 9c f0 02 10 f5 	movabs rdx,0x90f51002f09c
  404721:	90 00 00 
  404724:	48 89 85 d0 25 00 00 	mov    QWORD PTR [rbp+0x25d0],rax
  40472b:	48 89 95 d8 25 00 00 	mov    QWORD PTR [rbp+0x25d8],rdx
  404732:	48 b8 74 08 f0 22 90 	movabs rax,0x12c0069022f00874
  404739:	06 c0 12 
  40473c:	48 ba 14 88 ae 05 ef 	movabs rdx,0x94d3ef05ae8814
  404743:	d3 94 00 
  404746:	48 89 85 e0 25 00 00 	mov    QWORD PTR [rbp+0x25e0],rax
  40474d:	48 89 95 e8 25 00 00 	mov    QWORD PTR [rbp+0x25e8],rdx
  404754:	48 c7 85 f0 25 00 00 	mov    QWORD PTR [rbp+0x25f0],0x0
  40475b:	00 00 00 00 
  40475f:	c7 85 f8 25 00 00 00 	mov    DWORD PTR [rbp+0x25f8],0x0
  404766:	00 00 00 
  404769:	66 c7 85 fc 25 00 00 	mov    WORD PTR [rbp+0x25fc],0x0
  404770:	00 00 
  404772:	48 b8 00 58 91 f0 ff 	movabs rax,0xfff0915800
  404779:	00 00 00 
  40477c:	ba 00 00 00 00       	mov    edx,0x0
  404781:	48 89 85 e0 23 00 00 	mov    QWORD PTR [rbp+0x23e0],rax
  404788:	48 89 95 e8 23 00 00 	mov    QWORD PTR [rbp+0x23e8],rdx
  40478f:	48 8d 95 f0 23 00 00 	lea    rdx,[rbp+0x23f0]
  404796:	b8 00 00 00 00       	mov    eax,0x0
  40479b:	b9 1f 00 00 00       	mov    ecx,0x1f
  4047a0:	48 89 d7             	mov    rdi,rdx
  4047a3:	f3 48 ab             	rep stos QWORD PTR es:[rdi],rax
  4047a6:	48 89 fa             	mov    rdx,rdi
  4047a9:	89 02                	mov    DWORD PTR [rdx],eax
  4047ab:	48 83 c2 04          	add    rdx,0x4
  4047af:	66 89 02             	mov    WORD PTR [rdx],ax
  4047b2:	48 83 c2 02          	add    rdx,0x2
  4047b6:	48 b8 01 74 80 94 80 	movabs rax,0xed0c508094807401
  4047bd:	50 0c ed 
  4047c0:	48 ba fb 7a 00 94 10 	movabs rdx,0x9480741094007afb
  4047c7:	74 80 94 
  4047ca:	48 89 85 d0 22 00 00 	mov    QWORD PTR [rbp+0x22d0],rax
  4047d1:	48 89 95 d8 22 00 00 	mov    QWORD PTR [rbp+0x22d8],rdx
  4047d8:	48 b8 80 40 03 7f 00 	movabs rax,0x867522007f034080
  4047df:	22 75 86 
  4047e2:	48 ba 01 eb 64 10 4a 	movabs rdx,0x203704a1064eb01
  4047e9:	70 03 02 
  4047ec:	48 89 85 e0 22 00 00 	mov    QWORD PTR [rbp+0x22e0],rax
  4047f3:	48 89 95 e8 22 00 00 	mov    QWORD PTR [rbp+0x22e8],rdx
  4047fa:	48 b8 13 27 d2 c5 12 	movabs rax,0x90531612c5d22713
  404801:	16 53 90 
  404804:	48 ba 06 c4 e0 24 ff 	movabs rdx,0xac1512ff24e0c406
  40480b:	12 15 ac 
  40480e:	48 89 85 f0 22 00 00 	mov    QWORD PTR [rbp+0x22f0],rax
  404815:	48 89 95 f8 22 00 00 	mov    QWORD PTR [rbp+0x22f8],rdx
  40481c:	48 b8 f5 f8 90 06 c4 	movabs rax,0xfe24e0c40690f8f5
  404823:	e0 24 fe 
  404826:	48 ba 12 15 ac f5 f9 	movabs rdx,0xc40690f9f5ac1512
  40482d:	90 06 c4 
  404830:	48 89 85 00 23 00 00 	mov    QWORD PTR [rbp+0x2300],rax
  404837:	48 89 95 08 23 00 00 	mov    QWORD PTR [rbp+0x2308],rdx
  40483e:	48 b8 e0 24 fd 12 15 	movabs rax,0xfaf5ac1512fd24e0
  404845:	ac f5 fa 
  404848:	48 ba 90 06 c4 e0 24 	movabs rdx,0x1512fc24e0c40690
  40484f:	fc 12 15 
  404852:	48 89 85 10 23 00 00 	mov    QWORD PTR [rbp+0x2310],rax
  404859:	48 89 95 18 23 00 00 	mov    QWORD PTR [rbp+0x2318],rdx
  404860:	48 b8 ac f5 fb 90 06 	movabs rax,0x24e0c40690fbf5ac
  404867:	c4 e0 24 
  40486a:	48 ba fb 12 15 ac f5 	movabs rdx,0x690fcf5ac1512fb
  404871:	fc 90 06 
  404874:	48 89 85 20 23 00 00 	mov    QWORD PTR [rbp+0x2320],rax
  40487b:	48 89 95 28 23 00 00 	mov    QWORD PTR [rbp+0x2328],rdx
  404882:	48 b8 c4 e0 24 fa 12 	movabs rax,0xf5ac1512fa24e0c4
  404889:	15 ac f5 
  40488c:	48 ba fd 90 06 c4 e0 	movabs rdx,0x12f924e0c40690fd
  404893:	24 f9 12 
  404896:	48 89 85 30 23 00 00 	mov    QWORD PTR [rbp+0x2330],rax
  40489d:	48 89 95 38 23 00 00 	mov    QWORD PTR [rbp+0x2338],rdx
  4048a4:	48 b8 15 ac f5 fe 90 	movabs rax,0xe0c40690fef5ac15
  4048ab:	06 c4 e0 
  4048ae:	48 ba 24 f8 12 15 ac 	movabs rdx,0xc2fff5ac1512f824
  4048b5:	f5 ff c2 
  4048b8:	48 89 85 40 23 00 00 	mov    QWORD PTR [rbp+0x2340],rax
  4048bf:	48 89 95 48 23 00 00 	mov    QWORD PTR [rbp+0x2348],rdx
  4048c6:	48 b8 c5 ef 64 01 70 	movabs rax,0xc6d27c700164efc5
  4048cd:	7c d2 c6 
  4048d0:	48 ba 12 16 53 90 06 	movabs rdx,0x24e0c40690531612
  4048d7:	c4 e0 24 
  4048da:	48 89 85 50 23 00 00 	mov    QWORD PTR [rbp+0x2350],rax
  4048e1:	48 89 95 58 23 00 00 	mov    QWORD PTR [rbp+0x2358],rdx
  4048e8:	48 b8 ef 12 15 ac f5 	movabs rax,0x690f8f5ac1512ef
  4048ef:	f8 90 06 
  4048f2:	48 ba c4 e0 24 ee 12 	movabs rdx,0xf5ac1512ee24e0c4
  4048f9:	15 ac f5 
  4048fc:	48 89 85 60 23 00 00 	mov    QWORD PTR [rbp+0x2360],rax
  404903:	48 89 95 68 23 00 00 	mov    QWORD PTR [rbp+0x2368],rdx
  40490a:	48 b8 f9 90 06 c4 e0 	movabs rax,0x12ed24e0c40690f9
  404911:	24 ed 12 
  404914:	48 ba 15 ac f5 fa 90 	movabs rdx,0xe0c40690faf5ac15
  40491b:	06 c4 e0 
  40491e:	48 89 85 70 23 00 00 	mov    QWORD PTR [rbp+0x2370],rax
  404925:	48 89 95 78 23 00 00 	mov    QWORD PTR [rbp+0x2378],rdx
  40492c:	48 b8 24 ec 12 15 ac 	movabs rax,0x90fbf5ac1512ec24
  404933:	f5 fb 90 
  404936:	48 ba 06 c4 e0 24 eb 	movabs rdx,0xac1512eb24e0c406
  40493d:	12 15 ac 
  404940:	48 89 85 80 23 00 00 	mov    QWORD PTR [rbp+0x2380],rax
  404947:	48 89 95 88 23 00 00 	mov    QWORD PTR [rbp+0x2388],rdx
  40494e:	48 b8 f5 fc 90 06 c4 	movabs rax,0xea24e0c40690fcf5
  404955:	e0 24 ea 
  404958:	48 ba 12 15 ac f5 fd 	movabs rdx,0xc40690fdf5ac1512
  40495f:	90 06 c4 
  404962:	48 89 85 90 23 00 00 	mov    QWORD PTR [rbp+0x2390],rax
  404969:	48 89 95 98 23 00 00 	mov    QWORD PTR [rbp+0x2398],rdx
  404970:	48 b8 e0 24 e9 12 15 	movabs rax,0xfef5ac1512e924e0
  404977:	ac f5 fe 
  40497a:	48 ba 90 06 c4 e0 24 	movabs rdx,0x1512e824e0c40690
  404981:	e8 12 15 
  404984:	48 89 85 a0 23 00 00 	mov    QWORD PTR [rbp+0x23a0],rax
  40498b:	48 89 95 a8 23 00 00 	mov    QWORD PTR [rbp+0x23a8],rdx
  404992:	48 b8 ac f5 ff c2 c6 	movabs rax,0x12c7d2c6c2fff5ac
  404999:	d2 c7 12 
  40499c:	48 ba 15 0c f5 ff c2 	movabs rdx,0xfdeec7c2fff50c15
  4049a3:	c7 ee fd 
  4049a6:	48 89 85 b0 23 00 00 	mov    QWORD PTR [rbp+0x23b0],rax
  4049ad:	48 89 95 b8 23 00 00 	mov    QWORD PTR [rbp+0x23b8],rdx
  4049b4:	48 b8 7c 00 70 02 c2 	movabs rax,0x64edc1c20270007c
  4049bb:	c1 ed 64 
  4049be:	48 ba 01 4c 70 02 d2 	movabs rdx,0xd2c1d202704c01
  4049c5:	c1 d2 00 
  4049c8:	48 89 85 c0 23 00 00 	mov    QWORD PTR [rbp+0x23c0],rax
  4049cf:	48 89 95 c8 23 00 00 	mov    QWORD PTR [rbp+0x23c8],rdx
  4049d6:	48 c7 85 d0 23 00 00 	mov    QWORD PTR [rbp+0x23d0],0x0
  4049dd:	00 00 00 00 
  4049e1:	c7 85 d8 23 00 00 00 	mov    DWORD PTR [rbp+0x23d8],0x0
  4049e8:	00 00 00 
  4049eb:	66 c7 85 dc 23 00 00 	mov    WORD PTR [rbp+0x23dc],0x0
  4049f2:	00 00 
  4049f4:	48 b8 00 58 92 ef ff 	movabs rax,0xffef925800
  4049fb:	00 00 00 
  4049fe:	ba 00 00 00 00       	mov    edx,0x0
  404a03:	48 89 85 c0 21 00 00 	mov    QWORD PTR [rbp+0x21c0],rax
  404a0a:	48 89 95 c8 21 00 00 	mov    QWORD PTR [rbp+0x21c8],rdx
  404a11:	48 8d 95 d0 21 00 00 	lea    rdx,[rbp+0x21d0]
  404a18:	b8 00 00 00 00       	mov    eax,0x0
  404a1d:	b9 1f 00 00 00       	mov    ecx,0x1f
  404a22:	48 89 d7             	mov    rdi,rdx
  404a25:	f3 48 ab             	rep stos QWORD PTR es:[rdi],rax
  404a28:	48 89 fa             	mov    rdx,rdi
  404a2b:	89 02                	mov    DWORD PTR [rdx],eax
  404a2d:	48 83 c2 04          	add    rdx,0x4
  404a31:	66 89 02             	mov    WORD PTR [rdx],ax
  404a34:	48 83 c2 02          	add    rdx,0x2
  404a38:	48 b8 c2 80 20 43 c0 	movabs rax,0x1612c0c0432080c2
  404a3f:	c0 12 16 
  404a42:	48 ba 53 12 15 0c f5 	movabs rdx,0xc053fff50c151253
  404a49:	ff 53 c0 
  404a4c:	48 89 85 b0 20 00 00 	mov    QWORD PTR [rbp+0x20b0],rax
  404a53:	48 89 95 b8 20 00 00 	mov    QWORD PTR [rbp+0x20b8],rdx
  404a5a:	48 b8 3f ee fd 7c 00 	movabs rax,0xc20270007cfdee3f
  404a61:	70 02 c2 
  404a64:	48 ba c1 ed 64 01 4c 	movabs rdx,0xd202704c0164edc1
  404a6b:	70 02 d2 
  404a6e:	48 89 85 c0 20 00 00 	mov    QWORD PTR [rbp+0x20c0],rax
  404a75:	48 89 95 c8 20 00 00 	mov    QWORD PTR [rbp+0x20c8],rdx
  404a7c:	48 b8 c1 c2 c2 53 e1 	movabs rax,0x1a90fee153c2c2c1
  404a83:	fe 90 1a 
  404a86:	48 ba 10 74 01 f0 d2 	movabs rdx,0xc330c0d2f0017410
  404a8d:	c0 30 c3 
  404a90:	48 89 85 d0 20 00 00 	mov    QWORD PTR [rbp+0x20d0],rax
  404a97:	48 89 95 d8 20 00 00 	mov    QWORD PTR [rbp+0x20d8],rdx
  404a9e:	48 b8 fd 90 1a 10 e4 	movabs rax,0x5880f0e4101a90fd
  404aa5:	f0 80 58 
  404aa8:	48 ba 12 16 53 12 15 	movabs rdx,0xff24ec1512531612
  404aaf:	ec 24 ff 
  404ab2:	48 89 85 e0 20 00 00 	mov    QWORD PTR [rbp+0x20e0],rax
  404ab9:	48 89 95 e8 20 00 00 	mov    QWORD PTR [rbp+0x20e8],rdx
  404ac0:	48 b8 12 15 bb e5 f8 	movabs rax,0xc41312f8e5bb1512
  404ac7:	12 13 c4 
  404aca:	48 ba 74 fe 12 15 ba 	movabs rdx,0x12f9e5ba1512fe74
  404ad1:	e5 f9 12 
  404ad4:	48 89 85 f0 20 00 00 	mov    QWORD PTR [rbp+0x20f0],rax
  404adb:	48 89 95 f8 20 00 00 	mov    QWORD PTR [rbp+0x20f8],rdx
  404ae2:	48 b8 15 e9 24 fd 12 	movabs rax,0xe5bb1512fd24e915
  404ae9:	15 bb e5 
  404aec:	48 ba fa 12 13 c4 74 	movabs rdx,0x1512fc74c41312fa
  404af3:	fc 12 15 
  404af6:	48 89 85 00 21 00 00 	mov    QWORD PTR [rbp+0x2100],rax
  404afd:	48 89 95 08 21 00 00 	mov    QWORD PTR [rbp+0x2108],rdx
  404b04:	48 b8 ba e5 fb 12 15 	movabs rax,0xfb24e91512fbe5ba
  404b0b:	e9 24 fb 
  404b0e:	48 ba 12 15 bb e5 fc 	movabs rdx,0xc41312fce5bb1512
  404b15:	12 13 c4 
  404b18:	48 89 85 10 21 00 00 	mov    QWORD PTR [rbp+0x2110],rax
  404b1f:	48 89 95 18 21 00 00 	mov    QWORD PTR [rbp+0x2118],rdx
  404b26:	48 b8 74 fa 12 15 ba 	movabs rax,0x12fde5ba1512fa74
  404b2d:	e5 fd 12 
  404b30:	48 ba 15 e9 24 f9 12 	movabs rdx,0xe5bb1512f924e915
  404b37:	15 bb e5 
  404b3a:	48 89 85 20 21 00 00 	mov    QWORD PTR [rbp+0x2120],rax
  404b41:	48 89 95 28 21 00 00 	mov    QWORD PTR [rbp+0x2128],rdx
  404b48:	48 b8 fe 12 13 c4 74 	movabs rax,0x1512f874c41312fe
  404b4f:	f8 12 15 
  404b52:	48 ba ba e5 ff 12 13 	movabs rdx,0xc3c2c41312ffe5ba
  404b59:	c4 c2 c3 
  404b5c:	48 89 85 30 21 00 00 	mov    QWORD PTR [rbp+0x2130],rax
  404b63:	48 89 95 38 21 00 00 	mov    QWORD PTR [rbp+0x2138],rdx
  404b6a:	48 b8 e4 f5 86 7f 01 	movabs rax,0x1bb22017f86f5e4
  404b71:	22 bb 01 
  404b74:	48 ba 0c e5 82 29 f5 	movabs rdx,0x83e582f52982e50c
  404b7b:	82 e5 83 
  404b7e:	48 89 85 40 21 00 00 	mov    QWORD PTR [rbp+0x2140],rax
  404b85:	48 89 95 48 21 00 00 	mov    QWORD PTR [rbp+0x2148],rdx
  404b8c:	48 b8 3a f5 83 e0 22 	movabs rax,0xe9065022e083f53a
  404b93:	50 06 e9 
  404b96:	48 ba 25 82 f8 e6 22 	movabs rdx,0x6febb22e6f88225
  404b9d:	bb fe 06 
  404ba0:	48 89 85 50 21 00 00 	mov    QWORD PTR [rbp+0x2150],rax
  404ba7:	48 89 95 58 21 00 00 	mov    QWORD PTR [rbp+0x2158],rdx
  404bae:	48 b8 e9 25 82 f8 e2 	movabs rax,0x82e522e2f88225e9
  404bb5:	22 e5 82 
  404bb8:	48 ba 29 f5 82 e5 83 	movabs rdx,0x83f53a83e582f529
  404bbf:	3a f5 83 
  404bc2:	48 89 85 60 21 00 00 	mov    QWORD PTR [rbp+0x2160],rax
  404bc9:	48 89 95 68 21 00 00 	mov    QWORD PTR [rbp+0x2168],rdx
  404bd0:	48 b8 e4 93 22 bb 01 	movabs rax,0x82890601bb2293e4
  404bd7:	06 89 82 
  404bda:	48 ba 8a 83 f0 22 50 	movabs rdx,0x22f7025022f0838a
  404be1:	02 f7 22 
  404be4:	48 89 85 70 21 00 00 	mov    QWORD PTR [rbp+0x2170],rax
  404beb:	48 89 95 78 21 00 00 	mov    QWORD PTR [rbp+0x2178],rdx
  404bf2:	48 b8 bb fe 01 f3 22 	movabs rax,0x1bbf822f301febb
  404bf9:	f8 bb 01 
  404bfc:	48 ba 0d e5 82 29 f5 	movabs rdx,0x83e582f52982e50d
  404c03:	82 e5 83 
  404c06:	48 89 85 80 21 00 00 	mov    QWORD PTR [rbp+0x2180],rax
  404c0d:	48 89 95 88 21 00 00 	mov    QWORD PTR [rbp+0x2188],rdx
  404c14:	48 b8 3a f5 83 e8 f0 	movabs rax,0x65022f0e883f53a
  404c1b:	22 50 06 
  404c1e:	48 ba e9 25 82 c8 f6 	movabs rdx,0xfebb22f6c88225e9
  404c25:	22 bb fe 
  404c28:	48 89 85 90 21 00 00 	mov    QWORD PTR [rbp+0x2190],rax
  404c2f:	48 89 95 98 21 00 00 	mov    QWORD PTR [rbp+0x2198],rdx
  404c36:	48 b8 05 e9 25 82 c8 	movabs rax,0xc222f2c88225e905
  404c3d:	f2 22 c2 
  404c40:	48 ba d5 ec 30 e7 09 	movabs rdx,0xd5b209e730ecd5
  404c47:	b2 d5 00 
  404c4a:	48 89 85 a0 21 00 00 	mov    QWORD PTR [rbp+0x21a0],rax
  404c51:	48 89 95 a8 21 00 00 	mov    QWORD PTR [rbp+0x21a8],rdx
  404c58:	48 c7 85 b0 21 00 00 	mov    QWORD PTR [rbp+0x21b0],0x0
  404c5f:	00 00 00 00 
  404c63:	c7 85 b8 21 00 00 00 	mov    DWORD PTR [rbp+0x21b8],0x0
  404c6a:	00 00 00 
  404c6d:	66 c7 85 bc 21 00 00 	mov    WORD PTR [rbp+0x21bc],0x0
  404c74:	00 00 
  404c76:	48 b8 00 58 93 ee ff 	movabs rax,0xffee935800
  404c7d:	00 00 00 
  404c80:	ba 00 00 00 00       	mov    edx,0x0
  404c85:	48 89 85 a0 1f 00 00 	mov    QWORD PTR [rbp+0x1fa0],rax
  404c8c:	48 89 95 a8 1f 00 00 	mov    QWORD PTR [rbp+0x1fa8],rdx
  404c93:	48 8d 95 b0 1f 00 00 	lea    rdx,[rbp+0x1fb0]
  404c9a:	b8 00 00 00 00       	mov    eax,0x0
  404c9f:	b9 1f 00 00 00       	mov    ecx,0x1f
  404ca4:	48 89 d7             	mov    rdi,rdx
  404ca7:	f3 48 ab             	rep stos QWORD PTR es:[rdi],rax
  404caa:	48 89 fa             	mov    rdx,rdi
  404cad:	89 02                	mov    DWORD PTR [rdx],eax
  404caf:	48 83 c2 04          	add    rdx,0x4
  404cb3:	66 89 02             	mov    WORD PTR [rdx],ax
  404cb6:	48 83 c2 02          	add    rdx,0x2
  404cba:	48 b8 e4 c3 9d fd e4 	movabs rax,0xeefc9ce4fd9dc3e4
  404cc1:	9c fc ee 
  404cc4:	48 ba 30 e7 15 b2 d5 	movabs rdx,0x9fc3e4d5b215e730
  404ccb:	e4 c3 9f 
  404cce:	48 89 85 90 1e 00 00 	mov    QWORD PTR [rbp+0x1e90],rax
  404cd5:	48 89 95 98 1e 00 00 	mov    QWORD PTR [rbp+0x1e98],rdx
  404cdc:	48 b8 ff e4 9e fe 12 	movabs rax,0xc3b71412fe9ee4ff
  404ce3:	14 b7 c3 
  404ce6:	48 ba e4 9d fd e4 9c 	movabs rdx,0x380fc9ce4fd9de4
  404ced:	fc 80 03 
  404cf0:	48 89 85 a0 1e 00 00 	mov    QWORD PTR [rbp+0x1ea0],rax
  404cf7:	48 89 95 a8 1e 00 00 	mov    QWORD PTR [rbp+0x1ea8],rdx
  404cfe:	48 b8 12 14 b7 30 d5 	movabs rax,0xe4c307d530b71412
  404d05:	07 c3 e4 
  404d08:	48 ba 9f ff e4 9e fe 	movabs rdx,0xf0c522fe9ee4ff9f
  404d0f:	22 c5 f0 
  404d12:	48 89 85 b0 1e 00 00 	mov    QWORD PTR [rbp+0x1eb0],rax
  404d19:	48 89 95 b8 1e 00 00 	mov    QWORD PTR [rbp+0x1eb8],rdx
  404d20:	48 b8 f8 a3 e0 28 f0 	movabs rax,0xf8f0c5f028e0a3f8
  404d27:	c5 f0 f8 
  404d2a:	48 ba e5 82 15 82 70 	movabs rdx,0x83150270821582e5
  404d31:	02 15 83 
  404d34:	48 89 85 c0 1e 00 00 	mov    QWORD PTR [rbp+0x1ec0],rax
  404d3b:	48 89 95 c8 1e 00 00 	mov    QWORD PTR [rbp+0x1ec8],rdx
  404d42:	48 b8 e0 38 f0 22 c3 	movabs rax,0xff9befc322f038e0
  404d49:	ef 9b ff 
  404d4c:	48 ba ee 9a fe ed 99 	movabs rdx,0x98ecfd99edfe9aee
  404d53:	fd ec 98 
  404d56:	48 89 85 d0 1e 00 00 	mov    QWORD PTR [rbp+0x1ed0],rax
  404d5d:	48 89 95 d8 1e 00 00 	mov    QWORD PTR [rbp+0x1ed8],rdx
  404d64:	48 b8 fc 22 eb 9f f5 	movabs rax,0x9eeaf0f59feb22fc
  404d6b:	f0 ea 9e 
  404d6e:	48 ba 42 f0 e9 9d 42 	movabs rdx,0x64ecf0429de9f042
  404d75:	f0 ec 64 
  404d78:	48 89 85 e0 1e 00 00 	mov    QWORD PTR [rbp+0x1ee0],rax
  404d7f:	48 89 95 e8 1e 00 00 	mov    QWORD PTR [rbp+0x1ee8],rdx
  404d86:	48 b8 80 c8 64 80 98 	movabs rax,0x22f045988064c880
  404d8d:	45 f0 22 
  404d90:	48 ba eb 9f f5 f0 ea 	movabs rdx,0xf0429eeaf0f59feb
  404d97:	9e 42 f0 
  404d9a:	48 89 85 f0 1e 00 00 	mov    QWORD PTR [rbp+0x1ef0],rax
  404da1:	48 89 95 f8 1e 00 00 	mov    QWORD PTR [rbp+0x1ef8],rdx
  404da8:	48 b8 e9 9d 42 f0 e8 	movabs rax,0xf0459ce8f0429de9
  404daf:	9c 45 f0 
  404db2:	48 ba 22 e0 fc a3 e0 	movabs rdx,0xe0a3fde0a3fce022
  404db9:	fd a3 e0 
  404dbc:	48 89 85 00 1f 00 00 	mov    QWORD PTR [rbp+0x1f00],rax
  404dc3:	48 89 95 08 1f 00 00 	mov    QWORD PTR [rbp+0x1f08],rdx
  404dca:	48 b8 fe a3 e0 ff 22 	movabs rax,0xa3f8e022ffe0a3fe
  404dd1:	e0 f8 a3 
  404dd4:	48 ba e0 f9 a3 e0 fa 	movabs rdx,0xfbe0a3fae0a3f9e0
  404ddb:	a3 e0 fb 
  404dde:	48 89 85 10 1f 00 00 	mov    QWORD PTR [rbp+0x1f10],rax
  404de5:	48 89 95 18 1f 00 00 	mov    QWORD PTR [rbp+0x1f18],rdx
  404dec:	48 b8 22 e0 fb a3 e0 	movabs rax,0xe0a3fae0a3fbe022
  404df3:	fa a3 e0 
  404df6:	48 ba f9 22 eb f0 a3 	movabs rdx,0xa3f0eaa3f0eb22f9
  404dfd:	ea f0 a3 
  404e00:	48 89 85 20 1f 00 00 	mov    QWORD PTR [rbp+0x1f20],rax
  404e07:	48 89 95 28 1f 00 00 	mov    QWORD PTR [rbp+0x1f28],rdx
  404e0e:	48 b8 e9 f0 22 d0 83 	movabs rax,0xf882d083d022f0e9
  404e15:	d0 82 f8 
  404e18:	48 ba e4 93 70 12 74 	movabs rdx,0x70930174127093e4
  404e1f:	01 93 70 
  404e22:	48 89 85 30 1f 00 00 	mov    QWORD PTR [rbp+0x1f30],rax
  404e29:	48 89 95 38 1f 00 00 	mov    QWORD PTR [rbp+0x1f38],rdx
  404e30:	48 b8 0d a3 a3 93 f8 	movabs rax,0x930174f893a3a30d
  404e37:	74 01 93 
  404e3a:	48 ba f5 82 88 83 e4 	movabs rdx,0x27473e4838882f5
  404e41:	73 74 02 
  404e44:	48 89 85 40 1f 00 00 	mov    QWORD PTR [rbp+0x1f40],rax
  404e4b:	48 89 95 48 1f 00 00 	mov    QWORD PTR [rbp+0x1f48],rdx
  404e52:	48 b8 93 68 60 ef a3 	movabs rax,0x80a3a3a3ef606893
  404e59:	a3 a3 80 
  404e5c:	48 ba df bc 00 0b be 	movabs rdx,0xef2900be0b00bcdf
  404e63:	00 29 ef 
  404e66:	48 89 85 50 1f 00 00 	mov    QWORD PTR [rbp+0x1f50],rax
  404e6d:	48 89 95 58 1f 00 00 	mov    QWORD PTR [rbp+0x1f58],rdx
  404e74:	48 b8 8d f0 84 ff ad 	movabs rax,0xe422f0adff84f08d
  404e7b:	f0 22 e4 
  404e7e:	48 ba cc f8 75 f0 08 	movabs rdx,0xff2fef08f075f8cc
  404e85:	ef 2f ff 
  404e88:	48 89 85 60 1f 00 00 	mov    QWORD PTR [rbp+0x1f60],rax
  404e8f:	48 89 95 68 1f 00 00 	mov    QWORD PTR [rbp+0x1f68],rdx
  404e96:	48 b8 ee 33 fe ec 33 	movabs rax,0x9deefc33ecfe33ee
  404e9d:	fc ee 9d 
  404ea0:	48 ba ec 98 40 05 fc 	movabs rdx,0xfe9deefc054098ec
  404ea7:	ee 9d fe 
  404eaa:	48 89 85 70 1f 00 00 	mov    QWORD PTR [rbp+0x1f70],rax
  404eb1:	48 89 95 78 1f 00 00 	mov    QWORD PTR [rbp+0x1f78],rdx
  404eb8:	48 b8 0f d5 f0 e9 e4 	movabs rax,0x22fdcee4e9f0d50f
  404ebf:	ce fd 22 
  404ec2:	48 ba ed f8 f5 f0 ee 	movabs rdx,0x2084eef0f5f8ed
  404ec9:	84 20 00 
  404ecc:	48 89 85 80 1f 00 00 	mov    QWORD PTR [rbp+0x1f80],rax
  404ed3:	48 89 95 88 1f 00 00 	mov    QWORD PTR [rbp+0x1f88],rdx
  404eda:	48 c7 85 90 1f 00 00 	mov    QWORD PTR [rbp+0x1f90],0x0
  404ee1:	00 00 00 00 
  404ee5:	c7 85 98 1f 00 00 00 	mov    DWORD PTR [rbp+0x1f98],0x0
  404eec:	00 00 00 
  404eef:	66 c7 85 9c 1f 00 00 	mov    WORD PTR [rbp+0x1f9c],0x0
  404ef6:	00 00 
  404ef8:	48 b8 00 58 94 ed ff 	movabs rax,0xffed945800
  404eff:	00 00 00 
  404f02:	ba 00 00 00 00       	mov    edx,0x0
  404f07:	48 89 85 80 1d 00 00 	mov    QWORD PTR [rbp+0x1d80],rax
  404f0e:	48 89 95 88 1d 00 00 	mov    QWORD PTR [rbp+0x1d88],rdx
  404f15:	48 8d 95 90 1d 00 00 	lea    rdx,[rbp+0x1d90]
  404f1c:	b8 00 00 00 00       	mov    eax,0x0
  404f21:	b9 1f 00 00 00       	mov    ecx,0x1f
  404f26:	48 89 d7             	mov    rdi,rdx
  404f29:	f3 48 ab             	rep stos QWORD PTR es:[rdi],rax
  404f2c:	48 89 fa             	mov    rdx,rdi
  404f2f:	89 02                	mov    DWORD PTR [rdx],eax
  404f31:	48 83 c2 04          	add    rdx,0x4
  404f35:	66 89 02             	mov    WORD PTR [rdx],ax
  404f38:	48 83 c2 02          	add    rdx,0x2
  404f3c:	48 b8 d2 1c fe ad f0 	movabs rax,0x8f075f0adfe1cd2
  404f43:	75 f0 08 
  404f46:	48 ba ef 2f ff ed 33 	movabs rdx,0x740fd33edff2fef
  404f4d:	fd 40 07 
  404f50:	48 89 85 70 1c 00 00 	mov    QWORD PTR [rbp+0x1c70],rax
  404f57:	48 89 95 78 1c 00 00 	mov    QWORD PTR [rbp+0x1c78],rdx
  404f5e:	48 b8 98 50 06 d5 f0 	movabs rax,0xc322f2f0d5065098
  404f65:	f2 22 c3 
  404f68:	48 ba 98 fd 0f d5 f0 	movabs rdx,0x9022eaf0d50ffd98
  404f6f:	ea 22 90 
  404f72:	48 89 85 80 1c 00 00 	mov    QWORD PTR [rbp+0x1c80],rax
  404f79:	48 89 95 88 1c 00 00 	mov    QWORD PTR [rbp+0x1c88],rdx
  404f80:	48 b8 06 c4 e0 24 f7 	movabs rax,0x690fdf724e0c406
  404f87:	fd 90 06 
  404f8a:	48 ba c3 e0 34 ff 8d 	movabs rdx,0x83f5828dff34e0c3
  404f91:	82 f5 83 
  404f94:	48 89 85 90 1c 00 00 	mov    QWORD PTR [rbp+0x1c90],rax
  404f9b:	48 89 95 98 1c 00 00 	mov    QWORD PTR [rbp+0x1c98],rdx
  404fa2:	48 b8 12 13 85 f5 f8 	movabs rax,0xc40690f8f5851312
  404fa9:	90 06 c4 
  404fac:	48 ba e0 24 f6 fd 90 	movabs rdx,0xe0c30690fdf624e0
  404fb3:	06 c3 e0 
  404fb6:	48 89 85 a0 1c 00 00 	mov    QWORD PTR [rbp+0x1ca0],rax
  404fbd:	48 89 95 a8 1c 00 00 	mov    QWORD PTR [rbp+0x1ca8],rdx
  404fc4:	48 b8 34 ff 8d 82 f5 	movabs rax,0x131283f5828dff34
  404fcb:	83 12 13 
  404fce:	48 ba 85 f5 f9 90 06 	movabs rdx,0x24e0c40690f9f585
  404fd5:	c4 e0 24 
  404fd8:	48 89 85 b0 1c 00 00 	mov    QWORD PTR [rbp+0x1cb0],rax
  404fdf:	48 89 95 b8 1c 00 00 	mov    QWORD PTR [rbp+0x1cb8],rdx
  404fe6:	48 b8 f5 fd 90 06 c3 	movabs rax,0xff34e0c30690fdf5
  404fed:	e0 34 ff 
  404ff0:	48 ba 8d 82 f5 83 12 	movabs rdx,0xf585131283f5828d
  404ff7:	13 85 f5 
  404ffa:	48 89 85 c0 1c 00 00 	mov    QWORD PTR [rbp+0x1cc0],rax
  405001:	48 89 95 c8 1c 00 00 	mov    QWORD PTR [rbp+0x1cc8],rdx
  405008:	48 b8 fa 90 06 c4 e0 	movabs rax,0xfdf424e0c40690fa
  40500f:	24 f4 fd 
  405012:	48 ba 90 06 c3 e0 34 	movabs rdx,0x828dff34e0c30690
  405019:	ff 8d 82 
  40501c:	48 89 85 d0 1c 00 00 	mov    QWORD PTR [rbp+0x1cd0],rax
  405023:	48 89 95 d8 1c 00 00 	mov    QWORD PTR [rbp+0x1cd8],rdx
  40502a:	48 b8 f5 83 12 13 85 	movabs rax,0x90fbf585131283f5
  405031:	f5 fb 90 
  405034:	48 ba 06 c4 e0 24 f3 	movabs rdx,0x690fdf324e0c406
  40503b:	fd 90 06 
  40503e:	48 89 85 e0 1c 00 00 	mov    QWORD PTR [rbp+0x1ce0],rax
  405045:	48 89 95 e8 1c 00 00 	mov    QWORD PTR [rbp+0x1ce8],rdx
  40504c:	48 b8 c3 e0 34 ff 8d 	movabs rax,0x83f5828dff34e0c3
  405053:	82 f5 83 
  405056:	48 ba 12 13 85 f5 fc 	movabs rdx,0xc40690fcf5851312
  40505d:	90 06 c4 
  405060:	48 89 85 f0 1c 00 00 	mov    QWORD PTR [rbp+0x1cf0],rax
  405067:	48 89 95 f8 1c 00 00 	mov    QWORD PTR [rbp+0x1cf8],rdx
  40506e:	48 b8 e0 24 f2 fd 90 	movabs rax,0xe0c30690fdf224e0
  405075:	06 c3 e0 
  405078:	48 ba 34 ff 8d 82 f5 	movabs rdx,0x131283f5828dff34
  40507f:	83 12 13 
  405082:	48 89 85 00 1d 00 00 	mov    QWORD PTR [rbp+0x1d00],rax
  405089:	48 89 95 08 1d 00 00 	mov    QWORD PTR [rbp+0x1d08],rdx
  405090:	48 b8 85 f5 fd 90 06 	movabs rax,0x24e0c40690fdf585
  405097:	c4 e0 24 
  40509a:	48 ba f1 fd 90 06 c3 	movabs rdx,0xff34e0c30690fdf1
  4050a1:	e0 34 ff 
  4050a4:	48 89 85 10 1d 00 00 	mov    QWORD PTR [rbp+0x1d10],rax
  4050ab:	48 89 95 18 1d 00 00 	mov    QWORD PTR [rbp+0x1d18],rdx
  4050b2:	48 b8 8d 82 f5 83 12 	movabs rax,0xf585131283f5828d
  4050b9:	13 85 f5 
  4050bc:	48 ba fe 90 06 c4 e0 	movabs rdx,0xfdf024e0c40690fe
  4050c3:	24 f0 fd 
  4050c6:	48 89 85 20 1d 00 00 	mov    QWORD PTR [rbp+0x1d20],rax
  4050cd:	48 89 95 28 1d 00 00 	mov    QWORD PTR [rbp+0x1d28],rdx
  4050d4:	48 b8 90 06 c3 e0 34 	movabs rax,0x828dff34e0c30690
  4050db:	ff 8d 82 
  4050de:	48 ba f5 83 02 13 85 	movabs rdx,0x82f52f85130283f5
  4050e5:	2f f5 82 
  4050e8:	48 89 85 30 1d 00 00 	mov    QWORD PTR [rbp+0x1d30],rax
  4050ef:	48 89 95 38 1d 00 00 	mov    QWORD PTR [rbp+0x1d38],rdx
  4050f6:	48 b8 74 ff 3e f5 83 	movabs rax,0x14122283f53eff74
  4050fd:	22 12 14 
  405100:	48 ba 7f 90 06 d0 12 	movabs rdx,0x90881412d006907f
  405107:	14 88 90 
  40510a:	48 89 85 40 1d 00 00 	mov    QWORD PTR [rbp+0x1d40],rax
  405111:	48 89 95 48 1d 00 00 	mov    QWORD PTR [rbp+0x1d48],rdx
  405118:	48 b8 06 c2 e0 ff e4 	movabs rax,0xd30690e4ffe0c206
  40511f:	90 06 d3 
  405122:	48 ba f0 a3 ef f0 22 	movabs rdx,0x83f53a22f0efa3f0
  405129:	3a f5 83 
  40512c:	48 89 85 50 1d 00 00 	mov    QWORD PTR [rbp+0x1d50],rax
  405133:	48 89 95 58 1d 00 00 	mov    QWORD PTR [rbp+0x1d58],rdx
  40513a:	48 b8 ef f0 90 06 bc 	movabs rax,0xf075e4bc0690f0ef
  405141:	e4 75 f0 
  405144:	48 ba 01 02 14 1c 12 	movabs rdx,0xc413121c140201
  40514b:	13 c4 00 
  40514e:	48 89 85 60 1d 00 00 	mov    QWORD PTR [rbp+0x1d60],rax
  405155:	48 89 95 68 1d 00 00 	mov    QWORD PTR [rbp+0x1d68],rdx
  40515c:	48 c7 85 70 1d 00 00 	mov    QWORD PTR [rbp+0x1d70],0x0
  405163:	00 00 00 00 
  405167:	c7 85 78 1d 00 00 00 	mov    DWORD PTR [rbp+0x1d78],0x0
  40516e:	00 00 00 
  405171:	66 c7 85 7c 1d 00 00 	mov    WORD PTR [rbp+0x1d7c],0x0
  405178:	00 00 
  40517a:	48 b8 00 58 95 ec ff 	movabs rax,0xffec955800
  405181:	00 00 00 
  405184:	ba 00 00 00 00       	mov    edx,0x0
  405189:	48 89 85 60 1b 00 00 	mov    QWORD PTR [rbp+0x1b60],rax
  405190:	48 89 95 68 1b 00 00 	mov    QWORD PTR [rbp+0x1b68],rdx
  405197:	48 8d 95 70 1b 00 00 	lea    rdx,[rbp+0x1b70]
  40519e:	b8 00 00 00 00       	mov    eax,0x0
  4051a3:	b9 1f 00 00 00       	mov    ecx,0x1f
  4051a8:	48 89 d7             	mov    rdi,rdx
  4051ab:	f3 48 ab             	rep stos QWORD PTR es:[rdi],rax
  4051ae:	48 89 fa             	mov    rdx,rdi
  4051b1:	89 02                	mov    DWORD PTR [rdx],eax
  4051b3:	48 83 c2 04          	add    rdx,0x4
  4051b7:	66 89 02             	mov    WORD PTR [rdx],ax
  4051ba:	48 83 c2 02          	add    rdx,0x2
  4051be:	48 b8 90 06 c3 e0 fe 	movabs rax,0xffe0a3fee0c30690
  4051c5:	a3 e0 ff 
  4051c8:	48 ba 22 7b 01 7a 04 	movabs rdx,0x904879047a017b22
  4051cf:	79 48 90 
  4051d2:	48 89 85 50 1a 00 00 	mov    QWORD PTR [rbp+0x1a50],rax
  4051d9:	48 89 95 58 1a 00 00 	mov    QWORD PTR [rbp+0x1a58],rdx
  4051e0:	48 b8 06 c2 74 ff f0 	movabs rax,0x7e007ff0ff74c206
  4051e7:	7f 00 7e 
  4051ea:	48 ba 70 22 ee f0 a3 	movabs rdx,0xa3f0efa3f0ee2270
  4051f1:	ef f0 a3 
  4051f4:	48 89 85 60 1a 00 00 	mov    QWORD PTR [rbp+0x1a60],rax
  4051fb:	48 89 95 68 1a 00 00 	mov    QWORD PTR [rbp+0x1a68],rdx
  405202:	48 b8 ec f0 a3 ed f0 	movabs rax,0xff2d22f0eda3f0ec
  405209:	22 2d ff 
  40520c:	48 ba ee 3c fe 74 16 	movabs rdx,0x82f52f1674fe3cee
  405213:	2f f5 82 
  405216:	48 89 85 70 1a 00 00 	mov    QWORD PTR [rbp+0x1a70],rax
  40521d:	48 89 95 78 1a 00 00 	mov    QWORD PTR [rbp+0x1a78],rdx
  405224:	48 b8 74 02 3e f5 83 	movabs rax,0x17b2283f53e0274
  40522b:	22 7b 01 
  40522e:	48 ba 7a 00 79 12 90 	movabs rdx,0xe4c306901279007a
  405235:	06 c3 e4 
  405238:	48 89 85 80 1a 00 00 	mov    QWORD PTR [rbp+0x1a80],rax
  40523f:	48 89 95 88 1a 00 00 	mov    QWORD PTR [rbp+0x1a88],rdx
  405246:	48 b8 f0 a3 74 18 f0 	movabs rax,0x6aa22f01874a3f0
  40524d:	22 aa 06 
  405250:	48 ba 7b 01 90 06 d0 	movabs rdx,0x881402d00690017b
  405257:	02 14 88 
  40525a:	48 89 85 90 1a 00 00 	mov    QWORD PTR [rbp+0x1a90],rax
  405261:	48 89 95 98 1a 00 00 	mov    QWORD PTR [rbp+0x1a98],rdx
  405268:	48 b8 e4 90 06 bc f0 	movabs rax,0x22f0a3f0bc0690e4
  40526f:	a3 f0 22 
  405272:	48 ba fd e0 fa a3 e0 	movabs rdx,0x82f52de0a3fae0fd
  405279:	2d f5 82 
  40527c:	48 89 85 a0 1a 00 00 	mov    QWORD PTR [rbp+0x1aa0],rax
  405283:	48 89 95 a8 1a 00 00 	mov    QWORD PTR [rbp+0x1aa8],rdx
  40528a:	48 b8 ea 3c f5 83 ef 	movabs rax,0x9022f0ef83f53cea
  405291:	f0 22 90 
  405294:	48 ba 06 c0 02 14 7f 	movabs rdx,0xbc06907f1402c006
  40529b:	90 06 bc 
  40529e:	48 89 85 b0 1a 00 00 	mov    QWORD PTR [rbp+0x1ab0],rax
  4052a5:	48 89 95 b8 1a 00 00 	mov    QWORD PTR [rbp+0x1ab8],rdx
  4052ac:	48 b8 e0 fe a3 e0 22 	movabs rax,0xc3069022e0a3fee0
  4052b3:	90 06 c3 
  4052b6:	48 ba e0 fe a3 e0 22 	movabs rdx,0x2d227422e0a3fee0
  4052bd:	74 22 2d 
  4052c0:	48 89 85 c0 1a 00 00 	mov    QWORD PTR [rbp+0x1ac0],rax
  4052c7:	48 89 95 c8 1a 00 00 	mov    QWORD PTR [rbp+0x1ac8],rdx
  4052ce:	48 b8 f5 82 74 00 3c 	movabs rax,0x2283f53c007482f5
  4052d5:	f5 83 22 
  4052d8:	48 ba 90 06 bf 02 14 	movabs rdx,0x6907f1402bf0690
  4052df:	7f 90 06 
  4052e2:	48 89 85 d0 1a 00 00 	mov    QWORD PTR [rbp+0x1ad0],rax
  4052e9:	48 89 95 d8 1a 00 00 	mov    QWORD PTR [rbp+0x1ad8],rdx
  4052f0:	48 b8 d5 12 14 88 90 	movabs rax,0xe0d50690881412d5
  4052f7:	06 d5 e0 
  4052fa:	48 ba 64 01 60 03 02 	movabs rdx,0x9027170203600164
  405301:	17 27 90 
  405304:	48 89 85 e0 1a 00 00 	mov    QWORD PTR [rbp+0x1ae0],rax
  40530b:	48 89 95 e8 1a 00 00 	mov    QWORD PTR [rbp+0x1ae8],rdx
  405312:	48 b8 06 d8 e0 04 70 	movabs rax,0x1602037004e0d806
  405319:	03 02 16 
  40531c:	48 ba e1 24 fe 60 03 	movabs rdx,0xd017020360fe24e1
  405323:	02 17 d0 
  405326:	48 89 85 f0 1a 00 00 	mov    QWORD PTR [rbp+0x1af0],rax
  40532d:	48 89 95 f8 1a 00 00 	mov    QWORD PTR [rbp+0x1af8],rdx
  405334:	48 b8 a8 a2 85 00 a2 	movabs rax,0xdb0690a20085a2a8
  40533b:	90 06 db 
  40533e:	48 ba e0 f9 a3 e0 fa 	movabs rdx,0x90160fae0a3f9e0
  405345:	60 01 09 
  405348:	48 89 85 00 1b 00 00 	mov    QWORD PTR [rbp+0x1b00],rax
  40534f:	48 89 95 08 1b 00 00 	mov    QWORD PTR [rbp+0x1b08],rdx
  405356:	48 b8 90 06 d6 e0 fb 	movabs rax,0xf5e0a3fbe0d60690
  40535d:	a3 e0 f5 
  405360:	48 ba 82 8b 83 05 a2 	movabs rdx,0xd90690a205838b82
  405367:	90 06 d9 
  40536a:	48 89 85 10 1b 00 00 	mov    QWORD PTR [rbp+0x1b10],rax
  405371:	48 89 95 18 1b 00 00 	mov    QWORD PTR [rbp+0x1b18],rdx
  405378:	48 b8 e0 fb a3 e0 f5 	movabs rax,0x858b84f5e0a3fbe0
  40537f:	84 8b 85 
  405382:	48 ba 05 a2 e0 fb a3 	movabs rdx,0xe0a205a3fbe0a205
  405389:	05 a2 e0 
  40538c:	48 89 85 20 1b 00 00 	mov    QWORD PTR [rbp+0x1b20],rax
  405393:	48 89 95 28 1b 00 00 	mov    QWORD PTR [rbp+0x1b28],rdx
  40539a:	48 b8 a3 05 a2 c3 9b 	movabs rax,0xaf05609bc3a205a3
  4053a1:	60 05 af 
  4053a4:	48 ba 00 88 a2 22 da 	movabs rdx,0xead9ecda22a28800
  4053ab:	ec d9 ea 
  4053ae:	48 89 85 30 1b 00 00 	mov    QWORD PTR [rbp+0x1b30],rax
  4053b5:	48 89 95 38 1b 00 00 	mov    QWORD PTR [rbp+0x1b38],rdx
  4053bc:	48 b8 88 a2 02 17 d0 	movabs rax,0x85a2a8d01702a288
  4053c3:	a8 a2 85 
  4053c6:	48 ba 00 a2 90 06 db 	movabs rdx,0xf9e0db0690a200
  4053cd:	e0 f9 00 
  4053d0:	48 89 85 40 1b 00 00 	mov    QWORD PTR [rbp+0x1b40],rax
  4053d7:	48 89 95 48 1b 00 00 	mov    QWORD PTR [rbp+0x1b48],rdx
  4053de:	48 c7 85 50 1b 00 00 	mov    QWORD PTR [rbp+0x1b50],0x0
  4053e5:	00 00 00 00 
  4053e9:	c7 85 58 1b 00 00 00 	mov    DWORD PTR [rbp+0x1b58],0x0
  4053f0:	00 00 00 
  4053f3:	66 c7 85 5c 1b 00 00 	mov    WORD PTR [rbp+0x1b5c],0x0
  4053fa:	00 00 
  4053fc:	48 b8 00 58 96 eb ff 	movabs rax,0xffeb965800
  405403:	00 00 00 
  405406:	ba 00 00 00 00       	mov    edx,0x0
  40540b:	48 89 85 40 19 00 00 	mov    QWORD PTR [rbp+0x1940],rax
  405412:	48 89 95 48 19 00 00 	mov    QWORD PTR [rbp+0x1948],rdx
  405419:	48 8d 95 50 19 00 00 	lea    rdx,[rbp+0x1950]
  405420:	b8 00 00 00 00       	mov    eax,0x0
  405425:	b9 1f 00 00 00       	mov    ecx,0x1f
  40542a:	48 89 d7             	mov    rdi,rdx
  40542d:	f3 48 ab             	rep stos QWORD PTR es:[rdi],rax
  405430:	48 89 fa             	mov    rdx,rdi
  405433:	89 02                	mov    DWORD PTR [rdx],eax
  405435:	48 83 c2 04          	add    rdx,0x4
  405439:	66 89 02             	mov    WORD PTR [rdx],ax
  40543c:	48 83 c2 02          	add    rdx,0x2
  405440:	48 b8 a3 e0 fa 60 01 	movabs rax,0x690090160fae0a3
  405447:	09 90 06 
  40544a:	48 ba d6 e0 fb a3 e0 	movabs rdx,0x8b82f5e0a3fbe0d6
  405451:	f5 82 8b 
  405454:	48 89 85 30 18 00 00 	mov    QWORD PTR [rbp+0x1830],rax
  40545b:	48 89 95 38 18 00 00 	mov    QWORD PTR [rbp+0x1838],rdx
  405462:	48 b8 83 05 a2 90 06 	movabs rax,0xfbe0d90690a20583
  405469:	d9 e0 fb 
  40546c:	48 ba a3 e0 f5 84 8b 	movabs rdx,0xa205858b84f5e0a3
  405473:	85 05 a2 
  405476:	48 89 85 40 18 00 00 	mov    QWORD PTR [rbp+0x1840],rax
  40547d:	48 89 95 48 18 00 00 	mov    QWORD PTR [rbp+0x1848],rdx
  405484:	48 b8 e0 fb a3 05 a2 	movabs rax,0xa393e4a205a3fbe0
  40548b:	e4 93 a3 
  40548e:	48 ba 05 a2 c3 9b 60 	movabs rdx,0xaf05609bc3a205
  405495:	05 af 00 
  405498:	48 89 85 50 18 00 00 	mov    QWORD PTR [rbp+0x1850],rax
  40549f:	48 89 95 58 18 00 00 	mov    QWORD PTR [rbp+0x1858],rdx
  4054a6:	48 b8 88 a2 22 da eb 	movabs rax,0x88e9d9ebda22a288
  4054ad:	d9 e9 88 
  4054b0:	48 ba a2 02 17 d0 90 	movabs rdx,0xe0d50690d01702a2
  4054b7:	06 d5 e0 
  4054ba:	48 89 85 60 18 00 00 	mov    QWORD PTR [rbp+0x1860],rax
  4054c1:	48 89 95 68 18 00 00 	mov    QWORD PTR [rbp+0x1868],rdx
  4054c8:	48 b8 f4 60 03 02 17 	movabs rax,0x690ce17020360f4
  4054cf:	ce 90 06 
  4054d2:	48 ba d8 e0 04 70 03 	movabs rdx,0x881702037004e0d8
  4054d9:	02 17 88 
  4054dc:	48 89 85 70 18 00 00 	mov    QWORD PTR [rbp+0x1870],rax
  4054e3:	48 89 95 78 18 00 00 	mov    QWORD PTR [rbp+0x1878],rdx
  4054ea:	48 b8 24 fe 60 03 02 	movabs rax,0xa8d017020360fe24
  4054f1:	17 d0 a8 
  4054f4:	48 ba a2 85 00 a2 90 	movabs rdx,0xe0db0690a20085a2
  4054fb:	06 db e0 
  4054fe:	48 89 85 80 18 00 00 	mov    QWORD PTR [rbp+0x1880],rax
  405505:	48 89 95 88 18 00 00 	mov    QWORD PTR [rbp+0x1888],rdx
  40550c:	48 b8 f9 a3 e0 fa 60 	movabs rax,0x90090160fae0a3f9
  405513:	01 09 90 
  405516:	48 ba 06 d6 e0 fb a3 	movabs rdx,0x82f5e0a3fbe0d606
  40551d:	e0 f5 82 
  405520:	48 89 85 90 18 00 00 	mov    QWORD PTR [rbp+0x1890],rax
  405527:	48 89 95 98 18 00 00 	mov    QWORD PTR [rbp+0x1898],rdx
  40552e:	48 b8 8b 83 05 a2 90 	movabs rax,0xe0d90690a205838b
  405535:	06 d9 e0 
  405538:	48 ba fb a3 e0 f5 84 	movabs rdx,0x5858b84f5e0a3fb
  40553f:	8b 85 05 
  405542:	48 89 85 a0 18 00 00 	mov    QWORD PTR [rbp+0x18a0],rax
  405549:	48 89 95 a8 18 00 00 	mov    QWORD PTR [rbp+0x18a8],rdx
  405550:	48 b8 a2 e4 93 fb a3 	movabs rax,0xe0a205a3fb93e4a2
  405557:	05 a2 e0 
  40555a:	48 ba a3 05 a2 c3 9b 	movabs rdx,0xaf05609bc3a205a3
  405561:	60 05 af 
  405564:	48 89 85 b0 18 00 00 	mov    QWORD PTR [rbp+0x18b0],rax
  40556b:	48 89 95 b8 18 00 00 	mov    QWORD PTR [rbp+0x18b8],rdx
  405572:	48 b8 00 88 a2 22 da 	movabs rax,0xe9d9ebda22a28800
  405579:	eb d9 e9 
  40557c:	48 ba 88 a2 02 17 d0 	movabs rdx,0x85a2a8d01702a288
  405583:	a8 a2 85 
  405586:	48 89 85 c0 18 00 00 	mov    QWORD PTR [rbp+0x18c0],rax
  40558d:	48 89 95 c8 18 00 00 	mov    QWORD PTR [rbp+0x18c8],rdx
  405594:	48 b8 00 a2 90 06 db 	movabs rax,0xa3f9e0db0690a200
  40559b:	e0 f9 a3 
  40559e:	48 ba e0 fa 60 01 09 	movabs rdx,0xd60690090160fae0
  4055a5:	90 06 d6 
  4055a8:	48 89 85 d0 18 00 00 	mov    QWORD PTR [rbp+0x18d0],rax
  4055af:	48 89 95 d8 18 00 00 	mov    QWORD PTR [rbp+0x18d8],rdx
  4055b6:	48 b8 e0 fb a3 e0 f5 	movabs rax,0x838b82f5e0a3fbe0
  4055bd:	82 8b 83 
  4055c0:	48 ba 05 a2 90 06 d9 	movabs rdx,0xa3fbe0d90690a205
  4055c7:	e0 fb a3 
  4055ca:	48 89 85 e0 18 00 00 	mov    QWORD PTR [rbp+0x18e0],rax
  4055d1:	48 89 95 e8 18 00 00 	mov    QWORD PTR [rbp+0x18e8],rdx
  4055d8:	48 b8 e0 f5 84 8b 85 	movabs rax,0xe4a205858b84f5e0
  4055df:	05 a2 e4 
  4055e2:	48 ba 93 fb a3 05 a2 	movabs rdx,0xa393e4a205a3fb93
  4055e9:	e4 93 a3 
  4055ec:	48 89 85 f0 18 00 00 	mov    QWORD PTR [rbp+0x18f0],rax
  4055f3:	48 89 95 f8 18 00 00 	mov    QWORD PTR [rbp+0x18f8],rdx
  4055fa:	48 b8 05 a2 c3 9b 60 	movabs rax,0xaf05609bc3a205
  405601:	05 af 00 
  405604:	48 ba 88 a2 22 da ea 	movabs rdx,0x88e8d9eada22a288
  40560b:	d9 e8 88 
  40560e:	48 89 85 00 19 00 00 	mov    QWORD PTR [rbp+0x1900],rax
  405615:	48 89 95 08 19 00 00 	mov    QWORD PTR [rbp+0x1908],rdx
  40561c:	48 b8 a2 80 02 80 fe 	movabs rax,0x22017ffe800280a2
  405623:	7f 01 22 
  405626:	48 ba 12 16 3c fd fc 	movabs rdx,0x3d1612fcfd3c1612
  40562d:	12 16 3d 
  405630:	48 89 85 10 19 00 00 	mov    QWORD PTR [rbp+0x1910],rax
  405637:	48 89 95 18 19 00 00 	mov    QWORD PTR [rbp+0x1918],rdx
  40563e:	48 b8 12 1d df 90 06 	movabs rax,0xfae0bc0690df1d12
  405645:	bc e0 fa 
  405648:	48 ba a3 e0 24 16 f5 	movabs rdx,0x7482f51624e0a3
  40564f:	82 74 00 
  405652:	48 89 85 20 19 00 00 	mov    QWORD PTR [rbp+0x1920],rax
  405659:	48 89 95 28 19 00 00 	mov    QWORD PTR [rbp+0x1928],rdx
  405660:	48 c7 85 30 19 00 00 	mov    QWORD PTR [rbp+0x1930],0x0
  405667:	00 00 00 00 
  40566b:	c7 85 38 19 00 00 00 	mov    DWORD PTR [rbp+0x1938],0x0
  405672:	00 00 00 
  405675:	66 c7 85 3c 19 00 00 	mov    WORD PTR [rbp+0x193c],0x0
  40567c:	00 00 
  40567e:	48 b8 00 58 97 ea ff 	movabs rax,0xffea975800
  405685:	00 00 00 
  405688:	ba 00 00 00 00       	mov    edx,0x0
  40568d:	48 89 85 20 17 00 00 	mov    QWORD PTR [rbp+0x1720],rax
  405694:	48 89 95 28 17 00 00 	mov    QWORD PTR [rbp+0x1728],rdx
  40569b:	48 8d 95 30 17 00 00 	lea    rdx,[rbp+0x1730]
  4056a2:	b8 00 00 00 00       	mov    eax,0x0
  4056a7:	b9 1f 00 00 00       	mov    ecx,0x1f
  4056ac:	48 89 d7             	mov    rdi,rdx
  4056af:	f3 48 ab             	rep stos QWORD PTR es:[rdi],rax
  4056b2:	48 89 fa             	mov    rdx,rdi
  4056b5:	89 02                	mov    DWORD PTR [rdx],eax
  4056b7:	48 83 c2 04          	add    rdx,0x4
  4056bb:	66 89 02             	mov    WORD PTR [rdx],ax
  4056be:	48 83 c2 02          	add    rdx,0x2
  4056c2:	48 b8 02 12 15 da c3 	movabs rax,0xbd0690c3da151202
  4056c9:	90 06 bd 
  4056cc:	48 ba e0 94 30 90 06 	movabs rdx,0x64e0bc06903094e0
  4056d3:	bc e0 64 
  4056d6:	48 89 85 10 16 00 00 	mov    QWORD PTR [rbp+0x1610],rax
  4056dd:	48 89 95 18 16 00 00 	mov    QWORD PTR [rbp+0x1618],rdx
  4056e4:	48 b8 80 94 80 40 dc 	movabs rax,0x100090dc40809480
  4056eb:	90 00 10 
  4056ee:	48 ba e0 ff 7e 00 64 	movabs rdx,0x5708064007effe0
  4056f5:	80 70 05 
  4056f8:	48 89 85 20 16 00 00 	mov    QWORD PTR [rbp+0x1620],rax
  4056ff:	48 89 95 28 16 00 00 	mov    QWORD PTR [rbp+0x1628],rdx
  405706:	48 b8 fc 7d 20 80 14 	movabs rax,0x8164ef1480207dfc
  40570d:	ef 64 81 
  405710:	48 ba 4e 70 05 fc 7d 	movabs rdx,0x980307dfc05704e
  405717:	30 80 09 
  40571a:	48 89 85 30 16 00 00 	mov    QWORD PTR [rbp+0x1630],rax
  405721:	48 89 95 38 16 00 00 	mov    QWORD PTR [rbp+0x1638],rdx
  405728:	48 b8 ef 64 82 4e 70 	movabs rax,0x7dfc03704e8264ef
  40572f:	03 fc 7d 
  405732:	48 ba 40 12 16 3c 12 	movabs rdx,0xff5916123c161240
  405739:	16 59 ff 
  40573c:	48 89 85 40 16 00 00 	mov    QWORD PTR [rbp+0x1640],rax
  405743:	48 89 95 48 16 00 00 	mov    QWORD PTR [rbp+0x1648],rdx
  40574a:	48 b8 c3 94 10 ee 64 	movabs rax,0x80948064ee1094c3
  405751:	80 94 80 
  405754:	48 ba 50 24 ef 2d ff 	movabs rdx,0xfe3ceeff2def2450
  40575b:	ee 3c fe 
  40575e:	48 89 85 50 16 00 00 	mov    QWORD PTR [rbp+0x1650],rax
  405765:	48 89 95 58 16 00 00 	mov    QWORD PTR [rbp+0x1658],rdx
  40576c:	48 b8 74 48 2f f5 82 	movabs rax,0x3e047482f52f4874
  405773:	74 04 3e 
  405776:	48 ba f5 83 e0 ff 90 	movabs rdx,0xe0bc0690ffe083f5
  40577d:	06 bc e0 
  405780:	48 89 85 60 16 00 00 	mov    QWORD PTR [rbp+0x1660],rax
  405787:	48 89 95 68 16 00 00 	mov    QWORD PTR [rbp+0x1668],rdx
  40578e:	48 b8 fa a3 e0 24 12 	movabs rax,0x7482f51224e0a3fa
  405795:	f5 82 74 
  405798:	48 ba 00 12 15 da 80 	movabs rdx,0x1612ce80da151200
  40579f:	ce 12 16 
  4057a2:	48 89 85 70 16 00 00 	mov    QWORD PTR [rbp+0x1670],rax
  4057a9:	48 89 95 78 16 00 00 	mov    QWORD PTR [rbp+0x1678],rdx
  4057b0:	48 b8 3c e4 fc fd 12 	movabs rax,0x78591612fdfce43c
  4057b7:	16 59 78 
  4057ba:	48 ba 03 c3 33 ce 33 	movabs rdx,0xf9d8ce33ce33c303
  4057c1:	ce d8 f9 
  4057c4:	48 89 85 80 16 00 00 	mov    QWORD PTR [rbp+0x1680],rax
  4057cb:	48 89 95 88 16 00 00 	mov    QWORD PTR [rbp+0x1688],rdx
  4057d2:	48 b8 12 16 12 e0 ff 	movabs rax,0x691612ffe0121612
  4057d9:	12 16 69 
  4057dc:	48 ba ef f0 0d bd 00 	movabs rdx,0xed0c0100bd0df0ef
  4057e3:	01 0c ed 
  4057e6:	48 89 85 90 16 00 00 	mov    QWORD PTR [rbp+0x1690],rax
  4057ed:	48 89 95 98 16 00 00 	mov    QWORD PTR [rbp+0x1698],rdx
  4057f4:	48 b8 64 08 4c 70 df 	movabs rax,0x221612df704c0864
  4057fb:	12 16 22 
  4057fe:	48 ba 7d 01 7f 01 12 	movabs rdx,0x12e51112017f017d
  405805:	11 e5 12 
  405808:	48 89 85 a0 16 00 00 	mov    QWORD PTR [rbp+0x16a0],rax
  40580f:	48 89 95 a8 16 00 00 	mov    QWORD PTR [rbp+0x16a8],rdx
  405816:	48 b8 16 22 7d 10 7f 	movabs rax,0x1112017f107d2216
  40581d:	01 12 11 
  405820:	48 ba e5 e4 fc fd 12 	movabs rdx,0xe0691612fdfce4e5
  405827:	16 69 e0 
  40582a:	48 89 85 b0 16 00 00 	mov    QWORD PTR [rbp+0x16b0],rax
  405831:	48 89 95 b8 16 00 00 	mov    QWORD PTR [rbp+0x16b8],rdx
  405838:	48 b8 fb 12 16 59 78 	movabs rax,0x33c30378591612fb
  40583f:	03 c3 33 
  405842:	48 ba ce 33 ce d8 f9 	movabs rdx,0x121612f9d8ce33ce
  405849:	12 16 12 
  40584c:	48 89 85 c0 16 00 00 	mov    QWORD PTR [rbp+0x16c0],rax
  405853:	48 89 95 c8 16 00 00 	mov    QWORD PTR [rbp+0x16c8],rdx
  40585a:	48 b8 eb f0 0d bd 00 	movabs rax,0xed0c0100bd0df0eb
  405861:	01 0c ed 
  405864:	48 ba 64 08 4c 70 df 	movabs rdx,0xdf1512df704c0864
  40586b:	12 15 df 
  40586e:	48 89 85 d0 16 00 00 	mov    QWORD PTR [rbp+0x16d0],rax
  405875:	48 89 95 d8 16 00 00 	mov    QWORD PTR [rbp+0x16d8],rdx
  40587c:	48 b8 c3 90 06 bd e0 	movabs rax,0x900694e0bd0690c3
  405883:	94 06 90 
  405886:	48 ba 06 bc e0 64 80 	movabs rdx,0x4080948064e0bc06
  40588d:	94 80 40 
  405890:	48 89 85 e0 16 00 00 	mov    QWORD PTR [rbp+0x16e0],rax
  405897:	48 89 95 e8 16 00 00 	mov    QWORD PTR [rbp+0x16e8],rdx
  40589e:	48 b8 90 22 90 06 a8 	movabs rax,0xa3fee0a806902290
  4058a5:	e0 fe a3 
  4058a8:	48 ba e0 24 12 f5 82 	movabs rdx,0x3e007482f51224e0
  4058af:	74 00 3e 
  4058b2:	48 89 85 f0 16 00 00 	mov    QWORD PTR [rbp+0x16f0],rax
  4058b9:	48 89 95 f8 16 00 00 	mov    QWORD PTR [rbp+0x16f8],rdx
  4058c0:	48 b8 f5 83 e0 22 f0 	movabs rax,0x2374a3f022e083f5
  4058c7:	a3 74 23 
  4058ca:	48 ba f0 74 07 a3 f0 	movabs rdx,0xa3e4f0a30774f0
  4058d1:	e4 a3 00 
  4058d4:	48 89 85 00 17 00 00 	mov    QWORD PTR [rbp+0x1700],rax
  4058db:	48 89 95 08 17 00 00 	mov    QWORD PTR [rbp+0x1708],rdx
  4058e2:	48 c7 85 10 17 00 00 	mov    QWORD PTR [rbp+0x1710],0x0
  4058e9:	00 00 00 00 
  4058ed:	c7 85 18 17 00 00 00 	mov    DWORD PTR [rbp+0x1718],0x0
  4058f4:	00 00 00 
  4058f7:	66 c7 85 1c 17 00 00 	mov    WORD PTR [rbp+0x171c],0x0
  4058fe:	00 00 
  405900:	48 b8 00 58 98 e9 ff 	movabs rax,0xffe9985800
  405907:	00 00 00 
  40590a:	ba 00 00 00 00       	mov    edx,0x0
  40590f:	48 89 85 00 15 00 00 	mov    QWORD PTR [rbp+0x1500],rax
  405916:	48 89 95 08 15 00 00 	mov    QWORD PTR [rbp+0x1508],rdx
  40591d:	48 8d 95 10 15 00 00 	lea    rdx,[rbp+0x1510]
  405924:	b8 00 00 00 00       	mov    eax,0x0
  405929:	b9 1f 00 00 00       	mov    ecx,0x1f
  40592e:	48 89 d7             	mov    rdi,rdx
  405931:	f3 48 ab             	rep stos QWORD PTR es:[rdi],rax
  405934:	48 89 fa             	mov    rdx,rdi
  405937:	89 02                	mov    DWORD PTR [rdx],eax
  405939:	48 83 c2 04          	add    rdx,0x4
  40593d:	66 89 02             	mov    WORD PTR [rdx],ax
  405940:	48 83 c2 02          	add    rdx,0x2
  405944:	48 b8 f0 a3 f0 a3 f0 	movabs rax,0xa3f022f0a3f0a3f0
  40594b:	22 f0 a3 
  40594e:	48 ba 74 30 f0 a3 74 	movabs rdx,0x22f00274a3f03074
  405955:	02 f0 22 
  405958:	48 89 85 f0 13 00 00 	mov    QWORD PTR [rbp+0x13f0],rax
  40595f:	48 89 95 f8 13 00 00 	mov    QWORD PTR [rbp+0x13f8],rdx
  405966:	48 b8 e0 24 16 f5 82 	movabs rax,0x234e482f51624e0
  40596d:	e4 34 02 
  405970:	48 ba f5 83 e0 ff 90 	movabs rdx,0xe0070290ffe083f5
  405977:	02 07 e0 
  40597a:	48 89 85 00 14 00 00 	mov    QWORD PTR [rbp+0x1400],rax
  405981:	48 89 95 08 14 00 00 	mov    QWORD PTR [rbp+0x1408],rdx
  405988:	48 b8 2f f0 90 02 06 	movabs rax,0xf004e0060290f02f
  40598f:	e0 04 f0 
  405992:	48 ba 22 ff e0 5f 94 	movabs rdx,0x807400945fe0ff22
  405999:	00 74 80 
  40599c:	48 89 85 10 14 00 00 	mov    QWORD PTR [rbp+0x1410],rax
  4059a3:	48 89 95 18 14 00 00 	mov    QWORD PTR [rbp+0x1418],rdx
  4059aa:	48 b8 94 80 22 90 06 	movabs rax,0xff74c20690228094
  4059b1:	c2 74 ff 
  4059b4:	48 ba 7b 01 7a 04 79 	movabs rdx,0x22f04879047a017b
  4059bb:	48 f0 22 
  4059be:	48 89 85 20 14 00 00 	mov    QWORD PTR [rbp+0x1420],rax
  4059c5:	48 89 95 28 14 00 00 	mov    QWORD PTR [rbp+0x1428],rdx
  4059cc:	48 b8 90 06 a8 e4 75 	movabs rax,0x201f075e4a80690
  4059d3:	f0 01 02 
  4059d6:	48 ba 14 1c e4 90 06 	movabs rdx,0xa3f0a80690e41c14
  4059dd:	a8 f0 a3 
  4059e0:	48 89 85 30 14 00 00 	mov    QWORD PTR [rbp+0x1430],rax
  4059e7:	48 89 95 38 14 00 00 	mov    QWORD PTR [rbp+0x1438],rdx
  4059ee:	48 b8 f0 22 7b 01 7a 	movabs rax,0x1279007a017b22f0
  4059f5:	00 79 12 
  4059f8:	48 ba 90 06 c3 e4 f0 	movabs rdx,0x1874a3f0e4c30690
  4059ff:	a3 74 18 
  405a02:	48 89 85 40 14 00 00 	mov    QWORD PTR [rbp+0x1440],rax
  405a09:	48 89 95 48 14 00 00 	mov    QWORD PTR [rbp+0x1448],rdx
  405a10:	48 b8 f0 22 74 31 f0 	movabs rax,0x274a3f0317422f0
  405a17:	a3 74 02 
  405a1a:	48 ba f0 22 f0 a3 74 	movabs rdx,0xa3f02074a3f022f0
  405a21:	20 f0 a3 
  405a24:	48 89 85 50 14 00 00 	mov    QWORD PTR [rbp+0x1450],rax
  405a2b:	48 89 95 58 14 00 00 	mov    QWORD PTR [rbp+0x1458],rdx
  405a32:	48 b8 22 90 02 06 e0 	movabs rax,0x2f94c3e006029022
  405a39:	c3 94 2f 
  405a3c:	48 ba 74 80 94 80 22 	movabs rdx,0xf00902280948074
  405a43:	90 00 0f 
  405a46:	48 89 85 60 14 00 00 	mov    QWORD PTR [rbp+0x1460],rax
  405a4d:	48 89 95 68 14 00 00 	mov    QWORD PTR [rbp+0x1468],rdx
  405a54:	48 b8 e0 ff 90 02 12 	movabs rax,0x226fe0120290ffe0
  405a5b:	e0 6f 22 
  405a5e:	48 ba a3 f0 a3 74 0b 	movabs rdx,0x690f00b74a3f0a3
  405a65:	f0 90 06 
  405a68:	48 89 85 70 14 00 00 	mov    QWORD PTR [rbp+0x1470],rax
  405a6f:	48 89 95 78 14 00 00 	mov    QWORD PTR [rbp+0x1478],rdx
  405a76:	48 b8 dd e0 22 90 00 	movabs rax,0xffe010009022e0dd
  405a7d:	10 e0 ff 
  405a80:	48 ba 90 02 15 e0 22 	movabs rdx,0x74a3f022e0150290
  405a87:	f0 a3 74 
  405a8a:	48 89 85 80 14 00 00 	mov    QWORD PTR [rbp+0x1480],rax
  405a91:	48 89 95 88 14 00 00 	mov    QWORD PTR [rbp+0x1488],rdx
  405a98:	48 b8 2f f0 a3 22 f0 	movabs rax,0x174a3f022a3f02f
  405a9f:	a3 74 01 
  405aa2:	48 ba f0 a3 22 90 06 	movabs rdx,0x1402ac069022a3f0
  405aa9:	ac 02 14 
  405aac:	48 89 85 90 14 00 00 	mov    QWORD PTR [rbp+0x1490],rax
  405ab3:	48 89 95 98 14 00 00 	mov    QWORD PTR [rbp+0x1498],rdx
  405aba:	48 b8 67 e4 90 02 07 	movabs rax,0x290f0070290e467
  405ac1:	f0 90 02 
  405ac4:	48 ba 06 f0 22 7b 01 	movabs rdx,0x79047a017b22f006
  405acb:	7a 04 79 
  405ace:	48 89 85 a0 14 00 00 	mov    QWORD PTR [rbp+0x14a0],rax
  405ad5:	48 89 95 a8 14 00 00 	mov    QWORD PTR [rbp+0x14a8],rdx
  405adc:	48 b8 48 90 06 c2 22 	movabs rax,0xcd069022c2069048
  405ae3:	90 06 cd 
  405ae6:	48 ba 12 16 06 12 16 	movabs rdx,0xa3e40b1612061612
  405aed:	0b e4 a3 
  405af0:	48 89 85 b0 14 00 00 	mov    QWORD PTR [rbp+0x14b0],rax
  405af7:	48 89 95 b8 14 00 00 	mov    QWORD PTR [rbp+0x14b8],rdx
  405afe:	48 b8 f0 a3 f0 c3 90 	movabs rax,0xe0d30690c3f0a3f0
  405b05:	06 d3 e0 
  405b08:	48 ba 94 02 40 03 02 	movabs rdx,0xe07e1a0203400294
  405b0f:	1a 7e e0 
  405b12:	48 89 85 c0 14 00 00 	mov    QWORD PTR [rbp+0x14c0],rax
  405b19:	48 89 95 c8 14 00 00 	mov    QWORD PTR [rbp+0x14c8],rdx
  405b20:	48 b8 fe a3 e0 ff fd 	movabs rax,0xd10690fdffe0a3fe
  405b27:	90 06 d1 
  405b2a:	48 ba e0 fa a3 e0 fb 	movabs rdx,0x12902dfbe0a3fae0
  405b31:	2d 90 12 
  405b34:	48 89 85 d0 14 00 00 	mov    QWORD PTR [rbp+0x14d0],rax
  405b3b:	48 89 95 d8 14 00 00 	mov    QWORD PTR [rbp+0x14d8],rdx
  405b42:	48 b8 35 f0 eb 2f ea 	movabs rax,0xf0a33eea2febf035
  405b49:	3e a3 f0 
  405b4c:	48 ba 90 12 33 e4 f0 	movabs rdx,0x4a3f0e4331290
  405b53:	a3 04 00 
  405b56:	48 89 85 e0 14 00 00 	mov    QWORD PTR [rbp+0x14e0],rax
  405b5d:	48 89 95 e8 14 00 00 	mov    QWORD PTR [rbp+0x14e8],rdx
  405b64:	48 c7 85 f0 14 00 00 	mov    QWORD PTR [rbp+0x14f0],0x0
  405b6b:	00 00 00 00 
  405b6f:	c7 85 f8 14 00 00 00 	mov    DWORD PTR [rbp+0x14f8],0x0
  405b76:	00 00 00 
  405b79:	66 c7 85 fc 14 00 00 	mov    WORD PTR [rbp+0x14fc],0x0
  405b80:	00 00 
  405b82:	48 b8 00 58 99 e8 ff 	movabs rax,0xffe8995800
  405b89:	00 00 00 
  405b8c:	ba 00 00 00 00       	mov    edx,0x0
  405b91:	48 89 85 e0 12 00 00 	mov    QWORD PTR [rbp+0x12e0],rax
  405b98:	48 89 95 e8 12 00 00 	mov    QWORD PTR [rbp+0x12e8],rdx
  405b9f:	48 8d 95 f0 12 00 00 	lea    rdx,[rbp+0x12f0]
  405ba6:	b8 00 00 00 00       	mov    eax,0x0
  405bab:	b9 1f 00 00 00       	mov    ecx,0x1f
  405bb0:	48 89 d7             	mov    rdi,rdx
  405bb3:	f3 48 ab             	rep stos QWORD PTR es:[rdi],rax
  405bb6:	48 89 fa             	mov    rdx,rdi
  405bb9:	89 02                	mov    DWORD PTR [rdx],eax
  405bbb:	48 83 c2 04          	add    rdx,0x4
  405bbf:	66 89 02             	mov    WORD PTR [rdx],ax
  405bc2:	48 83 c2 02          	add    rdx,0x2
  405bc6:	48 b8 f0 75 eb 40 75 	movabs rax,0x75aae97540eb75f0
  405bcd:	e9 aa 75 
  405bd0:	48 ba ea 55 90 06 d3 	movabs rdx,0xa3fee0d3069055ea
  405bd7:	e0 fe a3 
  405bda:	48 89 85 d0 11 00 00 	mov    QWORD PTR [rbp+0x11d0],rax
  405be1:	48 89 95 d8 11 00 00 	mov    QWORD PTR [rbp+0x11d8],rdx
  405be8:	48 b8 e0 ff 90 06 cf 	movabs rax,0xa3fce0cf0690ffe0
  405bef:	e0 fc a3 
  405bf2:	48 ba e0 2f f5 82 ec 	movabs rdx,0x83f53eec82f52fe0
  405bf9:	3e f5 83 
  405bfc:	48 89 85 e0 11 00 00 	mov    QWORD PTR [rbp+0x11e0],rax
  405c03:	48 89 95 e8 11 00 00 	mov    QWORD PTR [rbp+0x11e8],rdx
  405c0a:	48 b8 e0 ff 90 06 d3 	movabs rax,0xa3fce0d30690ffe0
  405c11:	e0 fc a3 
  405c14:	48 ba e0 90 06 cd 12 	movabs rdx,0x30441612cd0690e0
  405c1b:	16 44 30 
  405c1e:	48 89 85 f0 11 00 00 	mov    QWORD PTR [rbp+0x11f0],rax
  405c25:	48 89 95 f8 11 00 00 	mov    QWORD PTR [rbp+0x11f8],rdx
  405c2c:	48 b8 e8 fd c2 e8 30 	movabs rax,0xc205e930e8c2fde8
  405c33:	e9 05 c2 
  405c36:	48 ba e9 7f 06 22 90 	movabs rdx,0xe0d3069022067fe9
  405c3d:	06 d3 e0 
  405c40:	48 89 85 00 12 00 00 	mov    QWORD PTR [rbp+0x1200],rax
  405c47:	48 89 95 08 12 00 00 	mov    QWORD PTR [rbp+0x1208],rdx
  405c4e:	48 b8 fe a3 e0 ff 90 	movabs rax,0xe0ce0690ffe0a3fe
  405c55:	06 ce e0 
  405c58:	48 ba 2f ff 90 06 cd 	movabs rdx,0xfa3ee0cd0690ff2f
  405c5f:	e0 3e fa 
  405c62:	48 89 85 10 12 00 00 	mov    QWORD PTR [rbp+0x1210],rax
  405c69:	48 89 95 18 12 00 00 	mov    QWORD PTR [rbp+0x1218],rdx
  405c70:	48 b8 a9 07 7b 01 c0 	movabs rax,0x1c002c0017b07a9
  405c77:	02 c0 01 
  405c7a:	48 ba 90 06 d3 a3 e0 	movabs rdx,0x690ffe0a3d30690
  405c81:	ff 90 06 
  405c84:	48 89 85 20 12 00 00 	mov    QWORD PTR [rbp+0x1220],rax
  405c8b:	48 89 95 28 12 00 00 	mov    QWORD PTR [rbp+0x1228],rdx
  405c92:	48 b8 d0 e0 2f ff 90 	movabs rax,0xe0cf0690ff2fe0d0
  405c99:	06 cf e0 
  405c9c:	48 ba 3e fa a9 07 90 	movabs rdx,0x12d8069007a9fa3e
  405ca3:	06 d8 12 
  405ca6:	48 89 85 30 12 00 00 	mov    QWORD PTR [rbp+0x1230],rax
  405cad:	48 89 95 38 12 00 00 	mov    QWORD PTR [rbp+0x1238],rdx
  405cb4:	48 b8 14 88 90 06 db 	movabs rax,0xf00174db06908814
  405cbb:	74 01 f0 
  405cbe:	48 ba a3 e4 f0 d0 01 	movabs rdx,0x1202d001d0f0e4a3
  405cc5:	d0 02 12 
  405cc8:	48 89 85 40 12 00 00 	mov    QWORD PTR [rbp+0x1240],rax
  405ccf:	48 89 95 48 12 00 00 	mov    QWORD PTR [rbp+0x1248],rdx
  405cd6:	48 b8 16 7a ef 70 03 	movabs rax,0x220a7f0370ef7a16
  405cdd:	7f 0a 22 
  405ce0:	48 ba 90 06 d3 74 01 	movabs rdx,0xf0750174d30690
  405ce7:	75 f0 00 
  405cea:	48 89 85 50 12 00 00 	mov    QWORD PTR [rbp+0x1250],rax
  405cf1:	48 89 95 58 12 00 00 	mov    QWORD PTR [rbp+0x1258],rdx
  405cf8:	48 b8 12 14 1c 02 19 	movabs rax,0x7fbc19021c1412
  405cff:	bc 7f 00 
  405d02:	48 ba 22 90 06 cd 12 	movabs rdx,0x90881412cd069022
  405d09:	14 88 90 
  405d0c:	48 89 85 60 12 00 00 	mov    QWORD PTR [rbp+0x1260],rax
  405d13:	48 89 95 68 12 00 00 	mov    QWORD PTR [rbp+0x1268],rdx
  405d1a:	48 b8 06 cd e0 64 01 	movabs rax,0x203600164e0cd06
  405d21:	60 03 02 
  405d24:	48 ba 1b 15 90 06 d0 	movabs rdx,0x6004e0d00690151b
  405d2b:	e0 04 60 
  405d2e:	48 89 85 70 12 00 00 	mov    QWORD PTR [rbp+0x1270],rax
  405d35:	48 89 95 78 12 00 00 	mov    QWORD PTR [rbp+0x1278],rdx
  405d3c:	48 b8 41 24 fe 60 03 	movabs rax,0x171b020360fe2441
  405d43:	02 1b 17 
  405d46:	48 ba a8 a2 85 00 a2 	movabs rdx,0xd30690a20085a2a8
  405d4d:	90 06 d3 
  405d50:	48 89 85 80 12 00 00 	mov    QWORD PTR [rbp+0x1280],rax
  405d57:	48 89 95 88 12 00 00 	mov    QWORD PTR [rbp+0x1288],rdx
  405d5e:	48 b8 e0 f9 a3 e0 fa 	movabs rax,0x90160fae0a3f9e0
  405d65:	60 01 09 
  405d68:	48 ba 90 06 ce e0 fb 	movabs rdx,0xf5e0a3fbe0ce0690
  405d6f:	a3 e0 f5 
  405d72:	48 89 85 90 12 00 00 	mov    QWORD PTR [rbp+0x1290],rax
  405d79:	48 89 95 98 12 00 00 	mov    QWORD PTR [rbp+0x1298],rdx
  405d80:	48 b8 82 8b 83 05 a2 	movabs rax,0xd10690a205838b82
  405d87:	90 06 d1 
  405d8a:	48 ba e0 fb a3 e0 f5 	movabs rdx,0x858b84f5e0a3fbe0
  405d91:	84 8b 85 
  405d94:	48 89 85 a0 12 00 00 	mov    QWORD PTR [rbp+0x12a0],rax
  405d9b:	48 89 95 a8 12 00 00 	mov    QWORD PTR [rbp+0x12a8],rdx
  405da2:	48 b8 75 a2 01 e0 a3 	movabs rax,0xf0a205a3e001a275
  405da9:	05 a2 f0 
  405dac:	48 ba a3 05 a2 da f6 	movabs rdx,0x88f4d9f6daa205a3
  405db3:	d9 f4 88 
  405db6:	48 89 85 b0 12 00 00 	mov    QWORD PTR [rbp+0x12b0],rax
  405dbd:	48 89 95 b8 12 00 00 	mov    QWORD PTR [rbp+0x12b8],rdx
  405dc4:	48 b8 a2 22 a8 a2 85 	movabs rax,0x90a20085a2a822a2
  405dcb:	00 a2 90 
  405dce:	48 ba 06 d3 e0 f9 a3 	movabs rdx,0xfae0a3f9e0d306
  405dd5:	e0 fa 00 
  405dd8:	48 89 85 c0 12 00 00 	mov    QWORD PTR [rbp+0x12c0],rax
  405ddf:	48 89 95 c8 12 00 00 	mov    QWORD PTR [rbp+0x12c8],rdx
  405de6:	48 c7 85 d0 12 00 00 	mov    QWORD PTR [rbp+0x12d0],0x0
  405ded:	00 00 00 00 
  405df1:	c7 85 d8 12 00 00 00 	mov    DWORD PTR [rbp+0x12d8],0x0
  405df8:	00 00 00 
  405dfb:	66 c7 85 dc 12 00 00 	mov    WORD PTR [rbp+0x12dc],0x0
  405e02:	00 00 
  405e04:	48 b8 00 58 9a e7 ff 	movabs rax,0xffe79a5800
  405e0b:	00 00 00 
  405e0e:	ba 00 00 00 00       	mov    edx,0x0
  405e13:	48 89 85 c0 10 00 00 	mov    QWORD PTR [rbp+0x10c0],rax
  405e1a:	48 89 95 c8 10 00 00 	mov    QWORD PTR [rbp+0x10c8],rdx
  405e21:	48 8d 95 d0 10 00 00 	lea    rdx,[rbp+0x10d0]
  405e28:	b8 00 00 00 00       	mov    eax,0x0
  405e2d:	b9 1f 00 00 00       	mov    ecx,0x1f
  405e32:	48 89 d7             	mov    rdi,rdx
  405e35:	f3 48 ab             	rep stos QWORD PTR es:[rdi],rax
  405e38:	48 89 fa             	mov    rdx,rdi
  405e3b:	89 02                	mov    DWORD PTR [rdx],eax
  405e3d:	48 83 c2 04          	add    rdx,0x4
  405e41:	66 89 02             	mov    WORD PTR [rdx],ax
  405e44:	48 83 c2 02          	add    rdx,0x2
  405e48:	48 b8 60 01 09 90 06 	movabs rax,0xfbe0ce0690090160
  405e4f:	ce e0 fb 
  405e52:	48 ba a3 e0 f5 82 8b 	movabs rdx,0xa205838b82f5e0a3
  405e59:	83 05 a2 
  405e5c:	48 89 85 b0 0f 00 00 	mov    QWORD PTR [rbp+0xfb0],rax
  405e63:	48 89 95 b8 0f 00 00 	mov    QWORD PTR [rbp+0xfb8],rdx
  405e6a:	48 b8 90 06 d1 e0 fb 	movabs rax,0xf5e0a3fbe0d10690
  405e71:	a3 e0 f5 
  405e74:	48 ba 84 8b 85 75 a2 	movabs rdx,0x93e401a275858b84
  405e7b:	01 e4 93 
  405e7e:	48 89 85 c0 0f 00 00 	mov    QWORD PTR [rbp+0xfc0],rax
  405e85:	48 89 95 c8 0f 00 00 	mov    QWORD PTR [rbp+0xfc8],rdx
  405e8c:	48 b8 a3 05 a2 f0 a3 	movabs rax,0xdaa205a3f0a205a3
  405e93:	05 a2 da 
  405e96:	48 ba f5 d9 f3 88 a2 	movabs rdx,0xfe8022a288f3d9f5
  405e9d:	22 80 fe 
  405ea0:	48 89 85 d0 0f 00 00 	mov    QWORD PTR [rbp+0xfd0],rax
  405ea7:	48 89 95 d8 0f 00 00 	mov    QWORD PTR [rbp+0xfd8],rdx
  405eae:	48 b8 22 02 02 00 e4 	movabs rax,0xf8a393e400020222
  405eb5:	93 a3 f8 
  405eb8:	48 ba e4 93 a3 40 03 	movabs rdx,0x180f60340a393e4
  405ebf:	f6 80 01 
  405ec2:	48 89 85 e0 0f 00 00 	mov    QWORD PTR [rbp+0xfe0],rax
  405ec9:	48 89 95 e8 0f 00 00 	mov    QWORD PTR [rbp+0xfe8],rdx
  405ed0:	48 b8 f2 08 df f4 80 	movabs rax,0x93e42980f4df08f2
  405ed7:	29 e4 93 
  405eda:	48 ba a3 f8 54 07 24 	movabs rdx,0xc3c80c240754f8a3
  405ee1:	0c c8 c3 
  405ee4:	48 89 85 f0 0f 00 00 	mov    QWORD PTR [rbp+0xff0],rax
  405eeb:	48 89 95 f8 0f 00 00 	mov    QWORD PTR [rbp+0xff8],rdx
  405ef2:	48 b8 33 c4 54 0f 44 	movabs rax,0x83c820440f54c433
  405ef9:	20 c8 83 
  405efc:	48 ba 40 04 f4 56 80 	movabs rdx,0xf646018056f40440
  405f03:	01 46 f6 
  405f06:	48 89 85 00 10 00 00 	mov    QWORD PTR [rbp+0x1000],rax
  405f0d:	48 89 95 08 10 00 00 	mov    QWORD PTR [rbp+0x1008],rdx
  405f14:	48 b8 df e4 80 0b 01 	movabs rax,0x80402010b80e4df
  405f1b:	02 04 08 
  405f1e:	48 ba 10 20 40 80 90 	movabs rdx,0xe49d0d9080402010
  405f25:	0d 9d e4 
  405f28:	48 89 85 10 10 00 00 	mov    QWORD PTR [rbp+0x1010],rax
  405f2f:	48 89 95 18 10 00 00 	mov    QWORD PTR [rbp+0x1018],rdx
  405f36:	48 b8 7e 01 93 60 bc 	movabs rax,0x54ffa3bc6093017e
  405f3d:	a3 ff 54 
  405f40:	48 ba 3f 30 e5 09 54 	movabs rdx,0xe4fe1f5409e5303f
  405f47:	1f fe e4 
  405f4a:	48 89 85 20 10 00 00 	mov    QWORD PTR [rbp+0x1020],rax
  405f51:	48 89 95 28 10 00 00 	mov    QWORD PTR [rbp+0x1028],rdx
  405f58:	48 b8 93 a3 60 01 0e 	movabs rax,0xc054cf0e0160a393
  405f5f:	cf 54 c0 
  405f62:	48 ba 25 e0 60 a8 40 	movabs rdx,0x93e4b840a860e025
  405f69:	b8 e4 93 
  405f6c:	48 89 85 30 10 00 00 	mov    QWORD PTR [rbp+0x1030],rax
  405f73:	48 89 95 38 10 00 00 	mov    QWORD PTR [rbp+0x1038],rdx
  405f7a:	48 b8 a3 fa e4 93 a3 	movabs rax,0x93e4f8a393e4faa3
  405f81:	f8 e4 93 
  405f84:	48 ba a3 c8 c5 82 c8 	movabs rdx,0x83c5cac882c5c8a3
  405f8b:	ca c5 83 
  405f8e:	48 89 85 40 10 00 00 	mov    QWORD PTR [rbp+0x1040],rax
  405f95:	48 89 95 48 10 00 00 	mov    QWORD PTR [rbp+0x1048],rdx
  405f9c:	48 b8 ca f0 a3 c8 c5 	movabs rax,0xcac882c5c8a3f0ca
  405fa3:	82 c8 ca 
  405fa6:	48 ba c5 83 ca df e9 	movabs rdx,0x80e7dee9dfca83c5
  405fad:	de e7 80 
  405fb0:	48 89 85 50 10 00 00 	mov    QWORD PTR [rbp+0x1050],rax
  405fb7:	48 89 95 58 10 00 00 	mov    QWORD PTR [rbp+0x1058],rdx
  405fbe:	48 b8 be e4 90 06 bc 	movabs rax,0x17bf0bc0690e4be
  405fc5:	f0 7b 01 
  405fc8:	48 ba 7a 04 79 48 90 	movabs rdx,0xf0c206904879047a
  405fcf:	06 c2 f0 
  405fd2:	48 89 85 60 10 00 00 	mov    QWORD PTR [rbp+0x1060],rax
  405fd9:	48 89 95 68 10 00 00 	mov    QWORD PTR [rbp+0x1068],rdx
  405fe0:	48 b8 a3 f0 fd 7c 70 	movabs rax,0x4e1d12707cfdf0a3
  405fe7:	12 1d 4e 
  405fea:	48 ba 90 04 48 e0 f4 	movabs rdx,0x903870f4e0480490
  405ff1:	70 38 90 
  405ff4:	48 89 85 70 10 00 00 	mov    QWORD PTR [rbp+0x1070],rax
  405ffb:	48 89 95 78 10 00 00 	mov    QWORD PTR [rbp+0x1078],rdx
  406002:	48 b8 06 bc f0 90 06 	movabs rax,0xc3e0bc0690f0bc06
  406009:	bc e0 c3 
  40600c:	48 ba 94 55 74 80 94 	movabs rdx,0x2150809480745594
  406013:	80 50 21 
  406016:	48 89 85 80 10 00 00 	mov    QWORD PTR [rbp+0x1080],rax
  40601d:	48 89 95 88 10 00 00 	mov    QWORD PTR [rbp+0x1088],rdx
  406024:	48 b8 e0 ff 24 12 f5 	movabs rax,0x34e482f51224ffe0
  40602b:	82 e4 34 
  40602e:	48 ba 00 f5 83 e0 fe 	movabs rdx,0x2f4874fee083f500
  406035:	74 48 2f 
  406038:	48 89 85 90 10 00 00 	mov    QWORD PTR [rbp+0x1090],rax
  40603f:	48 89 95 98 10 00 00 	mov    QWORD PTR [rbp+0x1098],rdx
  406046:	48 b8 f5 82 e4 34 04 	movabs rax,0xee83f50434e482f5
  40604d:	f5 83 ee 
  406050:	48 ba f0 90 06 bc e0 	movabs rdx,0xf004e0bc0690f0
  406057:	04 f0 00 
  40605a:	48 89 85 a0 10 00 00 	mov    QWORD PTR [rbp+0x10a0],rax
  406061:	48 89 95 a8 10 00 00 	mov    QWORD PTR [rbp+0x10a8],rdx
  406068:	48 c7 85 b0 10 00 00 	mov    QWORD PTR [rbp+0x10b0],0x0
  40606f:	00 00 00 00 
  406073:	c7 85 b8 10 00 00 00 	mov    DWORD PTR [rbp+0x10b8],0x0
  40607a:	00 00 00 
  40607d:	66 c7 85 bc 10 00 00 	mov    WORD PTR [rbp+0x10bc],0x0
  406084:	00 00 
  406086:	48 b8 00 58 9b e6 ff 	movabs rax,0xffe69b5800
  40608d:	00 00 00 
  406090:	ba 00 00 00 00       	mov    edx,0x0
  406095:	48 89 85 a0 0e 00 00 	mov    QWORD PTR [rbp+0xea0],rax
  40609c:	48 89 95 a8 0e 00 00 	mov    QWORD PTR [rbp+0xea8],rdx
  4060a3:	48 8d 95 b0 0e 00 00 	lea    rdx,[rbp+0xeb0]
  4060aa:	b8 00 00 00 00       	mov    eax,0x0
  4060af:	b9 1f 00 00 00       	mov    ecx,0x1f
  4060b4:	48 89 d7             	mov    rdi,rdx
  4060b7:	f3 48 ab             	rep stos QWORD PTR es:[rdi],rax
  4060ba:	48 89 fa             	mov    rdx,rdi
  4060bd:	89 02                	mov    DWORD PTR [rdx],eax
  4060bf:	48 83 c2 04          	add    rdx,0x4
  4060c3:	66 89 02             	mov    WORD PTR [rdx],ax
  4060c6:	48 83 c2 02          	add    rdx,0x2
  4060ca:	48 b8 80 d2 12 15 f5 	movabs rax,0x421012f51512d280
  4060d1:	12 10 42 
  4060d4:	48 ba e4 90 06 bc f0 	movabs rdx,0xbc0690f0bc0690e4
  4060db:	90 06 bc 
  4060de:	48 89 85 90 0d 00 00 	mov    QWORD PTR [rbp+0xd90],rax
  4060e5:	48 89 95 98 0d 00 00 	mov    QWORD PTR [rbp+0xd98],rdx
  4060ec:	48 b8 e0 ff c3 94 55 	movabs rax,0x9480745594c3ffe0
  4060f3:	74 80 94 
  4060f6:	48 ba 80 50 14 74 12 	movabs rdx,0x82f52f1274145080
  4060fd:	2f f5 82 
  406100:	48 89 85 a0 0d 00 00 	mov    QWORD PTR [rbp+0xda0],rax
  406107:	48 89 95 a8 0d 00 00 	mov    QWORD PTR [rbp+0xda8],rdx
  40610e:	48 b8 e4 34 00 f5 83 	movabs rax,0x90f0e483f50034e4
  406115:	e4 f0 90 
  406118:	48 ba 06 bc e0 04 f0 	movabs rdx,0x22de80f004e0bc06
  40611f:	80 de 22 
  406122:	48 89 85 b0 0d 00 00 	mov    QWORD PTR [rbp+0xdb0],rax
  406129:	48 89 95 b8 0d 00 00 	mov    QWORD PTR [rbp+0xdb8],rdx
  406130:	48 b8 90 06 bc 12 16 	movabs rax,0xeaa3061612bc0690
  406137:	06 a3 ea 
  40613a:	48 ba f0 a3 eb f0 e4 	movabs rdx,0xa3f0a3e4f0eba3f0
  406141:	a3 f0 a3 
  406144:	48 89 85 c0 0d 00 00 	mov    QWORD PTR [rbp+0xdc0],rax
  40614b:	48 89 95 c8 0d 00 00 	mov    QWORD PTR [rbp+0xdc8],rdx
  406152:	48 b8 f0 90 06 c0 e0 	movabs rax,0xe0a3fee0c00690f0
  406159:	fe a3 e0 
  40615c:	48 ba ff a3 e0 fc a3 	movabs rdx,0xc3fde0a3fce0a3ff
  406163:	e0 fd c3 
  406166:	48 89 85 d0 0d 00 00 	mov    QWORD PTR [rbp+0xdd0],rax
  40616d:	48 89 95 d8 0d 00 00 	mov    QWORD PTR [rbp+0xdd8],rdx
  406174:	48 b8 9f ec 9e 50 3b 	movabs rax,0x1eb753b509eec9f
  40617b:	75 eb 01 
  40617e:	48 ba 75 e9 aa 75 ea 	movabs rdx,0x69055ea75aae975
  406185:	55 90 06 
  406188:	48 89 85 e0 0d 00 00 	mov    QWORD PTR [rbp+0xde0],rax
  40618f:	48 89 95 e8 0d 00 00 	mov    QWORD PTR [rbp+0xde8],rdx
  406196:	48 b8 be e0 fe a3 e0 	movabs rax,0x82f52de0a3fee0be
  40619d:	2d f5 82 
  4061a0:	48 ba ee 3c f5 83 e0 	movabs rdx,0x690ffe083f53cee
  4061a7:	ff 90 06 
  4061aa:	48 89 85 f0 0d 00 00 	mov    QWORD PTR [rbp+0xdf0],rax
  4061b1:	48 89 95 f8 0d 00 00 	mov    QWORD PTR [rbp+0xdf8],rdx
  4061b8:	48 b8 c2 e0 fc a3 e0 	movabs rax,0xbc0690e0a3fce0c2
  4061bf:	90 06 bc 
  4061c2:	48 ba 12 16 44 30 e8 	movabs rdx,0xe8c2fde830441612
  4061c9:	fd c2 e8 
  4061cc:	48 89 85 00 0e 00 00 	mov    QWORD PTR [rbp+0xe00],rax
  4061d3:	48 89 95 08 0e 00 00 	mov    QWORD PTR [rbp+0xe08],rdx
  4061da:	48 b8 30 e9 05 c2 e9 	movabs rax,0x22067fe9c205e930
  4061e1:	7f 06 22 
  4061e4:	48 ba 90 06 c2 12 15 	movabs rdx,0xb180e21512c20690
  4061eb:	e2 80 b1 
  4061ee:	48 89 85 10 0e 00 00 	mov    QWORD PTR [rbp+0xe10],rax
  4061f5:	48 89 95 18 0e 00 00 	mov    QWORD PTR [rbp+0xe18],rdx
  4061fc:	48 b8 7f 00 22 7e 1f 	movabs rax,0x90fce41f7e22007f
  406203:	e4 fc 90 
  406206:	48 ba 19 27 f0 90 19 	movabs rdx,0x7df0261990f02719
  40620d:	26 f0 7d 
  406210:	48 89 85 20 0e 00 00 	mov    QWORD PTR [rbp+0xe20],rax
  406217:	48 89 95 28 0e 00 00 	mov    QWORD PTR [rbp+0xe28],rdx
  40621e:	48 b8 3f 90 19 23 ed 	movabs rax,0x1990f0ed2319903f
  406225:	f0 90 19 
  406228:	48 ba 21 f0 ee 90 19 	movabs rdx,0x90f0241990eef021
  40622f:	24 f0 90 
  406232:	48 89 85 30 0e 00 00 	mov    QWORD PTR [rbp+0xe30],rax
  406239:	48 89 95 38 0e 00 00 	mov    QWORD PTR [rbp+0xe38],rdx
  406240:	48 b8 19 22 f0 90 19 	movabs rax,0x44e0251990f02219
  406247:	25 e0 44 
  40624a:	48 ba 01 f0 90 19 20 	movabs rdx,0xf954e0201990f001
  406251:	e0 54 f9 
  406254:	48 89 85 40 0e 00 00 	mov    QWORD PTR [rbp+0xe40],rax
  40625b:	48 89 95 48 0e 00 00 	mov    QWORD PTR [rbp+0xe48],rdx
  406262:	48 b8 f0 e0 44 01 f0 	movabs rax,0xfde4f00144e0f0
  406269:	e4 fd 00 
  40626c:	48 ba 0d bd 00 01 0c 	movabs rdx,0x1464ed0c0100bd0d
  406273:	ed 64 14 
  406276:	48 89 85 50 0e 00 00 	mov    QWORD PTR [rbp+0xe50],rax
  40627d:	48 89 95 58 0e 00 00 	mov    QWORD PTR [rbp+0xe58],rdx
  406284:	48 b8 4c 70 f4 90 19 	movabs rax,0x54e0201990f4704c
  40628b:	20 e0 54 
  40628e:	48 ba fe f0 e4 fc fd 	movabs rdx,0xbd0d00fdfce4f0fe
  406295:	00 0d bd 
  406298:	48 89 85 60 0e 00 00 	mov    QWORD PTR [rbp+0xe60],rax
  40629f:	48 89 95 68 0e 00 00 	mov    QWORD PTR [rbp+0xe68],rdx
  4062a6:	48 b8 00 01 0c ed 64 	movabs rax,0x704c0a64ed0c0100
  4062ad:	0a 4c 70 
  4062b0:	48 ba f4 22 7e 01 7f 	movabs rdx,0x490007f017e22f4
  4062b7:	00 90 04 
  4062ba:	48 89 85 70 0e 00 00 	mov    QWORD PTR [rbp+0xe70],rax
  4062c1:	48 89 95 78 0e 00 00 	mov    QWORD PTR [rbp+0xe78],rdx
  4062c8:	48 b8 48 74 ff f0 a3 	movabs rax,0xdefcdfa3f0ff7448
  4062cf:	df fc de 
  4062d2:	48 ba fa 12 15 f5 12 	movabs rdx,0x421012f51512fa
  4062d9:	10 42 00 
  4062dc:	48 89 85 80 0e 00 00 	mov    QWORD PTR [rbp+0xe80],rax
  4062e3:	48 89 95 88 0e 00 00 	mov    QWORD PTR [rbp+0xe88],rdx
  4062ea:	48 c7 85 90 0e 00 00 	mov    QWORD PTR [rbp+0xe90],0x0
  4062f1:	00 00 00 00 
  4062f5:	c7 85 98 0e 00 00 00 	mov    DWORD PTR [rbp+0xe98],0x0
  4062fc:	00 00 00 
  4062ff:	66 c7 85 9c 0e 00 00 	mov    WORD PTR [rbp+0xe9c],0x0
  406306:	00 00 
  406308:	48 b8 00 58 9c e5 ff 	movabs rax,0xffe59c5800
  40630f:	00 00 00 
  406312:	ba 00 00 00 00       	mov    edx,0x0
  406317:	48 89 85 80 0c 00 00 	mov    QWORD PTR [rbp+0xc80],rax
  40631e:	48 89 95 88 0c 00 00 	mov    QWORD PTR [rbp+0xc88],rdx
  406325:	48 8d 95 90 0c 00 00 	lea    rdx,[rbp+0xc90]
  40632c:	b8 00 00 00 00       	mov    eax,0x0
  406331:	b9 1f 00 00 00       	mov    ecx,0x1f
  406336:	48 89 d7             	mov    rdi,rdx
  406339:	f3 48 ab             	rep stos QWORD PTR es:[rdi],rax
  40633c:	48 89 fa             	mov    rdx,rdi
  40633f:	89 02                	mov    DWORD PTR [rdx],eax
  406341:	48 83 c2 04          	add    rdx,0x4
  406345:	66 89 02             	mov    WORD PTR [rdx],ax
  406348:	48 83 c2 02          	add    rdx,0x2
  40634c:	48 b8 e4 f5 a8 75 c3 	movabs rax,0xb07501c375a8f5e4
  406353:	01 75 b0 
  406356:	48 ba 06 90 04 46 74 	movabs rdx,0xa3f0807446049006
  40635d:	80 f0 a3 
  406360:	48 89 85 70 0b 00 00 	mov    QWORD PTR [rbp+0xb70],rax
  406367:	48 89 95 78 0b 00 00 	mov    QWORD PTR [rbp+0xb78],rdx
  40636e:	48 b8 e4 f0 90 04 46 	movabs rax,0xa3fee0460490f0e4
  406375:	e0 fe a3 
  406378:	48 ba e0 ff 12 1d 83 	movabs rdx,0x460490831d12ffe0
  40637f:	90 04 46 
  406382:	48 89 85 80 0b 00 00 	mov    QWORD PTR [rbp+0xb80],rax
  406389:	48 89 95 88 0b 00 00 	mov    QWORD PTR [rbp+0xb88],rdx
  406390:	48 b8 e0 fe a3 e0 ff 	movabs rax,0x7d067cffe0a3fee0
  406397:	7c 06 7d 
  40639a:	48 ba 48 7b 60 7a 00 	movabs rdx,0x161c02007a607b48
  4063a1:	02 1c 16 
  4063a4:	48 89 85 90 0b 00 00 	mov    QWORD PTR [rbp+0xb90],rax
  4063ab:	48 89 95 98 0b 00 00 	mov    QWORD PTR [rbp+0xb98],rdx
  4063b2:	48 b8 53 e1 fe ed 4c 	movabs rax,0x7c03704cedfee153
  4063b9:	70 03 7c 
  4063bc:	48 ba 01 fd d3 ed 94 	movabs rdx,0x94ec0094edd3fd01
  4063c3:	00 ec 94 
  4063c6:	48 89 85 a0 0b 00 00 	mov    QWORD PTR [rbp+0xba0],rax
  4063cd:	48 89 95 a8 0b 00 00 	mov    QWORD PTR [rbp+0xba8],rdx
  4063d4:	48 b8 00 40 22 7f 05 	movabs rax,0x1f07ae057f224000
  4063db:	ae 07 1f 
  4063de:	ba ee 60 07 00       	mov    edx,0x760ee
  4063e3:	48 89 85 b0 0b 00 00 	mov    QWORD PTR [rbp+0xbb0],rax
  4063ea:	48 89 95 b8 0b 00 00 	mov    QWORD PTR [rbp+0xbb8],rdx
  4063f1:	48 b8 80 f3 e5 e2 12 	movabs rax,0x74b21312e2e5f380
  4063f8:	13 b2 74 
  4063fb:	48 ba 01 29 f9 e4 3a 	movabs rdx,0x1dedfa3ae4f92901
  406402:	fa ed 1d 
  406405:	48 89 85 c0 0b 00 00 	mov    QWORD PTR [rbp+0xbc0],rax
  40640c:	48 89 95 c8 0b 00 00 	mov    QWORD PTR [rbp+0xbc8],rdx
  406413:	48 b8 70 d8 1c 80 d5 	movabs rax,0x1e143d5801cd870
  40641a:	43 e1 01 
  40641d:	48 ba 22 90 06 c2 e0 	movabs rdx,0xa30270e0c2069022
  406424:	70 02 a3 
  406427:	48 89 85 d0 0b 00 00 	mov    QWORD PTR [rbp+0xbd0],rax
  40642e:	48 89 95 d8 0b 00 00 	mov    QWORD PTR [rbp+0xbd8],rdx
  406435:	48 b8 e0 70 08 90 06 	movabs rax,0xf004c206900870e0
  40643c:	c2 04 f0 
  40643f:	48 ba a3 e4 f0 c0 03 	movabs rdx,0xc002c003c0f0e4a3
  406446:	c0 02 c0 
  406449:	48 89 85 e0 0b 00 00 	mov    QWORD PTR [rbp+0xbe0],rax
  406450:	48 89 95 e8 0b 00 00 	mov    QWORD PTR [rbp+0xbe8],rdx
  406457:	48 b8 01 ae 04 af 05 	movabs rax,0x1207a905af04ae01
  40645e:	a9 07 12 
  406461:	48 ba 16 32 90 06 c2 	movabs rdx,0xa3ffe0c206903216
  406468:	e0 ff a3 
  40646b:	48 89 85 f0 0b 00 00 	mov    QWORD PTR [rbp+0xbf0],rax
  406472:	48 89 95 f8 0b 00 00 	mov    QWORD PTR [rbp+0xbf8],rdx
  406479:	48 b8 e0 cf 12 15 d2 	movabs rax,0xd001d0d21512cfe0
  406480:	d0 01 d0 
  406483:	48 ba 02 d0 03 02 1a 	movabs rdx,0x828f811a0203d002
  40648a:	81 8f 82 
  40648d:	48 89 85 00 0c 00 00 	mov    QWORD PTR [rbp+0xc00],rax
  406494:	48 89 95 08 0c 00 00 	mov    QWORD PTR [rbp+0xc08],rdx
  40649b:	48 b8 8e 83 e4 ff 75 	movabs rax,0x7511eb75ffe4838e
  4064a2:	eb 11 75 
  4064a5:	48 ba e9 55 75 ea aa 	movabs rdx,0xf0ff74aaea7555e9
  4064ac:	74 ff f0 
  4064af:	48 89 85 10 0c 00 00 	mov    QWORD PTR [rbp+0xc10],rax
  4064b6:	48 89 95 18 0c 00 00 	mov    QWORD PTR [rbp+0xc18],rdx
  4064bd:	48 b8 30 e8 fd c2 e8 	movabs rax,0x5e930e8c2fde830
  4064c4:	30 e9 05 
  4064c7:	48 ba c2 e9 7f 06 22 	movabs rdx,0xdea3022067fe9c2
  4064ce:	30 ea 0d 
  4064d1:	48 89 85 20 0c 00 00 	mov    QWORD PTR [rbp+0xc20],rax
  4064d8:	48 89 95 28 0c 00 00 	mov    QWORD PTR [rbp+0xc28],rdx
  4064df:	48 b8 c2 ea ef 64 02 	movabs rax,0x7f03700264efeac2
  4064e6:	70 03 7f 
  4064e9:	48 ba 0a 22 0f 80 da 	movabs rdx,0x22007fda800f220a
  4064f0:	7f 00 22 
  4064f3:	48 89 85 30 0c 00 00 	mov    QWORD PTR [rbp+0xc30],rax
  4064fa:	48 89 95 38 0c 00 00 	mov    QWORD PTR [rbp+0xc38],rdx
  406501:	48 b8 ae 07 ee fd 33 	movabs rax,0x4de09533fdee07ae
  406508:	95 e0 4d 
  40650b:	48 ba 70 09 7f 90 12 	movabs rdx,0xe4d31d12907f0970
  406512:	1d d3 e4 
  406515:	48 89 85 40 0c 00 00 	mov    QWORD PTR [rbp+0xc40],rax
  40651c:	48 89 95 48 0c 00 00 	mov    QWORD PTR [rbp+0xc48],rdx
  406523:	48 b8 ff 80 07 7f 98 	movabs rax,0xd31d12987f0780ff
  40652a:	12 1d d3 
  40652d:	48 ba af 06 12 1d d3 	movabs rdx,0xdf7522d31d1206af
  406534:	22 75 df 
  406537:	48 89 85 50 0c 00 00 	mov    QWORD PTR [rbp+0xc50],rax
  40653e:	48 89 95 58 0c 00 00 	mov    QWORD PTR [rbp+0xc58],rdx
  406545:	48 b8 20 8f d9 30 d8 	movabs rax,0xf5e4fdd830d98f20
  40654c:	fd e4 f5 
  40654f:	48 ba df 22 e4 f5 df 	movabs rdx,0xd8e5dff5e422df
  406556:	e5 d8 00 
  406559:	48 89 85 60 0c 00 00 	mov    QWORD PTR [rbp+0xc60],rax
  406560:	48 89 95 68 0c 00 00 	mov    QWORD PTR [rbp+0xc68],rdx
  406567:	48 c7 85 70 0c 00 00 	mov    QWORD PTR [rbp+0xc70],0x0
  40656e:	00 00 00 00 
  406572:	c7 85 78 0c 00 00 00 	mov    DWORD PTR [rbp+0xc78],0x0
  406579:	00 00 00 
  40657c:	66 c7 85 7c 0c 00 00 	mov    WORD PTR [rbp+0xc7c],0x0
  406583:	00 00 
  406585:	48 b8 00 58 9d e4 1c 	movabs rax,0x1ce49d5800
  40658c:	00 00 00 
  40658f:	ba 00 00 00 00       	mov    edx,0x0
  406594:	48 89 85 60 0a 00 00 	mov    QWORD PTR [rbp+0xa60],rax
  40659b:	48 89 95 68 0a 00 00 	mov    QWORD PTR [rbp+0xa68],rdx
  4065a2:	48 8d 95 70 0a 00 00 	lea    rdx,[rbp+0xa70]
  4065a9:	b8 00 00 00 00       	mov    eax,0x0
  4065ae:	b9 1f 00 00 00       	mov    ecx,0x1f
  4065b3:	48 89 d7             	mov    rdi,rdx
  4065b6:	f3 48 ab             	rep stos QWORD PTR es:[rdi],rax
  4065b9:	48 89 fa             	mov    rdx,rdi
  4065bc:	89 02                	mov    DWORD PTR [rdx],eax
  4065be:	48 83 c2 04          	add    rdx,0x4
  4065c2:	66 89 02             	mov    WORD PTR [rdx],ax
  4065c5:	48 83 c2 02          	add    rdx,0x2
  4065c9:	48 b8 30 e1 fb af d9 	movabs rax,0xa8c222d9affbe130
  4065d0:	22 c2 a8 
  4065d3:	48 ba 32 c2 a9 32 c2 	movabs rdx,0xc232aac232a9c232
  4065da:	aa 32 c2 
  4065dd:	48 89 85 50 09 00 00 	mov    QWORD PTR [rbp+0x950],rax
  4065e4:	48 89 95 58 09 00 00 	mov    QWORD PTR [rbp+0x958],rdx
  4065eb:	48 b8 ab 32 c2 ac 32 	movabs rax,0x32adc232acc232ab
  4065f2:	c2 ad 32 
  4065f5:	ba c2 ae 32 ff       	mov    edx,0xff32aec2
  4065fa:	48 89 85 60 09 00 00 	mov    QWORD PTR [rbp+0x960],rax
  406601:	48 89 95 68 09 00 00 	mov    QWORD PTR [rbp+0x968],rdx
  406608:	48 8d 95 70 09 00 00 	lea    rdx,[rbp+0x970]
  40660f:	b8 00 00 00 00       	mov    eax,0x0
  406614:	b9 1d 00 00 00       	mov    ecx,0x1d
  406619:	48 89 d7             	mov    rdi,rdx
  40661c:	f3 48 ab             	rep stos QWORD PTR es:[rdi],rax
  40661f:	48 89 fa             	mov    rdx,rdi
  406622:	89 02                	mov    DWORD PTR [rdx],eax
  406624:	48 83 c2 04          	add    rdx,0x4
  406628:	66 89 02             	mov    WORD PTR [rdx],ax
  40662b:	48 83 c2 02          	add    rdx,0x2
  40662f:	48 c7 85 40 08 00 00 	mov    QWORD PTR [rbp+0x840],0x6005000
  406636:	00 50 00 06 
  40663a:	48 c7 85 48 08 00 00 	mov    QWORD PTR [rbp+0x848],0x0
  406641:	00 00 00 00 
  406645:	48 8d 95 50 08 00 00 	lea    rdx,[rbp+0x850]
  40664c:	b8 00 00 00 00       	mov    eax,0x0
  406651:	b9 1f 00 00 00       	mov    ecx,0x1f
  406656:	48 89 d7             	mov    rdi,rdx
  406659:	f3 48 ab             	rep stos QWORD PTR es:[rdi],rax
  40665c:	48 89 fa             	mov    rdx,rdi
  40665f:	89 02                	mov    DWORD PTR [rdx],eax
  406661:	48 83 c2 04          	add    rdx,0x4
  406665:	66 89 02             	mov    WORD PTR [rdx],ax
  406668:	48 83 c2 02          	add    rdx,0x2
  40666c:	48 b8 00 58 80 80 80 	movabs rax,0x8080805800
  406673:	00 00 00 
  406676:	ba 00 00 00 00       	mov    edx,0x0
  40667b:	48 89 85 30 07 00 00 	mov    QWORD PTR [rbp+0x730],rax
  406682:	48 89 95 38 07 00 00 	mov    QWORD PTR [rbp+0x738],rdx
  406689:	48 8d 95 40 07 00 00 	lea    rdx,[rbp+0x740]
  406690:	b8 00 00 00 00       	mov    eax,0x0
  406695:	b9 1f 00 00 00       	mov    ecx,0x1f
  40669a:	48 89 d7             	mov    rdi,rdx
  40669d:	f3 48 ab             	rep stos QWORD PTR es:[rdi],rax
  4066a0:	48 89 fa             	mov    rdx,rdi
  4066a3:	89 02                	mov    DWORD PTR [rdx],eax
  4066a5:	48 83 c2 04          	add    rdx,0x4
  4066a9:	66 89 02             	mov    WORD PTR [rdx],ax
  4066ac:	48 83 c2 02          	add    rdx,0x2
  4066b0:	48 b8 54 1f ff ef 60 	movabs rax,0xe40e0160efff1f54
  4066b7:	01 0e e4 
  4066ba:	48 ba 93 fa a3 e4 93 	movabs rdx,0xa3e4f893e4a3fa93
  4066c1:	f8 e4 a3 
  4066c4:	48 89 85 20 06 00 00 	mov    QWORD PTR [rbp+0x620],rax
  4066cb:	48 89 95 28 06 00 00 	mov    QWORD PTR [rbp+0x628],rdx
  4066d2:	48 b8 e4 93 a3 fb c8 	movabs rax,0xc882c5c8fba393e4
  4066d9:	c5 82 c8 
  4066dc:	48 ba ca c5 83 ca eb 	movabs rdx,0xc8a3f0ebca83c5ca
  4066e3:	f0 a3 c8 
  4066e6:	48 89 85 30 06 00 00 	mov    QWORD PTR [rbp+0x630],rax
  4066ed:	48 89 95 38 06 00 00 	mov    QWORD PTR [rbp+0x638],rdx
  4066f4:	48 b8 c5 82 c8 ca c5 	movabs rax,0xdfca83c5cac882c5
  4066fb:	83 ca df 
  4066fe:	48 ba e7 de e5 80 b1 	movabs rdx,0x1f54eeb180e5dee7
  406705:	ee 54 1f 
  406708:	48 89 85 40 06 00 00 	mov    QWORD PTR [rbp+0x640],rax
  40670f:	48 89 95 48 06 00 00 	mov    QWORD PTR [rbp+0x648],rdx
  406716:	48 b8 fe 80 04 ef 54 	movabs rax,0xeff1f54ef0480fe
  40671d:	1f ff 0e 
  406720:	48 ba e4 93 f8 a3 e4 	movabs rdx,0xf6a393e4a3f893e4
  406727:	93 a3 f6 
  40672a:	48 89 85 50 06 00 00 	mov    QWORD PTR [rbp+0x650],rax
  406731:	48 89 95 58 06 00 00 	mov    QWORD PTR [rbp+0x658],rdx
  406738:	48 b8 08 df f9 de f7 	movabs rax,0x759780f7def9df08
  40673f:	80 97 75 
  406742:	48 ba 81 07 02 02 00 	movabs rdx,0xffffff0002020781
  406749:	ff ff ff 
  40674c:	48 89 85 60 06 00 00 	mov    QWORD PTR [rbp+0x660],rax
  406753:	48 89 95 68 06 00 00 	mov    QWORD PTR [rbp+0x668],rdx
  40675a:	48 c7 85 70 06 00 00 	mov    QWORD PTR [rbp+0x670],0xffffffffffffffff
  406761:	ff ff ff ff 
  406765:	48 c7 85 78 06 00 00 	mov    QWORD PTR [rbp+0x678],0xffffffffffffffff
  40676c:	ff ff ff ff 
  406770:	48 c7 85 80 06 00 00 	mov    QWORD PTR [rbp+0x680],0xffffffffffffffff
  406777:	ff ff ff ff 
  40677b:	48 c7 85 88 06 00 00 	mov    QWORD PTR [rbp+0x688],0xffffffffffffffff
  406782:	ff ff ff ff 
  406786:	48 c7 85 90 06 00 00 	mov    QWORD PTR [rbp+0x690],0xffffffffffffffff
  40678d:	ff ff ff ff 
  406791:	48 c7 85 98 06 00 00 	mov    QWORD PTR [rbp+0x698],0xffffffffffffffff
  406798:	ff ff ff ff 
  40679c:	48 c7 85 a0 06 00 00 	mov    QWORD PTR [rbp+0x6a0],0x0
  4067a3:	00 00 00 00 
  4067a7:	48 c7 85 a8 06 00 00 	mov    QWORD PTR [rbp+0x6a8],0x0
  4067ae:	00 00 00 00 
  4067b2:	48 8d 95 b0 06 00 00 	lea    rdx,[rbp+0x6b0]
  4067b9:	b8 00 00 00 00       	mov    eax,0x0
  4067be:	b9 0f 00 00 00       	mov    ecx,0xf
  4067c3:	48 89 d7             	mov    rdi,rdx
  4067c6:	f3 48 ab             	rep stos QWORD PTR es:[rdi],rax
  4067c9:	48 89 fa             	mov    rdx,rdi
  4067cc:	89 02                	mov    DWORD PTR [rdx],eax
  4067ce:	48 83 c2 04          	add    rdx,0x4
  4067d2:	66 89 02             	mov    WORD PTR [rdx],ax
  4067d5:	48 83 c2 02          	add    rdx,0x2
  4067d9:	48 b8 00 58 81 00 80 	movabs rax,0x8000815800
  4067e0:	00 00 00 
  4067e3:	ba 00 00 00 00       	mov    edx,0x0
  4067e8:	48 89 85 10 05 00 00 	mov    QWORD PTR [rbp+0x510],rax
  4067ef:	48 89 95 18 05 00 00 	mov    QWORD PTR [rbp+0x518],rdx
  4067f6:	48 8d 95 20 05 00 00 	lea    rdx,[rbp+0x520]
  4067fd:	b8 00 00 00 00       	mov    eax,0x0
  406802:	b9 1f 00 00 00       	mov    ecx,0x1f
  406807:	48 89 d7             	mov    rdi,rdx
  40680a:	f3 48 ab             	rep stos QWORD PTR es:[rdi],rax
  40680d:	48 89 fa             	mov    rdx,rdi
  406810:	89 02                	mov    DWORD PTR [rdx],eax
  406812:	48 83 c2 04          	add    rdx,0x4
  406816:	66 89 02             	mov    WORD PTR [rdx],ax
  406819:	48 83 c2 02          	add    rdx,0x2
  40681d:	48 c7 85 00 04 00 00 	mov    QWORD PTR [rbp+0x400],0xffffffffffffffff
  406824:	ff ff ff ff 
  406828:	48 c7 85 08 04 00 00 	mov    QWORD PTR [rbp+0x408],0xffffffffffffffff
  40682f:	ff ff ff ff 
  406833:	48 c7 85 10 04 00 00 	mov    QWORD PTR [rbp+0x410],0xffffffffffffffff
  40683a:	ff ff ff ff 
  40683e:	48 c7 85 18 04 00 00 	mov    QWORD PTR [rbp+0x418],0xffffffffffffffff
  406845:	ff ff ff ff 
  406849:	48 c7 85 20 04 00 00 	mov    QWORD PTR [rbp+0x420],0xffffffffffffffff
  406850:	ff ff ff ff 
  406854:	48 c7 85 28 04 00 00 	mov    QWORD PTR [rbp+0x428],0xffffffffffffffff
  40685b:	ff ff ff ff 
  40685f:	48 c7 85 30 04 00 00 	mov    QWORD PTR [rbp+0x430],0xffffffffffffffff
  406866:	ff ff ff ff 
  40686a:	48 c7 85 38 04 00 00 	mov    QWORD PTR [rbp+0x438],0xffffffffffffffff
  406871:	ff ff ff ff 
  406875:	48 c7 85 40 04 00 00 	mov    QWORD PTR [rbp+0x440],0xffffffffffffffff
  40687c:	ff ff ff ff 
  406880:	48 c7 85 48 04 00 00 	mov    QWORD PTR [rbp+0x448],0xffffffffffffffff
  406887:	ff ff ff ff 
  40688b:	48 c7 85 50 04 00 00 	mov    QWORD PTR [rbp+0x450],0xffffffffffffffff
  406892:	ff ff ff ff 
  406896:	48 c7 85 58 04 00 00 	mov    QWORD PTR [rbp+0x458],0xffffffffffffffff
  40689d:	ff ff ff ff 
  4068a1:	48 c7 85 60 04 00 00 	mov    QWORD PTR [rbp+0x460],0xffffffffffffffff
  4068a8:	ff ff ff ff 
  4068ac:	48 c7 85 68 04 00 00 	mov    QWORD PTR [rbp+0x468],0xffffffffffffffff
  4068b3:	ff ff ff ff 
  4068b7:	48 c7 85 70 04 00 00 	mov    QWORD PTR [rbp+0x470],0xffffffffffffffff
  4068be:	ff ff ff ff 
  4068c2:	48 c7 85 78 04 00 00 	mov    QWORD PTR [rbp+0x478],0xffffffffffffffff
  4068c9:	ff ff ff ff 
  4068cd:	48 c7 85 80 04 00 00 	mov    QWORD PTR [rbp+0x480],0x0
  4068d4:	00 00 00 00 
  4068d8:	48 c7 85 88 04 00 00 	mov    QWORD PTR [rbp+0x488],0x0
  4068df:	00 00 00 00 
  4068e3:	48 8d 95 90 04 00 00 	lea    rdx,[rbp+0x490]
  4068ea:	b8 00 00 00 00       	mov    eax,0x0
  4068ef:	b9 0f 00 00 00       	mov    ecx,0xf
  4068f4:	48 89 d7             	mov    rdi,rdx
  4068f7:	f3 48 ab             	rep stos QWORD PTR es:[rdi],rax
  4068fa:	48 89 fa             	mov    rdx,rdi
  4068fd:	89 02                	mov    DWORD PTR [rdx],eax
  4068ff:	48 83 c2 04          	add    rdx,0x4
  406903:	66 89 02             	mov    WORD PTR [rdx],ax
  406906:	48 83 c2 02          	add    rdx,0x2
  40690a:	48 b8 00 58 81 80 80 	movabs rax,0x8080815800
  406911:	00 00 00 
  406914:	ba 00 00 00 00       	mov    edx,0x0
  406919:	48 89 85 f0 02 00 00 	mov    QWORD PTR [rbp+0x2f0],rax
  406920:	48 89 95 f8 02 00 00 	mov    QWORD PTR [rbp+0x2f8],rdx
  406927:	48 8d 95 00 03 00 00 	lea    rdx,[rbp+0x300]
  40692e:	b8 00 00 00 00       	mov    eax,0x0
  406933:	b9 1f 00 00 00       	mov    ecx,0x1f
  406938:	48 89 d7             	mov    rdi,rdx
  40693b:	f3 48 ab             	rep stos QWORD PTR es:[rdi],rax
  40693e:	48 89 fa             	mov    rdx,rdi
  406941:	89 02                	mov    DWORD PTR [rdx],eax
  406943:	48 83 c2 04          	add    rdx,0x4
  406947:	66 89 02             	mov    WORD PTR [rdx],ax
  40694a:	48 83 c2 02          	add    rdx,0x2
  40694e:	48 c7 85 e0 01 00 00 	mov    QWORD PTR [rbp+0x1e0],0xffffffffffffffff
  406955:	ff ff ff ff 
  406959:	48 c7 85 e8 01 00 00 	mov    QWORD PTR [rbp+0x1e8],0xffffffffffffffff
  406960:	ff ff ff ff 
  406964:	48 c7 85 f0 01 00 00 	mov    QWORD PTR [rbp+0x1f0],0xffffffffffffffff
  40696b:	ff ff ff ff 
  40696f:	48 c7 85 f8 01 00 00 	mov    QWORD PTR [rbp+0x1f8],0xffffffffffffffff
  406976:	ff ff ff ff 
  40697a:	48 c7 85 00 02 00 00 	mov    QWORD PTR [rbp+0x200],0xffffffffffffffff
  406981:	ff ff ff ff 
  406985:	48 c7 85 08 02 00 00 	mov    QWORD PTR [rbp+0x208],0xffffffffffffffff
  40698c:	ff ff ff ff 
  406990:	48 c7 85 10 02 00 00 	mov    QWORD PTR [rbp+0x210],0xffffffffffffffff
  406997:	ff ff ff ff 
  40699b:	48 c7 85 18 02 00 00 	mov    QWORD PTR [rbp+0x218],0xffffffffffffffff
  4069a2:	ff ff ff ff 
  4069a6:	48 c7 85 20 02 00 00 	mov    QWORD PTR [rbp+0x220],0xffffffffffffffff
  4069ad:	ff ff ff ff 
  4069b1:	48 c7 85 28 02 00 00 	mov    QWORD PTR [rbp+0x228],0xffffffffffffffff
  4069b8:	ff ff ff ff 
  4069bc:	48 c7 85 30 02 00 00 	mov    QWORD PTR [rbp+0x230],0xffffffffffffffff
  4069c3:	ff ff ff ff 
  4069c7:	48 c7 85 38 02 00 00 	mov    QWORD PTR [rbp+0x238],0xffffffffffffffff
  4069ce:	ff ff ff ff 
  4069d2:	48 c7 85 40 02 00 00 	mov    QWORD PTR [rbp+0x240],0xffffffffffffffff
  4069d9:	ff ff ff ff 
  4069dd:	48 c7 85 48 02 00 00 	mov    QWORD PTR [rbp+0x248],0xffffffffffffffff
  4069e4:	ff ff ff ff 
  4069e8:	48 c7 85 50 02 00 00 	mov    QWORD PTR [rbp+0x250],0xffffffffffffffff
  4069ef:	ff ff ff ff 
  4069f3:	48 c7 85 58 02 00 00 	mov    QWORD PTR [rbp+0x258],0xffffffffffffffff
  4069fa:	ff ff ff ff 
  4069fe:	48 c7 85 60 02 00 00 	mov    QWORD PTR [rbp+0x260],0x0
  406a05:	00 00 00 00 
  406a09:	48 c7 85 68 02 00 00 	mov    QWORD PTR [rbp+0x268],0x0
  406a10:	00 00 00 00 
  406a14:	48 8d 95 70 02 00 00 	lea    rdx,[rbp+0x270]
  406a1b:	b8 00 00 00 00       	mov    eax,0x0
  406a20:	b9 0f 00 00 00       	mov    ecx,0xf
  406a25:	48 89 d7             	mov    rdi,rdx
  406a28:	f3 48 ab             	rep stos QWORD PTR es:[rdi],rax
  406a2b:	48 89 fa             	mov    rdx,rdi
  406a2e:	89 02                	mov    DWORD PTR [rdx],eax
  406a30:	48 83 c2 04          	add    rdx,0x4
  406a34:	66 89 02             	mov    WORD PTR [rdx],ax
  406a37:	48 83 c2 02          	add    rdx,0x2
  406a3b:	48 b8 00 58 80 00 80 	movabs rax,0x8000805800
  406a42:	00 00 00 
  406a45:	ba 00 00 00 00       	mov    edx,0x0
  406a4a:	48 89 85 d0 00 00 00 	mov    QWORD PTR [rbp+0xd0],rax
  406a51:	48 89 95 d8 00 00 00 	mov    QWORD PTR [rbp+0xd8],rdx
  406a58:	48 8d 95 e0 00 00 00 	lea    rdx,[rbp+0xe0]
  406a5f:	b8 00 00 00 00       	mov    eax,0x0
  406a64:	b9 1f 00 00 00       	mov    ecx,0x1f
  406a69:	48 89 d7             	mov    rdi,rdx
  406a6c:	f3 48 ab             	rep stos QWORD PTR es:[rdi],rax
  406a6f:	48 89 fa             	mov    rdx,rdi
  406a72:	89 02                	mov    DWORD PTR [rdx],eax
  406a74:	48 83 c2 04          	add    rdx,0x4
  406a78:	66 89 02             	mov    WORD PTR [rdx],ax
  406a7b:	48 83 c2 02          	add    rdx,0x2
  406a7f:	48 b8 02 00 3b 02 1d 	movabs rax,0x32ea1d023b0002
  406a86:	ea 32 00 
  406a89:	48 ba 00 00 00 02 1d 	movabs rdx,0x32ed1d02000000
  406a90:	ed 32 00 
  406a93:	48 89 45 c0          	mov    QWORD PTR [rbp-0x40],rax
  406a97:	48 89 55 c8          	mov    QWORD PTR [rbp-0x38],rdx
  406a9b:	48 b8 00 00 00 02 1d 	movabs rax,0x32f01d02000000
  406aa2:	f0 32 00 
  406aa5:	48 ba 00 00 00 02 1d 	movabs rdx,0x32f31d02000000
  406aac:	f3 32 00 
  406aaf:	48 89 45 d0          	mov    QWORD PTR [rbp-0x30],rax
  406ab3:	48 89 55 d8          	mov    QWORD PTR [rbp-0x28],rdx
  406ab7:	48 b8 00 00 00 02 1d 	movabs rax,0x32f61d02000000
  406abe:	f6 32 00 
  406ac1:	48 ba 00 00 00 02 1d 	movabs rdx,0x32f91d02000000
  406ac8:	f9 32 00 
  406acb:	48 89 45 e0          	mov    QWORD PTR [rbp-0x20],rax
  406acf:	48 89 55 e8          	mov    QWORD PTR [rbp-0x18],rdx
  406ad3:	48 b8 00 00 00 02 1d 	movabs rax,0x32fc1d02000000
  406ada:	fc 32 00 
  406add:	48 ba 00 00 00 75 8f 	movabs rdx,0xff78808f75000000
  406ae4:	80 78 ff 
  406ae7:	48 89 45 f0          	mov    QWORD PTR [rbp-0x10],rax
  406aeb:	48 89 55 f8          	mov    QWORD PTR [rbp-0x8],rdx
  406aef:	48 b8 e4 f6 d8 fd 90 	movabs rax,0x7f000090fdd8f6e4
  406af6:	00 00 7f 
  406af9:	48 ba a8 7e 06 ef 70 	movabs rdx,0x60ee0370ef067ea8
  406b00:	03 ee 60 
  406b03:	48 89 45 00          	mov    QWORD PTR [rbp+0x0],rax
  406b07:	48 89 55 08          	mov    QWORD PTR [rbp+0x8],rdx
  406b0b:	48 b8 08 0e e4 f0 a3 	movabs rax,0xdefcdfa3f0e40e08
  406b12:	df fc de 
  406b15:	48 ba fa 90 0d 9d 7e 	movabs rdx,0x93e4007e9d0d90fa
  406b1c:	00 e4 93 
  406b1f:	48 89 45 10          	mov    QWORD PTR [rbp+0x10],rax
  406b23:	48 89 55 18          	mov    QWORD PTR [rbp+0x18],rdx
  406b27:	48 b8 60 65 a3 ff 54 	movabs rax,0xe5303f54ffa36560
  406b2e:	3f 30 e5 
  406b31:	48 ba 11 ef fe e4 93 	movabs rdx,0xeeffa393e4feef11
  406b38:	a3 ff ee 
  406b3b:	48 89 45 20          	mov    QWORD PTR [rbp+0x20],rax
  406b3f:	48 89 55 28          	mov    QWORD PTR [rbp+0x28],rdx
  406b43:	48 b8 54 7f 30 e6 38 	movabs rax,0xfe1f5438e6307f54
  406b4a:	54 1f fe 
  406b4d:	48 ba 80 09 ef 54 7f 	movabs rdx,0x33e6307f54ef0980
  406b54:	30 e6 33 
  406b57:	48 89 45 30          	mov    QWORD PTR [rbp+0x30],rax
  406b5b:	48 89 55 38          	mov    QWORD PTR [rbp+0x38],rdx
  406b5f:	48 c7 45 40 00 00 00 	mov    QWORD PTR [rbp+0x40],0x0
  406b66:	00 
  406b67:	48 c7 45 48 00 00 00 	mov    QWORD PTR [rbp+0x48],0x0
  406b6e:	00 
  406b6f:	48 8d 55 50          	lea    rdx,[rbp+0x50]
  406b73:	b8 00 00 00 00       	mov    eax,0x0
  406b78:	b9 0f 00 00 00       	mov    ecx,0xf
  406b7d:	48 89 d7             	mov    rdi,rdx
  406b80:	f3 48 ab             	rep stos QWORD PTR es:[rdi],rax
  406b83:	48 89 fa             	mov    rdx,rdi
  406b86:	89 02                	mov    DWORD PTR [rdx],eax
  406b88:	48 83 c2 04          	add    rdx,0x4
  406b8c:	66 89 02             	mov    WORD PTR [rdx],ax
  406b8f:	48 83 c2 02          	add    rdx,0x2
  406b93:	48 8b 85 58 4c 00 00 	mov    rax,QWORD PTR [rbp+0x4c58]
  406b9a:	48 83 c0 08          	add    rax,0x8
  406b9e:	48 8b 00             	mov    rax,QWORD PTR [rax]
  406ba1:	48 89 c2             	mov    rdx,rax
  406ba4:	48 8d 0d 91 a6 00 00 	lea    rcx,[rip+0xa691]        # 41123c <.rdata+0x23c>
  406bab:	e8 27 aa ff ff       	call   4015d7 <concat>
  406bb0:	48 c7 44 24 30 00 00 	mov    QWORD PTR [rsp+0x30],0x0
  406bb7:	00 00 
  406bb9:	c7 44 24 28 00 00 00 	mov    DWORD PTR [rsp+0x28],0x0
  406bc0:	00 
  406bc1:	c7 44 24 20 03 00 00 	mov    DWORD PTR [rsp+0x20],0x3
  406bc8:	00 
  406bc9:	41 b9 00 00 00 00    	mov    r9d,0x0
  406bcf:	41 b8 00 00 00 00    	mov    r8d,0x0
  406bd5:	ba 00 00 00 c0       	mov    edx,0xc0000000
  406bda:	48 89 c1             	mov    rcx,rax
  406bdd:	48 8b 05 58 f6 00 00 	mov    rax,QWORD PTR [rip+0xf658]        # 41623c <__imp_CreateFileA>
  406be4:	ff d0                	call   rax
  406be6:	48 89 85 10 4c 00 00 	mov    QWORD PTR [rbp+0x4c10],rax
  406bed:	48 83 bd 10 4c 00 00 	cmp    QWORD PTR [rbp+0x4c10],0xffffffffffffffff
  406bf4:	ff 
  406bf5:	75 1c                	jne    406c13 <main+0x5586>
  406bf7:	48 8b 05 5e f6 00 00 	mov    rax,QWORD PTR [rip+0xf65e]        # 41625c <__imp_GetLastError>
  406bfe:	ff d0                	call   rax
  406c00:	89 c2                	mov    edx,eax
  406c02:	48 8d 0d 3b a6 00 00 	lea    rcx,[rip+0xa63b]        # 411244 <.rdata+0x244>
  406c09:	e8 75 a9 ff ff       	call   401583 <printf>
  406c0e:	e9 e3 1d 00 00       	jmp    4089f6 <main+0x7369>
  406c13:	48 8d 85 f0 4b 00 00 	lea    rax,[rbp+0x4bf0]
  406c1a:	ba 1c 00 00 00       	mov    edx,0x1c
  406c1f:	48 89 c1             	mov    rcx,rax
  406c22:	e8 29 84 00 00       	call   40f050 <RtlSecureZeroMemory>
  406c27:	c7 85 f0 4b 00 00 1c 	mov    DWORD PTR [rbp+0x4bf0],0x1c
  406c2e:	00 00 00 
  406c31:	48 8d 95 f0 4b 00 00 	lea    rdx,[rbp+0x4bf0]
  406c38:	48 8b 85 10 4c 00 00 	mov    rax,QWORD PTR [rbp+0x4c10]
  406c3f:	48 89 c1             	mov    rcx,rax
  406c42:	48 8b 05 0b f6 00 00 	mov    rax,QWORD PTR [rip+0xf60b]        # 416254 <__imp_GetCommState>
  406c49:	ff d0                	call   rax
  406c4b:	89 85 0c 4c 00 00    	mov    DWORD PTR [rbp+0x4c0c],eax
  406c51:	83 bd 0c 4c 00 00 00 	cmp    DWORD PTR [rbp+0x4c0c],0x0
  406c58:	75 1c                	jne    406c76 <main+0x55e9>
  406c5a:	48 8b 05 fb f5 00 00 	mov    rax,QWORD PTR [rip+0xf5fb]        # 41625c <__imp_GetLastError>
  406c61:	ff d0                	call   rax
  406c63:	89 c2                	mov    edx,eax
  406c65:	48 8d 0d d8 a5 00 00 	lea    rcx,[rip+0xa5d8]        # 411244 <.rdata+0x244>
  406c6c:	e8 12 a9 ff ff       	call   401583 <printf>
  406c71:	e9 80 1d 00 00       	jmp    4089f6 <main+0x7369>
  406c76:	c7 85 f4 4b 00 00 80 	mov    DWORD PTR [rbp+0x4bf4],0x2580
  406c7d:	25 00 00 
  406c80:	c6 85 02 4c 00 00 08 	mov    BYTE PTR [rbp+0x4c02],0x8
  406c87:	c6 85 03 4c 00 00 02 	mov    BYTE PTR [rbp+0x4c03],0x2
  406c8e:	c6 85 04 4c 00 00 02 	mov    BYTE PTR [rbp+0x4c04],0x2
  406c95:	0f b6 85 f9 4b 00 00 	movzx  eax,BYTE PTR [rbp+0x4bf9]
  406c9c:	83 e0 cf             	and    eax,0xffffffcf
  406c9f:	83 c8 10             	or     eax,0x10
  406ca2:	88 85 f9 4b 00 00    	mov    BYTE PTR [rbp+0x4bf9],al
  406ca8:	0f b6 85 f9 4b 00 00 	movzx  eax,BYTE PTR [rbp+0x4bf9]
  406caf:	83 c8 40             	or     eax,0x40
  406cb2:	88 85 f9 4b 00 00    	mov    BYTE PTR [rbp+0x4bf9],al
  406cb8:	48 8d 95 f0 4b 00 00 	lea    rdx,[rbp+0x4bf0]
  406cbf:	48 8b 85 10 4c 00 00 	mov    rax,QWORD PTR [rbp+0x4c10]
  406cc6:	48 89 c1             	mov    rcx,rax
  406cc9:	48 8b 05 cc f5 00 00 	mov    rax,QWORD PTR [rip+0xf5cc]        # 41629c <__imp_SetCommState>
  406cd0:	ff d0                	call   rax
  406cd2:	89 85 0c 4c 00 00    	mov    DWORD PTR [rbp+0x4c0c],eax
  406cd8:	83 bd 0c 4c 00 00 00 	cmp    DWORD PTR [rbp+0x4c0c],0x0
  406cdf:	75 1c                	jne    406cfd <main+0x5670>
  406ce1:	48 8b 05 74 f5 00 00 	mov    rax,QWORD PTR [rip+0xf574]        # 41625c <__imp_GetLastError>
  406ce8:	ff d0                	call   rax
  406cea:	89 c2                	mov    edx,eax
  406cec:	48 8d 0d 51 a5 00 00 	lea    rcx,[rip+0xa551]        # 411244 <.rdata+0x244>
  406cf3:	e8 8b a8 ff ff       	call   401583 <printf>
  406cf8:	e9 f9 1c 00 00       	jmp    4089f6 <main+0x7369>
  406cfd:	48 8d 95 f0 4b 00 00 	lea    rdx,[rbp+0x4bf0]
  406d04:	48 8b 85 10 4c 00 00 	mov    rax,QWORD PTR [rbp+0x4c10]
  406d0b:	48 89 c1             	mov    rcx,rax
  406d0e:	48 8b 05 3f f5 00 00 	mov    rax,QWORD PTR [rip+0xf53f]        # 416254 <__imp_GetCommState>
  406d15:	ff d0                	call   rax
  406d17:	89 85 0c 4c 00 00    	mov    DWORD PTR [rbp+0x4c0c],eax
  406d1d:	83 bd 0c 4c 00 00 00 	cmp    DWORD PTR [rbp+0x4c0c],0x0
  406d24:	75 1c                	jne    406d42 <main+0x56b5>
  406d26:	48 8b 05 2f f5 00 00 	mov    rax,QWORD PTR [rip+0xf52f]        # 41625c <__imp_GetLastError>
  406d2d:	ff d0                	call   rax
  406d2f:	89 c2                	mov    edx,eax
  406d31:	48 8d 0d 0c a5 00 00 	lea    rcx,[rip+0xa50c]        # 411244 <.rdata+0x244>
  406d38:	e8 46 a8 ff ff       	call   401583 <printf>
  406d3d:	e9 b4 1c 00 00       	jmp    4089f6 <main+0x7369>
  406d42:	b9 64 00 00 00       	mov    ecx,0x64
  406d47:	48 8b 05 66 f5 00 00 	mov    rax,QWORD PTR [rip+0xf566]        # 4162b4 <__imp_Sleep>
  406d4e:	ff d0                	call   rax
  406d50:	0f b6 85 f9 4b 00 00 	movzx  eax,BYTE PTR [rbp+0x4bf9]
  406d57:	83 e0 cf             	and    eax,0xffffffcf
  406d5a:	88 85 f9 4b 00 00    	mov    BYTE PTR [rbp+0x4bf9],al
  406d60:	48 8d 95 f0 4b 00 00 	lea    rdx,[rbp+0x4bf0]
  406d67:	48 8b 85 10 4c 00 00 	mov    rax,QWORD PTR [rbp+0x4c10]
  406d6e:	48 89 c1             	mov    rcx,rax
  406d71:	48 8b 05 24 f5 00 00 	mov    rax,QWORD PTR [rip+0xf524]        # 41629c <__imp_SetCommState>
  406d78:	ff d0                	call   rax
  406d7a:	89 85 0c 4c 00 00    	mov    DWORD PTR [rbp+0x4c0c],eax
  406d80:	48 8d 0d d5 a4 00 00 	lea    rcx,[rip+0xa4d5]        # 41125c <.rdata+0x25c>
  406d87:	e8 f7 a7 ff ff       	call   401583 <printf>
  406d8c:	48 8d 8d 7c 4b 00 00 	lea    rcx,[rbp+0x4b7c]
  406d93:	48 8d 95 7b 4b 00 00 	lea    rdx,[rbp+0x4b7b]
  406d9a:	48 8b 85 10 4c 00 00 	mov    rax,QWORD PTR [rbp+0x4c10]
  406da1:	48 c7 44 24 20 00 00 	mov    QWORD PTR [rsp+0x20],0x0
  406da8:	00 00 
  406daa:	49 89 c9             	mov    r9,rcx
  406dad:	41 b8 01 00 00 00    	mov    r8d,0x1
  406db3:	48 89 c1             	mov    rcx,rax
  406db6:	48 8b 05 d7 f4 00 00 	mov    rax,QWORD PTR [rip+0xf4d7]        # 416294 <__imp_ReadFile>
  406dbd:	ff d0                	call   rax
  406dbf:	85 c0                	test   eax,eax
  406dc1:	0f 84 c4 05 00 00    	je     40738b <main+0x5cfe>
  406dc7:	48 8d 8d 7c 4b 00 00 	lea    rcx,[rbp+0x4b7c]
  406dce:	48 8d 95 7b 4b 00 00 	lea    rdx,[rbp+0x4b7b]
  406dd5:	48 8b 85 10 4c 00 00 	mov    rax,QWORD PTR [rbp+0x4c10]
  406ddc:	48 c7 44 24 20 00 00 	mov    QWORD PTR [rsp+0x20],0x0
  406de3:	00 00 
  406de5:	49 89 c9             	mov    r9,rcx
  406de8:	41 b8 01 00 00 00    	mov    r8d,0x1
  406dee:	48 89 c1             	mov    rcx,rax
  406df1:	48 8b 05 9c f4 00 00 	mov    rax,QWORD PTR [rip+0xf49c]        # 416294 <__imp_ReadFile>
  406df8:	ff d0                	call   rax
  406dfa:	0f b6 85 7b 4b 00 00 	movzx  eax,BYTE PTR [rbp+0x4b7b]
  406e01:	3c 24                	cmp    al,0x24
  406e03:	0f 85 58 05 00 00    	jne    407361 <main+0x5cd4>
  406e09:	48 8d 0d 60 a4 00 00 	lea    rcx,[rip+0xa460]        # 411270 <.rdata+0x270>
  406e10:	e8 6e a7 ff ff       	call   401583 <printf>
  406e15:	48 8d 8d 7c 4b 00 00 	lea    rcx,[rbp+0x4b7c]
  406e1c:	48 8d 95 7b 4b 00 00 	lea    rdx,[rbp+0x4b7b]
  406e23:	48 8b 85 10 4c 00 00 	mov    rax,QWORD PTR [rbp+0x4c10]
  406e2a:	48 c7 44 24 20 00 00 	mov    QWORD PTR [rsp+0x20],0x0
  406e31:	00 00 
  406e33:	49 89 c9             	mov    r9,rcx
  406e36:	41 b8 01 00 00 00    	mov    r8d,0x1
  406e3c:	48 89 c1             	mov    rcx,rax
  406e3f:	48 8b 05 4e f4 00 00 	mov    rax,QWORD PTR [rip+0xf44e]        # 416294 <__imp_ReadFile>
  406e46:	ff d0                	call   rax
  406e48:	48 8d 8d 7c 4b 00 00 	lea    rcx,[rbp+0x4b7c]
  406e4f:	48 8d 95 7b 4b 00 00 	lea    rdx,[rbp+0x4b7b]
  406e56:	48 8b 85 10 4c 00 00 	mov    rax,QWORD PTR [rbp+0x4c10]
  406e5d:	48 c7 44 24 20 00 00 	mov    QWORD PTR [rsp+0x20],0x0
  406e64:	00 00 
  406e66:	49 89 c9             	mov    r9,rcx
  406e69:	41 b8 01 00 00 00    	mov    r8d,0x1
  406e6f:	48 89 c1             	mov    rcx,rax
  406e72:	48 8b 05 1b f4 00 00 	mov    rax,QWORD PTR [rip+0xf41b]        # 416294 <__imp_ReadFile>
  406e79:	ff d0                	call   rax
  406e7b:	48 8d 8d 7c 4b 00 00 	lea    rcx,[rbp+0x4b7c]
  406e82:	48 8d 95 7b 4b 00 00 	lea    rdx,[rbp+0x4b7b]
  406e89:	48 8b 85 10 4c 00 00 	mov    rax,QWORD PTR [rbp+0x4c10]
  406e90:	48 c7 44 24 20 00 00 	mov    QWORD PTR [rsp+0x20],0x0
  406e97:	00 00 
  406e99:	49 89 c9             	mov    r9,rcx
  406e9c:	41 b8 01 00 00 00    	mov    r8d,0x1
  406ea2:	48 89 c1             	mov    rcx,rax
  406ea5:	48 8b 05 e8 f3 00 00 	mov    rax,QWORD PTR [rip+0xf3e8]        # 416294 <__imp_ReadFile>
  406eac:	ff d0                	call   rax
  406eae:	48 8d 8d 7c 4b 00 00 	lea    rcx,[rbp+0x4b7c]
  406eb5:	48 8d 95 7b 4b 00 00 	lea    rdx,[rbp+0x4b7b]
  406ebc:	48 8b 85 10 4c 00 00 	mov    rax,QWORD PTR [rbp+0x4c10]
  406ec3:	48 c7 44 24 20 00 00 	mov    QWORD PTR [rsp+0x20],0x0
  406eca:	00 00 
  406ecc:	49 89 c9             	mov    r9,rcx
  406ecf:	41 b8 01 00 00 00    	mov    r8d,0x1
  406ed5:	48 89 c1             	mov    rcx,rax
  406ed8:	48 8b 05 b5 f3 00 00 	mov    rax,QWORD PTR [rip+0xf3b5]        # 416294 <__imp_ReadFile>
  406edf:	ff d0                	call   rax
  406ee1:	48 8d 8d 7c 4b 00 00 	lea    rcx,[rbp+0x4b7c]
  406ee8:	48 8d 95 7b 4b 00 00 	lea    rdx,[rbp+0x4b7b]
  406eef:	48 8b 85 10 4c 00 00 	mov    rax,QWORD PTR [rbp+0x4c10]
  406ef6:	48 c7 44 24 20 00 00 	mov    QWORD PTR [rsp+0x20],0x0
  406efd:	00 00 
  406eff:	49 89 c9             	mov    r9,rcx
  406f02:	41 b8 01 00 00 00    	mov    r8d,0x1
  406f08:	48 89 c1             	mov    rcx,rax
  406f0b:	48 8b 05 82 f3 00 00 	mov    rax,QWORD PTR [rip+0xf382]        # 416294 <__imp_ReadFile>
  406f12:	ff d0                	call   rax
  406f14:	b9 0a 00 00 00       	mov    ecx,0xa
  406f19:	48 8b 05 94 f3 00 00 	mov    rax,QWORD PTR [rip+0xf394]        # 4162b4 <__imp_Sleep>
  406f20:	ff d0                	call   rax
  406f22:	48 8d 95 46 4b 00 00 	lea    rdx,[rbp+0x4b46]
  406f29:	48 8b 85 10 4c 00 00 	mov    rax,QWORD PTR [rbp+0x4c10]
  406f30:	48 c7 44 24 20 00 00 	mov    QWORD PTR [rsp+0x20],0x0
  406f37:	00 00 
  406f39:	41 b9 00 00 00 00    	mov    r9d,0x0
  406f3f:	41 b8 04 00 00 00    	mov    r8d,0x4
  406f45:	48 89 c1             	mov    rcx,rax
  406f48:	48 8b 05 8d f3 00 00 	mov    rax,QWORD PTR [rip+0xf38d]        # 4162dc <__imp_WriteFile>
  406f4f:	ff d0                	call   rax
  406f51:	48 8d 8d 7c 4b 00 00 	lea    rcx,[rbp+0x4b7c]
  406f58:	48 8d 95 7b 4b 00 00 	lea    rdx,[rbp+0x4b7b]
  406f5f:	48 8b 85 10 4c 00 00 	mov    rax,QWORD PTR [rbp+0x4c10]
  406f66:	48 c7 44 24 20 00 00 	mov    QWORD PTR [rsp+0x20],0x0
  406f6d:	00 00 
  406f6f:	49 89 c9             	mov    r9,rcx
  406f72:	41 b8 01 00 00 00    	mov    r8d,0x1
  406f78:	48 89 c1             	mov    rcx,rax
  406f7b:	48 8b 05 12 f3 00 00 	mov    rax,QWORD PTR [rip+0xf312]        # 416294 <__imp_ReadFile>
  406f82:	ff d0                	call   rax
  406f84:	48 8d 8d 7c 4b 00 00 	lea    rcx,[rbp+0x4b7c]
  406f8b:	48 8d 95 7b 4b 00 00 	lea    rdx,[rbp+0x4b7b]
  406f92:	48 8b 85 10 4c 00 00 	mov    rax,QWORD PTR [rbp+0x4c10]
  406f99:	48 c7 44 24 20 00 00 	mov    QWORD PTR [rsp+0x20],0x0
  406fa0:	00 00 
  406fa2:	49 89 c9             	mov    r9,rcx
  406fa5:	41 b8 01 00 00 00    	mov    r8d,0x1
  406fab:	48 89 c1             	mov    rcx,rax
  406fae:	48 8b 05 df f2 00 00 	mov    rax,QWORD PTR [rip+0xf2df]        # 416294 <__imp_ReadFile>
  406fb5:	ff d0                	call   rax
  406fb7:	48 8d 8d 7c 4b 00 00 	lea    rcx,[rbp+0x4b7c]
  406fbe:	48 8d 95 7b 4b 00 00 	lea    rdx,[rbp+0x4b7b]
  406fc5:	48 8b 85 10 4c 00 00 	mov    rax,QWORD PTR [rbp+0x4c10]
  406fcc:	48 c7 44 24 20 00 00 	mov    QWORD PTR [rsp+0x20],0x0
  406fd3:	00 00 
  406fd5:	49 89 c9             	mov    r9,rcx
  406fd8:	41 b8 01 00 00 00    	mov    r8d,0x1
  406fde:	48 89 c1             	mov    rcx,rax
  406fe1:	48 8b 05 ac f2 00 00 	mov    rax,QWORD PTR [rip+0xf2ac]        # 416294 <__imp_ReadFile>
  406fe8:	ff d0                	call   rax
  406fea:	48 8d 8d 7c 4b 00 00 	lea    rcx,[rbp+0x4b7c]
  406ff1:	48 8d 95 7b 4b 00 00 	lea    rdx,[rbp+0x4b7b]
  406ff8:	48 8b 85 10 4c 00 00 	mov    rax,QWORD PTR [rbp+0x4c10]
  406fff:	48 c7 44 24 20 00 00 	mov    QWORD PTR [rsp+0x20],0x0
  407006:	00 00 
  407008:	49 89 c9             	mov    r9,rcx
  40700b:	41 b8 01 00 00 00    	mov    r8d,0x1
  407011:	48 89 c1             	mov    rcx,rax
  407014:	48 8b 05 79 f2 00 00 	mov    rax,QWORD PTR [rip+0xf279]        # 416294 <__imp_ReadFile>
  40701b:	ff d0                	call   rax
  40701d:	48 8d 0d 6d a2 00 00 	lea    rcx,[rip+0xa26d]        # 411291 <.rdata+0x291>
  407024:	e8 5a a5 ff ff       	call   401583 <printf>
  407029:	c7 85 2c 4c 00 00 00 	mov    DWORD PTR [rbp+0x4c2c],0x0
  407030:	00 00 00 
  407033:	e9 e4 00 00 00       	jmp    40711c <main+0x5a8f>
  407038:	48 8d 8d 7c 4b 00 00 	lea    rcx,[rbp+0x4b7c]
  40703f:	48 8d 95 7b 4b 00 00 	lea    rdx,[rbp+0x4b7b]
  407046:	48 8b 85 10 4c 00 00 	mov    rax,QWORD PTR [rbp+0x4c10]
  40704d:	48 c7 44 24 20 00 00 	mov    QWORD PTR [rsp+0x20],0x0
  407054:	00 00 
  407056:	49 89 c9             	mov    r9,rcx
  407059:	41 b8 01 00 00 00    	mov    r8d,0x1
  40705f:	48 89 c1             	mov    rcx,rax
  407062:	48 8b 05 2b f2 00 00 	mov    rax,QWORD PTR [rip+0xf22b]        # 416294 <__imp_ReadFile>
  407069:	ff d0                	call   rax
  40706b:	8b 85 7c 4b 00 00    	mov    eax,DWORD PTR [rbp+0x4b7c]
  407071:	85 c0                	test   eax,eax
  407073:	0f 84 9c 00 00 00    	je     407115 <main+0x5a88>
  407079:	83 bd 2c 4c 00 00 00 	cmp    DWORD PTR [rbp+0x4c2c],0x0
  407080:	75 13                	jne    407095 <main+0x5a08>
  407082:	0f b6 85 7b 4b 00 00 	movzx  eax,BYTE PTR [rbp+0x4b7b]
  407089:	0f b6 c0             	movzx  eax,al
  40708c:	c1 e0 18             	shl    eax,0x18
  40708f:	89 85 28 4c 00 00    	mov    DWORD PTR [rbp+0x4c28],eax
  407095:	83 bd 2c 4c 00 00 01 	cmp    DWORD PTR [rbp+0x4c2c],0x1
  40709c:	75 13                	jne    4070b1 <main+0x5a24>
  40709e:	0f b6 85 7b 4b 00 00 	movzx  eax,BYTE PTR [rbp+0x4b7b]
  4070a5:	0f b6 c0             	movzx  eax,al
  4070a8:	c1 e0 10             	shl    eax,0x10
  4070ab:	01 85 28 4c 00 00    	add    DWORD PTR [rbp+0x4c28],eax
  4070b1:	83 bd 2c 4c 00 00 02 	cmp    DWORD PTR [rbp+0x4c2c],0x2
  4070b8:	75 13                	jne    4070cd <main+0x5a40>
  4070ba:	0f b6 85 7b 4b 00 00 	movzx  eax,BYTE PTR [rbp+0x4b7b]
  4070c1:	0f b6 c0             	movzx  eax,al
  4070c4:	c1 e0 08             	shl    eax,0x8
  4070c7:	01 85 28 4c 00 00    	add    DWORD PTR [rbp+0x4c28],eax
  4070cd:	83 bd 2c 4c 00 00 03 	cmp    DWORD PTR [rbp+0x4c2c],0x3
  4070d4:	75 10                	jne    4070e6 <main+0x5a59>
  4070d6:	0f b6 85 7b 4b 00 00 	movzx  eax,BYTE PTR [rbp+0x4b7b]
  4070dd:	0f b6 c0             	movzx  eax,al
  4070e0:	01 85 28 4c 00 00    	add    DWORD PTR [rbp+0x4c28],eax
  4070e6:	0f b6 85 7b 4b 00 00 	movzx  eax,BYTE PTR [rbp+0x4b7b]
  4070ed:	3c 0f                	cmp    al,0xf
  4070ef:	77 0c                	ja     4070fd <main+0x5a70>
  4070f1:	48 8d 0d 9f a1 00 00 	lea    rcx,[rip+0xa19f]        # 411297 <.rdata+0x297>
  4070f8:	e8 86 a4 ff ff       	call   401583 <printf>
  4070fd:	0f b6 85 7b 4b 00 00 	movzx  eax,BYTE PTR [rbp+0x4b7b]
  407104:	0f b6 c0             	movzx  eax,al
  407107:	89 c2                	mov    edx,eax
  407109:	48 8d 0d 89 a1 00 00 	lea    rcx,[rip+0xa189]        # 411299 <.rdata+0x299>
  407110:	e8 6e a4 ff ff       	call   401583 <printf>
  407115:	83 85 2c 4c 00 00 01 	add    DWORD PTR [rbp+0x4c2c],0x1
  40711c:	83 bd 2c 4c 00 00 03 	cmp    DWORD PTR [rbp+0x4c2c],0x3
  407123:	0f 8e 0f ff ff ff    	jle    407038 <main+0x59ab>
  407129:	8b 85 28 4c 00 00    	mov    eax,DWORD PTR [rbp+0x4c28]
  40712f:	89 c2                	mov    edx,eax
  407131:	48 8d 0d 65 a1 00 00 	lea    rcx,[rip+0xa165]        # 41129d <.rdata+0x29d>
  407138:	e8 46 a4 ff ff       	call   401583 <printf>
  40713d:	48 8d 0d 60 a1 00 00 	lea    rcx,[rip+0xa160]        # 4112a4 <.rdata+0x2a4>
  407144:	e8 3a a4 ff ff       	call   401583 <printf>
  407149:	c7 85 2c 4c 00 00 00 	mov    DWORD PTR [rbp+0x4c2c],0x0
  407150:	00 00 00 
  407153:	e9 a4 00 00 00       	jmp    4071fc <main+0x5b6f>
  407158:	48 8d 8d 7c 4b 00 00 	lea    rcx,[rbp+0x4b7c]
  40715f:	48 8d 95 7b 4b 00 00 	lea    rdx,[rbp+0x4b7b]
  407166:	48 8b 85 10 4c 00 00 	mov    rax,QWORD PTR [rbp+0x4c10]
  40716d:	48 c7 44 24 20 00 00 	mov    QWORD PTR [rsp+0x20],0x0
  407174:	00 00 
  407176:	49 89 c9             	mov    r9,rcx
  407179:	41 b8 01 00 00 00    	mov    r8d,0x1
  40717f:	48 89 c1             	mov    rcx,rax
  407182:	48 8b 05 0b f1 00 00 	mov    rax,QWORD PTR [rip+0xf10b]        # 416294 <__imp_ReadFile>
  407189:	ff d0                	call   rax
  40718b:	8b 85 7c 4b 00 00    	mov    eax,DWORD PTR [rbp+0x4b7c]
  407191:	85 c0                	test   eax,eax
  407193:	74 60                	je     4071f5 <main+0x5b68>
  407195:	0f b6 95 7b 4b 00 00 	movzx  edx,BYTE PTR [rbp+0x4b7b]
  40719c:	8b 85 2c 4c 00 00    	mov    eax,DWORD PTR [rbp+0x4c2c]
  4071a2:	48 98                	cdqe
  4071a4:	88 94 05 3c 4b 00 00 	mov    BYTE PTR [rbp+rax*1+0x4b3c],dl
  4071ab:	83 bd 2c 4c 00 00 00 	cmp    DWORD PTR [rbp+0x4c2c],0x0
  4071b2:	7e 41                	jle    4071f5 <main+0x5b68>
  4071b4:	8b 85 2c 4c 00 00    	mov    eax,DWORD PTR [rbp+0x4c2c]
  4071ba:	48 98                	cdqe
  4071bc:	0f b6 84 05 3c 4b 00 	movzx  eax,BYTE PTR [rbp+rax*1+0x4b3c]
  4071c3:	00 
  4071c4:	3c 0f                	cmp    al,0xf
  4071c6:	77 0c                	ja     4071d4 <main+0x5b47>
  4071c8:	48 8d 0d c8 a0 00 00 	lea    rcx,[rip+0xa0c8]        # 411297 <.rdata+0x297>
  4071cf:	e8 af a3 ff ff       	call   401583 <printf>
  4071d4:	8b 85 2c 4c 00 00    	mov    eax,DWORD PTR [rbp+0x4c2c]
  4071da:	48 98                	cdqe
  4071dc:	0f b6 84 05 3c 4b 00 	movzx  eax,BYTE PTR [rbp+rax*1+0x4b3c]
  4071e3:	00 
  4071e4:	0f b6 c0             	movzx  eax,al
  4071e7:	89 c2                	mov    edx,eax
  4071e9:	48 8d 0d a9 a0 00 00 	lea    rcx,[rip+0xa0a9]        # 411299 <.rdata+0x299>
  4071f0:	e8 8e a3 ff ff       	call   401583 <printf>
  4071f5:	83 85 2c 4c 00 00 01 	add    DWORD PTR [rbp+0x4c2c],0x1
  4071fc:	83 bd 2c 4c 00 00 03 	cmp    DWORD PTR [rbp+0x4c2c],0x3
  407203:	0f 8e 4f ff ff ff    	jle    407158 <main+0x5acb>
  407209:	48 8d 0d 9d a0 00 00 	lea    rcx,[rip+0xa09d]        # 4112ad <.rdata+0x2ad>
  407210:	e8 6e a3 ff ff       	call   401583 <printf>
  407215:	0f b6 85 3c 4b 00 00 	movzx  eax,BYTE PTR [rbp+0x4b3c]
  40721c:	3c 0f                	cmp    al,0xf
  40721e:	77 0c                	ja     40722c <main+0x5b9f>
  407220:	48 8d 0d 70 a0 00 00 	lea    rcx,[rip+0xa070]        # 411297 <.rdata+0x297>
  407227:	e8 57 a3 ff ff       	call   401583 <printf>
  40722c:	0f b6 85 3c 4b 00 00 	movzx  eax,BYTE PTR [rbp+0x4b3c]
  407233:	0f b6 c0             	movzx  eax,al
  407236:	89 c2                	mov    edx,eax
  407238:	48 8d 0d 79 a0 00 00 	lea    rcx,[rip+0xa079]        # 4112b8 <.rdata+0x2b8>
  40723f:	e8 3f a3 ff ff       	call   401583 <printf>
  407244:	48 8d 8d 7c 4b 00 00 	lea    rcx,[rbp+0x4b7c]
  40724b:	48 8d 95 7b 4b 00 00 	lea    rdx,[rbp+0x4b7b]
  407252:	48 8b 85 10 4c 00 00 	mov    rax,QWORD PTR [rbp+0x4c10]
  407259:	48 c7 44 24 20 00 00 	mov    QWORD PTR [rsp+0x20],0x0
  407260:	00 00 
  407262:	49 89 c9             	mov    r9,rcx
  407265:	41 b8 01 00 00 00    	mov    r8d,0x1
  40726b:	48 89 c1             	mov    rcx,rax
  40726e:	48 8b 05 1f f0 00 00 	mov    rax,QWORD PTR [rip+0xf01f]        # 416294 <__imp_ReadFile>
  407275:	ff d0                	call   rax
  407277:	48 8d 0d 3d a0 00 00 	lea    rcx,[rip+0xa03d]        # 4112bb <.rdata+0x2bb>
  40727e:	e8 00 a3 ff ff       	call   401583 <printf>
  407283:	0f b6 85 7b 4b 00 00 	movzx  eax,BYTE PTR [rbp+0x4b7b]
  40728a:	84 c0                	test   al,al
  40728c:	75 26                	jne    4072b4 <main+0x5c27>
  40728e:	48 8b 85 20 4c 00 00 	mov    rax,QWORD PTR [rbp+0x4c20]
  407295:	ba 0c 00 00 00       	mov    edx,0xc
  40729a:	48 89 c1             	mov    rcx,rax
  40729d:	48 8b 05 00 f0 00 00 	mov    rax,QWORD PTR [rip+0xf000]        # 4162a4 <__imp_SetConsoleTextAttribute>
  4072a4:	ff d0                	call   rax
  4072a6:	48 8d 0d 1c a0 00 00 	lea    rcx,[rip+0xa01c]        # 4112c9 <.rdata+0x2c9>
  4072ad:	e8 d1 a2 ff ff       	call   401583 <printf>
  4072b2:	eb 24                	jmp    4072d8 <main+0x5c4b>
  4072b4:	48 8b 85 20 4c 00 00 	mov    rax,QWORD PTR [rbp+0x4c20]
  4072bb:	ba 0a 00 00 00       	mov    edx,0xa
  4072c0:	48 89 c1             	mov    rcx,rax
  4072c3:	48 8b 05 da ef 00 00 	mov    rax,QWORD PTR [rip+0xefda]        # 4162a4 <__imp_SetConsoleTextAttribute>
  4072ca:	ff d0                	call   rax
  4072cc:	48 8d 0d ff 9f 00 00 	lea    rcx,[rip+0x9fff]        # 4112d2 <.rdata+0x2d2>
  4072d3:	e8 ab a2 ff ff       	call   401583 <printf>
  4072d8:	48 8b 85 20 4c 00 00 	mov    rax,QWORD PTR [rbp+0x4c20]
  4072df:	ba 1c 00 00 00       	mov    edx,0x1c
  4072e4:	48 89 c1             	mov    rcx,rax
