
uploader_win64.exe:     file format pei-x86-64


Disassembly of section .text:

0000000000401000 <__mingw_invalidParameterHandler>:
  401000:	c3                   	ret
  401001:	66 66 2e 0f 1f 84 00 	data16 cs nop WORD PTR [rax+rax*1+0x0]
  401008:	00 00 00 00 
  40100c:	0f 1f 40 00          	nop    DWORD PTR [rax+0x0]

0000000000401010 <pre_c_init>:
  401010:	48 83 ec 28          	sub    rsp,0x28
  401014:	48 8b 05 15 0c 01 00 	mov    rax,QWORD PTR [rip+0x10c15]        # 411c30 <.refptr.mingw_initltsdrot_force>
  40101b:	31 c9                	xor    ecx,ecx
  40101d:	c7 00 01 00 00 00    	mov    DWORD PTR [rax],0x1
  401023:	48 8b 05 16 0c 01 00 	mov    rax,QWORD PTR [rip+0x10c16]        # 411c40 <.refptr.mingw_initltsdyn_force>
  40102a:	c7 00 01 00 00 00    	mov    DWORD PTR [rax],0x1
  401030:	48 8b 05 19 0c 01 00 	mov    rax,QWORD PTR [rip+0x10c19]        # 411c50 <.refptr.mingw_initltssuo_force>
  401037:	c7 00 01 00 00 00    	mov    DWORD PTR [rax],0x1
  40103d:	48 8b 05 dc 0b 01 00 	mov    rax,QWORD PTR [rip+0x10bdc]        # 411c20 <.refptr.mingw_initcharmax>
  401044:	c7 00 01 00 00 00    	mov    DWORD PTR [rax],0x1
  40104a:	48 8b 05 8f 0a 01 00 	mov    rax,QWORD PTR [rip+0x10a8f]        # 411ae0 <.refptr.__image_base__>
  401051:	66 81 38 4d 5a       	cmp    WORD PTR [rax],0x5a4d
  401056:	75 0f                	jne    401067 <pre_c_init+0x57>
  401058:	48 63 50 3c          	movsxd rdx,DWORD PTR [rax+0x3c]
  40105c:	48 01 d0             	add    rax,rdx
  40105f:	81 38 50 45 00 00    	cmp    DWORD PTR [rax],0x4550
  401065:	74 69                	je     4010d0 <pre_c_init+0xc0>
  401067:	48 8b 05 a2 0b 01 00 	mov    rax,QWORD PTR [rip+0x10ba2]        # 411c10 <.refptr.mingw_app_type>
  40106e:	89 0d ac 3f 01 00    	mov    DWORD PTR [rip+0x13fac],ecx        # 415020 <managedapp>
  401074:	8b 00                	mov    eax,DWORD PTR [rax]
  401076:	85 c0                	test   eax,eax
  401078:	74 46                	je     4010c0 <pre_c_init+0xb0>
  40107a:	b9 02 00 00 00       	mov    ecx,0x2
  40107f:	e8 4c d8 00 00       	call   40e8d0 <__set_app_type>
  401084:	e8 d7 de 00 00       	call   40ef60 <__p__fmode>
  401089:	48 8b 15 40 0b 01 00 	mov    rdx,QWORD PTR [rip+0x10b40]        # 411bd0 <.refptr._fmode>
  401090:	8b 12                	mov    edx,DWORD PTR [rdx]
  401092:	89 10                	mov    DWORD PTR [rax],edx
  401094:	e8 b7 de 00 00       	call   40ef50 <__p__commode>
  401099:	48 8b 15 10 0b 01 00 	mov    rdx,QWORD PTR [rip+0x10b10]        # 411bb0 <.refptr._commode>
  4010a0:	8b 12                	mov    edx,DWORD PTR [rdx]
  4010a2:	89 10                	mov    DWORD PTR [rax],edx
  4010a4:	e8 37 7a 00 00       	call   408ae0 <_setargv>
  4010a9:	48 8b 05 e0 09 01 00 	mov    rax,QWORD PTR [rip+0x109e0]        # 411a90 <.refptr._MINGW_INSTALL_DEBUG_MATHERR>
  4010b0:	83 38 01             	cmp    DWORD PTR [rax],0x1
  4010b3:	74 53                	je     401108 <pre_c_init+0xf8>
  4010b5:	31 c0                	xor    eax,eax
  4010b7:	48 83 c4 28          	add    rsp,0x28
  4010bb:	c3                   	ret
  4010bc:	0f 1f 40 00          	nop    DWORD PTR [rax+0x0]
  4010c0:	b9 01 00 00 00       	mov    ecx,0x1
  4010c5:	e8 06 d8 00 00       	call   40e8d0 <__set_app_type>
  4010ca:	eb b8                	jmp    401084 <pre_c_init+0x74>
  4010cc:	0f 1f 40 00          	nop    DWORD PTR [rax+0x0]
  4010d0:	0f b7 50 18          	movzx  edx,WORD PTR [rax+0x18]
  4010d4:	66 81 fa 0b 01       	cmp    dx,0x10b
  4010d9:	74 45                	je     401120 <pre_c_init+0x110>
  4010db:	66 81 fa 0b 02       	cmp    dx,0x20b
  4010e0:	75 85                	jne    401067 <pre_c_init+0x57>
  4010e2:	83 b8 84 00 00 00 0e 	cmp    DWORD PTR [rax+0x84],0xe
  4010e9:	0f 86 78 ff ff ff    	jbe    401067 <pre_c_init+0x57>
  4010ef:	8b 90 f8 00 00 00    	mov    edx,DWORD PTR [rax+0xf8]
  4010f5:	31 c9                	xor    ecx,ecx
  4010f7:	85 d2                	test   edx,edx
  4010f9:	0f 95 c1             	setne  cl
  4010fc:	e9 66 ff ff ff       	jmp    401067 <pre_c_init+0x57>
  401101:	0f 1f 80 00 00 00 00 	nop    DWORD PTR [rax+0x0]
  401108:	48 8d 0d b1 7a 00 00 	lea    rcx,[rip+0x7ab1]        # 408bc0 <_matherr>
  40110f:	e8 7c 80 00 00       	call   409190 <__mingw_setusermatherr>
  401114:	31 c0                	xor    eax,eax
  401116:	48 83 c4 28          	add    rsp,0x28
  40111a:	c3                   	ret
  40111b:	0f 1f 44 00 00       	nop    DWORD PTR [rax+rax*1+0x0]
  401120:	83 78 74 0e          	cmp    DWORD PTR [rax+0x74],0xe
  401124:	0f 86 3d ff ff ff    	jbe    401067 <pre_c_init+0x57>
  40112a:	44 8b 80 e8 00 00 00 	mov    r8d,DWORD PTR [rax+0xe8]
  401131:	31 c9                	xor    ecx,ecx
  401133:	45 85 c0             	test   r8d,r8d
  401136:	0f 95 c1             	setne  cl
  401139:	e9 29 ff ff ff       	jmp    401067 <pre_c_init+0x57>
  40113e:	66 90                	xchg   ax,ax

0000000000401140 <pre_cpp_init>:
  401140:	48 83 ec 38          	sub    rsp,0x38
  401144:	48 8b 05 b5 0a 01 00 	mov    rax,QWORD PTR [rip+0x10ab5]        # 411c00 <.refptr._newmode>
  40114b:	4c 8d 05 d6 3e 01 00 	lea    r8,[rip+0x13ed6]        # 415028 <envp>
  401152:	48 8d 15 d7 3e 01 00 	lea    rdx,[rip+0x13ed7]        # 415030 <argv>
  401159:	48 8d 0d d8 3e 01 00 	lea    rcx,[rip+0x13ed8]        # 415038 <argc>
  401160:	8b 00                	mov    eax,DWORD PTR [rax]
  401162:	89 05 b0 3e 01 00    	mov    DWORD PTR [rip+0x13eb0],eax        # 415018 <startinfo>
  401168:	48 8d 05 a9 3e 01 00 	lea    rax,[rip+0x13ea9]        # 415018 <startinfo>
  40116f:	48 89 44 24 20       	mov    QWORD PTR [rsp+0x20],rax
  401174:	48 8b 05 45 0a 01 00 	mov    rax,QWORD PTR [rip+0x10a45]        # 411bc0 <.refptr._dowildcard>
  40117b:	44 8b 08             	mov    r9d,DWORD PTR [rax]
  40117e:	e8 5d d7 00 00       	call   40e8e0 <__getmainargs>
  401183:	90                   	nop
  401184:	48 83 c4 38          	add    rsp,0x38
  401188:	c3                   	ret
  401189:	0f 1f 80 00 00 00 00 	nop    DWORD PTR [rax+0x0]

0000000000401190 <__tmainCRTStartup>:
  401190:	41 55                	push   r13
  401192:	41 54                	push   r12
  401194:	55                   	push   rbp
  401195:	57                   	push   rdi
  401196:	56                   	push   rsi
  401197:	53                   	push   rbx
  401198:	48 81 ec 98 00 00 00 	sub    rsp,0x98
  40119f:	b9 0d 00 00 00       	mov    ecx,0xd
  4011a4:	31 c0                	xor    eax,eax
  4011a6:	4c 8d 44 24 20       	lea    r8,[rsp+0x20]
  4011ab:	4c 89 c7             	mov    rdi,r8
  4011ae:	f3 48 ab             	rep stos QWORD PTR es:[rdi],rax
  4011b1:	48 8b 3d 58 0a 01 00 	mov    rdi,QWORD PTR [rip+0x10a58]        # 411c10 <.refptr.mingw_app_type>
  4011b8:	44 8b 0f             	mov    r9d,DWORD PTR [rdi]
  4011bb:	45 85 c9             	test   r9d,r9d
  4011be:	0f 85 9c 02 00 00    	jne    401460 <__tmainCRTStartup+0x2d0>
  4011c4:	65 48 8b 04 25 30 00 	mov    rax,QWORD PTR gs:0x30
  4011cb:	00 00 
  4011cd:	48 8b 1d 6c 09 01 00 	mov    rbx,QWORD PTR [rip+0x1096c]        # 411b40 <.refptr.__native_startup_lock>
  4011d4:	48 8b 70 08          	mov    rsi,QWORD PTR [rax+0x8]
  4011d8:	31 ed                	xor    ebp,ebp
  4011da:	4c 8b 25 d3 50 01 00 	mov    r12,QWORD PTR [rip+0x150d3]        # 4162b4 <__imp_Sleep>
  4011e1:	eb 16                	jmp    4011f9 <__tmainCRTStartup+0x69>
  4011e3:	0f 1f 44 00 00       	nop    DWORD PTR [rax+rax*1+0x0]
  4011e8:	48 39 c6             	cmp    rsi,rax
  4011eb:	0f 84 17 02 00 00    	je     401408 <__tmainCRTStartup+0x278>
  4011f1:	b9 e8 03 00 00       	mov    ecx,0x3e8
  4011f6:	41 ff d4             	call   r12
  4011f9:	48 89 e8             	mov    rax,rbp
  4011fc:	f0 48 0f b1 33       	lock cmpxchg QWORD PTR [rbx],rsi
  401201:	48 85 c0             	test   rax,rax
  401204:	75 e2                	jne    4011e8 <__tmainCRTStartup+0x58>
  401206:	48 8b 35 43 09 01 00 	mov    rsi,QWORD PTR [rip+0x10943]        # 411b50 <.refptr.__native_startup_state>
  40120d:	31 ed                	xor    ebp,ebp
  40120f:	8b 06                	mov    eax,DWORD PTR [rsi]
  401211:	83 f8 01             	cmp    eax,0x1
  401214:	0f 84 05 02 00 00    	je     40141f <__tmainCRTStartup+0x28f>
  40121a:	8b 06                	mov    eax,DWORD PTR [rsi]
  40121c:	85 c0                	test   eax,eax
  40121e:	0f 84 6c 02 00 00    	je     401490 <__tmainCRTStartup+0x300>
  401224:	c7 05 ee 3d 01 00 01 	mov    DWORD PTR [rip+0x13dee],0x1        # 41501c <has_cctor>
  40122b:	00 00 00 
  40122e:	8b 06                	mov    eax,DWORD PTR [rsi]
  401230:	83 f8 01             	cmp    eax,0x1
  401233:	0f 84 fb 01 00 00    	je     401434 <__tmainCRTStartup+0x2a4>
  401239:	85 ed                	test   ebp,ebp
  40123b:	0f 84 14 02 00 00    	je     401455 <__tmainCRTStartup+0x2c5>
  401241:	48 8b 05 88 08 01 00 	mov    rax,QWORD PTR [rip+0x10888]        # 411ad0 <.refptr.__dyn_tls_init_callback>
  401248:	48 8b 00             	mov    rax,QWORD PTR [rax]
  40124b:	48 85 c0             	test   rax,rax
  40124e:	74 0c                	je     40125c <__tmainCRTStartup+0xcc>
  401250:	45 31 c0             	xor    r8d,r8d
  401253:	ba 02 00 00 00       	mov    edx,0x2
  401258:	31 c9                	xor    ecx,ecx
  40125a:	ff d0                	call   rax
  40125c:	e8 4f 7c 00 00       	call   408eb0 <_pei386_runtime_relocator>
  401261:	48 8d 0d 38 7f 00 00 	lea    rcx,[rip+0x7f38]        # 4091a0 <_gnu_exception_handler>
  401268:	ff 15 3e 50 01 00    	call   QWORD PTR [rip+0x1503e]        # 4162ac <__imp_SetUnhandledExceptionFilter>
  40126e:	48 8b 15 bb 08 01 00 	mov    rdx,QWORD PTR [rip+0x108bb]        # 411b30 <.refptr.__mingw_oldexcpt_handler>
  401275:	48 8d 0d 84 fd ff ff 	lea    rcx,[rip+0xfffffffffffffd84]        # 401000 <__mingw_invalidParameterHandler>
  40127c:	48 89 02             	mov    QWORD PTR [rdx],rax
  40127f:	e8 dc db 00 00       	call   40ee60 <_set_invalid_parameter_handler>
  401284:	e8 37 7a 00 00       	call   408cc0 <_fpreset>
  401289:	48 8b 05 50 08 01 00 	mov    rax,QWORD PTR [rip+0x10850]        # 411ae0 <.refptr.__image_base__>
  401290:	48 89 05 79 3d 01 00 	mov    QWORD PTR [rip+0x13d79],rax        # 415010 <__mingw_winmain_hInstance>
  401297:	e8 a4 dc 00 00       	call   40ef40 <__p__acmdln>
  40129c:	31 c9                	xor    ecx,ecx
  40129e:	48 8b 00             	mov    rax,QWORD PTR [rax]
  4012a1:	48 85 c0             	test   rax,rax
  4012a4:	75 1c                	jne    4012c2 <__tmainCRTStartup+0x132>
  4012a6:	eb 58                	jmp    401300 <__tmainCRTStartup+0x170>
  4012a8:	0f 1f 84 00 00 00 00 	nop    DWORD PTR [rax+rax*1+0x0]
  4012af:	00 
  4012b0:	84 d2                	test   dl,dl
  4012b2:	74 45                	je     4012f9 <__tmainCRTStartup+0x169>
  4012b4:	83 e1 01             	and    ecx,0x1
  4012b7:	74 27                	je     4012e0 <__tmainCRTStartup+0x150>
  4012b9:	b9 01 00 00 00       	mov    ecx,0x1
  4012be:	48 83 c0 01          	add    rax,0x1
  4012c2:	0f b6 10             	movzx  edx,BYTE PTR [rax]
  4012c5:	80 fa 20             	cmp    dl,0x20
  4012c8:	7e e6                	jle    4012b0 <__tmainCRTStartup+0x120>
  4012ca:	41 89 c8             	mov    r8d,ecx
  4012cd:	41 83 f0 01          	xor    r8d,0x1
  4012d1:	80 fa 22             	cmp    dl,0x22
  4012d4:	41 0f 44 c8          	cmove  ecx,r8d
  4012d8:	eb e4                	jmp    4012be <__tmainCRTStartup+0x12e>
  4012da:	66 0f 1f 44 00 00    	nop    WORD PTR [rax+rax*1+0x0]
  4012e0:	84 d2                	test   dl,dl
  4012e2:	74 15                	je     4012f9 <__tmainCRTStartup+0x169>
  4012e4:	0f 1f 40 00          	nop    DWORD PTR [rax+0x0]
  4012e8:	0f b6 50 01          	movzx  edx,BYTE PTR [rax+0x1]
  4012ec:	48 83 c0 01          	add    rax,0x1
  4012f0:	84 d2                	test   dl,dl
  4012f2:	74 05                	je     4012f9 <__tmainCRTStartup+0x169>
  4012f4:	80 fa 20             	cmp    dl,0x20
  4012f7:	7e ef                	jle    4012e8 <__tmainCRTStartup+0x158>
  4012f9:	48 89 05 08 3d 01 00 	mov    QWORD PTR [rip+0x13d08],rax        # 415008 <__mingw_winmain_lpCmdLine>
  401300:	44 8b 07             	mov    r8d,DWORD PTR [rdi]
  401303:	45 85 c0             	test   r8d,r8d
  401306:	74 16                	je     40131e <__tmainCRTStartup+0x18e>
  401308:	b8 0a 00 00 00       	mov    eax,0xa
  40130d:	f6 44 24 5c 01       	test   BYTE PTR [rsp+0x5c],0x1
  401312:	0f 85 e0 00 00 00    	jne    4013f8 <__tmainCRTStartup+0x268>
  401318:	89 05 e2 ec 00 00    	mov    DWORD PTR [rip+0xece2],eax        # 410000 <__data_start__>
  40131e:	48 63 2d 13 3d 01 00 	movsxd rbp,DWORD PTR [rip+0x13d13]        # 415038 <argc>
  401325:	44 8d 65 01          	lea    r12d,[rbp+0x1]
  401329:	4d 63 e4             	movsxd r12,r12d
  40132c:	49 c1 e4 03          	shl    r12,0x3
  401330:	4c 89 e1             	mov    rcx,r12
  401333:	e8 08 d5 00 00       	call   40e840 <malloc>
  401338:	4c 8b 2d f1 3c 01 00 	mov    r13,QWORD PTR [rip+0x13cf1]        # 415030 <argv>
  40133f:	48 89 c7             	mov    rdi,rax
  401342:	85 ed                	test   ebp,ebp
  401344:	7e 42                	jle    401388 <__tmainCRTStartup+0x1f8>
  401346:	31 db                	xor    ebx,ebx
  401348:	0f 1f 84 00 00 00 00 	nop    DWORD PTR [rax+rax*1+0x0]
  40134f:	00 
  401350:	49 8b 4c dd 00       	mov    rcx,QWORD PTR [r13+rbx*8+0x0]
  401355:	e8 be d4 00 00       	call   40e818 <strlen>
  40135a:	48 8d 70 01          	lea    rsi,[rax+0x1]
  40135e:	48 89 f1             	mov    rcx,rsi
  401361:	e8 da d4 00 00       	call   40e840 <malloc>
  401366:	49 89 f0             	mov    r8,rsi
  401369:	48 89 04 df          	mov    QWORD PTR [rdi+rbx*8],rax
  40136d:	49 8b 54 dd 00       	mov    rdx,QWORD PTR [r13+rbx*8+0x0]
  401372:	48 89 c1             	mov    rcx,rax
  401375:	48 83 c3 01          	add    rbx,0x1
  401379:	e8 ba d4 00 00       	call   40e838 <memcpy>
  40137e:	48 39 dd             	cmp    rbp,rbx
  401381:	75 cd                	jne    401350 <__tmainCRTStartup+0x1c0>
  401383:	4a 8d 44 27 f8       	lea    rax,[rdi+r12*1-0x8]
  401388:	48 c7 00 00 00 00 00 	mov    QWORD PTR [rax],0x0
  40138f:	48 89 3d 9a 3c 01 00 	mov    QWORD PTR [rip+0x13c9a],rdi        # 415030 <argv>
  401396:	e8 15 77 00 00       	call   408ab0 <__main>
  40139b:	48 8b 05 4e 07 01 00 	mov    rax,QWORD PTR [rip+0x1074e]        # 411af0 <.refptr.__imp___initenv>
  4013a2:	4c 8b 05 7f 3c 01 00 	mov    r8,QWORD PTR [rip+0x13c7f]        # 415028 <envp>
  4013a9:	8b 0d 89 3c 01 00    	mov    ecx,DWORD PTR [rip+0x13c89]        # 415038 <argc>
  4013af:	48 8b 00             	mov    rax,QWORD PTR [rax]
  4013b2:	4c 89 00             	mov    QWORD PTR [rax],r8
  4013b5:	48 8b 15 74 3c 01 00 	mov    rdx,QWORD PTR [rip+0x13c74]        # 415030 <argv>
  4013bc:	e8 cc 02 00 00       	call   40168d <main>
  4013c1:	8b 0d 59 3c 01 00    	mov    ecx,DWORD PTR [rip+0x13c59]        # 415020 <managedapp>
  4013c7:	89 05 57 3c 01 00    	mov    DWORD PTR [rip+0x13c57],eax        # 415024 <mainret>
  4013cd:	85 c9                	test   ecx,ecx
  4013cf:	0f 84 d9 00 00 00    	je     4014ae <__tmainCRTStartup+0x31e>
  4013d5:	8b 15 41 3c 01 00    	mov    edx,DWORD PTR [rip+0x13c41]        # 41501c <has_cctor>
  4013db:	85 d2                	test   edx,edx
  4013dd:	0f 84 8d 00 00 00    	je     401470 <__tmainCRTStartup+0x2e0>
  4013e3:	48 81 c4 98 00 00 00 	add    rsp,0x98
  4013ea:	5b                   	pop    rbx
  4013eb:	5e                   	pop    rsi
  4013ec:	5f                   	pop    rdi
  4013ed:	5d                   	pop    rbp
  4013ee:	41 5c                	pop    r12
  4013f0:	41 5d                	pop    r13
  4013f2:	c3                   	ret
  4013f3:	0f 1f 44 00 00       	nop    DWORD PTR [rax+rax*1+0x0]
  4013f8:	0f b7 44 24 60       	movzx  eax,WORD PTR [rsp+0x60]
  4013fd:	e9 16 ff ff ff       	jmp    401318 <__tmainCRTStartup+0x188>
  401402:	66 0f 1f 44 00 00    	nop    WORD PTR [rax+rax*1+0x0]
  401408:	48 8b 35 41 07 01 00 	mov    rsi,QWORD PTR [rip+0x10741]        # 411b50 <.refptr.__native_startup_state>
  40140f:	bd 01 00 00 00       	mov    ebp,0x1
  401414:	8b 06                	mov    eax,DWORD PTR [rsi]
  401416:	83 f8 01             	cmp    eax,0x1
  401419:	0f 85 fb fd ff ff    	jne    40121a <__tmainCRTStartup+0x8a>
  40141f:	b9 1f 00 00 00       	mov    ecx,0x1f
  401424:	e8 97 d4 00 00       	call   40e8c0 <_amsg_exit>
  401429:	8b 06                	mov    eax,DWORD PTR [rsi]
  40142b:	83 f8 01             	cmp    eax,0x1
  40142e:	0f 85 05 fe ff ff    	jne    401239 <__tmainCRTStartup+0xa9>
  401434:	48 8b 15 45 07 01 00 	mov    rdx,QWORD PTR [rip+0x10745]        # 411b80 <.refptr.__xc_z>
  40143b:	48 8b 0d 2e 07 01 00 	mov    rcx,QWORD PTR [rip+0x1072e]        # 411b70 <.refptr.__xc_a>
  401442:	e8 61 d4 00 00       	call   40e8a8 <_initterm>
  401447:	c7 06 02 00 00 00    	mov    DWORD PTR [rsi],0x2
  40144d:	85 ed                	test   ebp,ebp
  40144f:	0f 85 ec fd ff ff    	jne    401241 <__tmainCRTStartup+0xb1>
  401455:	31 c0                	xor    eax,eax
  401457:	48 87 03             	xchg   QWORD PTR [rbx],rax
  40145a:	e9 e2 fd ff ff       	jmp    401241 <__tmainCRTStartup+0xb1>
  40145f:	90                   	nop
  401460:	4c 89 c1             	mov    rcx,r8
  401463:	ff 15 fb 4d 01 00    	call   QWORD PTR [rip+0x14dfb]        # 416264 <__imp_GetStartupInfoA>
  401469:	e9 56 fd ff ff       	jmp    4011c4 <__tmainCRTStartup+0x34>
  40146e:	66 90                	xchg   ax,ax
  401470:	e8 43 d4 00 00       	call   40e8b8 <_cexit>
  401475:	8b 05 a9 3b 01 00    	mov    eax,DWORD PTR [rip+0x13ba9]        # 415024 <mainret>
  40147b:	48 81 c4 98 00 00 00 	add    rsp,0x98
  401482:	5b                   	pop    rbx
  401483:	5e                   	pop    rsi
  401484:	5f                   	pop    rdi
  401485:	5d                   	pop    rbp
  401486:	41 5c                	pop    r12
  401488:	41 5d                	pop    r13
  40148a:	c3                   	ret
  40148b:	0f 1f 44 00 00       	nop    DWORD PTR [rax+rax*1+0x0]
  401490:	48 8b 15 09 07 01 00 	mov    rdx,QWORD PTR [rip+0x10709]        # 411ba0 <.refptr.__xi_z>
  401497:	48 8b 0d f2 06 01 00 	mov    rcx,QWORD PTR [rip+0x106f2]        # 411b90 <.refptr.__xi_a>
  40149e:	c7 06 01 00 00 00    	mov    DWORD PTR [rsi],0x1
  4014a4:	e8 ff d3 00 00       	call   40e8a8 <_initterm>
  4014a9:	e9 80 fd ff ff       	jmp    40122e <__tmainCRTStartup+0x9e>
  4014ae:	89 c1                	mov    ecx,eax
  4014b0:	e8 d3 d3 00 00       	call   40e888 <exit>
  4014b5:	90                   	nop
  4014b6:	66 2e 0f 1f 84 00 00 	cs nop WORD PTR [rax+rax*1+0x0]
  4014bd:	00 00 00 

00000000004014c0 <WinMainCRTStartup>:
  4014c0:	48 83 ec 28          	sub    rsp,0x28

00000000004014c4 <.l_startw>:
  4014c4:	48 8b 05 45 07 01 00 	mov    rax,QWORD PTR [rip+0x10745]        # 411c10 <.refptr.mingw_app_type>
  4014cb:	c7 00 01 00 00 00    	mov    DWORD PTR [rax],0x1
  4014d1:	e8 ba fc ff ff       	call   401190 <__tmainCRTStartup>
  4014d6:	90                   	nop

00000000004014d7 <.l_endw>:
  4014d7:	90                   	nop
  4014d8:	48 83 c4 28          	add    rsp,0x28
  4014dc:	c3                   	ret
  4014dd:	0f 1f 00             	nop    DWORD PTR [rax]

00000000004014e0 <mainCRTStartup>:
  4014e0:	48 83 ec 28          	sub    rsp,0x28

00000000004014e4 <.l_start>:
  4014e4:	48 8b 05 25 07 01 00 	mov    rax,QWORD PTR [rip+0x10725]        # 411c10 <.refptr.mingw_app_type>
  4014eb:	c7 00 00 00 00 00    	mov    DWORD PTR [rax],0x0
  4014f1:	e8 9a fc ff ff       	call   401190 <__tmainCRTStartup>
  4014f6:	90                   	nop

00000000004014f7 <.l_end>:
  4014f7:	90                   	nop
  4014f8:	48 83 c4 28          	add    rsp,0x28
  4014fc:	c3                   	ret
  4014fd:	0f 1f 00             	nop    DWORD PTR [rax]

0000000000401500 <atexit>:
  401500:	48 83 ec 28          	sub    rsp,0x28
  401504:	e8 97 d3 00 00       	call   40e8a0 <_onexit>
  401509:	48 85 c0             	test   rax,rax
  40150c:	0f 94 c0             	sete   al
  40150f:	0f b6 c0             	movzx  eax,al
  401512:	f7 d8                	neg    eax
  401514:	48 83 c4 28          	add    rsp,0x28
  401518:	c3                   	ret
  401519:	90                   	nop
  40151a:	90                   	nop
  40151b:	90                   	nop
  40151c:	90                   	nop
  40151d:	90                   	nop
  40151e:	90                   	nop
  40151f:	90                   	nop

0000000000401520 <__gcc_register_frame>:
  401520:	48 8d 0d 09 00 00 00 	lea    rcx,[rip+0x9]        # 401530 <__gcc_deregister_frame>
  401527:	e9 d4 ff ff ff       	jmp    401500 <atexit>
  40152c:	0f 1f 40 00          	nop    DWORD PTR [rax+0x0]

0000000000401530 <__gcc_deregister_frame>:
  401530:	c3                   	ret
  401531:	90                   	nop
  401532:	90                   	nop
  401533:	90                   	nop
  401534:	90                   	nop
  401535:	90                   	nop
  401536:	90                   	nop
  401537:	90                   	nop
  401538:	90                   	nop
  401539:	90                   	nop
  40153a:	90                   	nop
  40153b:	90                   	nop
  40153c:	90                   	nop
  40153d:	90                   	nop
  40153e:	90                   	nop
  40153f:	90                   	nop

0000000000401540 <fprintf>:
  401540:	55                   	push   rbp
  401541:	48 89 e5             	mov    rbp,rsp
  401544:	48 83 ec 30          	sub    rsp,0x30
  401548:	48 89 4d 10          	mov    QWORD PTR [rbp+0x10],rcx
  40154c:	48 89 55 18          	mov    QWORD PTR [rbp+0x18],rdx
  401550:	4c 89 45 20          	mov    QWORD PTR [rbp+0x20],r8
  401554:	4c 89 4d 28          	mov    QWORD PTR [rbp+0x28],r9
  401558:	48 8d 45 20          	lea    rax,[rbp+0x20]
  40155c:	48 89 45 f0          	mov    QWORD PTR [rbp-0x10],rax
  401560:	48 8b 55 f0          	mov    rdx,QWORD PTR [rbp-0x10]
  401564:	48 8b 45 18          	mov    rax,QWORD PTR [rbp+0x18]
  401568:	49 89 d0             	mov    r8,rdx
  40156b:	48 89 c2             	mov    rdx,rax
  40156e:	48 8b 4d 10          	mov    rcx,QWORD PTR [rbp+0x10]
  401572:	e8 79 84 00 00       	call   4099f0 <__mingw_vfprintf>
  401577:	89 45 fc             	mov    DWORD PTR [rbp-0x4],eax
  40157a:	8b 45 fc             	mov    eax,DWORD PTR [rbp-0x4]
  40157d:	48 83 c4 30          	add    rsp,0x30
  401581:	5d                   	pop    rbp
  401582:	c3                   	ret

0000000000401583 <printf>:
  401583:	55                   	push   rbp
  401584:	53                   	push   rbx
  401585:	48 83 ec 38          	sub    rsp,0x38
  401589:	48 8d ac 24 80 00 00 	lea    rbp,[rsp+0x80]
  401590:	00 
  401591:	48 89 4d d0          	mov    QWORD PTR [rbp-0x30],rcx
  401595:	48 89 55 d8          	mov    QWORD PTR [rbp-0x28],rdx
  401599:	4c 89 45 e0          	mov    QWORD PTR [rbp-0x20],r8
  40159d:	4c 89 4d e8          	mov    QWORD PTR [rbp-0x18],r9
  4015a1:	48 8d 45 d8          	lea    rax,[rbp-0x28]
  4015a5:	48 89 45 a0          	mov    QWORD PTR [rbp-0x60],rax
  4015a9:	48 8b 5d a0          	mov    rbx,QWORD PTR [rbp-0x60]
  4015ad:	b9 01 00 00 00       	mov    ecx,0x1
  4015b2:	48 8b 05 d7 ea 00 00 	mov    rax,QWORD PTR [rip+0xead7]        # 410090 <__imp___acrt_iob_func>
  4015b9:	ff d0                	call   rax
  4015bb:	49 89 d8             	mov    r8,rbx
  4015be:	48 8b 55 d0          	mov    rdx,QWORD PTR [rbp-0x30]
  4015c2:	48 89 c1             	mov    rcx,rax
  4015c5:	e8 26 84 00 00       	call   4099f0 <__mingw_vfprintf>
  4015ca:	89 45 ac             	mov    DWORD PTR [rbp-0x54],eax
  4015cd:	8b 45 ac             	mov    eax,DWORD PTR [rbp-0x54]
  4015d0:	48 83 c4 38          	add    rsp,0x38
  4015d4:	5b                   	pop    rbx
  4015d5:	5d                   	pop    rbp
  4015d6:	c3                   	ret

00000000004015d7 <concat>:
  4015d7:	55                   	push   rbp
  4015d8:	48 89 e5             	mov    rbp,rsp
  4015db:	48 83 ec 40          	sub    rsp,0x40
  4015df:	48 89 4d 10          	mov    QWORD PTR [rbp+0x10],rcx
  4015e3:	48 89 55 18          	mov    QWORD PTR [rbp+0x18],rdx
  4015e7:	48 8b 4d 10          	mov    rcx,QWORD PTR [rbp+0x10]
  4015eb:	e8 28 d2 00 00       	call   40e818 <strlen>
  4015f0:	48 89 45 f8          	mov    QWORD PTR [rbp-0x8],rax
  4015f4:	48 8b 45 18          	mov    rax,QWORD PTR [rbp+0x18]
  4015f8:	48 89 c1             	mov    rcx,rax
  4015fb:	e8 18 d2 00 00       	call   40e818 <strlen>
  401600:	48 89 45 f0          	mov    QWORD PTR [rbp-0x10],rax
  401604:	48 8b 55 f8          	mov    rdx,QWORD PTR [rbp-0x8]
  401608:	48 8b 45 f0          	mov    rax,QWORD PTR [rbp-0x10]
  40160c:	48 01 d0             	add    rax,rdx
  40160f:	48 83 c0 01          	add    rax,0x1
  401613:	48 89 c1             	mov    rcx,rax
  401616:	e8 25 d2 00 00       	call   40e840 <malloc>
  40161b:	48 89 45 e8          	mov    QWORD PTR [rbp-0x18],rax
  40161f:	48 83 7d e8 00       	cmp    QWORD PTR [rbp-0x18],0x0
  401624:	75 24                	jne    40164a <concat+0x73>
  401626:	b9 02 00 00 00       	mov    ecx,0x2
  40162b:	48 8b 05 5e ea 00 00 	mov    rax,QWORD PTR [rip+0xea5e]        # 410090 <__imp___acrt_iob_func>
  401632:	ff d0                	call   rax
  401634:	48 8d 15 c5 f9 00 00 	lea    rdx,[rip+0xf9c5]        # 411000 <.rdata>
  40163b:	48 89 c1             	mov    rcx,rax
  40163e:	e8 fd fe ff ff       	call   401540 <fprintf>
  401643:	b8 00 00 00 00       	mov    eax,0x0
  401648:	eb 3d                	jmp    401687 <concat+0xb0>
  40164a:	48 8b 55 f8          	mov    rdx,QWORD PTR [rbp-0x8]
  40164e:	48 8b 45 e8          	mov    rax,QWORD PTR [rbp-0x18]
  401652:	49 89 d0             	mov    r8,rdx
  401655:	48 8b 55 10          	mov    rdx,QWORD PTR [rbp+0x10]
  401659:	48 89 c1             	mov    rcx,rax
  40165c:	e8 d7 d1 00 00       	call   40e838 <memcpy>
  401661:	48 8b 45 f0          	mov    rax,QWORD PTR [rbp-0x10]
  401665:	48 8d 50 01          	lea    rdx,[rax+0x1]
  401669:	48 8b 4d e8          	mov    rcx,QWORD PTR [rbp-0x18]
  40166d:	48 8b 45 f8          	mov    rax,QWORD PTR [rbp-0x8]
  401671:	48 01 c1             	add    rcx,rax
  401674:	48 8b 45 18          	mov    rax,QWORD PTR [rbp+0x18]
  401678:	49 89 d0             	mov    r8,rdx
  40167b:	48 89 c2             	mov    rdx,rax
  40167e:	e8 b5 d1 00 00       	call   40e838 <memcpy>
  401683:	48 8b 45 e8          	mov    rax,QWORD PTR [rbp-0x18]
  401687:	48 83 c4 40          	add    rsp,0x40
  40168b:	5d                   	pop    rbp
  40168c:	c3                   	ret

000000000040168d <main>:
  40168d:	55                   	push   rbp
  40168e:	57                   	push   rdi
  40168f:	b8 b8 4c 00 00       	mov    eax,0x4cb8
  401694:	e8 17 83 00 00       	call   4099b0 <___chkstk_ms>
  401699:	48 29 c4             	sub    rsp,rax
  40169c:	48 8d ac 24 80 00 00 	lea    rbp,[rsp+0x80]
  4016a3:	00 
  4016a4:	89 8d 50 4c 00 00    	mov    DWORD PTR [rbp+0x4c50],ecx
  4016aa:	48 89 95 58 4c 00 00 	mov    QWORD PTR [rbp+0x4c58],rdx
  4016b1:	e8 fa 73 00 00       	call   408ab0 <__main>
  4016b6:	b9 f5 ff ff ff       	mov    ecx,0xfffffff5
  4016bb:	48 8b 05 aa 4b 01 00 	mov    rax,QWORD PTR [rip+0x14baa]        # 41626c <__imp_GetStdHandle>
  4016c2:	ff d0                	call   rax
  4016c4:	48 89 85 20 4c 00 00 	mov    QWORD PTR [rbp+0x4c20],rax
  4016cb:	48 c7 85 71 4b 00 00 	mov    QWORD PTR [rbp+0x4b71],0x799610ff
  4016d2:	ff 10 96 79 
  4016d6:	66 c7 85 79 4b 00 00 	mov    WORD PTR [rbp+0x4b79],0x0
  4016dd:	00 00 
  4016df:	48 c7 85 50 4b 00 00 	mov    QWORD PTR [rbp+0x4b50],0x0
  4016e6:	00 00 00 00 
  4016ea:	48 c7 85 58 4b 00 00 	mov    QWORD PTR [rbp+0x4b58],0x0
  4016f1:	00 00 00 00 
  4016f5:	c7 85 60 4b 00 00 00 	mov    DWORD PTR [rbp+0x4b60],0x0
  4016fc:	00 00 00 
  4016ff:	48 c7 85 46 4b 00 00 	mov    QWORD PTR [rbp+0x4b46],0x900031a
  401706:	1a 03 00 09 
  40170a:	66 c7 85 4e 4b 00 00 	mov    WORD PTR [rbp+0x4b4e],0x0
  401711:	00 00 
  401713:	c7 85 28 4c 00 00 00 	mov    DWORD PTR [rbp+0x4c28],0x0
  40171a:	00 00 00 
  40171d:	83 bd 50 4c 00 00 03 	cmp    DWORD PTR [rbp+0x4c50],0x3
  401724:	0f 84 d2 00 00 00    	je     4017fc <main+0x16f>
  40172a:	83 bd 50 4c 00 00 02 	cmp    DWORD PTR [rbp+0x4c50],0x2
  401731:	0f 84 c5 00 00 00    	je     4017fc <main+0x16f>
  401737:	48 8d 0d ea f8 00 00 	lea    rcx,[rip+0xf8ea]        # 411028 <.rdata+0x28>
  40173e:	e8 40 fe ff ff       	call   401583 <printf>
  401743:	48 8d 0d 20 f9 00 00 	lea    rcx,[rip+0xf920]        # 41106a <.rdata+0x6a>
  40174a:	e8 34 fe ff ff       	call   401583 <printf>
  40174f:	48 8b 85 20 4c 00 00 	mov    rax,QWORD PTR [rbp+0x4c20]
  401756:	ba 07 80 00 00       	mov    edx,0x8007
  40175b:	48 89 c1             	mov    rcx,rax
  40175e:	48 8b 05 3f 4b 01 00 	mov    rax,QWORD PTR [rip+0x14b3f]        # 4162a4 <__imp_SetConsoleTextAttribute>
  401765:	ff d0                	call   rax
  401767:	48 8d 0d 1a f9 00 00 	lea    rcx,[rip+0xf91a]        # 411088 <.rdata+0x88>
  40176e:	e8 10 fe ff ff       	call   401583 <printf>
  401773:	48 8b 85 20 4c 00 00 	mov    rax,QWORD PTR [rbp+0x4c20]
  40177a:	ba 07 00 00 00       	mov    edx,0x7
  40177f:	48 89 c1             	mov    rcx,rax
  401782:	48 8b 05 1b 4b 01 00 	mov    rax,QWORD PTR [rip+0x14b1b]        # 4162a4 <__imp_SetConsoleTextAttribute>
  401789:	ff d0                	call   rax
  40178b:	48 8d 0d 08 f9 00 00 	lea    rcx,[rip+0xf908]        # 41109a <.rdata+0x9a>
  401792:	e8 ec fd ff ff       	call   401583 <printf>
  401797:	48 8d 0d 12 f9 00 00 	lea    rcx,[rip+0xf912]        # 4110b0 <.rdata+0xb0>
  40179e:	e8 e0 fd ff ff       	call   401583 <printf>
  4017a3:	48 8d 0d 4e f9 00 00 	lea    rcx,[rip+0xf94e]        # 4110f8 <.rdata+0xf8>
  4017aa:	e8 d4 fd ff ff       	call   401583 <printf>
  4017af:	48 8d 0d 72 f8 00 00 	lea    rcx,[rip+0xf872]        # 411028 <.rdata+0x28>
  4017b6:	e8 c8 fd ff ff       	call   401583 <printf>
  4017bb:	48 8d 0d 78 f9 00 00 	lea    rcx,[rip+0xf978]        # 41113a <.rdata+0x13a>
  4017c2:	e8 bc fd ff ff       	call   401583 <printf>
  4017c7:	48 8d 0d 72 f9 00 00 	lea    rcx,[rip+0xf972]        # 411140 <.rdata+0x140>
  4017ce:	e8 b0 fd ff ff       	call   401583 <printf>
  4017d3:	48 8d 0d 9e f9 00 00 	lea    rcx,[rip+0xf99e]        # 411178 <.rdata+0x178>
  4017da:	e8 a4 fd ff ff       	call   401583 <printf>
  4017df:	48 8d 0d a2 f9 00 00 	lea    rcx,[rip+0xf9a2]        # 411188 <.rdata+0x188>
  4017e6:	e8 98 fd ff ff       	call   401583 <printf>
  4017eb:	48 8d 0d de f9 00 00 	lea    rcx,[rip+0xf9de]        # 4111d0 <.rdata+0x1d0>
  4017f2:	e8 8c fd ff ff       	call   401583 <printf>
  4017f7:	e9 fa 71 00 00       	jmp    4089f6 <main+0x7369>
  4017fc:	83 bd 50 4c 00 00 03 	cmp    DWORD PTR [rbp+0x4c50],0x3
  401803:	0f 85 8e 00 00 00    	jne    401897 <main+0x20a>
  401809:	48 8b 85 58 4c 00 00 	mov    rax,QWORD PTR [rbp+0x4c58]
  401810:	48 83 c0 10          	add    rax,0x10
  401814:	48 8b 00             	mov    rax,QWORD PTR [rax]
  401817:	48 8d 15 f9 f9 00 00 	lea    rdx,[rip+0xf9f9]        # 411217 <.rdata+0x217>
  40181e:	48 89 c1             	mov    rcx,rax
  401821:	e8 52 d0 00 00       	call   40e878 <fopen>
  401826:	48 89 85 18 4c 00 00 	mov    QWORD PTR [rbp+0x4c18],rax
  40182d:	48 83 bd 18 4c 00 00 	cmp    QWORD PTR [rbp+0x4c18],0x0
  401834:	00 
  401835:	75 11                	jne    401848 <main+0x1bb>
  401837:	48 8d 0d dc f9 00 00 	lea    rcx,[rip+0xf9dc]        # 41121a <.rdata+0x21a>
  40183e:	e8 40 fd ff ff       	call   401583 <printf>
  401843:	e9 ae 71 00 00       	jmp    4089f6 <main+0x7369>
  401848:	48 8b 95 18 4c 00 00 	mov    rdx,QWORD PTR [rbp+0x4c18]
  40184f:	48 8d 85 80 4b 00 00 	lea    rax,[rbp+0x4b80]
  401856:	49 89 d1             	mov    r9,rdx
  401859:	41 b8 5a 00 00 00    	mov    r8d,0x5a
  40185f:	ba 04 00 00 00       	mov    edx,0x4
  401864:	48 89 c1             	mov    rcx,rax
  401867:	e8 f4 cf 00 00       	call   40e860 <fread>
  40186c:	0f b6 85 80 4b 00 00 	movzx  eax,BYTE PTR [rbp+0x4b80]
  401873:	3c 7d                	cmp    al,0x7d
  401875:	74 11                	je     401888 <main+0x1fb>
  401877:	48 8d 0d ad f9 00 00 	lea    rcx,[rip+0xf9ad]        # 41122b <.rdata+0x22b>
  40187e:	e8 00 fd ff ff       	call   401583 <printf>
  401883:	e9 6e 71 00 00       	jmp    4089f6 <main+0x7369>
  401888:	48 8b 85 18 4c 00 00 	mov    rax,QWORD PTR [rbp+0x4c18]
  40188f:	48 89 c1             	mov    rcx,rax
  401892:	e8 e9 cf 00 00       	call   40e880 <fclose>
  401897:	48 c7 85 20 4a 00 00 	mov    QWORD PTR [rbp+0x4a20],0x6005000
  40189e:	00 50 00 06 
  4018a2:	48 c7 85 28 4a 00 00 	mov    QWORD PTR [rbp+0x4a28],0x0
  4018a9:	00 00 00 00 
  4018ad:	48 8d 95 30 4a 00 00 	lea    rdx,[rbp+0x4a30]
  4018b4:	b8 00 00 00 00       	mov    eax,0x0
  4018b9:	b9 1f 00 00 00       	mov    ecx,0x1f
  4018be:	48 89 d7             	mov    rdi,rdx
  4018c1:	f3 48 ab             	rep stos QWORD PTR es:[rdi],rax
  4018c4:	48 89 fa             	mov    rdx,rdi
  4018c7:	89 02                	mov    DWORD PTR [rdx],eax
  4018c9:	48 83 c2 04          	add    rdx,0x4
  4018cd:	66 89 02             	mov    WORD PTR [rdx],ax
  4018d0:	48 83 c2 02          	add    rdx,0x2
  4018d4:	48 b8 00 3e 82 00 02 	movabs rax,0x200823e00
  4018db:	00 00 00 
  4018de:	ba 00 00 00 00       	mov    edx,0x0
  4018e3:	48 89 85 10 49 00 00 	mov    QWORD PTR [rbp+0x4910],rax
  4018ea:	48 89 95 18 49 00 00 	mov    QWORD PTR [rbp+0x4918],rdx
  4018f1:	48 8d 95 20 49 00 00 	lea    rdx,[rbp+0x4920]
  4018f8:	b8 00 00 00 00       	mov    eax,0x0
  4018fd:	b9 1f 00 00 00       	mov    ecx,0x1f
  401902:	48 89 d7             	mov    rdi,rdx
  401905:	f3 48 ab             	rep stos QWORD PTR es:[rdi],rax
  401908:	48 89 fa             	mov    rdx,rdi
  40190b:	89 02                	mov    DWORD PTR [rdx],eax
  40190d:	48 83 c2 04          	add    rdx,0x4
  401911:	66 89 02             	mov    WORD PTR [rdx],ax
  401914:	48 83 c2 02          	add    rdx,0x2
  401918:	48 c7 85 00 48 00 00 	mov    QWORD PTR [rbp+0x4800],0xe00
  40191f:	00 0e 00 00 
  401923:	48 c7 85 08 48 00 00 	mov    QWORD PTR [rbp+0x4808],0x0
  40192a:	00 00 00 00 
  40192e:	48 8d 95 10 48 00 00 	lea    rdx,[rbp+0x4810]
  401935:	b8 00 00 00 00       	mov    eax,0x0
  40193a:	b9 1f 00 00 00       	mov    ecx,0x1f
  40193f:	48 89 d7             	mov    rdi,rdx
  401942:	f3 48 ab             	rep stos QWORD PTR es:[rdi],rax
  401945:	48 89 fa             	mov    rdx,rdi
  401948:	89 02                	mov    DWORD PTR [rdx],eax
  40194a:	48 83 c2 04          	add    rdx,0x4
  40194e:	66 89 02             	mov    WORD PTR [rdx],ax
  401951:	48 83 c2 02          	add    rdx,0x2
  401955:	48 c7 85 f0 46 00 00 	mov    QWORD PTR [rbp+0x46f0],0x6005000
  40195c:	00 50 00 06 
  401960:	48 c7 85 f8 46 00 00 	mov    QWORD PTR [rbp+0x46f8],0x0
  401967:	00 00 00 00 
  40196b:	48 8d 95 00 47 00 00 	lea    rdx,[rbp+0x4700]
  401972:	b8 00 00 00 00       	mov    eax,0x0
  401977:	b9 1f 00 00 00       	mov    ecx,0x1f
  40197c:	48 89 d7             	mov    rdi,rdx
  40197f:	f3 48 ab             	rep stos QWORD PTR es:[rdi],rax
  401982:	48 89 fa             	mov    rdx,rdi
  401985:	89 02                	mov    DWORD PTR [rdx],eax
  401987:	48 83 c2 04          	add    rdx,0x4
  40198b:	66 89 02             	mov    WORD PTR [rdx],ax
  40198e:	48 83 c2 02          	add    rdx,0x2
  401992:	48 b8 00 58 82 00 ff 	movabs rax,0xff00825800
  401999:	00 00 00 
  40199c:	ba 00 00 00 00       	mov    edx,0x0
  4019a1:	48 89 85 e0 45 00 00 	mov    QWORD PTR [rbp+0x45e0],rax
  4019a8:	48 89 95 e8 45 00 00 	mov    QWORD PTR [rbp+0x45e8],rdx
  4019af:	48 8d 95 f0 45 00 00 	lea    rdx,[rbp+0x45f0]
  4019b6:	b8 00 00 00 00       	mov    eax,0x0
  4019bb:	b9 1f 00 00 00       	mov    ecx,0x1f
  4019c0:	48 89 d7             	mov    rdi,rdx
  4019c3:	f3 48 ab             	rep stos QWORD PTR es:[rdi],rax
  4019c6:	48 89 fa             	mov    rdx,rdi
  4019c9:	89 02                	mov    DWORD PTR [rdx],eax
  4019cb:	48 83 c2 04          	add    rdx,0x4
  4019cf:	66 89 02             	mov    WORD PTR [rdx],ax
  4019d2:	48 83 c2 02          	add    rdx,0x2
  4019d6:	48 b8 e4 90 06 a8 f0 	movabs rax,0xe81812f0a80690e4
  4019dd:	12 18 e8 
  4019e0:	48 ba d2 af f5 b8 75 	movabs rdx,0x7503de75b8f5afd2
  4019e7:	de 03 75 
  4019ea:	48 89 85 d0 44 00 00 	mov    QWORD PTR [rbp+0x44d0],rax
  4019f1:	48 89 95 d8 44 00 00 	mov    QWORD PTR [rbp+0x44d8],rdx
  4019f8:	48 b8 e1 01 75 da 11 	movabs rax,0x123b7f11da7501e1
  4019ff:	7f 3b 12 
  401a02:	48 ba 1d d3 7f 24 12 	movabs rdx,0xe4d31d12247fd31d
  401a09:	1d d3 e4 
  401a0c:	48 89 85 e0 44 00 00 	mov    QWORD PTR [rbp+0x44e0],rax
  401a13:	48 89 95 e8 44 00 00 	mov    QWORD PTR [rbp+0x44e8],rdx
  401a1a:	48 b8 ff 12 0d 4c 7f 	movabs rax,0xd12427f4c0d12ff
  401a21:	42 12 0d 
  401a24:	48 ba 4c 7f 30 12 1d 	movabs rdx,0x1b12d31d12307f4c
  401a2b:	d3 12 1b 
  401a2e:	48 89 85 f0 44 00 00 	mov    QWORD PTR [rbp+0x44f0],rax
  401a35:	48 89 95 f8 44 00 00 	mov    QWORD PTR [rbp+0x44f8],rdx
  401a3c:	48 b8 98 12 1d df 90 	movabs rax,0xef0d0090df1d1298
  401a43:	00 0d ef 
  401a46:	48 ba f0 12 1d df 90 	movabs rdx,0xef0e0090df1d12f0
  401a4d:	00 0e ef 
  401a50:	48 89 85 00 45 00 00 	mov    QWORD PTR [rbp+0x4500],rax
  401a57:	48 89 95 08 45 00 00 	mov    QWORD PTR [rbp+0x4508],rdx
  401a5e:	48 b8 f0 90 00 0d e0 	movabs rax,0x606664e00d0090f0
  401a65:	64 66 60 
  401a68:	48 ba 08 12 1d df 90 	movabs rdx,0xef0f0090df1d1208
  401a6f:	00 0f ef 
  401a72:	48 89 85 10 45 00 00 	mov    QWORD PTR [rbp+0x4510],rax
  401a79:	48 89 95 18 45 00 00 	mov    QWORD PTR [rbp+0x4518],rdx
  401a80:	48 b8 f0 90 00 0d e0 	movabs rax,0x911412e00d0090f0
  401a87:	12 14 91 
  401a8a:	48 ba 05 87 10 05 c8 	movabs rdx,0xeb0a11c805108705
  401a91:	11 0a eb 
  401a94:	48 89 85 20 45 00 00 	mov    QWORD PTR [rbp+0x4520],rax
  401a9b:	48 89 95 28 45 00 00 	mov    QWORD PTR [rbp+0x4528],rdx
  401aa2:	48 b8 12 08 17 14 02 	movabs rax,0x61a7a0214170812
  401aa9:	7a 1a 06 
  401aac:	48 ba 92 1c 04 62 1e 	movabs rdx,0x1f34041e62041c92
  401ab3:	04 34 1f 
  401ab6:	48 89 85 30 45 00 00 	mov    QWORD PTR [rbp+0x4530],rax
  401abd:	48 89 95 38 45 00 00 	mov    QWORD PTR [rbp+0x4538],rdx
  401ac4:	48 b8 0c b0 66 04 b1 	movabs rax,0xddb10466b00c
  401acb:	dd 00 00 
  401ace:	48 ba 0c e5 12 0d 21 	movabs rdx,0x140290210d12e50c
  401ad5:	90 02 14 
  401ad8:	48 89 85 40 45 00 00 	mov    QWORD PTR [rbp+0x4540],rax
  401adf:	48 89 95 48 45 00 00 	mov    QWORD PTR [rbp+0x4548],rdx
  401ae6:	48 b8 e0 04 f0 90 00 	movabs rax,0x14e00e0090f004e0
  401aed:	0e e0 14 
  401af0:	48 ba 70 03 02 03 66 	movabs rdx,0x370146603020370
  401af7:	14 70 03 
  401afa:	48 89 85 50 45 00 00 	mov    QWORD PTR [rbp+0x4550],rax
  401b01:	48 89 95 58 45 00 00 	mov    QWORD PTR [rbp+0x4558],rdx
  401b08:	48 b8 02 03 94 14 70 	movabs rax,0x302037014940302
  401b0f:	03 02 03 
  401b12:	48 ba bd 24 03 60 03 	movabs rdx,0x32040203600324bd
  401b19:	02 04 32 
  401b1c:	48 89 85 60 45 00 00 	mov    QWORD PTR [rbp+0x4560],rax
  401b23:	48 89 95 68 45 00 00 	mov    QWORD PTR [rbp+0x4568],rdx
  401b2a:	48 b8 90 00 0f e0 f4 	movabs rax,0x908a70f4e00f0090
  401b31:	70 8a 90 
  401b34:	48 ba 02 14 e0 64 01 	movabs rdx,0x7b82700164e01402
  401b3b:	70 82 7b 
  401b3e:	48 89 85 70 45 00 00 	mov    QWORD PTR [rbp+0x4570],rax
  401b45:	48 89 95 78 45 00 00 	mov    QWORD PTR [rbp+0x4578],rdx
  401b4c:	48 b8 01 7a 00 79 12 	movabs rax,0x12fcfd1279007a01
  401b53:	fd fc 12 
  401b56:	48 ba 1d 15 12 1c 79 	movabs rdx,0x12a17f791c12151d
  401b5d:	7f a1 12 
  401b60:	48 89 85 80 45 00 00 	mov    QWORD PTR [rbp+0x4580],rax
  401b67:	48 89 95 88 45 00 00 	mov    QWORD PTR [rbp+0x4588],rdx
  401b6e:	48 b8 1d d3 12 19 33 	movabs rax,0xa80690331912d31d
  401b75:	90 06 a8 
  401b78:	48 ba e0 fe a3 e0 ff 	movabs rdx,0xff94c3ffe0a3fee0
  401b7f:	c3 94 ff 
  401b82:	48 89 85 90 45 00 00 	mov    QWORD PTR [rbp+0x4590],rax
  401b89:	48 89 95 98 45 00 00 	mov    QWORD PTR [rbp+0x4598],rdx
  401b90:	48 b8 ee 64 80 94 80 	movabs rax,0x2034080948064ee
  401b97:	40 03 02 
  401b9a:	48 ba 03 58 ef 64 87 	movabs rdx,0x6604e8764ef5803
  401ba1:	4e 60 06 
  401ba4:	48 89 85 a0 45 00 00 	mov    QWORD PTR [rbp+0x45a0],rax
  401bab:	48 89 95 a8 45 00 00 	mov    QWORD PTR [rbp+0x45a8],rdx
  401bb2:	48 b8 ef 64 da 4e 70 	movabs rax,0x12740d704eda64ef
  401bb9:	0d 74 12 
  401bbc:	48 ba 2f 12 18 d5 ff 	movabs rdx,0xf40690ffd518122f
  401bc3:	90 06 f4 
  401bc6:	48 89 85 b0 45 00 00 	mov    QWORD PTR [rbp+0x45b0],rax
  401bcd:	48 89 95 b8 45 00 00 	mov    QWORD PTR [rbp+0x45b8],rdx
  401bd4:	48 b8 e0 2f f0 12 18 	movabs rax,0x12ffcc1812f02fe0
  401bdb:	cc ff 12 
  401bde:	48 ba 1d d3 90 06 a8 	movabs rdx,0xfae0a80690d31d
  401be5:	e0 fa 00 
  401be8:	48 89 85 c0 45 00 00 	mov    QWORD PTR [rbp+0x45c0],rax
  401bef:	48 89 95 c8 45 00 00 	mov    QWORD PTR [rbp+0x45c8],rdx
  401bf6:	48 c7 85 d0 45 00 00 	mov    QWORD PTR [rbp+0x45d0],0x0
  401bfd:	00 00 00 00 
  401c01:	c7 85 d8 45 00 00 00 	mov    DWORD PTR [rbp+0x45d8],0x0
  401c08:	00 00 00 
  401c0b:	66 c7 85 dc 45 00 00 	mov    WORD PTR [rbp+0x45dc],0x0
  401c12:	00 00 
  401c14:	48 b8 00 58 82 ff ff 	movabs rax,0xffff825800
  401c1b:	00 00 00 
  401c1e:	ba 00 00 00 00       	mov    edx,0x0
  401c23:	48 89 85 c0 43 00 00 	mov    QWORD PTR [rbp+0x43c0],rax
  401c2a:	48 89 95 c8 43 00 00 	mov    QWORD PTR [rbp+0x43c8],rdx
  401c31:	48 8d 95 d0 43 00 00 	lea    rdx,[rbp+0x43d0]
  401c38:	b8 00 00 00 00       	mov    eax,0x0
  401c3d:	b9 1f 00 00 00       	mov    ecx,0x1f
  401c42:	48 89 d7             	mov    rdi,rdx
  401c45:	f3 48 ab             	rep stos QWORD PTR es:[rdi],rax
  401c48:	48 89 fa             	mov    rdx,rdi
  401c4b:	89 02                	mov    DWORD PTR [rdx],eax
  401c4d:	48 83 c2 04          	add    rdx,0x4
  401c51:	66 89 02             	mov    WORD PTR [rdx],ax
  401c54:	48 83 c2 02          	add    rdx,0x2
  401c58:	48 b8 a3 e0 fb 7c 00 	movabs rax,0xff027d007cfbe0a3
  401c5f:	7d 02 ff 
  401c62:	48 ba ae 02 12 13 e6 	movabs rdx,0x164ede6131202ae
  401c69:	ed 64 01 
  401c6c:	48 89 85 b0 42 00 00 	mov    QWORD PTR [rbp+0x42b0],rax
  401c73:	48 89 95 b8 42 00 00 	mov    QWORD PTR [rbp+0x42b8],rdx
  401c7a:	48 b8 4c 70 13 74 12 	movabs rax,0x82f52b127413704c
  401c81:	2b f5 82 
  401c84:	48 ba 74 00 3a f5 83 	movabs rdx,0x1313e083f53a0074
  401c8b:	e0 13 13 
  401c8e:	48 89 85 c0 42 00 00 	mov    QWORD PTR [rbp+0x42c0],rax
  401c95:	48 89 95 c8 42 00 00 	mov    QWORD PTR [rbp+0x42c8],rdx
  401c9c:	48 b8 13 54 1f f0 80 	movabs rax,0x18120880f01f5413
  401ca3:	08 12 18 
  401ca6:	48 ba cc c4 13 54 07 	movabs rdx,0x690f0075413c4cc
  401cad:	f0 90 06 
  401cb0:	48 89 85 d0 42 00 00 	mov    QWORD PTR [rbp+0x42d0],rax
  401cb7:	48 89 95 d8 42 00 00 	mov    QWORD PTR [rbp+0x42d8],rdx
  401cbe:	48 b8 a8 e0 fe a3 e0 	movabs rax,0x1812ffe0a3fee0a8
  401cc5:	ff 12 18 
  401cc8:	48 ba d3 fd 90 02 12 	movabs rdx,0xf02de0120290fdd3
  401ccf:	e0 2d f0 
  401cd2:	48 89 85 e0 42 00 00 	mov    QWORD PTR [rbp+0x42e0],rax
  401cd9:	48 89 95 e8 42 00 00 	mov    QWORD PTR [rbp+0x42e8],rdx
  401ce0:	48 b8 90 02 15 e0 fd 	movabs rax,0x2f1274fde0150290
  401ce7:	74 12 2f 
  401cea:	48 ba 12 18 d5 ff c3 	movabs rdx,0x909fedc3ffd51812
  401cf1:	ed 9f 90 
  401cf4:	48 89 85 f0 42 00 00 	mov    QWORD PTR [rbp+0x42f0],rax
  401cfb:	48 89 95 f8 42 00 00 	mov    QWORD PTR [rbp+0x42f8],rdx
  401d02:	48 b8 02 15 f0 12 19 	movabs rax,0x202291912f01502
  401d09:	29 02 02 
  401d0c:	48 ba c5 90 02 13 74 	movabs rdx,0x90f00174130290c5
  401d13:	01 f0 90 
  401d16:	48 89 85 00 43 00 00 	mov    QWORD PTR [rbp+0x4300],rax
  401d1d:	48 89 95 08 43 00 00 	mov    QWORD PTR [rbp+0x4308],rdx
  401d24:	48 b8 06 f4 e0 ff 02 	movabs rax,0x12ab0402ffe0f406
  401d2b:	04 ab 12 
  401d2e:	48 ba 0d 43 12 0d 70 	movabs rdx,0x122460700d12430d
  401d35:	60 24 12 
  401d38:	48 89 85 10 43 00 00 	mov    QWORD PTR [rbp+0x4310],rax
  401d3f:	48 89 95 18 43 00 00 	mov    QWORD PTR [rbp+0x4318],rdx
  401d46:	48 b8 19 66 70 1f 12 	movabs rax,0x6f7c19121f706619
  401d4d:	19 7c 6f 
  401d50:	48 ba 70 19 90 02 13 	movabs rdx,0x164e01302901970
  401d57:	e0 64 01 
  401d5a:	48 89 85 20 43 00 00 	mov    QWORD PTR [rbp+0x4320],rax
  401d61:	48 89 95 28 43 00 00 	mov    QWORD PTR [rbp+0x4328],rdx
  401d68:	48 b8 70 11 a3 e0 64 	movabs rax,0xb700264e0a31170
  401d6f:	02 70 0b 
  401d72:	48 ba 90 04 63 74 ca 	movabs rdx,0xff0c12ca74630490
  401d79:	12 0c ff 
  401d7c:	48 89 85 30 43 00 00 	mov    QWORD PTR [rbp+0x4330],rax
  401d83:	48 89 95 38 43 00 00 	mov    QWORD PTR [rbp+0x4338],rdx
  401d8a:	48 b8 02 02 31 80 fe 	movabs rax,0x430d12fe80310202
  401d91:	12 0d 43 
  401d94:	48 ba 12 0d 70 60 1f 	movabs rdx,0x6619121f60700d12
  401d9b:	12 19 66 
  401d9e:	48 89 85 40 43 00 00 	mov    QWORD PTR [rbp+0x4340],rax
  401da5:	48 89 95 48 43 00 00 	mov    QWORD PTR [rbp+0x4348],rdx
  401dac:	48 b8 70 1a 12 19 7c 	movabs rax,0x1407b57c19121a70
  401db3:	b5 07 14 
  401db6:	48 ba 90 02 13 e0 64 	movabs rdx,0xc700164e0130290
  401dbd:	01 70 0c 
  401dc0:	48 89 85 50 43 00 00 	mov    QWORD PTR [rbp+0x4350],rax
  401dc7:	48 89 95 58 43 00 00 	mov    QWORD PTR [rbp+0x4358],rdx
  401dce:	48 b8 a3 e0 64 03 70 	movabs rax,0x1c1206700364e0a3
  401dd5:	06 12 1c 
  401dd8:	48 ba d0 02 02 31 80 	movabs rdx,0xd12fe80310202d0
  401ddf:	fe 12 0d 
  401de2:	48 89 85 60 43 00 00 	mov    QWORD PTR [rbp+0x4360],rax
  401de9:	48 89 95 68 43 00 00 	mov    QWORD PTR [rbp+0x4368],rdx
  401df0:	48 b8 7a ef f0 12 19 	movabs rax,0x1200331912f0ef7a
  401df7:	33 00 12 
  401dfa:	48 ba 19 29 90 06 a8 	movabs rdx,0x470e0a806902919
  401e01:	e0 70 04 
  401e04:	48 89 85 70 43 00 00 	mov    QWORD PTR [rbp+0x4370],rax
  401e0b:	48 89 95 78 43 00 00 	mov    QWORD PTR [rbp+0x4378],rdx
  401e12:	48 b8 a3 e0 64 64 70 	movabs rax,0x1c12f0706464e0a3
  401e19:	f0 12 1c 
  401e1c:	48 ba 79 90 00 10 e0 	movabs rdx,0x700964e010009079
  401e23:	64 09 70 
  401e26:	48 89 85 80 43 00 00 	mov    QWORD PTR [rbp+0x4380],rax
  401e2d:	48 89 95 88 43 00 00 	mov    QWORD PTR [rbp+0x4388],rdx
  401e34:	48 b8 50 90 02 14 e0 	movabs rax,0x700164e014029050
  401e3b:	64 01 70 
  401e3e:	48 ba 48 90 06 f0 e0 	movabs rdx,0x1d12ffe0f0069048
  401e45:	ff 12 1d 
  401e48:	48 89 85 90 43 00 00 	mov    QWORD PTR [rbp+0x4390],rax
  401e4f:	48 89 95 98 43 00 00 	mov    QWORD PTR [rbp+0x4398],rdx
  401e56:	48 b8 d3 90 06 f1 e0 	movabs rax,0x1d12ffe0f10690d3
  401e5d:	ff 12 1d 
  401e60:	48 ba d3 90 06 f2 e0 	movabs rdx,0x12ffe0f20690d3
  401e67:	ff 12 00 
  401e6a:	48 89 85 a0 43 00 00 	mov    QWORD PTR [rbp+0x43a0],rax
  401e71:	48 89 95 a8 43 00 00 	mov    QWORD PTR [rbp+0x43a8],rdx
  401e78:	48 c7 85 b0 43 00 00 	mov    QWORD PTR [rbp+0x43b0],0x0
  401e7f:	00 00 00 00 
  401e83:	c7 85 b8 43 00 00 00 	mov    DWORD PTR [rbp+0x43b8],0x0
  401e8a:	00 00 00 
  401e8d:	66 c7 85 bc 43 00 00 	mov    WORD PTR [rbp+0x43bc],0x0
  401e94:	00 00 
  401e96:	48 b8 00 58 83 fe ff 	movabs rax,0xfffe835800
  401e9d:	00 00 00 
  401ea0:	ba 00 00 00 00       	mov    edx,0x0
  401ea5:	48 89 85 a0 41 00 00 	mov    QWORD PTR [rbp+0x41a0],rax
  401eac:	48 89 95 a8 41 00 00 	mov    QWORD PTR [rbp+0x41a8],rdx
  401eb3:	48 8d 95 b0 41 00 00 	lea    rdx,[rbp+0x41b0]
  401eba:	b8 00 00 00 00       	mov    eax,0x0
  401ebf:	b9 1f 00 00 00       	mov    ecx,0x1f
  401ec4:	48 89 d7             	mov    rdi,rdx
  401ec7:	f3 48 ab             	rep stos QWORD PTR es:[rdi],rax
  401eca:	48 89 fa             	mov    rdx,rdi
  401ecd:	89 02                	mov    DWORD PTR [rdx],eax
  401ecf:	48 83 c2 04          	add    rdx,0x4
  401ed3:	66 89 02             	mov    WORD PTR [rdx],ax
  401ed6:	48 83 c2 02          	add    rdx,0x2
  401eda:	48 b8 1d d3 90 06 f3 	movabs rax,0x12ffe0f30690d31d
  401ee1:	e0 ff 12 
  401ee4:	48 ba 1d d3 90 06 dd 	movabs rdx,0x12ffe0dd0690d31d
  401eeb:	e0 ff 12 
  401eee:	48 89 85 90 40 00 00 	mov    QWORD PTR [rbp+0x4090],rax
  401ef5:	48 89 95 98 40 00 00 	mov    QWORD PTR [rbp+0x4098],rdx
  401efc:	48 b8 1d d3 90 06 de 	movabs rax,0x12ffe0de0690d31d
  401f03:	e0 ff 12 
  401f06:	48 ba 1d d3 90 06 df 	movabs rdx,0x12ffe0df0690d31d
  401f0d:	e0 ff 12 
  401f10:	48 89 85 a0 40 00 00 	mov    QWORD PTR [rbp+0x40a0],rax
  401f17:	48 89 95 a8 40 00 00 	mov    QWORD PTR [rbp+0x40a8],rdx
  401f1e:	48 b8 1d d3 90 06 e0 	movabs rax,0x12ffe0e00690d31d
  401f25:	e0 ff 12 
  401f28:	48 ba 1d d3 90 04 5d 	movabs rdx,0x12ffe05d0490d31d
  401f2f:	e0 ff 12 
  401f32:	48 89 85 b0 40 00 00 	mov    QWORD PTR [rbp+0x40b0],rax
  401f39:	48 89 95 b8 40 00 00 	mov    QWORD PTR [rbp+0x40b8],rdx
  401f40:	48 b8 1d d3 80 fe 80 	movabs rax,0xd12fe80fe80d31d
  401f47:	fe 12 0d 
  401f4a:	48 ba 55 70 1d 12 0d 	movabs rdx,0x6fe0810d121d7055
  401f51:	81 e0 6f 
  401f54:	48 89 85 c0 40 00 00 	mov    QWORD PTR [rbp+0x40c0],rax
  401f5b:	48 89 95 c8 40 00 00 	mov    QWORD PTR [rbp+0x40c8],rdx
  401f62:	48 b8 70 16 12 0d 88 	movabs rax,0x706fe0880d121670
  401f69:	e0 6f 70 
  401f6c:	48 ba 0f 12 0d 8f e0 	movabs rdx,0x807b5e08f0d120f
  401f73:	b5 07 08 
  401f76:	48 89 85 d0 40 00 00 	mov    QWORD PTR [rbp+0x40d0],rax
  401f7d:	48 89 95 d8 40 00 00 	mov    QWORD PTR [rbp+0x40d8],rdx
  401f84:	48 b8 12 1d df 90 04 	movabs rax,0x4480980490df1d12
  401f8b:	98 80 44 
  401f8e:	48 ba 12 1d df 7f 90 	movabs rdx,0xd31d12907fdf1d12
  401f95:	12 1d d3 
  401f98:	48 89 85 e0 40 00 00 	mov    QWORD PTR [rbp+0x40e0],rax
  401f9f:	48 89 95 e8 40 00 00 	mov    QWORD PTR [rbp+0x40e8],rdx
  401fa6:	48 b8 7f 17 80 49 12 	movabs rax,0x70550d124980177f
  401fad:	0d 55 70 
  401fb0:	48 ba 3a 12 0d 81 e0 	movabs rdx,0x33706fe0810d123a
  401fb7:	6f 70 33 
  401fba:	48 89 85 f0 40 00 00 	mov    QWORD PTR [rbp+0x40f0],rax
  401fc1:	48 89 95 f8 40 00 00 	mov    QWORD PTR [rbp+0x40f8],rdx
  401fc8:	48 b8 12 0d 88 e0 6f 	movabs rax,0x122c706fe0880d12
  401fcf:	70 2c 12 
  401fd2:	48 ba 0d 8f e0 6f 70 	movabs rdx,0x1d1225706fe08f0d
  401fd9:	25 12 1d 
  401fdc:	48 89 85 00 41 00 00 	mov    QWORD PTR [rbp+0x4100],rax
  401fe3:	48 89 95 08 41 00 00 	mov    QWORD PTR [rbp+0x4108],rdx
  401fea:	48 b8 df 90 04 99 ef 	movabs rax,0x1d12f0ef990490df
  401ff1:	f0 12 1d 
  401ff4:	48 ba df 90 04 9a ef 	movabs rdx,0x1d12f0ef9a0490df
  401ffb:	f0 12 1d 
  401ffe:	48 89 85 10 41 00 00 	mov    QWORD PTR [rbp+0x4110],rax
  402005:	48 89 95 18 41 00 00 	mov    QWORD PTR [rbp+0x4118],rdx
  40200c:	48 b8 df 90 04 9b ef 	movabs rax,0x1d12f0ef9b0490df
  402013:	f0 12 1d 
  402016:	48 ba df 90 04 9c ef 	movabs rdx,0xff0c12ef9c0490df
  40201d:	12 0c ff 
  402020:	48 89 85 20 41 00 00 	mov    QWORD PTR [rbp+0x4120],rax
  402027:	48 89 95 28 41 00 00 	mov    QWORD PTR [rbp+0x4128],rdx
  40202e:	48 b8 02 0c ac 12 0d 	movabs rax,0x907f140d12ac0c02
  402035:	14 7f 90 
  402038:	48 ba 12 1d d3 7f 17 	movabs rdx,0xd31d12177fd31d12
  40203f:	12 1d d3 
  402042:	48 89 85 30 41 00 00 	mov    QWORD PTR [rbp+0x4130],rax
  402049:	48 89 95 38 41 00 00 	mov    QWORD PTR [rbp+0x4138],rdx
  402050:	48 b8 02 02 31 12 0d 	movabs rax,0xf0ef7a0d12310202
  402057:	7a ef f0 
  40205a:	48 ba 12 1d df 90 00 	movabs rdx,0xf0ef110090df1d12
  402061:	11 ef f0 
  402064:	48 89 85 40 41 00 00 	mov    QWORD PTR [rbp+0x4140],rax
  40206b:	48 89 95 48 41 00 00 	mov    QWORD PTR [rbp+0x4148],rdx
  402072:	48 b8 12 1c 79 90 00 	movabs rax,0xffe00e0090791c12
  402079:	0e e0 ff 
  40207c:	48 ba 12 1d d3 90 00 	movabs rdx,0x24e00e0090d31d12
  402083:	0e e0 24 
  402086:	48 89 85 50 41 00 00 	mov    QWORD PTR [rbp+0x4150],rax
  40208d:	48 89 95 58 41 00 00 	mov    QWORD PTR [rbp+0x4158],rdx
  402094:	48 b8 ef 60 40 24 47 	movabs rax,0x240a6047244060ef
  40209b:	60 0a 24 
  40209e:	48 ba 31 60 03 02 02 	movabs rdx,0xc02310202036031
  4020a5:	31 02 0c 
  4020a8:	48 89 85 60 41 00 00 	mov    QWORD PTR [rbp+0x4160],rax
  4020af:	48 89 95 68 41 00 00 	mov    QWORD PTR [rbp+0x4168],rdx
  4020b6:	48 b8 ac 12 19 33 90 	movabs rax,0xe0110090331912ac
  4020bd:	00 11 e0 
  4020c0:	48 ba ff 90 06 a8 e0 	movabs rdx,0xe0a3fce0a80690ff
  4020c7:	fc a3 e0 
  4020ca:	48 89 85 70 41 00 00 	mov    QWORD PTR [rbp+0x4170],rax
  4020d1:	48 89 95 78 41 00 00 	mov    QWORD PTR [rbp+0x4178],rdx
  4020d8:	48 b8 fd c3 9f 74 80 	movabs rax,0x64ecf880749fc3fd
  4020df:	f8 ec 64 
  4020e2:	48 ba 80 98 50 14 74 	movabs rdx,0x2d127414509880
  4020e9:	12 2d 00 
  4020ec:	48 89 85 80 41 00 00 	mov    QWORD PTR [rbp+0x4180],rax
  4020f3:	48 89 95 88 41 00 00 	mov    QWORD PTR [rbp+0x4188],rdx
  4020fa:	48 c7 85 90 41 00 00 	mov    QWORD PTR [rbp+0x4190],0x0
  402101:	00 00 00 00 
  402105:	c7 85 98 41 00 00 00 	mov    DWORD PTR [rbp+0x4198],0x0
  40210c:	00 00 00 
  40210f:	66 c7 85 9c 41 00 00 	mov    WORD PTR [rbp+0x419c],0x0
  402116:	00 00 
  402118:	48 b8 00 58 84 fd ff 	movabs rax,0xfffd845800
  40211f:	00 00 00 
  402122:	ba 00 00 00 00       	mov    edx,0x0
  402127:	48 89 85 80 3f 00 00 	mov    QWORD PTR [rbp+0x3f80],rax
  40212e:	48 89 95 88 3f 00 00 	mov    QWORD PTR [rbp+0x3f88],rdx
  402135:	48 8d 95 90 3f 00 00 	lea    rdx,[rbp+0x3f90]
  40213c:	b8 00 00 00 00       	mov    eax,0x0
  402141:	b9 1f 00 00 00       	mov    ecx,0x1f
  402146:	48 89 d7             	mov    rdi,rdx
  402149:	f3 48 ab             	rep stos QWORD PTR es:[rdi],rax
  40214c:	48 89 fa             	mov    rdx,rdi
  40214f:	89 02                	mov    DWORD PTR [rdx],eax
  402151:	48 83 c2 04          	add    rdx,0x4
  402155:	66 89 02             	mov    WORD PTR [rdx],ax
  402158:	48 83 c2 02          	add    rdx,0x2
  40215c:	48 b8 f5 82 74 00 3c 	movabs rax,0xe083f53c007482f5
  402163:	f5 83 e0 
  402166:	48 ba ff 12 1d d3 12 	movabs rdx,0x80291912d31d12ff
  40216d:	19 29 80 
  402170:	48 89 85 70 3e 00 00 	mov    QWORD PTR [rbp+0x3e70],rax
  402177:	48 89 95 78 3e 00 00 	mov    QWORD PTR [rbp+0x3e78],rdx
  40217e:	48 b8 d4 02 0c ac 90 	movabs rax,0x74120090ac0c02d4
  402185:	00 12 74 
  402188:	48 ba 7e f0 a3 74 33 	movabs rdx,0x74a3f03374a3f07e
  40218f:	f0 a3 74 
  402192:	48 89 85 80 3e 00 00 	mov    QWORD PTR [rbp+0x3e80],rax
  402199:	48 89 95 88 3e 00 00 	mov    QWORD PTR [rbp+0x3e88],rdx
  4021a0:	48 b8 a2 f0 a3 74 78 	movabs rax,0x74a3f07874a3f0a2
  4021a7:	f0 a3 74 
  4021aa:	48 ba b3 f0 a3 74 61 	movabs rdx,0x74a3f06174a3f0b3
  4021b1:	f0 a3 74 
  4021b4:	48 89 85 90 3e 00 00 	mov    QWORD PTR [rbp+0x3e90],rax
  4021bb:	48 89 95 98 3e 00 00 	mov    QWORD PTR [rbp+0x3e98],rdx
  4021c2:	48 b8 7a f0 a3 74 30 	movabs rax,0x74a3f03074a3f07a
  4021c9:	f0 a3 74 
  4021cc:	48 ba 9b f0 a3 74 18 	movabs rdx,0x74a3f01874a3f09b
  4021d3:	f0 a3 74 
  4021d6:	48 89 85 a0 3e 00 00 	mov    QWORD PTR [rbp+0x3ea0],rax
  4021dd:	48 89 95 a8 3e 00 00 	mov    QWORD PTR [rbp+0x3ea8],rdx
  4021e4:	48 b8 22 12 19 86 74 	movabs rax,0xa3f0377486191222
  4021eb:	37 f0 a3 
  4021ee:	48 ba 74 2a f0 a3 74 	movabs rdx,0xa3f02374a3f02a74
  4021f5:	23 f0 a3 
  4021f8:	48 89 85 b0 3e 00 00 	mov    QWORD PTR [rbp+0x3eb0],rax
  4021ff:	48 89 95 b8 3e 00 00 	mov    QWORD PTR [rbp+0x3eb8],rdx
  402206:	48 b8 74 19 f0 a3 74 	movabs rax,0xa3f04574a3f01974
  40220d:	45 f0 a3 
  402210:	48 ba 74 90 f0 a3 74 	movabs rdx,0xa3f04c74a3f09074
  402217:	4c f0 a3 
  40221a:	48 89 85 c0 3e 00 00 	mov    QWORD PTR [rbp+0x3ec0],rax
  402221:	48 89 95 c8 3e 00 00 	mov    QWORD PTR [rbp+0x3ec8],rdx
  402228:	48 b8 74 4a f0 a3 74 	movabs rax,0xa3f0d874a3f04a74
  40222f:	d8 f0 a3 
  402232:	48 ba 74 46 f0 a3 74 	movabs rdx,0xa3f05474a3f04674
  402239:	54 f0 a3 
  40223c:	48 89 85 d0 3e 00 00 	mov    QWORD PTR [rbp+0x3ed0],rax
  402243:	48 89 95 d8 3e 00 00 	mov    QWORD PTR [rbp+0x3ed8],rdx
  40224a:	48 b8 74 99 f0 12 19 	movabs rax,0xfde43b1912f09974
  402251:	3b e4 fd 
  402254:	48 ba 7f 01 12 11 e5 	movabs rdx,0x3b1912e51112017f
  40225b:	12 19 3b 
  40225e:	48 89 85 e0 3e 00 00 	mov    QWORD PTR [rbp+0x3ee0],rax
  402265:	48 89 95 e8 3e 00 00 	mov    QWORD PTR [rbp+0x3ee8],rdx
  40226c:	48 b8 7d 10 7f 01 12 	movabs rax,0x2e51112017f107d
  402273:	11 e5 02 
  402276:	48 ba 0c ac 12 0d 96 	movabs rdx,0x122074960d12ac0c
  40227d:	74 20 12 
  402280:	48 89 85 f0 3e 00 00 	mov    QWORD PTR [rbp+0x3ef0],rax
  402287:	48 89 95 f8 3e 00 00 	mov    QWORD PTR [rbp+0x3ef8],rdx
  40228e:	48 b8 19 8d 74 40 f0 	movabs rax,0x2874a3f040748d19
  402295:	a3 74 28 
  402298:	48 ba f0 74 02 12 19 	movabs rdx,0x907119120274f0
  40229f:	71 90 00 
  4022a2:	48 89 85 00 3f 00 00 	mov    QWORD PTR [rbp+0x3f00],rax
  4022a9:	48 89 95 08 3f 00 00 	mov    QWORD PTR [rbp+0x3f08],rdx
  4022b0:	48 b8 18 12 19 86 74 	movabs rax,0xe4f0027486191218
  4022b7:	02 f0 e4 
  4022ba:	48 ba a3 f0 a3 74 2c 	movabs rdx,0x74a3f02c74a3f0a3
  4022c1:	f0 a3 74 
  4022c4:	48 89 85 10 3f 00 00 	mov    QWORD PTR [rbp+0x3f10],rax
  4022cb:	48 89 95 18 3f 00 00 	mov    QWORD PTR [rbp+0x3f18],rdx
  4022d2:	48 b8 30 f0 a3 74 01 	movabs rax,0x490f00174a3f030
  4022d9:	f0 90 04 
  4022dc:	48 ba 98 e0 90 00 1f 	movabs rdx,0x74a3f01f0090e098
  4022e3:	f0 a3 74 
  4022e6:	48 89 85 20 3f 00 00 	mov    QWORD PTR [rbp+0x3f20],rax
  4022ed:	48 89 95 28 3f 00 00 	mov    QWORD PTR [rbp+0x3f28],rdx
  4022f4:	48 b8 23 12 19 8d 04 	movabs rax,0x117ff0048d191223
  4022fb:	f0 7f 11 
  4022fe:	48 ba 02 0c df 12 19 	movabs rdx,0xd12331912df0c02
  402305:	33 12 0d 
  402308:	48 89 85 30 3f 00 00 	mov    QWORD PTR [rbp+0x3f30],rax
  40230f:	48 89 95 38 3f 00 00 	mov    QWORD PTR [rbp+0x3f38],rdx
  402316:	48 b8 35 c3 90 06 a9 	movabs rax,0xb94e0a90690c335
  40231d:	e0 94 0b 
  402320:	48 ba 90 06 a8 e0 64 	movabs rdx,0x80948064e0a80690
  402327:	80 94 80 
  40232a:	48 89 85 40 3f 00 00 	mov    QWORD PTR [rbp+0x3f40],rax
  402331:	48 89 95 48 3f 00 00 	mov    QWORD PTR [rbp+0x3f48],rdx
  402338:	48 b8 40 ec 90 00 11 	movabs rax,0xe64e0110090ec40
  40233f:	e0 64 0e 
  402342:	48 ba 70 04 ff 02 0c 	movabs rdx,0x1d12df0c02ff0470
  402349:	df 12 1d 
  40234c:	48 89 85 50 3f 00 00 	mov    QWORD PTR [rbp+0x3f50],rax
  402353:	48 89 95 58 3f 00 00 	mov    QWORD PTR [rbp+0x3f58],rdx
  40235a:	48 b8 df 90 06 f4 ef 	movabs rax,0x1d12f0eff40690df
  402361:	f0 12 1d 
  402364:	48 ba df 90 06 f5 ef 	movabs rdx,0x12f0eff50690df
  40236b:	f0 12 00 
  40236e:	48 89 85 60 3f 00 00 	mov    QWORD PTR [rbp+0x3f60],rax
  402375:	48 89 95 68 3f 00 00 	mov    QWORD PTR [rbp+0x3f68],rdx
  40237c:	48 c7 85 70 3f 00 00 	mov    QWORD PTR [rbp+0x3f70],0x0
  402383:	00 00 00 00 
  402387:	c7 85 78 3f 00 00 00 	mov    DWORD PTR [rbp+0x3f78],0x0
  40238e:	00 00 00 
  402391:	66 c7 85 7c 3f 00 00 	mov    WORD PTR [rbp+0x3f7c],0x0
  402398:	00 00 
  40239a:	48 b8 00 58 85 fc ff 	movabs rax,0xfffc855800
  4023a1:	00 00 00 
  4023a4:	ba 00 00 00 00       	mov    edx,0x0
  4023a9:	48 89 85 60 3d 00 00 	mov    QWORD PTR [rbp+0x3d60],rax
  4023b0:	48 89 95 68 3d 00 00 	mov    QWORD PTR [rbp+0x3d68],rdx
  4023b7:	48 8d 95 70 3d 00 00 	lea    rdx,[rbp+0x3d70]
  4023be:	b8 00 00 00 00       	mov    eax,0x0
  4023c3:	b9 1f 00 00 00       	mov    ecx,0x1f
  4023c8:	48 89 d7             	mov    rdi,rdx
  4023cb:	f3 48 ab             	rep stos QWORD PTR es:[rdi],rax
  4023ce:	48 89 fa             	mov    rdx,rdi
  4023d1:	89 02                	mov    DWORD PTR [rdx],eax
  4023d3:	48 83 c2 04          	add    rdx,0x4
  4023d7:	66 89 02             	mov    WORD PTR [rdx],ax
  4023da:	48 83 c2 02          	add    rdx,0x2
  4023de:	48 b8 1d df 90 06 f6 	movabs rax,0x90f0eff60690df1d
  4023e5:	ef f0 90 
  4023e8:	48 ba 06 a8 e4 f0 a3 	movabs rdx,0xf01174a3f0e4a806
  4023ef:	74 11 f0 
  4023f2:	48 89 85 50 3c 00 00 	mov    QWORD PTR [rbp+0x3c50],rax
  4023f9:	48 89 95 58 3c 00 00 	mov    QWORD PTR [rbp+0x3c58],rdx
  402400:	48 b8 90 00 11 e0 ff 	movabs rax,0x690c3ffe0110090
  402407:	c3 90 06 
  40240a:	48 ba a9 e0 9f 74 80 	movabs rdx,0x690f880749fe0a9
  402411:	f8 90 06 
  402414:	48 89 85 60 3c 00 00 	mov    QWORD PTR [rbp+0x3c60],rax
  40241b:	48 89 95 68 3c 00 00 	mov    QWORD PTR [rbp+0x3c68],rdx
  402422:	48 b8 a8 e0 64 80 98 	movabs rax,0x120550988064e0a8
  402429:	50 05 12 
  40242c:	48 ba 0d 35 80 e4 12 	movabs rdx,0x74960d12e480350d
  402433:	0d 96 74 
  402436:	48 89 85 70 3c 00 00 	mov    QWORD PTR [rbp+0x3c70],rax
  40243d:	48 89 95 78 3c 00 00 	mov    QWORD PTR [rbp+0x3c78],rdx
  402444:	48 b8 22 f0 a3 74 18 	movabs rax,0x74a3f01874a3f022
  40244b:	f0 a3 74 
  40244e:	48 ba 09 f0 74 04 12 	movabs rdx,0x907119120474f009
  402455:	19 71 90 
  402458:	48 89 85 80 3c 00 00 	mov    QWORD PTR [rbp+0x3c80],rax
  40245f:	48 89 95 88 3c 00 00 	mov    QWORD PTR [rbp+0x3c88],rdx
  402466:	48 b8 00 17 f0 90 06 	movabs rax,0x90e0f40690f01700
  40246d:	f4 e0 90 
  402470:	48 ba 00 18 f0 90 06 	movabs rdx,0x90e0f50690f01800
  402477:	f5 e0 90 
  40247a:	48 89 85 90 3c 00 00 	mov    QWORD PTR [rbp+0x3c90],rax
  402481:	48 89 95 98 3c 00 00 	mov    QWORD PTR [rbp+0x3c98],rdx
  402488:	48 b8 00 19 12 18 de 	movabs rax,0xf00690de18121900
  40248f:	90 06 f0 
  402492:	48 ba e0 90 00 1f f0 	movabs rdx,0xf10690f01f0090e0
  402499:	90 06 f1 
  40249c:	48 89 85 a0 3c 00 00 	mov    QWORD PTR [rbp+0x3ca0],rax
  4024a3:	48 89 95 a8 3c 00 00 	mov    QWORD PTR [rbp+0x3ca8],rdx
  4024aa:	48 b8 e0 90 00 20 f0 	movabs rax,0xf20690f0200090e0
  4024b1:	90 06 f2 
  4024b4:	48 ba e0 90 00 21 f0 	movabs rdx,0xf30690f0210090e0
  4024bb:	90 06 f3 
  4024be:	48 89 85 b0 3c 00 00 	mov    QWORD PTR [rbp+0x3cb0],rax
  4024c5:	48 89 95 b8 3c 00 00 	mov    QWORD PTR [rbp+0x3cb8],rdx
  4024cc:	48 b8 e0 90 00 22 12 	movabs rax,0xa3de1812220090e0
  4024d3:	18 de a3 
  4024d6:	48 ba f0 90 06 de e0 	movabs rdx,0x290090e0de0690f0
  4024dd:	90 00 29 
  4024e0:	48 89 85 c0 3c 00 00 	mov    QWORD PTR [rbp+0x3cc0],rax
  4024e7:	48 89 95 c8 3c 00 00 	mov    QWORD PTR [rbp+0x3cc8],rdx
  4024ee:	48 b8 f0 90 06 df e0 	movabs rax,0x2a0090e0df0690f0
  4024f5:	90 00 2a 
  4024f8:	48 ba f0 90 06 e0 e0 	movabs rdx,0x2b0090e0e00690f0
  4024ff:	90 00 2b 
  402502:	48 89 85 d0 3c 00 00 	mov    QWORD PTR [rbp+0x3cd0],rax
  402509:	48 89 95 d8 3c 00 00 	mov    QWORD PTR [rbp+0x3cd8],rdx
  402510:	48 b8 f0 7f 1a 02 0c 	movabs rax,0x1c12df0c021a7ff0
  402517:	df 12 1c 
  40251a:	48 ba 79 90 00 0f e0 	movabs rdx,0x700164e00f009079
  402521:	64 01 70 
  402524:	48 89 85 e0 3c 00 00 	mov    QWORD PTR [rbp+0x3ce0],rax
  40252b:	48 89 95 e8 3c 00 00 	mov    QWORD PTR [rbp+0x3ce8],rdx
  402532:	48 b8 04 ff 02 0c df 	movabs rax,0x210d12df0c02ff04
  402539:	12 0d 21 
  40253c:	48 ba 90 00 12 74 32 	movabs rdx,0x8619123274120090
  402543:	12 19 86 
  402546:	48 89 85 f0 3c 00 00 	mov    QWORD PTR [rbp+0x3cf0],rax
  40254d:	48 89 95 f8 3c 00 00 	mov    QWORD PTR [rbp+0x3cf8],rdx
  402554:	48 b8 74 10 f0 a3 12 	movabs rax,0x748d1912a3f01074
  40255b:	19 8d 74 
  40255e:	48 ba 0f f0 90 04 63 	movabs rdx,0x164e0630490f00f
  402565:	e0 64 01 
  402568:	48 89 85 00 3d 00 00 	mov    QWORD PTR [rbp+0x3d00],rax
  40256f:	48 89 95 08 3d 00 00 	mov    QWORD PTR [rbp+0x3d08],rdx
  402576:	48 b8 70 36 90 00 18 	movabs rax,0xf043741800903670
  40257d:	74 43 f0 
  402580:	48 ba a3 74 41 f0 a3 	movabs rdx,0xf05274a3f04174a3
  402587:	74 52 f0 
  40258a:	48 89 85 10 3d 00 00 	mov    QWORD PTR [rbp+0x3d10],rax
  402591:	48 89 95 18 3d 00 00 	mov    QWORD PTR [rbp+0x3d18],rdx
  402598:	48 b8 a3 74 44 12 19 	movabs rax,0x42745319124474a3
  40259f:	53 74 42 
  4025a2:	48 ba f0 a3 74 4c f0 	movabs rdx,0x4f74a3f04c74a3f0
  4025a9:	a3 74 4f 
  4025ac:	48 89 85 20 3d 00 00 	mov    QWORD PTR [rbp+0x3d20],rax
  4025b3:	48 89 95 28 3d 00 00 	mov    QWORD PTR [rbp+0x3d28],rdx
  4025ba:	48 b8 f0 a3 74 43 f0 	movabs rax,0x4b74a3f04374a3f0
  4025c1:	a3 74 4b 
  4025c4:	48 ba f0 a3 74 45 f0 	movabs rdx,0x1214a3f04574a3f0
  4025cb:	a3 14 12 
  4025ce:	48 89 85 30 3d 00 00 	mov    QWORD PTR [rbp+0x3d30],rax
  4025d5:	48 89 95 38 3d 00 00 	mov    QWORD PTR [rbp+0x3d38],rdx
  4025dc:	48 b8 19 53 f0 a3 f0 	movabs rax,0x7c0702f0a3f05319
  4025e3:	02 07 7c 
  4025e6:	48 ba 90 06 e1 e0 90 	movabs rdx,0x180090e0e10690
  4025ed:	00 18 00 
  4025f0:	48 89 85 40 3d 00 00 	mov    QWORD PTR [rbp+0x3d40],rax
  4025f7:	48 89 95 48 3d 00 00 	mov    QWORD PTR [rbp+0x3d48],rdx
  4025fe:	48 c7 85 50 3d 00 00 	mov    QWORD PTR [rbp+0x3d50],0x0
  402605:	00 00 00 00 
  402609:	c7 85 58 3d 00 00 00 	mov    DWORD PTR [rbp+0x3d58],0x0
  402610:	00 00 00 
  402613:	66 c7 85 5c 3d 00 00 	mov    WORD PTR [rbp+0x3d5c],0x0
  40261a:	00 00 
  40261c:	48 b8 00 58 86 fb ff 	movabs rax,0xfffb865800
  402623:	00 00 00 
  402626:	ba 00 00 00 00       	mov    edx,0x0
  40262b:	48 89 85 40 3b 00 00 	mov    QWORD PTR [rbp+0x3b40],rax
  402632:	48 89 95 48 3b 00 00 	mov    QWORD PTR [rbp+0x3b48],rdx
  402639:	48 8d 95 50 3b 00 00 	lea    rdx,[rbp+0x3b50]
  402640:	b8 00 00 00 00       	mov    eax,0x0
  402645:	b9 1f 00 00 00       	mov    ecx,0x1f
  40264a:	48 89 d7             	mov    rdi,rdx
  40264d:	f3 48 ab             	rep stos QWORD PTR es:[rdi],rax
  402650:	48 89 fa             	mov    rdx,rdi
  402653:	89 02                	mov    DWORD PTR [rdx],eax
  402655:	48 83 c2 04          	add    rdx,0x4
  402659:	66 89 02             	mov    WORD PTR [rdx],ax
  40265c:	48 83 c2 02          	add    rdx,0x2
  402660:	48 b8 f0 90 06 e2 e0 	movabs rax,0x190090e0e20690f0
  402667:	90 00 19 
  40266a:	48 ba f0 90 06 e3 e0 	movabs rdx,0x1a0090e0e30690f0
  402671:	90 00 1a 
  402674:	48 89 85 30 3a 00 00 	mov    QWORD PTR [rbp+0x3a30],rax
  40267b:	48 89 95 38 3a 00 00 	mov    QWORD PTR [rbp+0x3a38],rdx
  402682:	48 b8 f0 90 06 e4 e0 	movabs rax,0x1b0090e0e40690f0
  402689:	90 00 1b 
  40268c:	48 ba f0 90 06 e5 e0 	movabs rdx,0x1c0090e0e50690f0
  402693:	90 00 1c 
  402696:	48 89 85 40 3a 00 00 	mov    QWORD PTR [rbp+0x3a40],rax
  40269d:	48 89 95 48 3a 00 00 	mov    QWORD PTR [rbp+0x3a48],rdx
  4026a4:	48 b8 f0 90 06 e6 e0 	movabs rax,0x1d0090e0e60690f0
  4026ab:	90 00 1d 
  4026ae:	48 ba f0 90 06 e7 e0 	movabs rdx,0x1e0090e0e70690f0
  4026b5:	90 00 1e 
  4026b8:	48 89 85 50 3a 00 00 	mov    QWORD PTR [rbp+0x3a50],rax
  4026bf:	48 89 95 58 3a 00 00 	mov    QWORD PTR [rbp+0x3a58],rdx
  4026c6:	48 b8 f0 90 06 e8 e0 	movabs rax,0x1f0090e0e80690f0
  4026cd:	90 00 1f 
  4026d0:	48 ba f0 90 06 e9 e0 	movabs rdx,0x200090e0e90690f0
  4026d7:	90 00 20 
  4026da:	48 89 85 60 3a 00 00 	mov    QWORD PTR [rbp+0x3a60],rax
  4026e1:	48 89 95 68 3a 00 00 	mov    QWORD PTR [rbp+0x3a68],rdx
  4026e8:	48 b8 f0 90 06 ea e0 	movabs rax,0x210090e0ea0690f0
  4026ef:	90 00 21 
  4026f2:	48 ba f0 90 06 eb e0 	movabs rdx,0x220090e0eb0690f0
  4026f9:	90 00 22 
  4026fc:	48 89 85 70 3a 00 00 	mov    QWORD PTR [rbp+0x3a70],rax
  402703:	48 89 95 78 3a 00 00 	mov    QWORD PTR [rbp+0x3a78],rdx
  40270a:	48 b8 f0 90 06 ec e0 	movabs rax,0x230090e0ec0690f0
  402711:	90 00 23 
  402714:	48 ba f0 90 06 ed e0 	movabs rdx,0x240090e0ed0690f0
  40271b:	90 00 24 
  40271e:	48 89 85 80 3a 00 00 	mov    QWORD PTR [rbp+0x3a80],rax
  402725:	48 89 95 88 3a 00 00 	mov    QWORD PTR [rbp+0x3a88],rdx
  40272c:	48 b8 f0 90 06 ee e0 	movabs rax,0x250090e0ee0690f0
  402733:	90 00 25 
  402736:	48 ba f0 90 04 58 e0 	movabs rdx,0x700164e0580490f0
  40273d:	64 01 70 
  402740:	48 89 85 90 3a 00 00 	mov    QWORD PTR [rbp+0x3a90],rax
  402747:	48 89 95 98 3a 00 00 	mov    QWORD PTR [rbp+0x3a98],rdx
  40274e:	48 b8 08 90 00 26 74 	movabs rax,0x80f02b7426009008
  402755:	2b f0 80 
  402758:	48 ba 08 90 06 ef e0 	movabs rdx,0x260090e0ef069008
  40275f:	90 00 26 
  402762:	48 89 85 a0 3a 00 00 	mov    QWORD PTR [rbp+0x3aa0],rax
  402769:	48 89 95 a8 3a 00 00 	mov    QWORD PTR [rbp+0x3aa8],rdx
  402770:	48 b8 f0 90 00 27 12 	movabs rax,0x90f11812270090f0
  402777:	18 f1 90 
  40277a:	48 ba 04 54 e0 90 00 	movabs rdx,0x90f0290090e05404
  402781:	29 f0 90 
  402784:	48 89 85 b0 3a 00 00 	mov    QWORD PTR [rbp+0x3ab0],rax
  40278b:	48 89 95 b8 3a 00 00 	mov    QWORD PTR [rbp+0x3ab8],rdx
  402792:	48 b8 04 55 e0 90 00 	movabs rax,0x18122a0090e05504
  402799:	2a 12 18 
  40279c:	48 ba ef 90 04 56 e0 	movabs rdx,0x2d0090e0560490ef
  4027a3:	90 00 2d 
  4027a6:	48 89 85 c0 3a 00 00 	mov    QWORD PTR [rbp+0x3ac0],rax
  4027ad:	48 89 95 c8 3a 00 00 	mov    QWORD PTR [rbp+0x3ac8],rdx
  4027b4:	48 b8 f0 90 04 57 e0 	movabs rax,0x2e0090e0570490f0
  4027bb:	90 00 2e 
  4027be:	48 ba 12 19 53 74 04 	movabs rdx,0x490f00474531912
  4027c5:	f0 90 04 
  4027c8:	48 89 85 d0 3a 00 00 	mov    QWORD PTR [rbp+0x3ad0],rax
  4027cf:	48 89 95 d8 3a 00 00 	mov    QWORD PTR [rbp+0x3ad8],rdx
  4027d6:	48 b8 50 e0 90 00 31 	movabs rax,0x490f0310090e050
  4027dd:	f0 90 04 
  4027e0:	48 ba 51 e0 90 00 32 	movabs rdx,0x490f0320090e051
  4027e7:	f0 90 04 
  4027ea:	48 89 85 e0 3a 00 00 	mov    QWORD PTR [rbp+0x3ae0],rax
  4027f1:	48 89 95 e8 3a 00 00 	mov    QWORD PTR [rbp+0x3ae8],rdx
  4027f8:	48 b8 52 e0 90 00 33 	movabs rax,0x490f0330090e052
  4027ff:	f0 90 04 
  402802:	48 ba 53 e0 90 00 34 	movabs rdx,0xef1812340090e053
  402809:	12 18 ef 
  40280c:	48 89 85 f0 3a 00 00 	mov    QWORD PTR [rbp+0x3af0],rax
  402813:	48 89 95 f8 3a 00 00 	mov    QWORD PTR [rbp+0x3af8],rdx
  40281a:	48 b8 90 04 54 e0 90 	movabs rax,0xf0370090e0540490
  402821:	00 37 f0 
  402824:	48 ba 90 04 55 e0 90 	movabs rdx,0x12380090e0550490
  40282b:	00 38 12 
  40282e:	48 89 85 00 3b 00 00 	mov    QWORD PTR [rbp+0x3b00],rax
  402835:	48 89 95 08 3b 00 00 	mov    QWORD PTR [rbp+0x3b08],rdx
  40283c:	48 b8 18 ef 90 04 56 	movabs rax,0x90e0560490ef18
  402843:	e0 90 00 
  402846:	48 ba 3b f0 90 04 57 	movabs rdx,0x90e0570490f03b
  40284d:	e0 90 00 
  402850:	48 89 85 10 3b 00 00 	mov    QWORD PTR [rbp+0x3b10],rax
  402857:	48 89 95 18 3b 00 00 	mov    QWORD PTR [rbp+0x3b18],rdx
  40285e:	48 b8 3c 12 19 53 74 	movabs rax,0x90f004745319123c
  402865:	04 f0 90 
  402868:	48 ba 04 5b e0 90 00 	movabs rdx,0xf03f0090e05b04
  40286f:	3f f0 00 
  402872:	48 89 85 20 3b 00 00 	mov    QWORD PTR [rbp+0x3b20],rax
  402879:	48 89 95 28 3b 00 00 	mov    QWORD PTR [rbp+0x3b28],rdx
  402880:	48 c7 85 30 3b 00 00 	mov    QWORD PTR [rbp+0x3b30],0x0
  402887:	00 00 00 00 
  40288b:	c7 85 38 3b 00 00 00 	mov    DWORD PTR [rbp+0x3b38],0x0
  402892:	00 00 00 
  402895:	66 c7 85 3c 3b 00 00 	mov    WORD PTR [rbp+0x3b3c],0x0
  40289c:	00 00 
  40289e:	48 b8 00 58 87 fa ff 	movabs rax,0xfffa875800
  4028a5:	00 00 00 
  4028a8:	ba 00 00 00 00       	mov    edx,0x0
  4028ad:	48 89 85 20 39 00 00 	mov    QWORD PTR [rbp+0x3920],rax
  4028b4:	48 89 95 28 39 00 00 	mov    QWORD PTR [rbp+0x3928],rdx
  4028bb:	48 8d 95 30 39 00 00 	lea    rdx,[rbp+0x3930]
  4028c2:	b8 00 00 00 00       	mov    eax,0x0
  4028c7:	b9 1f 00 00 00       	mov    ecx,0x1f
  4028cc:	48 89 d7             	mov    rdi,rdx
  4028cf:	f3 48 ab             	rep stos QWORD PTR es:[rdi],rax
  4028d2:	48 89 fa             	mov    rdx,rdi
  4028d5:	89 02                	mov    DWORD PTR [rdx],eax
  4028d7:	48 83 c2 04          	add    rdx,0x4
  4028db:	66 89 02             	mov    WORD PTR [rdx],ax
  4028de:	48 83 c2 02          	add    rdx,0x2
  4028e2:	48 b8 90 04 5f e0 90 	movabs rax,0xf0400090e05f0490
  4028e9:	00 40 f0 
  4028ec:	48 ba 90 04 60 e0 90 	movabs rdx,0xf0410090e0600490
  4028f3:	00 41 f0 
  4028f6:	48 89 85 10 38 00 00 	mov    QWORD PTR [rbp+0x3810],rax
  4028fd:	48 89 95 18 38 00 00 	mov    QWORD PTR [rbp+0x3818],rdx
  402904:	48 b8 90 04 5c e0 90 	movabs rax,0xf0420090e05c0490
  40290b:	00 42 f0 
  40290e:	48 ba 7f 31 02 0c df 	movabs rdx,0xdf1d12df0c02317f
  402915:	12 1d df 
  402918:	48 89 85 20 38 00 00 	mov    QWORD PTR [rbp+0x3820],rax
  40291f:	48 89 95 28 38 00 00 	mov    QWORD PTR [rbp+0x3828],rdx
  402926:	48 b8 90 00 10 12 0c 	movabs rax,0x1d12f00c12100090
  40292d:	f0 12 1d 
  402930:	48 ba df 12 1d df e4 	movabs rdx,0xc20690e4df1d12df
  402937:	90 06 c2 
  40293a:	48 89 85 30 38 00 00 	mov    QWORD PTR [rbp+0x3830],rax
  402941:	48 89 95 38 38 00 00 	mov    QWORD PTR [rbp+0x3838],rdx
  402948:	48 b8 12 19 21 a3 f0 	movabs rax,0x707cfdf0a3211912
  40294f:	fd 7c 70 
  402952:	48 ba 12 1d 4e 12 17 	movabs rdx,0x1c12d317124e1d12
  402959:	d3 12 1c 
  40295c:	48 89 85 40 38 00 00 	mov    QWORD PTR [rbp+0x3840],rax
  402963:	48 89 95 48 38 00 00 	mov    QWORD PTR [rbp+0x3848],rdx
  40296a:	48 b8 79 90 04 5c e0 	movabs rax,0x90f004e05c049079
  402971:	04 f0 90 
  402974:	48 ba 02 16 e0 90 06 	movabs rdx,0x90f0ac0690e01602
  40297b:	ac f0 90 
  40297e:	48 89 85 50 38 00 00 	mov    QWORD PTR [rbp+0x3850],rax
  402985:	48 89 95 58 38 00 00 	mov    QWORD PTR [rbp+0x3858],rdx
  40298c:	48 b8 02 17 e0 90 06 	movabs rax,0x90f0ad0690e01702
  402993:	ad f0 90 
  402996:	48 ba 02 18 e0 90 06 	movabs rdx,0x90f0ae0690e01802
  40299d:	ae f0 90 
  4029a0:	48 89 85 60 38 00 00 	mov    QWORD PTR [rbp+0x3860],rax
  4029a7:	48 89 95 68 38 00 00 	mov    QWORD PTR [rbp+0x3868],rdx
  4029ae:	48 b8 02 19 e0 90 06 	movabs rax,0x90f0af0690e01902
  4029b5:	af f0 90 
  4029b8:	48 ba 04 63 e0 64 ca 	movabs rdx,0x670ca64e06304
  4029bf:	70 06 00 
  4029c2:	48 89 85 70 38 00 00 	mov    QWORD PTR [rbp+0x3870],rax
  4029c9:	48 89 95 78 38 00 00 	mov    QWORD PTR [rbp+0x3878],rdx
  4029d0:	48 b8 00 00 02 09 25 	movabs rax,0x6304902509020000
  4029d7:	90 04 63 
  4029da:	48 ba e0 70 6f 90 06 	movabs rdx,0x90e0af06906f70e0
  4029e1:	af e0 90 
  4029e4:	48 89 85 80 38 00 00 	mov    QWORD PTR [rbp+0x3880],rax
  4029eb:	48 89 95 88 38 00 00 	mov    QWORD PTR [rbp+0x3888],rdx
  4029f2:	48 b8 06 aa f0 e0 ff 	movabs rax,0x1e94d3ffe0f0aa06
  4029f9:	d3 94 1e 
  4029fc:	48 ba 74 80 94 80 40 	movabs rdx,0x490124080948074
  402a03:	12 90 04 
  402a06:	48 89 85 90 38 00 00 	mov    QWORD PTR [rbp+0x3890],rax
  402a0d:	48 89 95 98 38 00 00 	mov    QWORD PTR [rbp+0x3898],rdx
  402a14:	48 b8 64 e0 fe ef d3 	movabs rax,0x8509ed3effee064
  402a1b:	9e 50 08 
  402a1e:	48 ba 90 04 62 e0 04 	movabs rdx,0xd80f004e0620490
  402a25:	f0 80 0d 
  402a28:	48 89 85 a0 38 00 00 	mov    QWORD PTR [rbp+0x38a0],rax
  402a2f:	48 89 95 a8 38 00 00 	mov    QWORD PTR [rbp+0x38a8],rdx
  402a36:	48 b8 90 04 62 e0 d3 	movabs rax,0x151912d3e0620490
  402a3d:	12 19 15 
  402a40:	48 ba 40 03 e0 14 f0 	movabs rdx,0xaa0690f014e00340
  402a47:	90 06 aa 
  402a4a:	48 89 85 b0 38 00 00 	mov    QWORD PTR [rbp+0x38b0],rax
  402a51:	48 89 95 b8 38 00 00 	mov    QWORD PTR [rbp+0x38b8],rdx
  402a58:	48 b8 e0 24 05 90 04 	movabs rax,0x90f06404900524e0
  402a5f:	64 f0 90 
  402a62:	48 ba 04 62 e0 d3 94 	movabs rdx,0x8074f094d3e06204
  402a69:	f0 74 80 
  402a6c:	48 89 85 c0 38 00 00 	mov    QWORD PTR [rbp+0x38c0],rax
  402a73:	48 89 95 c8 38 00 00 	mov    QWORD PTR [rbp+0x38c8],rdx
  402a7a:	48 b8 94 80 40 67 a3 	movabs rax,0xf00174a367408094
  402a81:	74 01 f0 
  402a84:	48 ba 90 06 ac e0 90 	movabs rdx,0xf0640490e0ac0690
  402a8b:	04 64 f0 
  402a8e:	48 89 85 d0 38 00 00 	mov    QWORD PTR [rbp+0x38d0],rax
  402a95:	48 89 95 d8 38 00 00 	mov    QWORD PTR [rbp+0x38d8],rdx
  402a9c:	48 b8 90 06 ad e0 90 	movabs rax,0xf0650490e0ad0690
  402aa3:	04 65 f0 
  402aa6:	48 ba 90 06 ae e0 90 	movabs rdx,0xf0660490e0ae0690
  402aad:	04 66 f0 
  402ab0:	48 89 85 e0 38 00 00 	mov    QWORD PTR [rbp+0x38e0],rax
  402ab7:	48 89 95 e8 38 00 00 	mov    QWORD PTR [rbp+0x38e8],rdx
  402abe:	48 b8 90 06 af e0 90 	movabs rax,0xf0670490e0af0690
  402ac5:	04 67 f0 
  402ac8:	48 ba 80 41 90 04 64 	movabs rdx,0x690e06404904180
  402acf:	e0 90 06 
  402ad2:	48 89 85 f0 38 00 00 	mov    QWORD PTR [rbp+0x38f0],rax
  402ad9:	48 89 95 f8 38 00 00 	mov    QWORD PTR [rbp+0x38f8],rdx
  402ae0:	48 b8 b8 f0 90 04 65 	movabs rax,0x690e0650490f0b8
  402ae7:	e0 90 06 
  402aea:	48 ba b9 f0 90 04 66 	movabs rdx,0x90e0660490f0b9
  402af1:	e0 90 00 
  402af4:	48 89 85 00 39 00 00 	mov    QWORD PTR [rbp+0x3900],rax
  402afb:	48 89 95 08 39 00 00 	mov    QWORD PTR [rbp+0x3908],rdx
  402b02:	48 c7 85 10 39 00 00 	mov    QWORD PTR [rbp+0x3910],0x0
  402b09:	00 00 00 00 
  402b0d:	c7 85 18 39 00 00 00 	mov    DWORD PTR [rbp+0x3918],0x0
  402b14:	00 00 00 
  402b17:	66 c7 85 1c 39 00 00 	mov    WORD PTR [rbp+0x391c],0x0
  402b1e:	00 00 
  402b20:	48 b8 00 58 88 f9 ff 	movabs rax,0xfff9885800
  402b27:	00 00 00 
  402b2a:	ba 00 00 00 00       	mov    edx,0x0
  402b2f:	48 89 85 00 37 00 00 	mov    QWORD PTR [rbp+0x3700],rax
  402b36:	48 89 95 08 37 00 00 	mov    QWORD PTR [rbp+0x3708],rdx
  402b3d:	48 8d 95 10 37 00 00 	lea    rdx,[rbp+0x3710]
  402b44:	b8 00 00 00 00       	mov    eax,0x0
  402b49:	b9 1f 00 00 00       	mov    ecx,0x1f
  402b4e:	48 89 d7             	mov    rdi,rdx
  402b51:	f3 48 ab             	rep stos QWORD PTR es:[rdi],rax
  402b54:	48 89 fa             	mov    rdx,rdi
  402b57:	89 02                	mov    DWORD PTR [rdx],eax
  402b59:	48 83 c2 04          	add    rdx,0x4
  402b5d:	66 89 02             	mov    WORD PTR [rdx],ax
  402b60:	48 83 c2 02          	add    rdx,0x2
  402b64:	48 b8 06 ba f0 90 04 	movabs rax,0x90e0670490f0ba06
  402b6b:	67 e0 90 
  402b6e:	48 ba 06 bb f0 90 06 	movabs rdx,0x1412b80690f0bb06
  402b75:	b8 12 14 
  402b78:	48 89 85 f0 35 00 00 	mov    QWORD PTR [rbp+0x35f0],rax
  402b7f:	48 89 95 f8 35 00 00 	mov    QWORD PTR [rbp+0x35f8],rdx
  402b86:	48 b8 73 12 19 94 12 	movabs rax,0x7b32141294191273
  402b8d:	14 32 7b 
  402b90:	48 ba 80 7a 3a 79 09 	movabs rdx,0xc3007809793a7a80
  402b97:	78 00 c3 
  402b9a:	48 89 85 00 36 00 00 	mov    QWORD PTR [rbp+0x3600],rax
  402ba1:	48 89 95 08 36 00 00 	mov    QWORD PTR [rbp+0x3608],rdx
  402ba8:	48 b8 12 14 56 50 07 	movabs rax,0x490e40750561412
  402baf:	e4 90 04 
  402bb2:	48 ba 62 f0 a3 f0 12 	movabs rdx,0x7f1c1912f0a3f062
  402bb9:	19 1c 7f 
  402bbc:	48 89 85 10 36 00 00 	mov    QWORD PTR [rbp+0x3610],rax
  402bc3:	48 89 95 18 36 00 00 	mov    QWORD PTR [rbp+0x3618],rdx
  402bca:	48 b8 00 7e 70 12 10 	movabs rax,0x490421012707e00
  402bd1:	42 90 04 
  402bd4:	48 ba 48 e0 90 06 b0 	movabs rdx,0x490f0b00690e048
  402bdb:	f0 90 04 
  402bde:	48 89 85 20 36 00 00 	mov    QWORD PTR [rbp+0x3620],rax
  402be5:	48 89 95 28 36 00 00 	mov    QWORD PTR [rbp+0x3628],rdx
  402bec:	48 b8 49 e0 90 06 b1 	movabs rax,0x490f0b10690e049
  402bf3:	f0 90 04 
  402bf6:	48 ba 4a e0 90 06 b2 	movabs rdx,0x490f0b20690e04a
  402bfd:	f0 90 04 
  402c00:	48 89 85 30 36 00 00 	mov    QWORD PTR [rbp+0x3630],rax
  402c07:	48 89 95 38 36 00 00 	mov    QWORD PTR [rbp+0x3638],rdx
  402c0e:	48 b8 4b e0 90 06 b3 	movabs rax,0x490f0b30690e04b
  402c15:	f0 90 04 
  402c18:	48 ba 4c e0 90 06 b4 	movabs rdx,0x490f0b40690e04c
  402c1f:	f0 90 04 
  402c22:	48 89 85 40 36 00 00 	mov    QWORD PTR [rbp+0x3640],rax
  402c29:	48 89 95 48 36 00 00 	mov    QWORD PTR [rbp+0x3648],rdx
  402c30:	48 b8 4d e0 90 06 b5 	movabs rax,0x490f0b50690e04d
  402c37:	f0 90 04 
  402c3a:	48 ba 4e e0 90 06 b6 	movabs rdx,0x490f0b60690e04e
  402c41:	f0 90 04 
  402c44:	48 89 85 50 36 00 00 	mov    QWORD PTR [rbp+0x3650],rax
  402c4b:	48 89 95 58 36 00 00 	mov    QWORD PTR [rbp+0x3658],rdx
  402c52:	48 b8 4f e0 90 06 b7 	movabs rax,0x1912f0b70690e04f
  402c59:	f0 12 19 
  402c5c:	48 ba 9a 12 19 5a 50 	movabs rdx,0x181205505a19129a
  402c63:	05 12 18 
  402c66:	48 89 85 60 36 00 00 	mov    QWORD PTR [rbp+0x3660],rax
  402c6d:	48 89 95 68 36 00 00 	mov    QWORD PTR [rbp+0x3668],rdx
  402c74:	48 b8 f9 80 f6 90 04 	movabs rax,0x60e0630490f680f9
  402c7b:	63 e0 60 
  402c7e:	48 ba 07 64 ca 60 03 	movabs rdx,0xdb0a020360ca6407
  402c85:	02 0a db 
  402c88:	48 89 85 70 36 00 00 	mov    QWORD PTR [rbp+0x3670],rax
  402c8f:	48 89 95 78 36 00 00 	mov    QWORD PTR [rbp+0x3678],rdx
  402c96:	48 b8 90 02 45 e0 ff 	movabs rax,0x70290ffe0450290
  402c9d:	90 02 07 
  402ca0:	48 ba e0 6f 60 03 02 	movabs rdx,0x12db0a0203606fe0
  402ca7:	0a db 12 
  402caa:	48 89 85 80 36 00 00 	mov    QWORD PTR [rbp+0x3680],rax
  402cb1:	48 89 95 88 36 00 00 	mov    QWORD PTR [rbp+0x3688],rdx
  402cb8:	48 b8 19 94 90 06 b0 	movabs rax,0x731412b006909419
  402cbf:	12 14 73 
  402cc2:	48 ba c3 12 14 56 40 	movabs rdx,0xa020340561412c3
  402cc9:	03 02 0a 
  402ccc:	48 89 85 90 36 00 00 	mov    QWORD PTR [rbp+0x3690],rax
  402cd3:	48 89 95 98 36 00 00 	mov    QWORD PTR [rbp+0x3698],rdx
  402cda:	48 b8 db 12 19 94 90 	movabs rax,0x12b40690941912db
  402ce1:	06 b4 12 
  402ce4:	48 ba 14 73 d3 12 14 	movabs rdx,0x350561412d37314
  402ceb:	56 50 03 
  402cee:	48 89 85 a0 36 00 00 	mov    QWORD PTR [rbp+0x36a0],rax
  402cf5:	48 89 95 a8 36 00 00 	mov    QWORD PTR [rbp+0x36a8],rdx
  402cfc:	48 b8 02 0a db 90 02 	movabs rax,0xffe02a0290db0a02
  402d03:	2a e0 ff 
  402d06:	48 ba 90 04 50 e0 5f 	movabs rdx,0x1912d35fe0500490
  402d0d:	d3 12 19 
  402d10:	48 89 85 b0 36 00 00 	mov    QWORD PTR [rbp+0x36b0],rax
  402d17:	48 89 95 b8 36 00 00 	mov    QWORD PTR [rbp+0x36b8],rdx
  402d1e:	48 b8 15 50 28 90 02 	movabs rax,0x90e02b0290285015
  402d25:	2b e0 90 
  402d28:	48 ba 04 51 12 19 12 	movabs rdx,0x901c501219125104
  402d2f:	50 1c 90 
  402d32:	48 89 85 c0 36 00 00 	mov    QWORD PTR [rbp+0x36c0],rax
  402d39:	48 89 95 c8 36 00 00 	mov    QWORD PTR [rbp+0x36c8],rdx
  402d40:	48 b8 02 2c e0 90 04 	movabs rax,0x1912520490e02c02
  402d47:	52 12 19 
  402d4a:	48 ba 12 50 10 90 02 	movabs rdx,0xffe02d0290105012
  402d51:	2d e0 ff 
  402d54:	48 89 85 d0 36 00 00 	mov    QWORD PTR [rbp+0x36d0],rax
  402d5b:	48 89 95 d8 36 00 00 	mov    QWORD PTR [rbp+0x36d8],rdx
  402d62:	48 b8 90 04 53 12 19 	movabs rax,0x350131912530490
  402d69:	13 50 03 
  402d6c:	48 ba 02 0a db 90 04 	movabs rdx,0xe0580490db0a02
  402d73:	58 e0 00 
  402d76:	48 89 85 e0 36 00 00 	mov    QWORD PTR [rbp+0x36e0],rax
  402d7d:	48 89 95 e8 36 00 00 	mov    QWORD PTR [rbp+0x36e8],rdx
  402d84:	48 c7 85 f0 36 00 00 	mov    QWORD PTR [rbp+0x36f0],0x0
  402d8b:	00 00 00 00 
  402d8f:	c7 85 f8 36 00 00 00 	mov    DWORD PTR [rbp+0x36f8],0x0
  402d96:	00 00 00 
  402d99:	66 c7 85 fc 36 00 00 	mov    WORD PTR [rbp+0x36fc],0x0
  402da0:	00 00 
  402da2:	48 b8 00 58 89 f8 ff 	movabs rax,0xfff8895800
  402da9:	00 00 00 
  402dac:	ba 00 00 00 00       	mov    edx,0x0
  402db1:	48 89 85 e0 34 00 00 	mov    QWORD PTR [rbp+0x34e0],rax
  402db8:	48 89 95 e8 34 00 00 	mov    QWORD PTR [rbp+0x34e8],rdx
  402dbf:	48 8d 95 f0 34 00 00 	lea    rdx,[rbp+0x34f0]
  402dc6:	b8 00 00 00 00       	mov    eax,0x0
  402dcb:	b9 1f 00 00 00       	mov    ecx,0x1f
  402dd0:	48 89 d7             	mov    rdi,rdx
  402dd3:	f3 48 ab             	rep stos QWORD PTR es:[rdi],rax
  402dd6:	48 89 fa             	mov    rdx,rdi
  402dd9:	89 02                	mov    DWORD PTR [rdx],eax
  402ddb:	48 83 c2 04          	add    rdx,0x4
  402ddf:	66 89 02             	mov    WORD PTR [rdx],ax
  402de2:	48 83 c2 02          	add    rdx,0x2
  402de6:	48 b8 60 2d 90 06 f4 	movabs rax,0x90ffe0f406902d60
  402ded:	e0 ff 90 
  402df0:	48 ba 04 59 e0 6f 60 	movabs rdx,0xa0203606fe05904
  402df7:	03 02 0a 
  402dfa:	48 89 85 d0 33 00 00 	mov    QWORD PTR [rbp+0x33d0],rax
  402e01:	48 89 95 d8 33 00 00 	mov    QWORD PTR [rbp+0x33d8],rdx
  402e08:	48 b8 db 90 06 f5 e0 	movabs rax,0x490ffe0f50690db
  402e0f:	ff 90 04 
  402e12:	48 ba 5a e0 6f 60 03 	movabs rdx,0xdb0a0203606fe05a
  402e19:	02 0a db 
  402e1c:	48 89 85 e0 33 00 00 	mov    QWORD PTR [rbp+0x33e0],rax
  402e23:	48 89 95 e8 33 00 00 	mov    QWORD PTR [rbp+0x33e8],rdx
  402e2a:	48 b8 90 06 f6 e0 ff 	movabs rax,0x610490ffe0f60690
  402e31:	90 04 61 
  402e34:	48 ba e0 6f 60 03 02 	movabs rdx,0x90db0a0203606fe0
  402e3b:	0a db 90 
  402e3e:	48 89 85 f0 33 00 00 	mov    QWORD PTR [rbp+0x33f0],rax
  402e45:	48 89 95 f8 33 00 00 	mov    QWORD PTR [rbp+0x33f8],rdx
  402e4c:	48 b8 00 12 74 25 f0 	movabs rax,0xd74a3f025741200
  402e53:	a3 74 0d 
  402e56:	48 ba f0 e4 a3 f0 a3 	movabs rdx,0x4a3f0a3f0a3e4f0
  402e5d:	f0 a3 04 
  402e60:	48 89 85 00 34 00 00 	mov    QWORD PTR [rbp+0x3400],rax
  402e67:	48 89 95 08 34 00 00 	mov    QWORD PTR [rbp+0x3408],rdx
  402e6e:	48 b8 f0 e4 a3 f0 a3 	movabs rax,0x290f0a3f0a3e4f0
  402e75:	f0 90 02 
  402e78:	48 ba 1a e0 90 00 19 	movabs rdx,0x290f0190090e01a
  402e7f:	f0 90 02 
  402e82:	48 89 85 10 34 00 00 	mov    QWORD PTR [rbp+0x3410],rax
  402e89:	48 89 95 18 34 00 00 	mov    QWORD PTR [rbp+0x3418],rdx
  402e90:	48 b8 1b e0 90 00 1a 	movabs rax,0x290f01a0090e01b
  402e97:	f0 90 02 
  402e9a:	48 ba 1c e0 90 00 1b 	movabs rdx,0x290f01b0090e01c
  402ea1:	f0 90 02 
  402ea4:	48 89 85 20 34 00 00 	mov    QWORD PTR [rbp+0x3420],rax
  402eab:	48 89 95 28 34 00 00 	mov    QWORD PTR [rbp+0x3428],rdx
  402eb2:	48 b8 1d e0 90 00 1c 	movabs rax,0x290f01c0090e01d
  402eb9:	f0 90 02 
  402ebc:	48 ba 1e e0 90 00 1d 	movabs rdx,0x290f01d0090e01e
  402ec3:	f0 90 02 
  402ec6:	48 89 85 30 34 00 00 	mov    QWORD PTR [rbp+0x3430],rax
  402ecd:	48 89 95 38 34 00 00 	mov    QWORD PTR [rbp+0x3438],rdx
  402ed4:	48 b8 1f e0 90 00 1e 	movabs rax,0x290f01e0090e01f
  402edb:	f0 90 02 
  402ede:	48 ba 20 e0 90 00 1f 	movabs rdx,0x290f01f0090e020
  402ee5:	f0 90 02 
  402ee8:	48 89 85 40 34 00 00 	mov    QWORD PTR [rbp+0x3440],rax
  402eef:	48 89 95 48 34 00 00 	mov    QWORD PTR [rbp+0x3448],rdx
  402ef6:	48 b8 21 e0 90 00 20 	movabs rax,0x74a3f0200090e021
  402efd:	f0 a3 74 
  402f00:	48 ba 25 f0 74 0d 12 	movabs rdx,0xa3e518120d74f025
  402f07:	18 e5 a3 
  402f0a:	48 89 85 50 34 00 00 	mov    QWORD PTR [rbp+0x3450],rax
  402f11:	48 89 95 58 34 00 00 	mov    QWORD PTR [rbp+0x3458],rdx
  402f18:	48 b8 f0 a3 f0 90 02 	movabs rax,0x90e0220290f0a3f0
  402f1f:	22 e0 90 
  402f22:	48 ba 00 28 f0 90 02 	movabs rdx,0x90e0230290f02800
  402f29:	23 e0 90 
  402f2c:	48 89 85 60 34 00 00 	mov    QWORD PTR [rbp+0x3460],rax
  402f33:	48 89 95 68 34 00 00 	mov    QWORD PTR [rbp+0x3468],rdx
  402f3a:	48 b8 00 29 f0 90 02 	movabs rax,0x90e0240290f02900
  402f41:	24 e0 90 
  402f44:	48 ba 00 2a f0 90 02 	movabs rdx,0x90e0250290f02a00
  402f4b:	25 e0 90 
  402f4e:	48 89 85 70 34 00 00 	mov    QWORD PTR [rbp+0x3470],rax
  402f55:	48 89 95 78 34 00 00 	mov    QWORD PTR [rbp+0x3478],rdx
  402f5c:	48 b8 00 2b f0 90 02 	movabs rax,0x90e0260290f02b00
  402f63:	26 e0 90 
  402f66:	48 ba 00 2c f0 90 02 	movabs rdx,0x90e0270290f02c00
  402f6d:	27 e0 90 
  402f70:	48 89 85 80 34 00 00 	mov    QWORD PTR [rbp+0x3480],rax
  402f77:	48 89 95 88 34 00 00 	mov    QWORD PTR [rbp+0x3488],rdx
  402f7e:	48 b8 00 2d f0 90 02 	movabs rax,0x90e0280290f02d00
  402f85:	28 e0 90 
  402f88:	48 ba 00 2e f0 90 02 	movabs rdx,0x90e0290290f02e00
  402f8f:	29 e0 90 
  402f92:	48 89 85 90 34 00 00 	mov    QWORD PTR [rbp+0x3490],rax
  402f99:	48 89 95 98 34 00 00 	mov    QWORD PTR [rbp+0x3498],rdx
  402fa0:	48 b8 00 2f f0 a3 12 	movabs rax,0xa34b1912a3f02f00
  402fa7:	19 4b a3 
  402faa:	48 ba 74 40 f0 e4 a3 	movabs rdx,0x227ff0a3e4f04074
  402fb1:	f0 7f 22 
  402fb4:	48 89 85 a0 34 00 00 	mov    QWORD PTR [rbp+0x34a0],rax
  402fbb:	48 89 95 a8 34 00 00 	mov    QWORD PTR [rbp+0x34a8],rdx
  402fc2:	48 b8 02 0c df 90 00 	movabs rax,0x1912120090df0c02
  402fc9:	12 12 19 
  402fcc:	48 ba 4b e4 a3 f0 a3 	movabs rdx,0x47ff0a3f0a3e44b
  402fd3:	f0 7f 04 
  402fd6:	48 89 85 b0 34 00 00 	mov    QWORD PTR [rbp+0x34b0],rax
  402fdd:	48 89 95 b8 34 00 00 	mov    QWORD PTR [rbp+0x34b8],rdx
  402fe4:	48 b8 02 0c df 90 00 	movabs rax,0xa3e00f0090df0c02
  402feb:	0f e0 a3 
  402fee:	48 ba f0 64 82 60 03 	movabs rdx,0xc0203608264f0
  402ff5:	02 0c 00 
  402ff8:	48 89 85 c0 34 00 00 	mov    QWORD PTR [rbp+0x34c0],rax
  402fff:	48 89 95 c8 34 00 00 	mov    QWORD PTR [rbp+0x34c8],rdx
  403006:	48 c7 85 d0 34 00 00 	mov    QWORD PTR [rbp+0x34d0],0x0
  40300d:	00 00 00 00 
  403011:	c7 85 d8 34 00 00 00 	mov    DWORD PTR [rbp+0x34d8],0x0
  403018:	00 00 00 
  40301b:	66 c7 85 dc 34 00 00 	mov    WORD PTR [rbp+0x34dc],0x0
  403022:	00 00 
  403024:	48 b8 00 58 8a f7 ff 	movabs rax,0xfff78a5800
  40302b:	00 00 00 
  40302e:	ba 00 00 00 00       	mov    edx,0x0
  403033:	48 89 85 c0 32 00 00 	mov    QWORD PTR [rbp+0x32c0],rax
  40303a:	48 89 95 c8 32 00 00 	mov    QWORD PTR [rbp+0x32c8],rdx
  403041:	48 8d 95 d0 32 00 00 	lea    rdx,[rbp+0x32d0]
  403048:	b8 00 00 00 00       	mov    eax,0x0
  40304d:	b9 1f 00 00 00       	mov    ecx,0x1f
  403052:	48 89 d7             	mov    rdi,rdx
  403055:	f3 48 ab             	rep stos QWORD PTR es:[rdi],rax
  403058:	48 89 fa             	mov    rdx,rdi
  40305b:	89 02                	mov    DWORD PTR [rdx],eax
  40305d:	48 83 c2 04          	add    rdx,0x4
  403061:	66 89 02             	mov    WORD PTR [rdx],ax
  403064:	48 83 c2 02          	add    rdx,0x2
  403068:	48 b8 a9 12 0d 14 12 	movabs rax,0x12df1d12140d12a9
  40306f:	1d df 12 
  403072:	48 ba 1d df 90 06 dd 	movabs rdx,0x12f0efdd0690df1d
  403079:	ef f0 12 
  40307c:	48 89 85 b0 31 00 00 	mov    QWORD PTR [rbp+0x31b0],rax
  403083:	48 89 95 b8 31 00 00 	mov    QWORD PTR [rbp+0x31b8],rdx
  40308a:	48 b8 1d df 90 06 de 	movabs rax,0x12f0efde0690df1d
  403091:	ef f0 12 
  403094:	48 ba 1d df 90 06 df 	movabs rdx,0x12f0efdf0690df1d
  40309b:	ef f0 12 
  40309e:	48 89 85 c0 31 00 00 	mov    QWORD PTR [rbp+0x31c0],rax
  4030a5:	48 89 95 c8 31 00 00 	mov    QWORD PTR [rbp+0x31c8],rdx
  4030ac:	48 b8 1d df 90 06 e0 	movabs rax,0xf00c12e00690df1d
  4030b3:	12 0c f0 
  4030b6:	48 ba 12 19 a4 e4 12 	movabs rdx,0x12630d12e4a41912
  4030bd:	0d 63 12 
  4030c0:	48 89 85 d0 31 00 00 	mov    QWORD PTR [rbp+0x31d0],rax
  4030c7:	48 89 95 d8 31 00 00 	mov    QWORD PTR [rbp+0x31d8],rdx
  4030ce:	48 b8 17 d3 90 06 f0 	movabs rax,0x90ffe0f00690d317
  4030d5:	e0 ff 90 
  4030d8:	48 ba 06 dd e0 6f 60 	movabs rdx,0xc0203606fe0dd06
  4030df:	03 02 0c 
  4030e2:	48 89 85 e0 31 00 00 	mov    QWORD PTR [rbp+0x31e0],rax
  4030e9:	48 89 95 e8 31 00 00 	mov    QWORD PTR [rbp+0x31e8],rdx
  4030f0:	48 b8 a9 90 06 f1 e0 	movabs rax,0x690ffe0f10690a9
  4030f7:	ff 90 06 
  4030fa:	48 ba de e0 6f 60 03 	movabs rdx,0xa90c0203606fe0de
  403101:	02 0c a9 
  403104:	48 89 85 f0 31 00 00 	mov    QWORD PTR [rbp+0x31f0],rax
  40310b:	48 89 95 f8 31 00 00 	mov    QWORD PTR [rbp+0x31f8],rdx
  403112:	48 b8 90 06 f2 e0 ff 	movabs rax,0xdf0690ffe0f20690
  403119:	90 06 df 
  40311c:	48 ba e0 6f 60 03 02 	movabs rdx,0x90a90c0203606fe0
  403123:	0c a9 90 
  403126:	48 89 85 00 32 00 00 	mov    QWORD PTR [rbp+0x3200],rax
  40312d:	48 89 95 08 32 00 00 	mov    QWORD PTR [rbp+0x3208],rdx
  403134:	48 b8 06 f3 e0 ff 90 	movabs rax,0xe0e00690ffe0f306
  40313b:	06 e0 e0 
  40313e:	48 ba 6f 60 03 02 0c 	movabs rdx,0x1912a90c0203606f
  403145:	a9 12 19 
  403148:	48 89 85 10 32 00 00 	mov    QWORD PTR [rbp+0x3210],rax
  40314f:	48 89 95 18 32 00 00 	mov    QWORD PTR [rbp+0x3218],rdx
  403156:	48 b8 a4 12 0d 63 90 	movabs rax,0xe05b0490630d12a4
  40315d:	04 5b e0 
  403160:	48 ba 04 f0 12 19 9a 	movabs rdx,0x5a19129a1912f004
  403167:	12 19 5a 
  40316a:	48 89 85 20 32 00 00 	mov    QWORD PTR [rbp+0x3220],rax
  403171:	48 89 95 28 32 00 00 	mov    QWORD PTR [rbp+0x3228],rdx
  403178:	48 b8 50 05 12 18 f9 	movabs rax,0x90f680f918120550
  40317f:	80 f6 90 
  403182:	48 ba 02 16 e0 ff 90 	movabs rdx,0xe0f00690ffe01602
  403189:	06 f0 e0 
  40318c:	48 89 85 30 32 00 00 	mov    QWORD PTR [rbp+0x3230],rax
  403193:	48 89 95 38 32 00 00 	mov    QWORD PTR [rbp+0x3238],rdx
  40319a:	48 b8 6f 60 03 02 0c 	movabs rax,0x2908f0c0203606f
  4031a1:	8f 90 02 
  4031a4:	48 ba 17 e0 ff 90 06 	movabs rdx,0x6fe0f10690ffe017
  4031ab:	f1 e0 6f 
  4031ae:	48 89 85 40 32 00 00 	mov    QWORD PTR [rbp+0x3240],rax
  4031b5:	48 89 95 48 32 00 00 	mov    QWORD PTR [rbp+0x3248],rdx
  4031bc:	48 b8 60 03 02 0c 8f 	movabs rax,0x1802908f0c020360
  4031c3:	90 02 18 
  4031c6:	48 ba e0 ff 90 06 f2 	movabs rdx,0x606fe0f20690ffe0
  4031cd:	e0 6f 60 
  4031d0:	48 89 85 50 32 00 00 	mov    QWORD PTR [rbp+0x3250],rax
  4031d7:	48 89 95 58 32 00 00 	mov    QWORD PTR [rbp+0x3258],rdx
  4031de:	48 b8 03 02 0c 8f 90 	movabs rax,0xe01902908f0c0203
  4031e5:	02 19 e0 
  4031e8:	48 ba ff 90 06 f3 e0 	movabs rdx,0x3606fe0f30690ff
  4031ef:	6f 60 03 
  4031f2:	48 89 85 60 32 00 00 	mov    QWORD PTR [rbp+0x3260],rax
  4031f9:	48 89 95 68 32 00 00 	mov    QWORD PTR [rbp+0x3268],rdx
  403200:	48 b8 02 0c 8f 90 02 	movabs rax,0x90e01a02908f0c02
  403207:	1a e0 90 
  40320a:	48 ba 04 50 f0 90 02 	movabs rdx,0x90e01b0290f05004
  403211:	1b e0 90 
  403214:	48 89 85 70 32 00 00 	mov    QWORD PTR [rbp+0x3270],rax
  40321b:	48 89 95 78 32 00 00 	mov    QWORD PTR [rbp+0x3278],rdx
  403222:	48 b8 04 51 f0 90 02 	movabs rax,0x90e01c0290f05104
  403229:	1c e0 90 
  40322c:	48 ba 04 52 f0 90 02 	movabs rdx,0x90e01d0290f05204
  403233:	1d e0 90 
  403236:	48 89 85 80 32 00 00 	mov    QWORD PTR [rbp+0x3280],rax
  40323d:	48 89 95 88 32 00 00 	mov    QWORD PTR [rbp+0x3288],rdx
  403244:	48 b8 04 53 f0 90 02 	movabs rax,0x90e01e0290f05304
  40324b:	1e e0 90 
  40324e:	48 ba 04 48 f0 90 02 	movabs rdx,0x90e01f0290f04804
  403255:	1f e0 90 
  403258:	48 89 85 90 32 00 00 	mov    QWORD PTR [rbp+0x3290],rax
  40325f:	48 89 95 98 32 00 00 	mov    QWORD PTR [rbp+0x3298],rdx
  403266:	48 b8 04 49 f0 90 02 	movabs rax,0x90e0200290f04904
  40326d:	20 e0 90 
  403270:	48 ba 04 4a f0 90 02 	movabs rdx,0xe0210290f04a04
  403277:	21 e0 00 
  40327a:	48 89 85 a0 32 00 00 	mov    QWORD PTR [rbp+0x32a0],rax
  403281:	48 89 95 a8 32 00 00 	mov    QWORD PTR [rbp+0x32a8],rdx
  403288:	48 c7 85 b0 32 00 00 	mov    QWORD PTR [rbp+0x32b0],0x0
  40328f:	00 00 00 00 
  403293:	c7 85 b8 32 00 00 00 	mov    DWORD PTR [rbp+0x32b8],0x0
  40329a:	00 00 00 
  40329d:	66 c7 85 bc 32 00 00 	mov    WORD PTR [rbp+0x32bc],0x0
  4032a4:	00 00 
  4032a6:	48 b8 00 58 8b f6 ff 	movabs rax,0xfff68b5800
  4032ad:	00 00 00 
  4032b0:	ba 00 00 00 00       	mov    edx,0x0
  4032b5:	48 89 85 a0 30 00 00 	mov    QWORD PTR [rbp+0x30a0],rax
  4032bc:	48 89 95 a8 30 00 00 	mov    QWORD PTR [rbp+0x30a8],rdx
  4032c3:	48 8d 95 b0 30 00 00 	lea    rdx,[rbp+0x30b0]
  4032ca:	b8 00 00 00 00       	mov    eax,0x0
  4032cf:	b9 1f 00 00 00       	mov    ecx,0x1f
  4032d4:	48 89 d7             	mov    rdi,rdx
  4032d7:	f3 48 ab             	rep stos QWORD PTR es:[rdi],rax
  4032da:	48 89 fa             	mov    rdx,rdi
  4032dd:	89 02                	mov    DWORD PTR [rdx],eax
  4032df:	48 83 c2 04          	add    rdx,0x4
  4032e3:	66 89 02             	mov    WORD PTR [rdx],ax
  4032e6:	48 83 c2 02          	add    rdx,0x2
  4032ea:	48 b8 90 04 4b f0 90 	movabs rax,0xe0220290f04b0490
  4032f1:	02 22 e0 
  4032f4:	48 ba 90 04 4c f0 90 	movabs rdx,0xe0230290f04c0490
  4032fb:	02 23 e0 
  4032fe:	48 89 85 90 2f 00 00 	mov    QWORD PTR [rbp+0x2f90],rax
  403305:	48 89 95 98 2f 00 00 	mov    QWORD PTR [rbp+0x2f98],rdx
  40330c:	48 b8 90 04 4d f0 90 	movabs rax,0xe0240290f04d0490
  403313:	02 24 e0 
  403316:	48 ba 90 04 4e f0 90 	movabs rdx,0xe0250290f04e0490
  40331d:	02 25 e0 
  403320:	48 89 85 a0 2f 00 00 	mov    QWORD PTR [rbp+0x2fa0],rax
  403327:	48 89 95 a8 2f 00 00 	mov    QWORD PTR [rbp+0x2fa8],rdx
  40332e:	48 b8 90 04 4f f0 90 	movabs rax,0xe0260290f04f0490
  403335:	02 26 e0 
  403338:	48 ba 90 04 54 f0 90 	movabs rdx,0xe0270290f0540490
  40333f:	02 27 e0 
  403342:	48 89 85 b0 2f 00 00 	mov    QWORD PTR [rbp+0x2fb0],rax
  403349:	48 89 95 b8 2f 00 00 	mov    QWORD PTR [rbp+0x2fb8],rdx
  403350:	48 b8 90 04 55 f0 90 	movabs rax,0xe0280290f0550490
  403357:	02 28 e0 
  40335a:	48 ba 90 04 56 f0 90 	movabs rdx,0xe0290290f0560490
  403361:	02 29 e0 
  403364:	48 89 85 c0 2f 00 00 	mov    QWORD PTR [rbp+0x2fc0],rax
  40336b:	48 89 95 c8 2f 00 00 	mov    QWORD PTR [rbp+0x2fc8],rdx
  403372:	48 b8 90 04 57 f0 90 	movabs rax,0xe02a0290f0570490
  403379:	02 2a e0 
  40337c:	48 ba 90 04 58 f0 90 	movabs rdx,0xe02b0290f0580490
  403383:	02 2b e0 
  403386:	48 89 85 d0 2f 00 00 	mov    QWORD PTR [rbp+0x2fd0],rax
  40338d:	48 89 95 d8 2f 00 00 	mov    QWORD PTR [rbp+0x2fd8],rdx
  403394:	48 b8 64 01 70 09 90 	movabs rax,0xe063049009700164
  40339b:	04 63 e0 
  40339e:	48 ba 64 ca 70 01 f0 	movabs rdx,0x2b0290f00170ca64
  4033a5:	90 02 2b 
  4033a8:	48 89 85 e0 2f 00 00 	mov    QWORD PTR [rbp+0x2fe0],rax
  4033af:	48 89 95 e8 2f 00 00 	mov    QWORD PTR [rbp+0x2fe8],rdx
  4033b6:	48 b8 e0 90 04 5d f0 	movabs rax,0x2c0290f05d0490e0
  4033bd:	90 02 2c 
  4033c0:	48 ba e0 90 04 5e f0 	movabs rdx,0x580490f05e0490e0
  4033c7:	90 04 58 
  4033ca:	48 89 85 f0 2f 00 00 	mov    QWORD PTR [rbp+0x2ff0],rax
  4033d1:	48 89 95 f8 2f 00 00 	mov    QWORD PTR [rbp+0x2ff8],rdx
  4033d8:	48 b8 e0 60 0e a3 e0 	movabs rax,0xa32270e0a30e60e0
  4033df:	70 22 a3 
  4033e2:	48 ba e0 70 1e 90 04 	movabs rdx,0x70e06104901e70e0
  4033e9:	61 e0 70 
  4033ec:	48 89 85 00 30 00 00 	mov    QWORD PTR [rbp+0x3000],rax
  4033f3:	48 89 95 08 30 00 00 	mov    QWORD PTR [rbp+0x3008],rdx
  4033fa:	48 b8 18 90 06 f4 e0 	movabs rax,0x590490e0f4069018
  403401:	90 04 59 
  403404:	48 ba f0 90 06 f5 e0 	movabs rdx,0x5a0490e0f50690f0
  40340b:	90 04 5a 
  40340e:	48 89 85 10 30 00 00 	mov    QWORD PTR [rbp+0x3010],rax
  403415:	48 89 95 18 30 00 00 	mov    QWORD PTR [rbp+0x3018],rdx
  40341c:	48 b8 f0 90 06 f6 e0 	movabs rax,0x610490e0f60690f0
  403423:	90 04 61 
  403426:	48 ba f0 90 02 07 e0 	movabs rdx,0x5f0490e0070290f0
  40342d:	90 04 5f 
  403430:	48 89 85 20 30 00 00 	mov    QWORD PTR [rbp+0x3020],rax
  403437:	48 89 95 28 30 00 00 	mov    QWORD PTR [rbp+0x3028],rdx
  40343e:	48 b8 f0 90 02 45 e0 	movabs rax,0x600490e0450290f0
  403445:	90 04 60 
  403448:	48 ba f0 12 19 1c 7f 	movabs rdx,0x707e007f1c1912f0
  40344f:	00 7e 70 
  403452:	48 89 85 30 30 00 00 	mov    QWORD PTR [rbp+0x3030],rax
  403459:	48 89 95 38 30 00 00 	mov    QWORD PTR [rbp+0x3038],rdx
  403460:	48 b8 12 10 42 12 1c 	movabs rax,0xffe4791c12421012
  403467:	79 e4 ff 
  40346a:	48 ba 80 2f 12 1c 79 	movabs rdx,0x120090791c122f80
  403471:	90 00 12 
  403474:	48 89 85 40 30 00 00 	mov    QWORD PTR [rbp+0x3040],rax
  40347b:	48 89 95 48 30 00 00 	mov    QWORD PTR [rbp+0x3048],rdx
  403482:	48 b8 74 74 f0 a3 74 	movabs rax,0x90f00474a3f07474
  403489:	04 f0 90 
  40348c:	48 ba 06 f0 e0 90 00 	movabs rdx,0x90f0140090e0f006
  403493:	14 f0 90 
  403496:	48 89 85 50 30 00 00 	mov    QWORD PTR [rbp+0x3050],rax
  40349d:	48 89 95 58 30 00 00 	mov    QWORD PTR [rbp+0x3058],rdx
  4034a4:	48 b8 06 f1 e0 90 00 	movabs rax,0x90f0150090e0f106
  4034ab:	15 f0 90 
  4034ae:	48 ba 06 f2 e0 90 00 	movabs rdx,0x90f0160090e0f206
  4034b5:	16 f0 90 
  4034b8:	48 89 85 60 30 00 00 	mov    QWORD PTR [rbp+0x3060],rax
  4034bf:	48 89 95 68 30 00 00 	mov    QWORD PTR [rbp+0x3068],rdx
  4034c6:	48 b8 06 f3 e0 90 00 	movabs rax,0x7ff0170090e0f306
  4034cd:	17 f0 7f 
  4034d0:	48 ba 06 12 1d b5 02 	movabs rdx,0x12310202b51d1206
  4034d7:	02 31 12 
  4034da:	48 89 85 70 30 00 00 	mov    QWORD PTR [rbp+0x3070],rax
  4034e1:	48 89 95 78 30 00 00 	mov    QWORD PTR [rbp+0x3078],rdx
  4034e8:	48 b8 1c 79 e4 ff 12 	movabs rax,0x2b51d12ffe4791c
  4034ef:	1d b5 02 
  4034f2:	48 ba 02 31 ef f0 12 	movabs rdx,0xdf1d12f0ef3102
  4034f9:	1d df 00 
  4034fc:	48 89 85 80 30 00 00 	mov    QWORD PTR [rbp+0x3080],rax
  403503:	48 89 95 88 30 00 00 	mov    QWORD PTR [rbp+0x3088],rdx
  40350a:	48 c7 85 90 30 00 00 	mov    QWORD PTR [rbp+0x3090],0x0
  403511:	00 00 00 00 
  403515:	c7 85 98 30 00 00 00 	mov    DWORD PTR [rbp+0x3098],0x0
  40351c:	00 00 00 
  40351f:	66 c7 85 9c 30 00 00 	mov    WORD PTR [rbp+0x309c],0x0
  403526:	00 00 
  403528:	48 b8 00 58 8c f5 ff 	movabs rax,0xfff58c5800
  40352f:	00 00 00 
  403532:	ba 00 00 00 00       	mov    edx,0x0
  403537:	48 89 85 80 2e 00 00 	mov    QWORD PTR [rbp+0x2e80],rax
  40353e:	48 89 95 88 2e 00 00 	mov    QWORD PTR [rbp+0x2e88],rdx
  403545:	48 8d 95 90 2e 00 00 	lea    rdx,[rbp+0x2e90]
  40354c:	b8 00 00 00 00       	mov    eax,0x0
  403551:	b9 1f 00 00 00       	mov    ecx,0x1f
  403556:	48 89 d7             	mov    rdi,rdx
  403559:	f3 48 ab             	rep stos QWORD PTR es:[rdi],rax
  40355c:	48 89 fa             	mov    rdx,rdi
  40355f:	89 02                	mov    DWORD PTR [rdx],eax
  403561:	48 83 c2 04          	add    rdx,0x4
  403565:	66 89 02             	mov    WORD PTR [rdx],ax
  403568:	48 83 c2 02          	add    rdx,0x2
  40356c:	48 8d 95 70 2d 00 00 	lea    rdx,[rbp+0x2d70]
  403573:	b8 00 00 00 00       	mov    eax,0x0
  403578:	b9 21 00 00 00       	mov    ecx,0x21
  40357d:	48 89 d7             	mov    rdi,rdx
  403580:	f3 48 ab             	rep stos QWORD PTR es:[rdi],rax
  403583:	48 89 fa             	mov    rdx,rdi
  403586:	89 02                	mov    DWORD PTR [rdx],eax
  403588:	48 83 c2 04          	add    rdx,0x4
  40358c:	66 89 02             	mov    WORD PTR [rdx],ax
  40358f:	48 83 c2 02          	add    rdx,0x2
  403593:	c6 85 70 2d 00 00 12 	mov    BYTE PTR [rbp+0x2d70],0x12
  40359a:	c6 85 71 2d 00 00 1d 	mov    BYTE PTR [rbp+0x2d71],0x1d
  4035a1:	c6 85 72 2d 00 00 df 	mov    BYTE PTR [rbp+0x2d72],0xdf
  4035a8:	c6 85 73 2d 00 00 12 	mov    BYTE PTR [rbp+0x2d73],0x12
  4035af:	c6 85 74 2d 00 00 1d 	mov    BYTE PTR [rbp+0x2d74],0x1d
  4035b6:	c6 85 75 2d 00 00 df 	mov    BYTE PTR [rbp+0x2d75],0xdf
  4035bd:	c6 85 76 2d 00 00 12 	mov    BYTE PTR [rbp+0x2d76],0x12
  4035c4:	c6 85 77 2d 00 00 1d 	mov    BYTE PTR [rbp+0x2d77],0x1d
  4035cb:	c6 85 78 2d 00 00 df 	mov    BYTE PTR [rbp+0x2d78],0xdf
  4035d2:	c6 85 79 2d 00 00 22 	mov    BYTE PTR [rbp+0x2d79],0x22
  4035d9:	c6 85 7a 2d 00 00 f0 	mov    BYTE PTR [rbp+0x2d7a],0xf0
  4035e0:	c6 85 7b 2d 00 00 7b 	mov    BYTE PTR [rbp+0x2d7b],0x7b
  4035e7:	c6 85 7c 2d 00 00 01 	mov    BYTE PTR [rbp+0x2d7c],0x1
  4035ee:	c6 85 7d 2d 00 00 7a 	mov    BYTE PTR [rbp+0x2d7d],0x7a
  4035f5:	c6 85 7e 2d 00 00 04 	mov    BYTE PTR [rbp+0x2d7e],0x4
  4035fc:	c6 85 7f 2d 00 00 79 	mov    BYTE PTR [rbp+0x2d7f],0x79
  403603:	c6 85 80 2d 00 00 48 	mov    BYTE PTR [rbp+0x2d80],0x48
  40360a:	c6 85 81 2d 00 00 90 	mov    BYTE PTR [rbp+0x2d81],0x90
  403611:	c6 85 82 2d 00 00 06 	mov    BYTE PTR [rbp+0x2d82],0x6
  403618:	c6 85 83 2d 00 00 c2 	mov    BYTE PTR [rbp+0x2d83],0xc2
  40361f:	c6 85 84 2d 00 00 74 	mov    BYTE PTR [rbp+0x2d84],0x74
  403626:	c6 85 85 2d 00 00 ff 	mov    BYTE PTR [rbp+0x2d85],0xff
  40362d:	c6 85 86 2d 00 00 f0 	mov    BYTE PTR [rbp+0x2d86],0xf0
  403634:	c6 85 87 2d 00 00 7f 	mov    BYTE PTR [rbp+0x2d87],0x7f
  40363b:	c6 85 89 2d 00 00 7e 	mov    BYTE PTR [rbp+0x2d89],0x7e
  403642:	c6 85 8a 2d 00 00 70 	mov    BYTE PTR [rbp+0x2d8a],0x70
  403649:	c6 85 8b 2d 00 00 12 	mov    BYTE PTR [rbp+0x2d8b],0x12
  403650:	c6 85 8c 2d 00 00 10 	mov    BYTE PTR [rbp+0x2d8c],0x10
  403657:	c6 85 8d 2d 00 00 42 	mov    BYTE PTR [rbp+0x2d8d],0x42
  40365e:	c6 85 8e 2d 00 00 22 	mov    BYTE PTR [rbp+0x2d8e],0x22
  403665:	c6 85 8f 2d 00 00 12 	mov    BYTE PTR [rbp+0x2d8f],0x12
  40366c:	c6 85 90 2d 00 00 1d 	mov    BYTE PTR [rbp+0x2d90],0x1d
  403673:	c6 85 91 2d 00 00 df 	mov    BYTE PTR [rbp+0x2d91],0xdf
  40367a:	c6 85 92 2d 00 00 12 	mov    BYTE PTR [rbp+0x2d92],0x12
  403681:	c6 85 93 2d 00 00 1d 	mov    BYTE PTR [rbp+0x2d93],0x1d
  403688:	c6 85 94 2d 00 00 df 	mov    BYTE PTR [rbp+0x2d94],0xdf
  40368f:	c6 85 95 2d 00 00 12 	mov    BYTE PTR [rbp+0x2d95],0x12
  403696:	c6 85 96 2d 00 00 1d 	mov    BYTE PTR [rbp+0x2d96],0x1d
  40369d:	c6 85 97 2d 00 00 df 	mov    BYTE PTR [rbp+0x2d97],0xdf
  4036a4:	c6 85 98 2d 00 00 12 	mov    BYTE PTR [rbp+0x2d98],0x12
  4036ab:	c6 85 99 2d 00 00 1d 	mov    BYTE PTR [rbp+0x2d99],0x1d
  4036b2:	c6 85 9a 2d 00 00 df 	mov    BYTE PTR [rbp+0x2d9a],0xdf
  4036b9:	c6 85 9b 2d 00 00 22 	mov    BYTE PTR [rbp+0x2d9b],0x22
  4036c0:	c6 85 9c 2d 00 00 7b 	mov    BYTE PTR [rbp+0x2d9c],0x7b
  4036c7:	c6 85 9d 2d 00 00 01 	mov    BYTE PTR [rbp+0x2d9d],0x1
  4036ce:	c6 85 9e 2d 00 00 7a 	mov    BYTE PTR [rbp+0x2d9e],0x7a
  4036d5:	c6 85 9f 2d 00 00 04 	mov    BYTE PTR [rbp+0x2d9f],0x4
  4036dc:	c6 85 a0 2d 00 00 79 	mov    BYTE PTR [rbp+0x2da0],0x79
  4036e3:	c6 85 a1 2d 00 00 48 	mov    BYTE PTR [rbp+0x2da1],0x48
  4036ea:	c6 85 a2 2d 00 00 e4 	mov    BYTE PTR [rbp+0x2da2],0xe4
  4036f1:	c6 85 a3 2d 00 00 90 	mov    BYTE PTR [rbp+0x2da3],0x90
  4036f8:	c6 85 a4 2d 00 00 06 	mov    BYTE PTR [rbp+0x2da4],0x6
  4036ff:	c6 85 a5 2d 00 00 c2 	mov    BYTE PTR [rbp+0x2da5],0xc2
  403706:	c6 85 a6 2d 00 00 f0 	mov    BYTE PTR [rbp+0x2da6],0xf0
  40370d:	c6 85 a7 2d 00 00 a3 	mov    BYTE PTR [rbp+0x2da7],0xa3
  403714:	c6 85 a8 2d 00 00 f0 	mov    BYTE PTR [rbp+0x2da8],0xf0
  40371b:	c6 85 a9 2d 00 00 fd 	mov    BYTE PTR [rbp+0x2da9],0xfd
  403722:	c6 85 aa 2d 00 00 7c 	mov    BYTE PTR [rbp+0x2daa],0x7c
  403729:	c6 85 ab 2d 00 00 70 	mov    BYTE PTR [rbp+0x2dab],0x70
  403730:	c6 85 ac 2d 00 00 12 	mov    BYTE PTR [rbp+0x2dac],0x12
  403737:	c6 85 ad 2d 00 00 1d 	mov    BYTE PTR [rbp+0x2dad],0x1d
  40373e:	c6 85 ae 2d 00 00 4e 	mov    BYTE PTR [rbp+0x2dae],0x4e
  403745:	c6 85 af 2d 00 00 22 	mov    BYTE PTR [rbp+0x2daf],0x22
  40374c:	c6 85 b0 2d 00 00 12 	mov    BYTE PTR [rbp+0x2db0],0x12
  403753:	c6 85 b1 2d 00 00 1d 	mov    BYTE PTR [rbp+0x2db1],0x1d
  40375a:	c6 85 b2 2d 00 00 df 	mov    BYTE PTR [rbp+0x2db2],0xdf
  403761:	c6 85 b3 2d 00 00 90 	mov    BYTE PTR [rbp+0x2db3],0x90
  403768:	c6 85 b4 2d 00 00 06 	mov    BYTE PTR [rbp+0x2db4],0x6
  40376f:	c6 85 b5 2d 00 00 a8 	mov    BYTE PTR [rbp+0x2db5],0xa8
  403776:	c6 85 b6 2d 00 00 e4 	mov    BYTE PTR [rbp+0x2db6],0xe4
  40377d:	c6 85 b7 2d 00 00 75 	mov    BYTE PTR [rbp+0x2db7],0x75
  403784:	c6 85 b8 2d 00 00 f0 	mov    BYTE PTR [rbp+0x2db8],0xf0
  40378b:	c6 85 b9 2d 00 00 01 	mov    BYTE PTR [rbp+0x2db9],0x1
  403792:	c6 85 ba 2d 00 00 12 	mov    BYTE PTR [rbp+0x2dba],0x12
  403799:	c6 85 bb 2d 00 00 14 	mov    BYTE PTR [rbp+0x2dbb],0x14
  4037a0:	c6 85 bc 2d 00 00 1c 	mov    BYTE PTR [rbp+0x2dbc],0x1c
  4037a7:	c6 85 bd 2d 00 00 22 	mov    BYTE PTR [rbp+0x2dbd],0x22
  4037ae:	c6 85 be 2d 00 00 12 	mov    BYTE PTR [rbp+0x2dbe],0x12
  4037b5:	c6 85 bf 2d 00 00 1d 	mov    BYTE PTR [rbp+0x2dbf],0x1d
  4037bc:	c6 85 c0 2d 00 00 df 	mov    BYTE PTR [rbp+0x2dc0],0xdf
  4037c3:	c6 85 c1 2d 00 00 90 	mov    BYTE PTR [rbp+0x2dc1],0x90
  4037ca:	c6 85 c3 2d 00 00 10 	mov    BYTE PTR [rbp+0x2dc3],0x10
  4037d1:	c6 85 c4 2d 00 00 ef 	mov    BYTE PTR [rbp+0x2dc4],0xef
  4037d8:	c6 85 c5 2d 00 00 f0 	mov    BYTE PTR [rbp+0x2dc5],0xf0
  4037df:	c6 85 c6 2d 00 00 22 	mov    BYTE PTR [rbp+0x2dc6],0x22
  4037e6:	c6 85 c7 2d 00 00 12 	mov    BYTE PTR [rbp+0x2dc7],0x12
  4037ed:	c6 85 c8 2d 00 00 1d 	mov    BYTE PTR [rbp+0x2dc8],0x1d
  4037f4:	c6 85 c9 2d 00 00 d3 	mov    BYTE PTR [rbp+0x2dc9],0xd3
  4037fb:	c6 85 ca 2d 00 00 7f 	mov    BYTE PTR [rbp+0x2dca],0x7f
  403802:	c6 85 cb 2d 00 00 30 	mov    BYTE PTR [rbp+0x2dcb],0x30
  403809:	c6 85 cc 2d 00 00 12 	mov    BYTE PTR [rbp+0x2dcc],0x12
  403810:	c6 85 cd 2d 00 00 1d 	mov    BYTE PTR [rbp+0x2dcd],0x1d
  403817:	c6 85 ce 2d 00 00 d3 	mov    BYTE PTR [rbp+0x2dce],0xd3
  40381e:	c6 85 cf 2d 00 00 22 	mov    BYTE PTR [rbp+0x2dcf],0x22
  403825:	c6 85 d0 2d 00 00 12 	mov    BYTE PTR [rbp+0x2dd0],0x12
  40382c:	c6 85 d1 2d 00 00 1c 	mov    BYTE PTR [rbp+0x2dd1],0x1c
  403833:	c6 85 d2 2d 00 00 79 	mov    BYTE PTR [rbp+0x2dd2],0x79
  40383a:	c6 85 d3 2d 00 00 90 	mov    BYTE PTR [rbp+0x2dd3],0x90
  403841:	c6 85 d4 2d 00 00 04 	mov    BYTE PTR [rbp+0x2dd4],0x4
  403848:	c6 85 d5 2d 00 00 99 	mov    BYTE PTR [rbp+0x2dd5],0x99
  40384f:	c6 85 d6 2d 00 00 e0 	mov    BYTE PTR [rbp+0x2dd6],0xe0
  403856:	c6 85 d7 2d 00 00 ff 	mov    BYTE PTR [rbp+0x2dd7],0xff
  40385d:	c6 85 d8 2d 00 00 90 	mov    BYTE PTR [rbp+0x2dd8],0x90
  403864:	c6 85 da 2d 00 00 0f 	mov    BYTE PTR [rbp+0x2dda],0xf
  40386b:	c6 85 db 2d 00 00 e0 	mov    BYTE PTR [rbp+0x2ddb],0xe0
  403872:	c6 85 dc 2d 00 00 6f 	mov    BYTE PTR [rbp+0x2ddc],0x6f
  403879:	c6 85 dd 2d 00 00 22 	mov    BYTE PTR [rbp+0x2ddd],0x22
  403880:	c6 85 de 2d 00 00 f0 	mov    BYTE PTR [rbp+0x2dde],0xf0
  403887:	c6 85 df 2d 00 00 a3 	mov    BYTE PTR [rbp+0x2ddf],0xa3
  40388e:	c6 85 e0 2d 00 00 74 	mov    BYTE PTR [rbp+0x2de0],0x74
  403895:	c6 85 e1 2d 00 00 ff 	mov    BYTE PTR [rbp+0x2de1],0xff
  40389c:	c6 85 e2 2d 00 00 f0 	mov    BYTE PTR [rbp+0x2de2],0xf0
  4038a3:	c6 85 e3 2d 00 00 7d 	mov    BYTE PTR [rbp+0x2de3],0x7d
  4038aa:	c6 85 e5 2d 00 00 7c 	mov    BYTE PTR [rbp+0x2de5],0x7c
  4038b1:	c6 85 e6 2d 00 00 70 	mov    BYTE PTR [rbp+0x2de6],0x70
  4038b8:	c6 85 e7 2d 00 00 12 	mov    BYTE PTR [rbp+0x2de7],0x12
  4038bf:	c6 85 e8 2d 00 00 1d 	mov    BYTE PTR [rbp+0x2de8],0x1d
  4038c6:	c6 85 e9 2d 00 00 4e 	mov    BYTE PTR [rbp+0x2de9],0x4e
  4038cd:	c6 85 ea 2d 00 00 22 	mov    BYTE PTR [rbp+0x2dea],0x22
  4038d4:	c6 85 eb 2d 00 00 12 	mov    BYTE PTR [rbp+0x2deb],0x12
  4038db:	c6 85 ec 2d 00 00 1c 	mov    BYTE PTR [rbp+0x2dec],0x1c
  4038e2:	c6 85 ed 2d 00 00 79 	mov    BYTE PTR [rbp+0x2ded],0x79
  4038e9:	c6 85 ee 2d 00 00 90 	mov    BYTE PTR [rbp+0x2dee],0x90
  4038f0:	c6 85 ef 2d 00 00 04 	mov    BYTE PTR [rbp+0x2def],0x4
  4038f7:	c6 85 f0 2d 00 00 5d 	mov    BYTE PTR [rbp+0x2df0],0x5d
  4038fe:	c6 85 f1 2d 00 00 e0 	mov    BYTE PTR [rbp+0x2df1],0xe0
  403905:	c6 85 f2 2d 00 00 64 	mov    BYTE PTR [rbp+0x2df2],0x64
  40390c:	c6 85 f3 2d 00 00 01 	mov    BYTE PTR [rbp+0x2df3],0x1
  403913:	c6 85 f4 2d 00 00 22 	mov    BYTE PTR [rbp+0x2df4],0x22
  40391a:	c6 85 f5 2d 00 00 12 	mov    BYTE PTR [rbp+0x2df5],0x12
  403921:	c6 85 f6 2d 00 00 1d 	mov    BYTE PTR [rbp+0x2df6],0x1d
  403928:	c6 85 f7 2d 00 00 df 	mov    BYTE PTR [rbp+0x2df7],0xdf
  40392f:	c6 85 f8 2d 00 00 90 	mov    BYTE PTR [rbp+0x2df8],0x90
  403936:	c6 85 fa 2d 00 00 10 	mov    BYTE PTR [rbp+0x2dfa],0x10
  40393d:	c6 85 fb 2d 00 00 22 	mov    BYTE PTR [rbp+0x2dfb],0x22
  403944:	c6 85 fc 2d 00 00 12 	mov    BYTE PTR [rbp+0x2dfc],0x12
  40394b:	c6 85 fd 2d 00 00 1d 	mov    BYTE PTR [rbp+0x2dfd],0x1d
  403952:	c6 85 fe 2d 00 00 df 	mov    BYTE PTR [rbp+0x2dfe],0xdf
  403959:	c6 85 ff 2d 00 00 90 	mov    BYTE PTR [rbp+0x2dff],0x90
  403960:	c6 85 00 2e 00 00 04 	mov    BYTE PTR [rbp+0x2e00],0x4
  403967:	c6 85 01 2e 00 00 9a 	mov    BYTE PTR [rbp+0x2e01],0x9a
  40396e:	c6 85 02 2e 00 00 22 	mov    BYTE PTR [rbp+0x2e02],0x22
  403975:	c6 85 03 2e 00 00 12 	mov    BYTE PTR [rbp+0x2e03],0x12
  40397c:	c6 85 04 2e 00 00 1d 	mov    BYTE PTR [rbp+0x2e04],0x1d
  403983:	c6 85 05 2e 00 00 df 	mov    BYTE PTR [rbp+0x2e05],0xdf
  40398a:	c6 85 06 2e 00 00 90 	mov    BYTE PTR [rbp+0x2e06],0x90
  403991:	c6 85 07 2e 00 00 04 	mov    BYTE PTR [rbp+0x2e07],0x4
  403998:	c6 85 08 2e 00 00 9b 	mov    BYTE PTR [rbp+0x2e08],0x9b
  40399f:	c6 85 09 2e 00 00 22 	mov    BYTE PTR [rbp+0x2e09],0x22
  4039a6:	c6 85 0a 2e 00 00 12 	mov    BYTE PTR [rbp+0x2e0a],0x12
  4039ad:	c6 85 0b 2e 00 00 1d 	mov    BYTE PTR [rbp+0x2e0b],0x1d
  4039b4:	c6 85 0c 2e 00 00 df 	mov    BYTE PTR [rbp+0x2e0c],0xdf
  4039bb:	c6 85 0d 2e 00 00 90 	mov    BYTE PTR [rbp+0x2e0d],0x90
  4039c2:	c6 85 0e 2e 00 00 04 	mov    BYTE PTR [rbp+0x2e0e],0x4
  4039c9:	c6 85 0f 2e 00 00 9c 	mov    BYTE PTR [rbp+0x2e0f],0x9c
  4039d0:	c6 85 10 2e 00 00 22 	mov    BYTE PTR [rbp+0x2e10],0x22
  4039d7:	c6 85 11 2e 00 00 12 	mov    BYTE PTR [rbp+0x2e11],0x12
  4039de:	c6 85 12 2e 00 00 1c 	mov    BYTE PTR [rbp+0x2e12],0x1c
  4039e5:	c6 85 13 2e 00 00 79 	mov    BYTE PTR [rbp+0x2e13],0x79
  4039ec:	c6 85 14 2e 00 00 90 	mov    BYTE PTR [rbp+0x2e14],0x90
  4039f3:	c6 85 16 2e 00 00 12 	mov    BYTE PTR [rbp+0x2e16],0x12
  4039fa:	c6 85 17 2e 00 00 22 	mov    BYTE PTR [rbp+0x2e17],0x22
  403a01:	c6 85 18 2e 00 00 44 	mov    BYTE PTR [rbp+0x2e18],0x44
  403a08:	c6 85 19 2e 00 00 06 	mov    BYTE PTR [rbp+0x2e19],0x6
  403a0f:	c6 85 1a 2e 00 00 f0 	mov    BYTE PTR [rbp+0x2e1a],0xf0
  403a16:	0f b6 85 80 4b 00 00 	movzx  eax,BYTE PTR [rbp+0x4b80]
  403a1d:	88 85 1b 2e 00 00    	mov    BYTE PTR [rbp+0x2e1b],al
  403a23:	0f b6 85 81 4b 00 00 	movzx  eax,BYTE PTR [rbp+0x4b81]
  403a2a:	88 85 1c 2e 00 00    	mov    BYTE PTR [rbp+0x2e1c],al
  403a30:	0f b6 85 82 4b 00 00 	movzx  eax,BYTE PTR [rbp+0x4b82]
  403a37:	88 85 1d 2e 00 00    	mov    BYTE PTR [rbp+0x2e1d],al
  403a3d:	0f b6 85 83 4b 00 00 	movzx  eax,BYTE PTR [rbp+0x4b83]
  403a44:	88 85 1e 2e 00 00    	mov    BYTE PTR [rbp+0x2e1e],al
  403a4a:	c6 85 1f 2e 00 00 44 	mov    BYTE PTR [rbp+0x2e1f],0x44
  403a51:	c6 85 20 2e 00 00 06 	mov    BYTE PTR [rbp+0x2e20],0x6
  403a58:	c6 85 21 2e 00 00 dd 	mov    BYTE PTR [rbp+0x2e21],0xdd
  403a5f:	0f b6 85 84 4b 00 00 	movzx  eax,BYTE PTR [rbp+0x4b84]
  403a66:	88 85 22 2e 00 00    	mov    BYTE PTR [rbp+0x2e22],al
  403a6c:	0f b6 85 85 4b 00 00 	movzx  eax,BYTE PTR [rbp+0x4b85]
  403a73:	88 85 23 2e 00 00    	mov    BYTE PTR [rbp+0x2e23],al
  403a79:	0f b6 85 86 4b 00 00 	movzx  eax,BYTE PTR [rbp+0x4b86]
  403a80:	88 85 24 2e 00 00    	mov    BYTE PTR [rbp+0x2e24],al
  403a86:	0f b6 85 87 4b 00 00 	movzx  eax,BYTE PTR [rbp+0x4b87]
  403a8d:	88 85 25 2e 00 00    	mov    BYTE PTR [rbp+0x2e25],al
  403a93:	c6 85 26 2e 00 00 4f 	mov    BYTE PTR [rbp+0x2e26],0x4f
  403a9a:	c6 85 27 2e 00 00 06 	mov    BYTE PTR [rbp+0x2e27],0x6
  403aa1:	c6 85 28 2e 00 00 e1 	mov    BYTE PTR [rbp+0x2e28],0xe1
  403aa8:	0f b6 85 88 4b 00 00 	movzx  eax,BYTE PTR [rbp+0x4b88]
  403aaf:	88 85 29 2e 00 00    	mov    BYTE PTR [rbp+0x2e29],al
  403ab5:	0f b6 85 89 4b 00 00 	movzx  eax,BYTE PTR [rbp+0x4b89]
  403abc:	88 85 2a 2e 00 00    	mov    BYTE PTR [rbp+0x2e2a],al
  403ac2:	0f b6 85 8a 4b 00 00 	movzx  eax,BYTE PTR [rbp+0x4b8a]
  403ac9:	88 85 2b 2e 00 00    	mov    BYTE PTR [rbp+0x2e2b],al
  403acf:	0f b6 85 8b 4b 00 00 	movzx  eax,BYTE PTR [rbp+0x4b8b]
  403ad6:	88 85 2c 2e 00 00    	mov    BYTE PTR [rbp+0x2e2c],al
  403adc:	0f b6 85 8c 4b 00 00 	movzx  eax,BYTE PTR [rbp+0x4b8c]
  403ae3:	88 85 2d 2e 00 00    	mov    BYTE PTR [rbp+0x2e2d],al
  403ae9:	0f b6 85 8d 4b 00 00 	movzx  eax,BYTE PTR [rbp+0x4b8d]
  403af0:	88 85 2e 2e 00 00    	mov    BYTE PTR [rbp+0x2e2e],al
  403af6:	0f b6 85 8e 4b 00 00 	movzx  eax,BYTE PTR [rbp+0x4b8e]
  403afd:	88 85 2f 2e 00 00    	mov    BYTE PTR [rbp+0x2e2f],al
  403b03:	0f b6 85 8f 4b 00 00 	movzx  eax,BYTE PTR [rbp+0x4b8f]
  403b0a:	88 85 30 2e 00 00    	mov    BYTE PTR [rbp+0x2e30],al
  403b10:	0f b6 85 90 4b 00 00 	movzx  eax,BYTE PTR [rbp+0x4b90]
  403b17:	88 85 31 2e 00 00    	mov    BYTE PTR [rbp+0x2e31],al
  403b1d:	0f b6 85 91 4b 00 00 	movzx  eax,BYTE PTR [rbp+0x4b91]
  403b24:	88 85 32 2e 00 00    	mov    BYTE PTR [rbp+0x2e32],al
  403b2a:	0f b6 85 92 4b 00 00 	movzx  eax,BYTE PTR [rbp+0x4b92]
  403b31:	88 85 33 2e 00 00    	mov    BYTE PTR [rbp+0x2e33],al
  403b37:	0f b6 85 93 4b 00 00 	movzx  eax,BYTE PTR [rbp+0x4b93]
  403b3e:	88 85 34 2e 00 00    	mov    BYTE PTR [rbp+0x2e34],al
  403b44:	0f b6 85 94 4b 00 00 	movzx  eax,BYTE PTR [rbp+0x4b94]
  403b4b:	88 85 35 2e 00 00    	mov    BYTE PTR [rbp+0x2e35],al
  403b51:	0f b6 85 95 4b 00 00 	movzx  eax,BYTE PTR [rbp+0x4b95]
  403b58:	88 85 36 2e 00 00    	mov    BYTE PTR [rbp+0x2e36],al
  403b5e:	0f b6 85 96 4b 00 00 	movzx  eax,BYTE PTR [rbp+0x4b96]
  403b65:	88 85 37 2e 00 00    	mov    BYTE PTR [rbp+0x2e37],al
  403b6b:	c6 85 38 2e 00 00 43 	mov    BYTE PTR [rbp+0x2e38],0x43
  403b72:	c6 85 39 2e 00 00 06 	mov    BYTE PTR [rbp+0x2e39],0x6
  403b79:	c6 85 3a 2e 00 00 f4 	mov    BYTE PTR [rbp+0x2e3a],0xf4
  403b80:	c6 85 3e 2e 00 00 60 	mov    BYTE PTR [rbp+0x2e3e],0x60
  403b87:	c6 85 3f 2e 00 00 60 	mov    BYTE PTR [rbp+0x2e3f],0x60
  403b8e:	c6 85 40 2e 00 00 06 	mov    BYTE PTR [rbp+0x2e40],0x6
  403b95:	c6 85 41 2e 00 00 48 	mov    BYTE PTR [rbp+0x2e41],0x48
  403b9c:	c6 85 42 2e 00 00 02 	mov    BYTE PTR [rbp+0x2e42],0x2
  403ba3:	c6 85 44 2e 00 00 3b 	mov    BYTE PTR [rbp+0x2e44],0x3b
  403baa:	c6 85 45 2e 00 00 32 	mov    BYTE PTR [rbp+0x2e45],0x32
  403bb1:	c6 85 4d 2e 00 00 32 	mov    BYTE PTR [rbp+0x2e4d],0x32
  403bb8:	c6 85 55 2e 00 00 32 	mov    BYTE PTR [rbp+0x2e55],0x32
  403bbf:	c6 85 5d 2e 00 00 32 	mov    BYTE PTR [rbp+0x2e5d],0x32
  403bc6:	c6 85 65 2e 00 00 32 	mov    BYTE PTR [rbp+0x2e65],0x32
  403bcd:	c6 85 6d 2e 00 00 32 	mov    BYTE PTR [rbp+0x2e6d],0x32
  403bd4:	48 b8 00 58 8d f4 ff 	movabs rax,0xfff48d5800
  403bdb:	00 00 00 
  403bde:	ba 00 00 00 00       	mov    edx,0x0
  403be3:	48 89 85 60 2c 00 00 	mov    QWORD PTR [rbp+0x2c60],rax
  403bea:	48 89 95 68 2c 00 00 	mov    QWORD PTR [rbp+0x2c68],rdx
  403bf1:	48 8d 95 70 2c 00 00 	lea    rdx,[rbp+0x2c70]
  403bf8:	b8 00 00 00 00       	mov    eax,0x0
  403bfd:	b9 1f 00 00 00       	mov    ecx,0x1f
  403c02:	48 89 d7             	mov    rdi,rdx
  403c05:	f3 48 ab             	rep stos QWORD PTR es:[rdi],rax
  403c08:	48 89 fa             	mov    rdx,rdi
  403c0b:	89 02                	mov    DWORD PTR [rdx],eax
  403c0d:	48 83 c2 04          	add    rdx,0x4
  403c11:	66 89 02             	mov    WORD PTR [rdx],ax
  403c14:	48 83 c2 02          	add    rdx,0x2
  403c18:	48 8d 95 50 2b 00 00 	lea    rdx,[rbp+0x2b50]
  403c1f:	b8 00 00 00 00       	mov    eax,0x0
  403c24:	b9 21 00 00 00       	mov    ecx,0x21
  403c29:	48 89 d7             	mov    rdi,rdx
  403c2c:	f3 48 ab             	rep stos QWORD PTR es:[rdi],rax
  403c2f:	48 89 fa             	mov    rdx,rdi
  403c32:	89 02                	mov    DWORD PTR [rdx],eax
  403c34:	48 83 c2 04          	add    rdx,0x4
  403c38:	66 89 02             	mov    WORD PTR [rdx],ax
  403c3b:	48 83 c2 02          	add    rdx,0x2
  403c3f:	c6 85 56 2b 00 00 32 	mov    BYTE PTR [rbp+0x2b56],0x32
  403c46:	c6 85 5e 2b 00 00 78 	mov    BYTE PTR [rbp+0x2b5e],0x78
  403c4d:	c6 85 5f 2b 00 00 ff 	mov    BYTE PTR [rbp+0x2b5f],0xff
  403c54:	c6 85 60 2b 00 00 e4 	mov    BYTE PTR [rbp+0x2b60],0xe4
  403c5b:	c6 85 61 2b 00 00 f6 	mov    BYTE PTR [rbp+0x2b61],0xf6
  403c62:	c6 85 62 2b 00 00 d8 	mov    BYTE PTR [rbp+0x2b62],0xd8
  403c69:	c6 85 63 2b 00 00 fd 	mov    BYTE PTR [rbp+0x2b63],0xfd
  403c70:	c6 85 64 2b 00 00 90 	mov    BYTE PTR [rbp+0x2b64],0x90
  403c77:	c6 85 67 2b 00 00 7f 	mov    BYTE PTR [rbp+0x2b67],0x7f
  403c7e:	c6 85 68 2b 00 00 1c 	mov    BYTE PTR [rbp+0x2b68],0x1c
  403c85:	c6 85 69 2b 00 00 7e 	mov    BYTE PTR [rbp+0x2b69],0x7e
  403c8c:	c6 85 6a 2b 00 00 04 	mov    BYTE PTR [rbp+0x2b6a],0x4
  403c93:	c6 85 6b 2b 00 00 ef 	mov    BYTE PTR [rbp+0x2b6b],0xef
  403c9a:	c6 85 6c 2b 00 00 70 	mov    BYTE PTR [rbp+0x2b6c],0x70
  403ca1:	c6 85 6d 2b 00 00 03 	mov    BYTE PTR [rbp+0x2b6d],0x3
  403ca8:	c6 85 6e 2b 00 00 ee 	mov    BYTE PTR [rbp+0x2b6e],0xee
  403caf:	c6 85 6f 2b 00 00 60 	mov    BYTE PTR [rbp+0x2b6f],0x60
  403cb6:	c6 85 70 2b 00 00 08 	mov    BYTE PTR [rbp+0x2b70],0x8
  403cbd:	c6 85 71 2b 00 00 0e 	mov    BYTE PTR [rbp+0x2b71],0xe
  403cc4:	c6 85 72 2b 00 00 e4 	mov    BYTE PTR [rbp+0x2b72],0xe4
  403ccb:	c6 85 73 2b 00 00 f0 	mov    BYTE PTR [rbp+0x2b73],0xf0
  403cd2:	c6 85 74 2b 00 00 a3 	mov    BYTE PTR [rbp+0x2b74],0xa3
  403cd9:	c6 85 75 2b 00 00 df 	mov    BYTE PTR [rbp+0x2b75],0xdf
  403ce0:	c6 85 76 2b 00 00 fc 	mov    BYTE PTR [rbp+0x2b76],0xfc
  403ce7:	c6 85 77 2b 00 00 de 	mov    BYTE PTR [rbp+0x2b77],0xde
  403cee:	c6 85 78 2b 00 00 fa 	mov    BYTE PTR [rbp+0x2b78],0xfa
  403cf5:	c6 85 79 2b 00 00 75 	mov    BYTE PTR [rbp+0x2b79],0x75
  403cfc:	c6 85 7a 2b 00 00 90 	mov    BYTE PTR [rbp+0x2b7a],0x90
  403d03:	c6 85 7b 2b 00 00 03 	mov    BYTE PTR [rbp+0x2b7b],0x3
  403d0a:	c6 85 7c 2b 00 00 75 	mov    BYTE PTR [rbp+0x2b7c],0x75
  403d11:	c6 85 7d 2b 00 00 c3 	mov    BYTE PTR [rbp+0x2b7d],0xc3
  403d18:	c6 85 7e 2b 00 00 01 	mov    BYTE PTR [rbp+0x2b7e],0x1
  403d1f:	c6 85 7f 2b 00 00 02 	mov    BYTE PTR [rbp+0x2b7f],0x2
  403d26:	c6 85 80 2b 00 00 80 	mov    BYTE PTR [rbp+0x2b80],0x80
  403d2d:	c6 85 82 2b 00 00 ff 	mov    BYTE PTR [rbp+0x2b82],0xff
  403d34:	c6 85 83 2b 00 00 62 	mov    BYTE PTR [rbp+0x2b83],0x62
  403d3b:	c6 85 86 2b 00 00 12 	mov    BYTE PTR [rbp+0x2b86],0x12
  403d42:	0f b6 85 97 4b 00 00 	movzx  eax,BYTE PTR [rbp+0x4b97]
  403d49:	88 85 87 2b 00 00    	mov    BYTE PTR [rbp+0x2b87],al
  403d4f:	0f b6 85 98 4b 00 00 	movzx  eax,BYTE PTR [rbp+0x4b98]
  403d56:	88 85 88 2b 00 00    	mov    BYTE PTR [rbp+0x2b88],al
  403d5c:	0f b6 85 99 4b 00 00 	movzx  eax,BYTE PTR [rbp+0x4b99]
  403d63:	88 85 89 2b 00 00    	mov    BYTE PTR [rbp+0x2b89],al
  403d69:	0f b6 85 9a 4b 00 00 	movzx  eax,BYTE PTR [rbp+0x4b9a]
  403d70:	88 85 8a 2b 00 00    	mov    BYTE PTR [rbp+0x2b8a],al
  403d76:	0f b6 85 9b 4b 00 00 	movzx  eax,BYTE PTR [rbp+0x4b9b]
  403d7d:	88 85 8b 2b 00 00    	mov    BYTE PTR [rbp+0x2b8b],al
  403d83:	0f b6 85 9c 4b 00 00 	movzx  eax,BYTE PTR [rbp+0x4b9c]
  403d8a:	88 85 8c 2b 00 00    	mov    BYTE PTR [rbp+0x2b8c],al
  403d90:	0f b6 85 9d 4b 00 00 	movzx  eax,BYTE PTR [rbp+0x4b9d]
  403d97:	88 85 8d 2b 00 00    	mov    BYTE PTR [rbp+0x2b8d],al
  403d9d:	0f b6 85 9e 4b 00 00 	movzx  eax,BYTE PTR [rbp+0x4b9e]
  403da4:	88 85 8e 2b 00 00    	mov    BYTE PTR [rbp+0x2b8e],al
  403daa:	0f b6 85 9f 4b 00 00 	movzx  eax,BYTE PTR [rbp+0x4b9f]
  403db1:	88 85 8f 2b 00 00    	mov    BYTE PTR [rbp+0x2b8f],al
  403db7:	0f b6 85 a0 4b 00 00 	movzx  eax,BYTE PTR [rbp+0x4ba0]
  403dbe:	88 85 90 2b 00 00    	mov    BYTE PTR [rbp+0x2b90],al
  403dc4:	0f b6 85 a1 4b 00 00 	movzx  eax,BYTE PTR [rbp+0x4ba1]
  403dcb:	88 85 91 2b 00 00    	mov    BYTE PTR [rbp+0x2b91],al
  403dd1:	0f b6 85 a2 4b 00 00 	movzx  eax,BYTE PTR [rbp+0x4ba2]
  403dd8:	88 85 92 2b 00 00    	mov    BYTE PTR [rbp+0x2b92],al
  403dde:	0f b6 85 a3 4b 00 00 	movzx  eax,BYTE PTR [rbp+0x4ba3]
  403de5:	88 85 93 2b 00 00    	mov    BYTE PTR [rbp+0x2b93],al
  403deb:	0f b6 85 a4 4b 00 00 	movzx  eax,BYTE PTR [rbp+0x4ba4]
  403df2:	88 85 94 2b 00 00    	mov    BYTE PTR [rbp+0x2b94],al
  403df8:	0f b6 85 a5 4b 00 00 	movzx  eax,BYTE PTR [rbp+0x4ba5]
  403dff:	88 85 95 2b 00 00    	mov    BYTE PTR [rbp+0x2b95],al
  403e05:	0f b6 85 a6 4b 00 00 	movzx  eax,BYTE PTR [rbp+0x4ba6]
  403e0c:	88 85 96 2b 00 00    	mov    BYTE PTR [rbp+0x2b96],al
  403e12:	0f b6 85 a7 4b 00 00 	movzx  eax,BYTE PTR [rbp+0x4ba7]
  403e19:	88 85 97 2b 00 00    	mov    BYTE PTR [rbp+0x2b97],al
  403e1f:	0f b6 85 a8 4b 00 00 	movzx  eax,BYTE PTR [rbp+0x4ba8]
  403e26:	88 85 9c 2b 00 00    	mov    BYTE PTR [rbp+0x2b9c],al
  403e2c:	0f b6 85 a9 4b 00 00 	movzx  eax,BYTE PTR [rbp+0x4ba9]
  403e33:	88 85 9d 2b 00 00    	mov    BYTE PTR [rbp+0x2b9d],al
  403e39:	c6 85 9e 2b 00 00 ff 	mov    BYTE PTR [rbp+0x2b9e],0xff
  403e40:	c6 85 9f 2b 00 00 ff 	mov    BYTE PTR [rbp+0x2b9f],0xff
  403e47:	0f b6 85 aa 4b 00 00 	movzx  eax,BYTE PTR [rbp+0x4baa]
  403e4e:	88 85 a7 2b 00 00    	mov    BYTE PTR [rbp+0x2ba7],al
  403e54:	0f b6 85 ab 4b 00 00 	movzx  eax,BYTE PTR [rbp+0x4bab]
  403e5b:	88 85 a8 2b 00 00    	mov    BYTE PTR [rbp+0x2ba8],al
  403e61:	0f b6 85 ac 4b 00 00 	movzx  eax,BYTE PTR [rbp+0x4bac]
  403e68:	88 85 a9 2b 00 00    	mov    BYTE PTR [rbp+0x2ba9],al
  403e6e:	0f b6 85 ad 4b 00 00 	movzx  eax,BYTE PTR [rbp+0x4bad]
  403e75:	88 85 aa 2b 00 00    	mov    BYTE PTR [rbp+0x2baa],al
  403e7b:	0f b6 85 ae 4b 00 00 	movzx  eax,BYTE PTR [rbp+0x4bae]
  403e82:	88 85 ab 2b 00 00    	mov    BYTE PTR [rbp+0x2bab],al
  403e88:	0f b6 85 af 4b 00 00 	movzx  eax,BYTE PTR [rbp+0x4baf]
  403e8f:	88 85 ac 2b 00 00    	mov    BYTE PTR [rbp+0x2bac],al
  403e95:	0f b6 85 b0 4b 00 00 	movzx  eax,BYTE PTR [rbp+0x4bb0]
  403e9c:	88 85 ad 2b 00 00    	mov    BYTE PTR [rbp+0x2bad],al
  403ea2:	0f b6 85 b1 4b 00 00 	movzx  eax,BYTE PTR [rbp+0x4bb1]
  403ea9:	88 85 ae 2b 00 00    	mov    BYTE PTR [rbp+0x2bae],al
  403eaf:	0f b6 85 b2 4b 00 00 	movzx  eax,BYTE PTR [rbp+0x4bb2]
  403eb6:	88 85 af 2b 00 00    	mov    BYTE PTR [rbp+0x2baf],al
  403ebc:	0f b6 85 b3 4b 00 00 	movzx  eax,BYTE PTR [rbp+0x4bb3]
  403ec3:	88 85 b0 2b 00 00    	mov    BYTE PTR [rbp+0x2bb0],al
  403ec9:	0f b6 85 b4 4b 00 00 	movzx  eax,BYTE PTR [rbp+0x4bb4]
  403ed0:	88 85 b1 2b 00 00    	mov    BYTE PTR [rbp+0x2bb1],al
  403ed6:	0f b6 85 b5 4b 00 00 	movzx  eax,BYTE PTR [rbp+0x4bb5]
  403edd:	88 85 b2 2b 00 00    	mov    BYTE PTR [rbp+0x2bb2],al
  403ee3:	0f b6 85 b6 4b 00 00 	movzx  eax,BYTE PTR [rbp+0x4bb6]
  403eea:	88 85 b3 2b 00 00    	mov    BYTE PTR [rbp+0x2bb3],al
  403ef0:	0f b6 85 b7 4b 00 00 	movzx  eax,BYTE PTR [rbp+0x4bb7]
  403ef7:	88 85 b4 2b 00 00    	mov    BYTE PTR [rbp+0x2bb4],al
  403efd:	0f b6 85 b8 4b 00 00 	movzx  eax,BYTE PTR [rbp+0x4bb8]
  403f04:	88 85 b5 2b 00 00    	mov    BYTE PTR [rbp+0x2bb5],al
  403f0a:	0f b6 85 b9 4b 00 00 	movzx  eax,BYTE PTR [rbp+0x4bb9]
  403f11:	88 85 b6 2b 00 00    	mov    BYTE PTR [rbp+0x2bb6],al
  403f17:	0f b6 85 ba 4b 00 00 	movzx  eax,BYTE PTR [rbp+0x4bba]
  403f1e:	88 85 b7 2b 00 00    	mov    BYTE PTR [rbp+0x2bb7],al
  403f24:	0f b6 85 bb 4b 00 00 	movzx  eax,BYTE PTR [rbp+0x4bbb]
  403f2b:	88 85 b8 2b 00 00    	mov    BYTE PTR [rbp+0x2bb8],al
  403f31:	0f b6 85 bc 4b 00 00 	movzx  eax,BYTE PTR [rbp+0x4bbc]
  403f38:	88 85 b9 2b 00 00    	mov    BYTE PTR [rbp+0x2bb9],al
  403f3e:	0f b6 85 bd 4b 00 00 	movzx  eax,BYTE PTR [rbp+0x4bbd]
  403f45:	88 85 ba 2b 00 00    	mov    BYTE PTR [rbp+0x2bba],al
  403f4b:	0f b6 85 be 4b 00 00 	movzx  eax,BYTE PTR [rbp+0x4bbe]
  403f52:	88 85 bb 2b 00 00    	mov    BYTE PTR [rbp+0x2bbb],al
  403f58:	0f b6 85 bf 4b 00 00 	movzx  eax,BYTE PTR [rbp+0x4bbf]
  403f5f:	88 85 bc 2b 00 00    	mov    BYTE PTR [rbp+0x2bbc],al
  403f65:	0f b6 85 c0 4b 00 00 	movzx  eax,BYTE PTR [rbp+0x4bc0]
  403f6c:	88 85 bd 2b 00 00    	mov    BYTE PTR [rbp+0x2bbd],al
  403f72:	0f b6 85 c1 4b 00 00 	movzx  eax,BYTE PTR [rbp+0x4bc1]
  403f79:	88 85 be 2b 00 00    	mov    BYTE PTR [rbp+0x2bbe],al
  403f7f:	0f b6 85 c2 4b 00 00 	movzx  eax,BYTE PTR [rbp+0x4bc2]
  403f86:	88 85 bf 2b 00 00    	mov    BYTE PTR [rbp+0x2bbf],al
  403f8c:	0f b6 85 c3 4b 00 00 	movzx  eax,BYTE PTR [rbp+0x4bc3]
  403f93:	88 85 c0 2b 00 00    	mov    BYTE PTR [rbp+0x2bc0],al
  403f99:	0f b6 85 c4 4b 00 00 	movzx  eax,BYTE PTR [rbp+0x4bc4]
  403fa0:	88 85 c1 2b 00 00    	mov    BYTE PTR [rbp+0x2bc1],al
  403fa6:	0f b6 85 c5 4b 00 00 	movzx  eax,BYTE PTR [rbp+0x4bc5]
  403fad:	88 85 c2 2b 00 00    	mov    BYTE PTR [rbp+0x2bc2],al
  403fb3:	0f b6 85 c6 4b 00 00 	movzx  eax,BYTE PTR [rbp+0x4bc6]
  403fba:	88 85 c3 2b 00 00    	mov    BYTE PTR [rbp+0x2bc3],al
  403fc0:	0f b6 85 c7 4b 00 00 	movzx  eax,BYTE PTR [rbp+0x4bc7]
  403fc7:	88 85 c4 2b 00 00    	mov    BYTE PTR [rbp+0x2bc4],al
  403fcd:	0f b6 85 c8 4b 00 00 	movzx  eax,BYTE PTR [rbp+0x4bc8]
  403fd4:	88 85 c5 2b 00 00    	mov    BYTE PTR [rbp+0x2bc5],al
  403fda:	0f b6 85 c9 4b 00 00 	movzx  eax,BYTE PTR [rbp+0x4bc9]
  403fe1:	88 85 c6 2b 00 00    	mov    BYTE PTR [rbp+0x2bc6],al
  403fe7:	0f b6 85 ca 4b 00 00 	movzx  eax,BYTE PTR [rbp+0x4bca]
  403fee:	88 85 c7 2b 00 00    	mov    BYTE PTR [rbp+0x2bc7],al
  403ff4:	0f b6 85 cb 4b 00 00 	movzx  eax,BYTE PTR [rbp+0x4bcb]
  403ffb:	88 85 c8 2b 00 00    	mov    BYTE PTR [rbp+0x2bc8],al
  404001:	0f b6 85 cc 4b 00 00 	movzx  eax,BYTE PTR [rbp+0x4bcc]
  404008:	88 85 c9 2b 00 00    	mov    BYTE PTR [rbp+0x2bc9],al
  40400e:	0f b6 85 cd 4b 00 00 	movzx  eax,BYTE PTR [rbp+0x4bcd]
  404015:	88 85 ca 2b 00 00    	mov    BYTE PTR [rbp+0x2bca],al
  40401b:	0f b6 85 ce 4b 00 00 	movzx  eax,BYTE PTR [rbp+0x4bce]
  404022:	88 85 cb 2b 00 00    	mov    BYTE PTR [rbp+0x2bcb],al
  404028:	0f b6 85 cf 4b 00 00 	movzx  eax,BYTE PTR [rbp+0x4bcf]
  40402f:	88 85 cc 2b 00 00    	mov    BYTE PTR [rbp+0x2bcc],al
  404035:	0f b6 85 d0 4b 00 00 	movzx  eax,BYTE PTR [rbp+0x4bd0]
  40403c:	88 85 cd 2b 00 00    	mov    BYTE PTR [rbp+0x2bcd],al
  404042:	0f b6 85 d1 4b 00 00 	movzx  eax,BYTE PTR [rbp+0x4bd1]
  404049:	88 85 ce 2b 00 00    	mov    BYTE PTR [rbp+0x2bce],al
  40404f:	0f b6 85 d2 4b 00 00 	movzx  eax,BYTE PTR [rbp+0x4bd2]
  404056:	88 85 cf 2b 00 00    	mov    BYTE PTR [rbp+0x2bcf],al
  40405c:	0f b6 85 d3 4b 00 00 	movzx  eax,BYTE PTR [rbp+0x4bd3]
  404063:	88 85 d0 2b 00 00    	mov    BYTE PTR [rbp+0x2bd0],al
  404069:	0f b6 85 d4 4b 00 00 	movzx  eax,BYTE PTR [rbp+0x4bd4]
  404070:	88 85 d1 2b 00 00    	mov    BYTE PTR [rbp+0x2bd1],al
  404076:	0f b6 85 d5 4b 00 00 	movzx  eax,BYTE PTR [rbp+0x4bd5]
  40407d:	88 85 d2 2b 00 00    	mov    BYTE PTR [rbp+0x2bd2],al
  404083:	0f b6 85 d6 4b 00 00 	movzx  eax,BYTE PTR [rbp+0x4bd6]
  40408a:	88 85 d3 2b 00 00    	mov    BYTE PTR [rbp+0x2bd3],al
  404090:	0f b6 85 d7 4b 00 00 	movzx  eax,BYTE PTR [rbp+0x4bd7]
  404097:	88 85 d4 2b 00 00    	mov    BYTE PTR [rbp+0x2bd4],al
  40409d:	0f b6 85 d8 4b 00 00 	movzx  eax,BYTE PTR [rbp+0x4bd8]
  4040a4:	88 85 d5 2b 00 00    	mov    BYTE PTR [rbp+0x2bd5],al
  4040aa:	0f b6 85 d9 4b 00 00 	movzx  eax,BYTE PTR [rbp+0x4bd9]
  4040b1:	88 85 d6 2b 00 00    	mov    BYTE PTR [rbp+0x2bd6],al
  4040b7:	c6 85 d7 2b 00 00 02 	mov    BYTE PTR [rbp+0x2bd7],0x2
  4040be:	c6 85 d8 2b 00 00 31 	mov    BYTE PTR [rbp+0x2bd8],0x31
  4040c5:	c6 85 d9 2b 00 00 32 	mov    BYTE PTR [rbp+0x2bd9],0x32
  4040cc:	c6 85 da 2b 00 00 33 	mov    BYTE PTR [rbp+0x2bda],0x33
  4040d3:	c6 85 db 2b 00 00 34 	mov    BYTE PTR [rbp+0x2bdb],0x34
  4040da:	48 b8 00 58 8e f3 ff 	movabs rax,0xfff38e5800
  4040e1:	00 00 00 
  4040e4:	ba 00 00 00 00       	mov    edx,0x0
  4040e9:	48 89 85 40 2a 00 00 	mov    QWORD PTR [rbp+0x2a40],rax
  4040f0:	48 89 95 48 2a 00 00 	mov    QWORD PTR [rbp+0x2a48],rdx
  4040f7:	48 8d 95 50 2a 00 00 	lea    rdx,[rbp+0x2a50]
  4040fe:	b8 00 00 00 00       	mov    eax,0x0
  404103:	b9 1f 00 00 00       	mov    ecx,0x1f
  404108:	48 89 d7             	mov    rdi,rdx
  40410b:	f3 48 ab             	rep stos QWORD PTR es:[rdi],rax
  40410e:	48 89 fa             	mov    rdx,rdi
  404111:	89 02                	mov    DWORD PTR [rdx],eax
  404113:	48 83 c2 04          	add    rdx,0x4
  404117:	66 89 02             	mov    WORD PTR [rdx],ax
  40411a:	48 83 c2 02          	add    rdx,0x2
  40411e:	48 c7 85 30 29 00 00 	mov    QWORD PTR [rbp+0x2930],0x0
  404125:	00 00 00 00 
  404129:	48 c7 85 38 29 00 00 	mov    QWORD PTR [rbp+0x2938],0x0
  404130:	00 00 00 00 
  404134:	48 c7 85 40 29 00 00 	mov    QWORD PTR [rbp+0x2940],0x0
  40413b:	00 00 00 00 
  40413f:	48 c7 85 48 29 00 00 	mov    QWORD PTR [rbp+0x2948],0x0
  404146:	00 00 00 00 
  40414a:	48 c7 85 50 29 00 00 	mov    QWORD PTR [rbp+0x2950],0x0
  404151:	00 00 00 00 
  404155:	48 c7 85 58 29 00 00 	mov    QWORD PTR [rbp+0x2958],0x0
  40415c:	00 00 00 00 
  404160:	48 c7 85 60 29 00 00 	mov    QWORD PTR [rbp+0x2960],0x0
  404167:	00 00 00 00 
  40416b:	48 c7 85 68 29 00 00 	mov    QWORD PTR [rbp+0x2968],0x0
  404172:	00 00 00 00 
  404176:	48 c7 85 70 29 00 00 	mov    QWORD PTR [rbp+0x2970],0x0
  40417d:	00 00 00 00 
  404181:	48 c7 85 78 29 00 00 	mov    QWORD PTR [rbp+0x2978],0x0
  404188:	00 00 00 00 
  40418c:	48 c7 85 80 29 00 00 	mov    QWORD PTR [rbp+0x2980],0x0
  404193:	00 00 00 00 
  404197:	48 c7 85 88 29 00 00 	mov    QWORD PTR [rbp+0x2988],0x0
  40419e:	00 00 00 00 
  4041a2:	48 c7 85 90 29 00 00 	mov    QWORD PTR [rbp+0x2990],0x0
  4041a9:	00 00 00 00 
  4041ad:	48 c7 85 98 29 00 00 	mov    QWORD PTR [rbp+0x2998],0x0
  4041b4:	00 00 00 00 
  4041b8:	48 c7 85 a0 29 00 00 	mov    QWORD PTR [rbp+0x29a0],0x0
  4041bf:	00 00 00 00 
  4041c3:	48 c7 85 a8 29 00 00 	mov    QWORD PTR [rbp+0x29a8],0x0
  4041ca:	00 00 00 00 
  4041ce:	48 c7 85 b0 29 00 00 	mov    QWORD PTR [rbp+0x29b0],0x0
  4041d5:	00 00 00 00 
  4041d9:	48 c7 85 b8 29 00 00 	mov    QWORD PTR [rbp+0x29b8],0x0
  4041e0:	00 00 00 00 
  4041e4:	48 c7 85 c0 29 00 00 	mov    QWORD PTR [rbp+0x29c0],0x0
  4041eb:	00 00 00 00 
  4041ef:	48 c7 85 c8 29 00 00 	mov    QWORD PTR [rbp+0x29c8],0x0
  4041f6:	00 00 00 00 
  4041fa:	48 c7 85 d0 29 00 00 	mov    QWORD PTR [rbp+0x29d0],0x0
  404201:	00 00 00 00 
  404205:	48 c7 85 d8 29 00 00 	mov    QWORD PTR [rbp+0x29d8],0x0
  40420c:	00 00 00 00 
  404210:	48 c7 85 e0 29 00 00 	mov    QWORD PTR [rbp+0x29e0],0x0
  404217:	00 00 00 00 
  40421b:	48 c7 85 e8 29 00 00 	mov    QWORD PTR [rbp+0x29e8],0x0
  404222:	00 00 00 00 
  404226:	48 c7 85 f0 29 00 00 	mov    QWORD PTR [rbp+0x29f0],0x0
  40422d:	00 00 00 00 
  404231:	48 c7 85 f8 29 00 00 	mov    QWORD PTR [rbp+0x29f8],0x0
  404238:	00 00 00 00 
  40423c:	48 c7 85 00 2a 00 00 	mov    QWORD PTR [rbp+0x2a00],0x0
  404243:	00 00 00 00 
  404247:	48 c7 85 08 2a 00 00 	mov    QWORD PTR [rbp+0x2a08],0x0
  40424e:	00 00 00 00 
  404252:	48 c7 85 10 2a 00 00 	mov    QWORD PTR [rbp+0x2a10],0x0
  404259:	00 00 00 00 
  40425d:	48 c7 85 18 2a 00 00 	mov    QWORD PTR [rbp+0x2a18],0x0
  404264:	00 00 00 00 
  404268:	48 c7 85 20 2a 00 00 	mov    QWORD PTR [rbp+0x2a20],0x0
  40426f:	00 00 00 00 
  404273:	48 c7 85 28 2a 00 00 	mov    QWORD PTR [rbp+0x2a28],0x0
  40427a:	00 00 00 00 
  40427e:	48 c7 85 30 2a 00 00 	mov    QWORD PTR [rbp+0x2a30],0x0
  404285:	00 00 00 00 
  404289:	c7 85 38 2a 00 00 00 	mov    DWORD PTR [rbp+0x2a38],0x0
  404290:	00 00 00 
  404293:	66 c7 85 3c 2a 00 00 	mov    WORD PTR [rbp+0x2a3c],0x0
  40429a:	00 00 
  40429c:	48 b8 00 58 8f f2 ff 	movabs rax,0xfff28f5800
  4042a3:	00 00 00 
  4042a6:	ba 00 00 00 00       	mov    edx,0x0
  4042ab:	48 89 85 20 28 00 00 	mov    QWORD PTR [rbp+0x2820],rax
  4042b2:	48 89 95 28 28 00 00 	mov    QWORD PTR [rbp+0x2828],rdx
  4042b9:	48 8d 95 30 28 00 00 	lea    rdx,[rbp+0x2830]
  4042c0:	b8 00 00 00 00       	mov    eax,0x0
  4042c5:	b9 1f 00 00 00       	mov    ecx,0x1f
  4042ca:	48 89 d7             	mov    rdi,rdx
  4042cd:	f3 48 ab             	rep stos QWORD PTR es:[rdi],rax
  4042d0:	48 89 fa             	mov    rdx,rdi
  4042d3:	89 02                	mov    DWORD PTR [rdx],eax
  4042d5:	48 83 c2 04          	add    rdx,0x4
  4042d9:	66 89 02             	mov    WORD PTR [rdx],ax
  4042dc:	48 83 c2 02          	add    rdx,0x2
  4042e0:	48 c7 85 10 27 00 00 	mov    QWORD PTR [rbp+0x2710],0x0
  4042e7:	00 00 00 00 
  4042eb:	48 c7 85 18 27 00 00 	mov    QWORD PTR [rbp+0x2718],0x0
  4042f2:	00 00 00 00 
  4042f6:	48 c7 85 20 27 00 00 	mov    QWORD PTR [rbp+0x2720],0x0
  4042fd:	00 00 00 00 
  404301:	48 c7 85 28 27 00 00 	mov    QWORD PTR [rbp+0x2728],0x0
  404308:	00 00 00 00 
  40430c:	48 c7 85 30 27 00 00 	mov    QWORD PTR [rbp+0x2730],0x0
  404313:	00 00 00 00 
  404317:	48 c7 85 38 27 00 00 	mov    QWORD PTR [rbp+0x2738],0x0
  40431e:	00 00 00 00 
  404322:	b8 00 00 00 00       	mov    eax,0x0
  404327:	ba 00 44 02 12       	mov    edx,0x12024400
  40432c:	48 89 85 40 27 00 00 	mov    QWORD PTR [rbp+0x2740],rax
  404333:	48 89 95 48 27 00 00 	mov    QWORD PTR [rbp+0x2748],rdx
  40433a:	48 b8 4c 00 01 0b 11 	movabs rax,0x181312110b01004c
  404341:	12 13 18 
  404344:	48 ba 91 92 93 94 95 	movabs rdx,0x97969594939291
  40434b:	96 97 00 
  40434e:	48 89 85 50 27 00 00 	mov    QWORD PTR [rbp+0x2750],rax
  404355:	48 89 95 58 27 00 00 	mov    QWORD PTR [rbp+0x2758],rdx
  40435c:	48 b8 90 06 bd ee f0 	movabs rax,0xf0efa3f0eebd0690
  404363:	a3 ef f0 
  404366:	48 ba a3 12 14 88 e4 	movabs rdx,0xc70690e4881412a3
  40436d:	90 06 c7 
  404370:	48 89 85 60 27 00 00 	mov    QWORD PTR [rbp+0x2760],rax
  404377:	48 89 95 68 27 00 00 	mov    QWORD PTR [rbp+0x2768],rdx
  40437e:	48 b8 f0 a3 f0 a3 f0 	movabs rax,0xa3f0a3f0a3f0a3f0
  404385:	a3 f0 a3 
  404388:	48 ba f0 a3 f0 90 06 	movabs rdx,0xfae0bd0690f0a3f0
  40438f:	bd e0 fa 
  404392:	48 89 85 70 27 00 00 	mov    QWORD PTR [rbp+0x2770],rax
  404399:	48 89 95 78 27 00 00 	mov    QWORD PTR [rbp+0x2778],rdx
  4043a0:	48 b8 a3 e0 fb 90 06 	movabs rax,0xf0eac30690fbe0a3
  4043a7:	c3 ea f0 
  4043aa:	48 ba fe a3 eb f0 ff 	movabs rdx,0xc20690fff0eba3fe
  4043b1:	90 06 c2 
  4043b4:	48 89 85 80 27 00 00 	mov    QWORD PTR [rbp+0x2780],rax
  4043bb:	48 89 95 88 27 00 00 	mov    QWORD PTR [rbp+0x2788],rdx
  4043c2:	48 b8 e0 2f ff e4 3e 	movabs rax,0xff24cf3ee4ff2fe0
  4043c9:	cf 24 ff 
  4043cc:	48 ba cf 34 ff 90 06 	movabs rdx,0xa3f0c50690ff34cf
  4043d3:	c5 f0 a3 
  4043d6:	48 89 85 90 27 00 00 	mov    QWORD PTR [rbp+0x2790],rax
  4043dd:	48 89 95 98 27 00 00 	mov    QWORD PTR [rbp+0x2798],rdx
  4043e4:	48 b8 ef f0 c3 ea 94 	movabs rax,0x22400094eac3f0ef
  4043eb:	00 40 22 
  4043ee:	48 ba 90 06 bd a3 e0 	movabs rdx,0x94eeffe0a3bd0690
  4043f5:	ff ee 94 
  4043f8:	48 89 85 a0 27 00 00 	mov    QWORD PTR [rbp+0x27a0],rax
  4043ff:	48 89 95 a8 27 00 00 	mov    QWORD PTR [rbp+0x27a8],rdx
  404406:	48 b8 08 50 17 a9 07 	movabs rax,0xc0017b07a9175008
  40440d:	7b 01 c0 
  404410:	48 ba 03 c0 02 c0 01 	movabs rdx,0x1512a301c002c003
  404417:	a3 12 15 
  40441a:	48 89 85 b0 27 00 00 	mov    QWORD PTR [rbp+0x27b0],rax
  404421:	48 89 95 b8 27 00 00 	mov    QWORD PTR [rbp+0x27b8],rdx
  404428:	48 b8 c3 d0 01 d0 02 	movabs rax,0x203d002d001d0c3
  40442f:	d0 03 02 
  404432:	48 ba 1a 81 90 06 c5 	movabs rdx,0xa3fee0c50690811a
  404439:	e0 fe a3 
  40443c:	48 89 85 c0 27 00 00 	mov    QWORD PTR [rbp+0x27c0],rax
  404443:	48 89 95 c8 27 00 00 	mov    QWORD PTR [rbp+0x27c8],rdx
  40444a:	48 b8 e0 ff e4 fc fd 	movabs rax,0x79fafbfdfce4ffe0
  404451:	fb fa 79 
  404454:	48 ba 01 f8 d3 12 14 	movabs rdx,0x350401412d3f801
  40445b:	40 50 03 
  40445e:	48 89 85 d0 27 00 00 	mov    QWORD PTR [rbp+0x27d0],rax
  404465:	48 89 95 d8 27 00 00 	mov    QWORD PTR [rbp+0x27d8],rdx
  40446c:	48 b8 02 11 de 90 06 	movabs rax,0x1512bf0690de1102
  404473:	bf 12 15 
  404476:	48 ba c3 7b 01 7a 02 	movabs rdx,0x124679027a017bc3
  40447d:	79 46 12 
  404480:	48 89 85 e0 27 00 00 	mov    QWORD PTR [rbp+0x27e0],rax
  404487:	48 89 95 e8 27 00 00 	mov    QWORD PTR [rbp+0x27e8],rdx
  40448e:	48 b8 1a 81 90 06 c3 	movabs rax,0xfe54e0c30690811a
  404495:	e0 54 fe 
  404498:	48 ba f0 a3 e4 f0 90 	movabs rdx,0xe0bd0690f0e4a3f0
  40449f:	06 bd e0 
  4044a2:	48 89 85 f0 27 00 00 	mov    QWORD PTR [rbp+0x27f0],rax
  4044a9:	48 89 95 f8 27 00 00 	mov    QWORD PTR [rbp+0x27f8],rdx
  4044b0:	48 b8 54 01 f0 a3 e0 	movabs rax,0x690f0e0a3f00154
  4044b7:	f0 90 06 
  4044ba:	48 ba c2 e0 ff 90 06 	movabs rdx,0xe4c70690ffe0c2
  4044c1:	c7 e4 00 
  4044c4:	48 89 85 00 28 00 00 	mov    QWORD PTR [rbp+0x2800],rax
  4044cb:	48 89 95 08 28 00 00 	mov    QWORD PTR [rbp+0x2808],rdx
  4044d2:	48 c7 85 10 28 00 00 	mov    QWORD PTR [rbp+0x2810],0x0
  4044d9:	00 00 00 00 
  4044dd:	c7 85 18 28 00 00 00 	mov    DWORD PTR [rbp+0x2818],0x0
  4044e4:	00 00 00 
  4044e7:	66 c7 85 1c 28 00 00 	mov    WORD PTR [rbp+0x281c],0x0
  4044ee:	00 00 
  4044f0:	48 b8 00 58 90 f1 ff 	movabs rax,0xfff1905800
  4044f7:	00 00 00 
  4044fa:	ba 00 00 00 00       	mov    edx,0x0
  4044ff:	48 89 85 00 26 00 00 	mov    QWORD PTR [rbp+0x2600],rax
  404506:	48 89 95 08 26 00 00 	mov    QWORD PTR [rbp+0x2608],rdx
  40450d:	48 8d 95 10 26 00 00 	lea    rdx,[rbp+0x2610]
  404514:	b8 00 00 00 00       	mov    eax,0x0
  404519:	b9 1f 00 00 00       	mov    ecx,0x1f
  40451e:	48 89 d7             	mov    rdi,rdx
  404521:	f3 48 ab             	rep stos QWORD PTR es:[rdi],rax
  404524:	48 89 fa             	mov    rdx,rdi
  404527:	89 02                	mov    DWORD PTR [rdx],eax
  404529:	48 83 c2 04          	add    rdx,0x4
  40452d:	66 89 02             	mov    WORD PTR [rdx],ax
  404530:	48 83 c2 02          	add    rdx,0x2
  404534:	48 b8 f0 a3 ef f0 90 	movabs rax,0xe0c70690f0efa3f0
  40453b:	06 c7 e0 
  40453e:	48 ba fe a3 e0 ff 4e 	movabs rdx,0x203704effe0a3fe
  404545:	70 03 02 
  404548:	48 89 85 f0 24 00 00 	mov    QWORD PTR [rbp+0x24f0],rax
  40454f:	48 89 95 f8 24 00 00 	mov    QWORD PTR [rbp+0x24f8],rdx
  404556:	48 b8 11 e4 90 06 bd 	movabs rax,0xa3fce0bd0690e411
  40455d:	e0 fc a3 
  404560:	48 ba e0 fd 2f ec 3e 	movabs rdx,0x294c33eec2ffde0
  404567:	c3 94 02 
  40456a:	48 89 85 00 25 00 00 	mov    QWORD PTR [rbp+0x2500],rax
  404571:	48 89 95 08 25 00 00 	mov    QWORD PTR [rbp+0x2508],rdx
  404578:	48 b8 50 02 80 08 c3 	movabs rax,0xff9de4c308800250
  40457f:	e4 9d ff 
  404582:	48 ba 74 02 9c fe 90 	movabs rdx,0xeec90690fe9c0274
  404589:	06 c9 ee 
  40458c:	48 89 85 10 25 00 00 	mov    QWORD PTR [rbp+0x2510],rax
  404593:	48 89 95 18 25 00 00 	mov    QWORD PTR [rbp+0x2518],rdx
  40459a:	48 b8 f0 a3 ef f0 12 	movabs rax,0xf9611612f0efa3f0
  4045a1:	16 61 f9 
  4045a4:	48 ba 12 16 32 90 06 	movabs rdx,0x274d30690321612
  4045ab:	d3 74 02 
  4045ae:	48 89 85 20 25 00 00 	mov    QWORD PTR [rbp+0x2520],rax
  4045b5:	48 89 95 28 25 00 00 	mov    QWORD PTR [rbp+0x2528],rdx
  4045bc:	48 b8 f0 a3 e4 f0 12 	movabs rax,0x12741612f0e4a3f0
  4045c3:	16 74 12 
  4045c6:	48 ba 1a 81 12 16 74 	movabs rdx,0xbd0690741612811a
  4045cd:	90 06 bd 
  4045d0:	48 89 85 30 25 00 00 	mov    QWORD PTR [rbp+0x2530],rax
  4045d7:	48 89 95 38 25 00 00 	mov    QWORD PTR [rbp+0x2538],rdx
  4045de:	48 b8 e0 fe a3 e0 29 	movabs rax,0x3eeaf929e0a3fee0
  4045e5:	f9 ea 3e 
  4045e8:	48 ba fa c0 03 c0 02 	movabs rdx,0x9001c002c003c0fa
  4045ef:	c0 01 90 
  4045f2:	48 89 85 40 25 00 00 	mov    QWORD PTR [rbp+0x2540],rax
  4045f9:	48 89 95 48 25 00 00 	mov    QWORD PTR [rbp+0x2548],rdx
  404600:	48 b8 06 cb e0 fe a3 	movabs rax,0x4624e0a3fee0cb06
  404607:	e0 24 46 
  40460a:	48 ba f9 74 02 3e fa 	movabs rdx,0x341612fa3e0274f9
  404611:	12 16 34 
  404614:	48 89 85 50 25 00 00 	mov    QWORD PTR [rbp+0x2550],rax
  40461b:	48 89 95 58 25 00 00 	mov    QWORD PTR [rbp+0x2558],rdx
  404622:	48 b8 90 06 c9 e0 ff 	movabs rax,0x90e0a3ffe0c90690
  404629:	a3 e0 90 
  40462c:	48 ba 06 d3 cf f0 a3 	movabs rdx,0xd0f0efa3f0cfd306
  404633:	ef f0 d0 
  404636:	48 89 85 60 25 00 00 	mov    QWORD PTR [rbp+0x2560],rax
  40463d:	48 89 95 68 25 00 00 	mov    QWORD PTR [rbp+0x2568],rdx
  404644:	48 b8 01 d0 02 d0 03 	movabs rax,0x811a1203d002d001
  40464b:	12 1a 81 
  40464e:	48 ba 90 06 c9 e0 fe 	movabs rdx,0xffe0a3fee0c90690
  404655:	a3 e0 ff 
  404658:	48 89 85 70 25 00 00 	mov    QWORD PTR [rbp+0x2570],rax
  40465f:	48 89 95 78 25 00 00 	mov    QWORD PTR [rbp+0x2578],rdx
  404666:	48 b8 a3 ee 8f f0 12 	movabs rax,0x121c1412f08feea3
  40466d:	14 1c 12 
  404670:	48 ba 16 61 ff 12 1d 	movabs rdx,0x90831d12ff6116
  404677:	83 90 00 
  40467a:	48 89 85 80 25 00 00 	mov    QWORD PTR [rbp+0x2580],rax
  404681:	48 89 95 88 25 00 00 	mov    QWORD PTR [rbp+0x2588],rdx
  404688:	48 b8 00 ef f0 70 4e 	movabs rax,0x6116124e70f0ef00
  40468f:	12 16 61 
  404692:	48 ba ff 12 16 74 ac 	movabs rdx,0x1ad02ac741612ff
  404699:	02 ad 01 
  40469c:	48 89 85 90 25 00 00 	mov    QWORD PTR [rbp+0x2590],rax
  4046a3:	48 89 95 98 25 00 00 	mov    QWORD PTR [rbp+0x2598],rdx
  4046aa:	48 b8 12 19 ae 90 00 	movabs rax,0xf0ef000090ae1912
  4046b1:	00 ef f0 
  4046b4:	48 ba 70 39 90 06 bd 	movabs rdx,0xffe0a3bd06903970
  4046bb:	a3 e0 ff 
  4046be:	48 89 85 a0 25 00 00 	mov    QWORD PTR [rbp+0x25a0],rax
  4046c5:	48 89 95 a8 25 00 00 	mov    QWORD PTR [rbp+0x25a8],rdx
  4046cc:	48 b8 90 06 c9 e0 fc 	movabs rax,0xfde0a3fce0c90690
  4046d3:	a3 e0 fd 
  4046d6:	48 ba 2f ff e4 90 06 	movabs rdx,0xa3f0bd0690e4ff2f
  4046dd:	bd f0 a3 
  4046e0:	48 89 85 b0 25 00 00 	mov    QWORD PTR [rbp+0x25b0],rax
  4046e7:	48 89 95 b8 25 00 00 	mov    QWORD PTR [rbp+0x25b8],rdx
  4046ee:	48 b8 ef f0 90 06 c3 	movabs rax,0x750274c30690f0ef
  4046f5:	74 02 75 
  4046f8:	48 ba f0 00 12 14 1c 	movabs rdx,0x690c31c141200f0
  4046ff:	c3 90 06 
  404702:	48 89 85 c0 25 00 00 	mov    QWORD PTR [rbp+0x25c0],rax
  404709:	48 89 95 c8 25 00 00 	mov    QWORD PTR [rbp+0x25c8],rdx
  404710:	48 b8 c8 e0 9d f0 90 	movabs rax,0xe0c70690f09de0c8
  404717:	06 c7 e0 
  40471a:	48 ba 9c f0 02 10 f5 	movabs rdx,0x90f51002f09c
  404721:	90 00 00 
  404724:	48 89 85 d0 25 00 00 	mov    QWORD PTR [rbp+0x25d0],rax
  40472b:	48 89 95 d8 25 00 00 	mov    QWORD PTR [rbp+0x25d8],rdx
  404732:	48 b8 74 08 f0 22 90 	movabs rax,0x12c0069022f00874
  404739:	06 c0 12 
  40473c:	48 ba 14 88 ae 05 ef 	movabs rdx,0x94d3ef05ae8814
  404743:	d3 94 00 
  404746:	48 89 85 e0 25 00 00 	mov    QWORD PTR [rbp+0x25e0],rax
  40474d:	48 89 95 e8 25 00 00 	mov    QWORD PTR [rbp+0x25e8],rdx
  404754:	48 c7 85 f0 25 00 00 	mov    QWORD PTR [rbp+0x25f0],0x0
  40475b:	00 00 00 00 
  40475f:	c7 85 f8 25 00 00 00 	mov    DWORD PTR [rbp+0x25f8],0x0
  404766:	00 00 00 
  404769:	66 c7 85 fc 25 00 00 	mov    WORD PTR [rbp+0x25fc],0x0
  404770:	00 00 
  404772:	48 b8 00 58 91 f0 ff 	movabs rax,0xfff0915800
  404779:	00 00 00 
  40477c:	ba 00 00 00 00       	mov    edx,0x0
  404781:	48 89 85 e0 23 00 00 	mov    QWORD PTR [rbp+0x23e0],rax
  404788:	48 89 95 e8 23 00 00 	mov    QWORD PTR [rbp+0x23e8],rdx
  40478f:	48 8d 95 f0 23 00 00 	lea    rdx,[rbp+0x23f0]
  404796:	b8 00 00 00 00       	mov    eax,0x0
  40479b:	b9 1f 00 00 00       	mov    ecx,0x1f
  4047a0:	48 89 d7             	mov    rdi,rdx
  4047a3:	f3 48 ab             	rep stos QWORD PTR es:[rdi],rax
  4047a6:	48 89 fa             	mov    rdx,rdi
  4047a9:	89 02                	mov    DWORD PTR [rdx],eax
  4047ab:	48 83 c2 04          	add    rdx,0x4
  4047af:	66 89 02             	mov    WORD PTR [rdx],ax
  4047b2:	48 83 c2 02          	add    rdx,0x2
  4047b6:	48 b8 01 74 80 94 80 	movabs rax,0xed0c508094807401
  4047bd:	50 0c ed 
  4047c0:	48 ba fb 7a 00 94 10 	movabs rdx,0x9480741094007afb
  4047c7:	74 80 94 
  4047ca:	48 89 85 d0 22 00 00 	mov    QWORD PTR [rbp+0x22d0],rax
  4047d1:	48 89 95 d8 22 00 00 	mov    QWORD PTR [rbp+0x22d8],rdx
  4047d8:	48 b8 80 40 03 7f 00 	movabs rax,0x867522007f034080
  4047df:	22 75 86 
  4047e2:	48 ba 01 eb 64 10 4a 	movabs rdx,0x203704a1064eb01
  4047e9:	70 03 02 
  4047ec:	48 89 85 e0 22 00 00 	mov    QWORD PTR [rbp+0x22e0],rax
  4047f3:	48 89 95 e8 22 00 00 	mov    QWORD PTR [rbp+0x22e8],rdx
  4047fa:	48 b8 13 27 d2 c5 12 	movabs rax,0x90531612c5d22713
  404801:	16 53 90 
  404804:	48 ba 06 c4 e0 24 ff 	movabs rdx,0xac1512ff24e0c406
  40480b:	12 15 ac 
  40480e:	48 89 85 f0 22 00 00 	mov    QWORD PTR [rbp+0x22f0],rax
  404815:	48 89 95 f8 22 00 00 	mov    QWORD PTR [rbp+0x22f8],rdx
  40481c:	48 b8 f5 f8 90 06 c4 	movabs rax,0xfe24e0c40690f8f5
  404823:	e0 24 fe 
  404826:	48 ba 12 15 ac f5 f9 	movabs rdx,0xc40690f9f5ac1512
  40482d:	90 06 c4 
  404830:	48 89 85 00 23 00 00 	mov    QWORD PTR [rbp+0x2300],rax
  404837:	48 89 95 08 23 00 00 	mov    QWORD PTR [rbp+0x2308],rdx
  40483e:	48 b8 e0 24 fd 12 15 	movabs rax,0xfaf5ac1512fd24e0
  404845:	ac f5 fa 
  404848:	48 ba 90 06 c4 e0 24 	movabs rdx,0x1512fc24e0c40690
  40484f:	fc 12 15 
  404852:	48 89 85 10 23 00 00 	mov    QWORD PTR [rbp+0x2310],rax
  404859:	48 89 95 18 23 00 00 	mov    QWORD PTR [rbp+0x2318],rdx
  404860:	48 b8 ac f5 fb 90 06 	movabs rax,0x24e0c40690fbf5ac
  404867:	c4 e0 24 
  40486a:	48 ba fb 12 15 ac f5 	movabs rdx,0x690fcf5ac1512fb
  404871:	fc 90 06 
  404874:	48 89 85 20 23 00 00 	mov    QWORD PTR [rbp+0x2320],rax
  40487b:	48 89 95 28 23 00 00 	mov    QWORD PTR [rbp+0x2328],rdx
  404882:	48 b8 c4 e0 24 fa 12 	movabs rax,0xf5ac1512fa24e0c4
  404889:	15 ac f5 
  40488c:	48 ba fd 90 06 c4 e0 	movabs rdx,0x12f924e0c40690fd
  404893:	24 f9 12 
  404896:	48 89 85 30 23 00 00 	mov    QWORD PTR [rbp+0x2330],rax
  40489d:	48 89 95 38 23 00 00 	mov    QWORD PTR [rbp+0x2338],rdx
  4048a4:	48 b8 15 ac f5 fe 90 	movabs rax,0xe0c40690fef5ac15
  4048ab:	06 c4 e0 
  4048ae:	48 ba 24 f8 12 15 ac 	movabs rdx,0xc2fff5ac1512f824
  4048b5:	f5 ff c2 
  4048b8:	48 89 85 40 23 00 00 	mov    QWORD PTR [rbp+0x2340],rax
  4048bf:	48 89 95 48 23 00 00 	mov    QWORD PTR [rbp+0x2348],rdx
  4048c6:	48 b8 c5 ef 64 01 70 	movabs rax,0xc6d27c700164efc5
  4048cd:	7c d2 c6 
  4048d0:	48 ba 12 16 53 90 06 	movabs rdx,0x24e0c40690531612
  4048d7:	c4 e0 24 
  4048da:	48 89 85 50 23 00 00 	mov    QWORD PTR [rbp+0x2350],rax
  4048e1:	48 89 95 58 23 00 00 	mov    QWORD PTR [rbp+0x2358],rdx
  4048e8:	48 b8 ef 12 15 ac f5 	movabs rax,0x690f8f5ac1512ef
  4048ef:	f8 90 06 
  4048f2:	48 ba c4 e0 24 ee 12 	movabs rdx,0xf5ac1512ee24e0c4
  4048f9:	15 ac f5 
  4048fc:	48 89 85 60 23 00 00 	mov    QWORD PTR [rbp+0x2360],rax
  404903:	48 89 95 68 23 00 00 	mov    QWORD PTR [rbp+0x2368],rdx
  40490a:	48 b8 f9 90 06 c4 e0 	movabs rax,0x12ed24e0c40690f9
  404911:	24 ed 12 
  404914:	48 ba 15 ac f5 fa 90 	movabs rdx,0xe0c40690faf5ac15
  40491b:	06 c4 e0 
  40491e:	48 89 85 70 23 00 00 	mov    QWORD PTR [rbp+0x2370],rax
  404925:	48 89 95 78 23 00 00 	mov    QWORD PTR [rbp+0x2378],rdx
  40492c:	48 b8 24 ec 12 15 ac 	movabs rax,0x90fbf5ac1512ec24
  404933:	f5 fb 90 
  404936:	48 ba 06 c4 e0 24 eb 	movabs rdx,0xac1512eb24e0c406
  40493d:	12 15 ac 
  404940:	48 89 85 80 23 00 00 	mov    QWORD PTR [rbp+0x2380],rax
  404947:	48 89 95 88 23 00 00 	mov    QWORD PTR [rbp+0x2388],rdx
  40494e:	48 b8 f5 fc 90 06 c4 	movabs rax,0xea24e0c40690fcf5
  404955:	e0 24 ea 
  404958:	48 ba 12 15 ac f5 fd 	movabs rdx,0xc40690fdf5ac1512
  40495f:	90 06 c4 
  404962:	48 89 85 90 23 00 00 	mov    QWORD PTR [rbp+0x2390],rax
  404969:	48 89 95 98 23 00 00 	mov    QWORD PTR [rbp+0x2398],rdx
  404970:	48 b8 e0 24 e9 12 15 	movabs rax,0xfef5ac1512e924e0
  404977:	ac f5 fe 
  40497a:	48 ba 90 06 c4 e0 24 	movabs rdx,0x1512e824e0c40690
  404981:	e8 12 15 
  404984:	48 89 85 a0 23 00 00 	mov    QWORD PTR [rbp+0x23a0],rax
  40498b:	48 89 95 a8 23 00 00 	mov    QWORD PTR [rbp+0x23a8],rdx
  404992:	48 b8 ac f5 ff c2 c6 	movabs rax,0x12c7d2c6c2fff5ac
  404999:	d2 c7 12 
  40499c:	48 ba 15 0c f5 ff c2 	movabs rdx,0xfdeec7c2fff50c15
  4049a3:	c7 ee fd 
  4049a6:	48 89 85 b0 23 00 00 	mov    QWORD PTR [rbp+0x23b0],rax
  4049ad:	48 89 95 b8 23 00 00 	mov    QWORD PTR [rbp+0x23b8],rdx
  4049b4:	48 b8 7c 00 70 02 c2 	movabs rax,0x64edc1c20270007c
  4049bb:	c1 ed 64 
  4049be:	48 ba 01 4c 70 02 d2 	movabs rdx,0xd2c1d202704c01
  4049c5:	c1 d2 00 
  4049c8:	48 89 85 c0 23 00 00 	mov    QWORD PTR [rbp+0x23c0],rax
  4049cf:	48 89 95 c8 23 00 00 	mov    QWORD PTR [rbp+0x23c8],rdx
  4049d6:	48 c7 85 d0 23 00 00 	mov    QWORD PTR [rbp+0x23d0],0x0
  4049dd:	00 00 00 00 
  4049e1:	c7 85 d8 23 00 00 00 	mov    DWORD PTR [rbp+0x23d8],0x0
  4049e8:	00 00 00 
  4049eb:	66 c7 85 dc 23 00 00 	mov    WORD PTR [rbp+0x23dc],0x0
  4049f2:	00 00 
  4049f4:	48 b8 00 58 92 ef ff 	movabs rax,0xffef925800
  4049fb:	00 00 00 
  4049fe:	ba 00 00 00 00       	mov    edx,0x0
  404a03:	48 89 85 c0 21 00 00 	mov    QWORD PTR [rbp+0x21c0],rax
  404a0a:	48 89 95 c8 21 00 00 	mov    QWORD PTR [rbp+0x21c8],rdx
  404a11:	48 8d 95 d0 21 00 00 	lea    rdx,[rbp+0x21d0]
  404a18:	b8 00 00 00 00       	mov    eax,0x0
  404a1d:	b9 1f 00 00 00       	mov    ecx,0x1f
  404a22:	48 89 d7             	mov    rdi,rdx
  404a25:	f3 48 ab             	rep stos QWORD PTR es:[rdi],rax
  404a28:	48 89 fa             	mov    rdx,rdi
  404a2b:	89 02                	mov    DWORD PTR [rdx],eax
  404a2d:	48 83 c2 04          	add    rdx,0x4
  404a31:	66 89 02             	mov    WORD PTR [rdx],ax
  404a34:	48 83 c2 02          	add    rdx,0x2
  404a38:	48 b8 c2 80 20 43 c0 	movabs rax,0x1612c0c0432080c2
  404a3f:	c0 12 16 
  404a42:	48 ba 53 12 15 0c f5 	movabs rdx,0xc053fff50c151253
  404a49:	ff 53 c0 
  404a4c:	48 89 85 b0 20 00 00 	mov    QWORD PTR [rbp+0x20b0],rax
  404a53:	48 89 95 b8 20 00 00 	mov    QWORD PTR [rbp+0x20b8],rdx
  404a5a:	48 b8 3f ee fd 7c 00 	movabs rax,0xc20270007cfdee3f
  404a61:	70 02 c2 
  404a64:	48 ba c1 ed 64 01 4c 	movabs rdx,0xd202704c0164edc1
  404a6b:	70 02 d2 
  404a6e:	48 89 85 c0 20 00 00 	mov    QWORD PTR [rbp+0x20c0],rax
  404a75:	48 89 95 c8 20 00 00 	mov    QWORD PTR [rbp+0x20c8],rdx
  404a7c:	48 b8 c1 c2 c2 53 e1 	movabs rax,0x1a90fee153c2c2c1
  404a83:	fe 90 1a 
  404a86:	48 ba 10 74 01 f0 d2 	movabs rdx,0xc330c0d2f0017410
  404a8d:	c0 30 c3 
  404a90:	48 89 85 d0 20 00 00 	mov    QWORD PTR [rbp+0x20d0],rax
  404a97:	48 89 95 d8 20 00 00 	mov    QWORD PTR [rbp+0x20d8],rdx
  404a9e:	48 b8 fd 90 1a 10 e4 	movabs rax,0x5880f0e4101a90fd
  404aa5:	f0 80 58 
  404aa8:	48 ba 12 16 53 12 15 	movabs rdx,0xff24ec1512531612
  404aaf:	ec 24 ff 
  404ab2:	48 89 85 e0 20 00 00 	mov    QWORD PTR [rbp+0x20e0],rax
  404ab9:	48 89 95 e8 20 00 00 	mov    QWORD PTR [rbp+0x20e8],rdx
  404ac0:	48 b8 12 15 bb e5 f8 	movabs rax,0xc41312f8e5bb1512
  404ac7:	12 13 c4 
  404aca:	48 ba 74 fe 12 15 ba 	movabs rdx,0x12f9e5ba1512fe74
  404ad1:	e5 f9 12 
  404ad4:	48 89 85 f0 20 00 00 	mov    QWORD PTR [rbp+0x20f0],rax
  404adb:	48 89 95 f8 20 00 00 	mov    QWORD PTR [rbp+0x20f8],rdx
  404ae2:	48 b8 15 e9 24 fd 12 	movabs rax,0xe5bb1512fd24e915
  404ae9:	15 bb e5 
  404aec:	48 ba fa 12 13 c4 74 	movabs rdx,0x1512fc74c41312fa
  404af3:	fc 12 15 
  404af6:	48 89 85 00 21 00 00 	mov    QWORD PTR [rbp+0x2100],rax
  404afd:	48 89 95 08 21 00 00 	mov    QWORD PTR [rbp+0x2108],rdx
  404b04:	48 b8 ba e5 fb 12 15 	movabs rax,0xfb24e91512fbe5ba
  404b0b:	e9 24 fb 
  404b0e:	48 ba 12 15 bb e5 fc 	movabs rdx,0xc41312fce5bb1512
  404b15:	12 13 c4 
  404b18:	48 89 85 10 21 00 00 	mov    QWORD PTR [rbp+0x2110],rax
  404b1f:	48 89 95 18 21 00 00 	mov    QWORD PTR [rbp+0x2118],rdx
  404b26:	48 b8 74 fa 12 15 ba 	movabs rax,0x12fde5ba1512fa74
  404b2d:	e5 fd 12 
  404b30:	48 ba 15 e9 24 f9 12 	movabs rdx,0xe5bb1512f924e915
  404b37:	15 bb e5 
  404b3a:	48 89 85 20 21 00 00 	mov    QWORD PTR [rbp+0x2120],rax
  404b41:	48 89 95 28 21 00 00 	mov    QWORD PTR [rbp+0x2128],rdx
  404b48:	48 b8 fe 12 13 c4 74 	movabs rax,0x1512f874c41312fe
  404b4f:	f8 12 15 
  404b52:	48 ba ba e5 ff 12 13 	movabs rdx,0xc3c2c41312ffe5ba
  404b59:	c4 c2 c3 
  404b5c:	48 89 85 30 21 00 00 	mov    QWORD PTR [rbp+0x2130],rax
  404b63:	48 89 95 38 21 00 00 	mov    QWORD PTR [rbp+0x2138],rdx
  404b6a:	48 b8 e4 f5 86 7f 01 	movabs rax,0x1bb22017f86f5e4
  404b71:	22 bb 01 
  404b74:	48 ba 0c e5 82 29 f5 	movabs rdx,0x83e582f52982e50c
  404b7b:	82 e5 83 
  404b7e:	48 89 85 40 21 00 00 	mov    QWORD PTR [rbp+0x2140],rax
  404b85:	48 89 95 48 21 00 00 	mov    QWORD PTR [rbp+0x2148],rdx
  404b8c:	48 b8 3a f5 83 e0 22 	movabs rax,0xe9065022e083f53a
  404b93:	50 06 e9 
  404b96:	48 ba 25 82 f8 e6 22 	movabs rdx,0x6febb22e6f88225
  404b9d:	bb fe 06 
  404ba0:	48 89 85 50 21 00 00 	mov    QWORD PTR [rbp+0x2150],rax
  404ba7:	48 89 95 58 21 00 00 	mov    QWORD PTR [rbp+0x2158],rdx
  404bae:	48 b8 e9 25 82 f8 e2 	movabs rax,0x82e522e2f88225e9
  404bb5:	22 e5 82 
  404bb8:	48 ba 29 f5 82 e5 83 	movabs rdx,0x83f53a83e582f529
  404bbf:	3a f5 83 
  404bc2:	48 89 85 60 21 00 00 	mov    QWORD PTR [rbp+0x2160],rax
  404bc9:	48 89 95 68 21 00 00 	mov    QWORD PTR [rbp+0x2168],rdx
  404bd0:	48 b8 e4 93 22 bb 01 	movabs rax,0x82890601bb2293e4
  404bd7:	06 89 82 
  404bda:	48 ba 8a 83 f0 22 50 	movabs rdx,0x22f7025022f0838a
  404be1:	02 f7 22 
  404be4:	48 89 85 70 21 00 00 	mov    QWORD PTR [rbp+0x2170],rax
  404beb:	48 89 95 78 21 00 00 	mov    QWORD PTR [rbp+0x2178],rdx
  404bf2:	48 b8 bb fe 01 f3 22 	movabs rax,0x1bbf822f301febb
  404bf9:	f8 bb 01 
  404bfc:	48 ba 0d e5 82 29 f5 	movabs rdx,0x83e582f52982e50d
  404c03:	82 e5 83 
  404c06:	48 89 85 80 21 00 00 	mov    QWORD PTR [rbp+0x2180],rax
  404c0d:	48 89 95 88 21 00 00 	mov    QWORD PTR [rbp+0x2188],rdx
  404c14:	48 b8 3a f5 83 e8 f0 	movabs rax,0x65022f0e883f53a
  404c1b:	22 50 06 
  404c1e:	48 ba e9 25 82 c8 f6 	movabs rdx,0xfebb22f6c88225e9
  404c25:	22 bb fe 
  404c28:	48 89 85 90 21 00 00 	mov    QWORD PTR [rbp+0x2190],rax
  404c2f:	48 89 95 98 21 00 00 	mov    QWORD PTR [rbp+0x2198],rdx
  404c36:	48 b8 05 e9 25 82 c8 	movabs rax,0xc222f2c88225e905
  404c3d:	f2 22 c2 
  404c40:	48 ba d5 ec 30 e7 09 	movabs rdx,0xd5b209e730ecd5
  404c47:	b2 d5 00 
  404c4a:	48 89 85 a0 21 00 00 	mov    QWORD PTR [rbp+0x21a0],rax
  404c51:	48 89 95 a8 21 00 00 	mov    QWORD PTR [rbp+0x21a8],rdx
  404c58:	48 c7 85 b0 21 00 00 	mov    QWORD PTR [rbp+0x21b0],0x0
  404c5f:	00 00 00 00 
  404c63:	c7 85 b8 21 00 00 00 	mov    DWORD PTR [rbp+0x21b8],0x0
  404c6a:	00 00 00 
  404c6d:	66 c7 85 bc 21 00 00 	mov    WORD PTR [rbp+0x21bc],0x0
  404c74:	00 00 
  404c76:	48 b8 00 58 93 ee ff 	movabs rax,0xffee935800
  404c7d:	00 00 00 
  404c80:	ba 00 00 00 00       	mov    edx,0x0
  404c85:	48 89 85 a0 1f 00 00 	mov    QWORD PTR [rbp+0x1fa0],rax
  404c8c:	48 89 95 a8 1f 00 00 	mov    QWORD PTR [rbp+0x1fa8],rdx
  404c93:	48 8d 95 b0 1f 00 00 	lea    rdx,[rbp+0x1fb0]
  404c9a:	b8 00 00 00 00       	mov    eax,0x0
  404c9f:	b9 1f 00 00 00       	mov    ecx,0x1f
  404ca4:	48 89 d7             	mov    rdi,rdx
  404ca7:	f3 48 ab             	rep stos QWORD PTR es:[rdi],rax
  404caa:	48 89 fa             	mov    rdx,rdi
  404cad:	89 02                	mov    DWORD PTR [rdx],eax
  404caf:	48 83 c2 04          	add    rdx,0x4
  404cb3:	66 89 02             	mov    WORD PTR [rdx],ax
  404cb6:	48 83 c2 02          	add    rdx,0x2
  404cba:	48 b8 e4 c3 9d fd e4 	movabs rax,0xeefc9ce4fd9dc3e4
  404cc1:	9c fc ee 
  404cc4:	48 ba 30 e7 15 b2 d5 	movabs rdx,0x9fc3e4d5b215e730
  404ccb:	e4 c3 9f 
  404cce:	48 89 85 90 1e 00 00 	mov    QWORD PTR [rbp+0x1e90],rax
  404cd5:	48 89 95 98 1e 00 00 	mov    QWORD PTR [rbp+0x1e98],rdx
  404cdc:	48 b8 ff e4 9e fe 12 	movabs rax,0xc3b71412fe9ee4ff
  404ce3:	14 b7 c3 
  404ce6:	48 ba e4 9d fd e4 9c 	movabs rdx,0x380fc9ce4fd9de4
  404ced:	fc 80 03 
  404cf0:	48 89 85 a0 1e 00 00 	mov    QWORD PTR [rbp+0x1ea0],rax
  404cf7:	48 89 95 a8 1e 00 00 	mov    QWORD PTR [rbp+0x1ea8],rdx
  404cfe:	48 b8 12 14 b7 30 d5 	movabs rax,0xe4c307d530b71412
  404d05:	07 c3 e4 
  404d08:	48 ba 9f ff e4 9e fe 	movabs rdx,0xf0c522fe9ee4ff9f
  404d0f:	22 c5 f0 
  404d12:	48 89 85 b0 1e 00 00 	mov    QWORD PTR [rbp+0x1eb0],rax
  404d19:	48 89 95 b8 1e 00 00 	mov    QWORD PTR [rbp+0x1eb8],rdx
  404d20:	48 b8 f8 a3 e0 28 f0 	movabs rax,0xf8f0c5f028e0a3f8
  404d27:	c5 f0 f8 
  404d2a:	48 ba e5 82 15 82 70 	movabs rdx,0x83150270821582e5
  404d31:	02 15 83 
  404d34:	48 89 85 c0 1e 00 00 	mov    QWORD PTR [rbp+0x1ec0],rax
  404d3b:	48 89 95 c8 1e 00 00 	mov    QWORD PTR [rbp+0x1ec8],rdx
  404d42:	48 b8 e0 38 f0 22 c3 	movabs rax,0xff9befc322f038e0
  404d49:	ef 9b ff 
  404d4c:	48 ba ee 9a fe ed 99 	movabs rdx,0x98ecfd99edfe9aee
  404d53:	fd ec 98 
  404d56:	48 89 85 d0 1e 00 00 	mov    QWORD PTR [rbp+0x1ed0],rax
  404d5d:	48 89 95 d8 1e 00 00 	mov    QWORD PTR [rbp+0x1ed8],rdx
  404d64:	48 b8 fc 22 eb 9f f5 	movabs rax,0x9eeaf0f59feb22fc
  404d6b:	f0 ea 9e 
  404d6e:	48 ba 42 f0 e9 9d 42 	movabs rdx,0x64ecf0429de9f042
  404d75:	f0 ec 64 
  404d78:	48 89 85 e0 1e 00 00 	mov    QWORD PTR [rbp+0x1ee0],rax
  404d7f:	48 89 95 e8 1e 00 00 	mov    QWORD PTR [rbp+0x1ee8],rdx
  404d86:	48 b8 80 c8 64 80 98 	movabs rax,0x22f045988064c880
  404d8d:	45 f0 22 
  404d90:	48 ba eb 9f f5 f0 ea 	movabs rdx,0xf0429eeaf0f59feb
  404d97:	9e 42 f0 
  404d9a:	48 89 85 f0 1e 00 00 	mov    QWORD PTR [rbp+0x1ef0],rax
  404da1:	48 89 95 f8 1e 00 00 	mov    QWORD PTR [rbp+0x1ef8],rdx
  404da8:	48 b8 e9 9d 42 f0 e8 	movabs rax,0xf0459ce8f0429de9
  404daf:	9c 45 f0 
  404db2:	48 ba 22 e0 fc a3 e0 	movabs rdx,0xe0a3fde0a3fce022
  404db9:	fd a3 e0 
  404dbc:	48 89 85 00 1f 00 00 	mov    QWORD PTR [rbp+0x1f00],rax
  404dc3:	48 89 95 08 1f 00 00 	mov    QWORD PTR [rbp+0x1f08],rdx
  404dca:	48 b8 fe a3 e0 ff 22 	movabs rax,0xa3f8e022ffe0a3fe
  404dd1:	e0 f8 a3 
  404dd4:	48 ba e0 f9 a3 e0 fa 	movabs rdx,0xfbe0a3fae0a3f9e0
  404ddb:	a3 e0 fb 
  404dde:	48 89 85 10 1f 00 00 	mov    QWORD PTR [rbp+0x1f10],rax
  404de5:	48 89 95 18 1f 00 00 	mov    QWORD PTR [rbp+0x1f18],rdx
  404dec:	48 b8 22 e0 fb a3 e0 	movabs rax,0xe0a3fae0a3fbe022
  404df3:	fa a3 e0 
  404df6:	48 ba f9 22 eb f0 a3 	movabs rdx,0xa3f0eaa3f0eb22f9
  404dfd:	ea f0 a3 
  404e00:	48 89 85 20 1f 00 00 	mov    QWORD PTR [rbp+0x1f20],rax
  404e07:	48 89 95 28 1f 00 00 	mov    QWORD PTR [rbp+0x1f28],rdx
  404e0e:	48 b8 e9 f0 22 d0 83 	movabs rax,0xf882d083d022f0e9
  404e15:	d0 82 f8 
  404e18:	48 ba e4 93 70 12 74 	movabs rdx,0x70930174127093e4
  404e1f:	01 93 70 
  404e22:	48 89 85 30 1f 00 00 	mov    QWORD PTR [rbp+0x1f30],rax
  404e29:	48 89 95 38 1f 00 00 	mov    QWORD PTR [rbp+0x1f38],rdx
  404e30:	48 b8 0d a3 a3 93 f8 	movabs rax,0x930174f893a3a30d
  404e37:	74 01 93 
  404e3a:	48 ba f5 82 88 83 e4 	movabs rdx,0x27473e4838882f5
  404e41:	73 74 02 
  404e44:	48 89 85 40 1f 00 00 	mov    QWORD PTR [rbp+0x1f40],rax
  404e4b:	48 89 95 48 1f 00 00 	mov    QWORD PTR [rbp+0x1f48],rdx
  404e52:	48 b8 93 68 60 ef a3 	movabs rax,0x80a3a3a3ef606893
  404e59:	a3 a3 80 
  404e5c:	48 ba df bc 00 0b be 	movabs rdx,0xef2900be0b00bcdf
  404e63:	00 29 ef 
  404e66:	48 89 85 50 1f 00 00 	mov    QWORD PTR [rbp+0x1f50],rax
  404e6d:	48 89 95 58 1f 00 00 	mov    QWORD PTR [rbp+0x1f58],rdx
  404e74:	48 b8 8d f0 84 ff ad 	movabs rax,0xe422f0adff84f08d
  404e7b:	f0 22 e4 
  404e7e:	48 ba cc f8 75 f0 08 	movabs rdx,0xff2fef08f075f8cc
  404e85:	ef 2f ff 
  404e88:	48 89 85 60 1f 00 00 	mov    QWORD PTR [rbp+0x1f60],rax
  404e8f:	48 89 95 68 1f 00 00 	mov    QWORD PTR [rbp+0x1f68],rdx
  404e96:	48 b8 ee 33 fe ec 33 	movabs rax,0x9deefc33ecfe33ee
  404e9d:	fc ee 9d 
  404ea0:	48 ba ec 98 40 05 fc 	movabs rdx,0xfe9deefc054098ec
  404ea7:	ee 9d fe 
  404eaa:	48 89 85 70 1f 00 00 	mov    QWORD PTR [rbp+0x1f70],rax
  404eb1:	48 89 95 78 1f 00 00 	mov    QWORD PTR [rbp+0x1f78],rdx
  404eb8:	48 b8 0f d5 f0 e9 e4 	movabs rax,0x22fdcee4e9f0d50f
  404ebf:	ce fd 22 
  404ec2:	48 ba ed f8 f5 f0 ee 	movabs rdx,0x2084eef0f5f8ed
  404ec9:	84 20 00 
  404ecc:	48 89 85 80 1f 00 00 	mov    QWORD PTR [rbp+0x1f80],rax
  404ed3:	48 89 95 88 1f 00 00 	mov    QWORD PTR [rbp+0x1f88],rdx
  404eda:	48 c7 85 90 1f 00 00 	mov    QWORD PTR [rbp+0x1f90],0x0
  404ee1:	00 00 00 00 
  404ee5:	c7 85 98 1f 00 00 00 	mov    DWORD PTR [rbp+0x1f98],0x0
  404eec:	00 00 00 
  404eef:	66 c7 85 9c 1f 00 00 	mov    WORD PTR [rbp+0x1f9c],0x0
  404ef6:	00 00 
  404ef8:	48 b8 00 58 94 ed ff 	movabs rax,0xffed945800
  404eff:	00 00 00 
  404f02:	ba 00 00 00 00       	mov    edx,0x0
  404f07:	48 89 85 80 1d 00 00 	mov    QWORD PTR [rbp+0x1d80],rax
  404f0e:	48 89 95 88 1d 00 00 	mov    QWORD PTR [rbp+0x1d88],rdx
  404f15:	48 8d 95 90 1d 00 00 	lea    rdx,[rbp+0x1d90]
  404f1c:	b8 00 00 00 00       	mov    eax,0x0
  404f21:	b9 1f 00 00 00       	mov    ecx,0x1f
  404f26:	48 89 d7             	mov    rdi,rdx
  404f29:	f3 48 ab             	rep stos QWORD PTR es:[rdi],rax
  404f2c:	48 89 fa             	mov    rdx,rdi
  404f2f:	89 02                	mov    DWORD PTR [rdx],eax
  404f31:	48 83 c2 04          	add    rdx,0x4
  404f35:	66 89 02             	mov    WORD PTR [rdx],ax
  404f38:	48 83 c2 02          	add    rdx,0x2
  404f3c:	48 b8 d2 1c fe ad f0 	movabs rax,0x8f075f0adfe1cd2
  404f43:	75 f0 08 
  404f46:	48 ba ef 2f ff ed 33 	movabs rdx,0x740fd33edff2fef
  404f4d:	fd 40 07 
  404f50:	48 89 85 70 1c 00 00 	mov    QWORD PTR [rbp+0x1c70],rax
  404f57:	48 89 95 78 1c 00 00 	mov    QWORD PTR [rbp+0x1c78],rdx
  404f5e:	48 b8 98 50 06 d5 f0 	movabs rax,0xc322f2f0d5065098
  404f65:	f2 22 c3 
  404f68:	48 ba 98 fd 0f d5 f0 	movabs rdx,0x9022eaf0d50ffd98
  404f6f:	ea 22 90 
  404f72:	48 89 85 80 1c 00 00 	mov    QWORD PTR [rbp+0x1c80],rax
  404f79:	48 89 95 88 1c 00 00 	mov    QWORD PTR [rbp+0x1c88],rdx
  404f80:	48 b8 06 c4 e0 24 f7 	movabs rax,0x690fdf724e0c406
  404f87:	fd 90 06 
  404f8a:	48 ba c3 e0 34 ff 8d 	movabs rdx,0x83f5828dff34e0c3
  404f91:	82 f5 83 
  404f94:	48 89 85 90 1c 00 00 	mov    QWORD PTR [rbp+0x1c90],rax
  404f9b:	48 89 95 98 1c 00 00 	mov    QWORD PTR [rbp+0x1c98],rdx
  404fa2:	48 b8 12 13 85 f5 f8 	movabs rax,0xc40690f8f5851312
  404fa9:	90 06 c4 
  404fac:	48 ba e0 24 f6 fd 90 	movabs rdx,0xe0c30690fdf624e0
  404fb3:	06 c3 e0 
  404fb6:	48 89 85 a0 1c 00 00 	mov    QWORD PTR [rbp+0x1ca0],rax
  404fbd:	48 89 95 a8 1c 00 00 	mov    QWORD PTR [rbp+0x1ca8],rdx
  404fc4:	48 b8 34 ff 8d 82 f5 	movabs rax,0x131283f5828dff34
  404fcb:	83 12 13 
  404fce:	48 ba 85 f5 f9 90 06 	movabs rdx,0x24e0c40690f9f585
  404fd5:	c4 e0 24 
  404fd8:	48 89 85 b0 1c 00 00 	mov    QWORD PTR [rbp+0x1cb0],rax
  404fdf:	48 89 95 b8 1c 00 00 	mov    QWORD PTR [rbp+0x1cb8],rdx
  404fe6:	48 b8 f5 fd 90 06 c3 	movabs rax,0xff34e0c30690fdf5
  404fed:	e0 34 ff 
  404ff0:	48 ba 8d 82 f5 83 12 	movabs rdx,0xf585131283f5828d
  404ff7:	13 85 f5 
  404ffa:	48 89 85 c0 1c 00 00 	mov    QWORD PTR [rbp+0x1cc0],rax
  405001:	48 89 95 c8 1c 00 00 	mov    QWORD PTR [rbp+0x1cc8],rdx
  405008:	48 b8 fa 90 06 c4 e0 	movabs rax,0xfdf424e0c40690fa
  40500f:	24 f4 fd 
  405012:	48 ba 90 06 c3 e0 34 	movabs rdx,0x828dff34e0c30690
  405019:	ff 8d 82 
  40501c:	48 89 85 d0 1c 00 00 	mov    QWORD PTR [rbp+0x1cd0],rax
  405023:	48 89 95 d8 1c 00 00 	mov    QWORD PTR [rbp+0x1cd8],rdx
  40502a:	48 b8 f5 83 12 13 85 	movabs rax,0x90fbf585131283f5
  405031:	f5 fb 90 
  405034:	48 ba 06 c4 e0 24 f3 	movabs rdx,0x690fdf324e0c406
  40503b:	fd 90 06 
  40503e:	48 89 85 e0 1c 00 00 	mov    QWORD PTR [rbp+0x1ce0],rax
  405045:	48 89 95 e8 1c 00 00 	mov    QWORD PTR [rbp+0x1ce8],rdx
  40504c:	48 b8 c3 e0 34 ff 8d 	movabs rax,0x83f5828dff34e0c3
  405053:	82 f5 83 
  405056:	48 ba 12 13 85 f5 fc 	movabs rdx,0xc40690fcf5851312
  40505d:	90 06 c4 
  405060:	48 89 85 f0 1c 00 00 	mov    QWORD PTR [rbp+0x1cf0],rax
  405067:	48 89 95 f8 1c 00 00 	mov    QWORD PTR [rbp+0x1cf8],rdx
  40506e:	48 b8 e0 24 f2 fd 90 	movabs rax,0xe0c30690fdf224e0
  405075:	06 c3 e0 
  405078:	48 ba 34 ff 8d 82 f5 	movabs rdx,0x131283f5828dff34
  40507f:	83 12 13 
  405082:	48 89 85 00 1d 00 00 	mov    QWORD PTR [rbp+0x1d00],rax
  405089:	48 89 95 08 1d 00 00 	mov    QWORD PTR [rbp+0x1d08],rdx
  405090:	48 b8 85 f5 fd 90 06 	movabs rax,0x24e0c40690fdf585
  405097:	c4 e0 24 
  40509a:	48 ba f1 fd 90 06 c3 	movabs rdx,0xff34e0c30690fdf1
  4050a1:	e0 34 ff 
  4050a4:	48 89 85 10 1d 00 00 	mov    QWORD PTR [rbp+0x1d10],rax
  4050ab:	48 89 95 18 1d 00 00 	mov    QWORD PTR [rbp+0x1d18],rdx
  4050b2:	48 b8 8d 82 f5 83 12 	movabs rax,0xf585131283f5828d
  4050b9:	13 85 f5 
  4050bc:	48 ba fe 90 06 c4 e0 	movabs rdx,0xfdf024e0c40690fe
  4050c3:	24 f0 fd 
  4050c6:	48 89 85 20 1d 00 00 	mov    QWORD PTR [rbp+0x1d20],rax
  4050cd:	48 89 95 28 1d 00 00 	mov    QWORD PTR [rbp+0x1d28],rdx
  4050d4:	48 b8 90 06 c3 e0 34 	movabs rax,0x828dff34e0c30690
  4050db:	ff 8d 82 
  4050de:	48 ba f5 83 02 13 85 	movabs rdx,0x82f52f85130283f5
  4050e5:	2f f5 82 
  4050e8:	48 89 85 30 1d 00 00 	mov    QWORD PTR [rbp+0x1d30],rax
  4050ef:	48 89 95 38 1d 00 00 	mov    QWORD PTR [rbp+0x1d38],rdx
  4050f6:	48 b8 74 ff 3e f5 83 	movabs rax,0x14122283f53eff74
  4050fd:	22 12 14 
  405100:	48 ba 7f 90 06 d0 12 	movabs rdx,0x90881412d006907f
  405107:	14 88 90 
  40510a:	48 89 85 40 1d 00 00 	mov    QWORD PTR [rbp+0x1d40],rax
  405111:	48 89 95 48 1d 00 00 	mov    QWORD PTR [rbp+0x1d48],rdx
  405118:	48 b8 06 c2 e0 ff e4 	movabs rax,0xd30690e4ffe0c206
  40511f:	90 06 d3 
  405122:	48 ba f0 a3 ef f0 22 	movabs rdx,0x83f53a22f0efa3f0
  405129:	3a f5 83 
  40512c:	48 89 85 50 1d 00 00 	mov    QWORD PTR [rbp+0x1d50],rax
  405133:	48 89 95 58 1d 00 00 	mov    QWORD PTR [rbp+0x1d58],rdx
  40513a:	48 b8 ef f0 90 06 bc 	movabs rax,0xf075e4bc0690f0ef
  405141:	e4 75 f0 
  405144:	48 ba 01 02 14 1c 12 	movabs rdx,0xc413121c140201
  40514b:	13 c4 00 
  40514e:	48 89 85 60 1d 00 00 	mov    QWORD PTR [rbp+0x1d60],rax
  405155:	48 89 95 68 1d 00 00 	mov    QWORD PTR [rbp+0x1d68],rdx
  40515c:	48 c7 85 70 1d 00 00 	mov    QWORD PTR [rbp+0x1d70],0x0
  405163:	00 00 00 00 
  405167:	c7 85 78 1d 00 00 00 	mov    DWORD PTR [rbp+0x1d78],0x0
  40516e:	00 00 00 
  405171:	66 c7 85 7c 1d 00 00 	mov    WORD PTR [rbp+0x1d7c],0x0
  405178:	00 00 
  40517a:	48 b8 00 58 95 ec ff 	movabs rax,0xffec955800
  405181:	00 00 00 
  405184:	ba 00 00 00 00       	mov    edx,0x0
  405189:	48 89 85 60 1b 00 00 	mov    QWORD PTR [rbp+0x1b60],rax
  405190:	48 89 95 68 1b 00 00 	mov    QWORD PTR [rbp+0x1b68],rdx
  405197:	48 8d 95 70 1b 00 00 	lea    rdx,[rbp+0x1b70]
  40519e:	b8 00 00 00 00       	mov    eax,0x0
  4051a3:	b9 1f 00 00 00       	mov    ecx,0x1f
  4051a8:	48 89 d7             	mov    rdi,rdx
  4051ab:	f3 48 ab             	rep stos QWORD PTR es:[rdi],rax
  4051ae:	48 89 fa             	mov    rdx,rdi
  4051b1:	89 02                	mov    DWORD PTR [rdx],eax
  4051b3:	48 83 c2 04          	add    rdx,0x4
  4051b7:	66 89 02             	mov    WORD PTR [rdx],ax
  4051ba:	48 83 c2 02          	add    rdx,0x2
  4051be:	48 b8 90 06 c3 e0 fe 	movabs rax,0xffe0a3fee0c30690
  4051c5:	a3 e0 ff 
  4051c8:	48 ba 22 7b 01 7a 04 	movabs rdx,0x904879047a017b22
  4051cf:	79 48 90 
  4051d2:	48 89 85 50 1a 00 00 	mov    QWORD PTR [rbp+0x1a50],rax
  4051d9:	48 89 95 58 1a 00 00 	mov    QWORD PTR [rbp+0x1a58],rdx
  4051e0:	48 b8 06 c2 74 ff f0 	movabs rax,0x7e007ff0ff74c206
  4051e7:	7f 00 7e 
  4051ea:	48 ba 70 22 ee f0 a3 	movabs rdx,0xa3f0efa3f0ee2270
  4051f1:	ef f0 a3 
  4051f4:	48 89 85 60 1a 00 00 	mov    QWORD PTR [rbp+0x1a60],rax
  4051fb:	48 89 95 68 1a 00 00 	mov    QWORD PTR [rbp+0x1a68],rdx
  405202:	48 b8 ec f0 a3 ed f0 	movabs rax,0xff2d22f0eda3f0ec
  405209:	22 2d ff 
  40520c:	48 ba ee 3c fe 74 16 	movabs rdx,0x82f52f1674fe3cee
  405213:	2f f5 82 
  405216:	48 89 85 70 1a 00 00 	mov    QWORD PTR [rbp+0x1a70],rax
  40521d:	48 89 95 78 1a 00 00 	mov    QWORD PTR [rbp+0x1a78],rdx
  405224:	48 b8 74 02 3e f5 83 	movabs rax,0x17b2283f53e0274
  40522b:	22 7b 01 
  40522e:	48 ba 7a 00 79 12 90 	movabs rdx,0xe4c306901279007a
  405235:	06 c3 e4 
  405238:	48 89 85 80 1a 00 00 	mov    QWORD PTR [rbp+0x1a80],rax
  40523f:	48 89 95 88 1a 00 00 	mov    QWORD PTR [rbp+0x1a88],rdx
  405246:	48 b8 f0 a3 74 18 f0 	movabs rax,0x6aa22f01874a3f0
  40524d:	22 aa 06 
  405250:	48 ba 7b 01 90 06 d0 	movabs rdx,0x881402d00690017b
  405257:	02 14 88 
  40525a:	48 89 85 90 1a 00 00 	mov    QWORD PTR [rbp+0x1a90],rax
  405261:	48 89 95 98 1a 00 00 	mov    QWORD PTR [rbp+0x1a98],rdx
  405268:	48 b8 e4 90 06 bc f0 	movabs rax,0x22f0a3f0bc0690e4
  40526f:	a3 f0 22 
  405272:	48 ba fd e0 fa a3 e0 	movabs rdx,0x82f52de0a3fae0fd
  405279:	2d f5 82 
  40527c:	48 89 85 a0 1a 00 00 	mov    QWORD PTR [rbp+0x1aa0],rax
  405283:	48 89 95 a8 1a 00 00 	mov    QWORD PTR [rbp+0x1aa8],rdx
  40528a:	48 b8 ea 3c f5 83 ef 	movabs rax,0x9022f0ef83f53cea
  405291:	f0 22 90 
  405294:	48 ba 06 c0 02 14 7f 	movabs rdx,0xbc06907f1402c006
  40529b:	90 06 bc 
  40529e:	48 89 85 b0 1a 00 00 	mov    QWORD PTR [rbp+0x1ab0],rax
  4052a5:	48 89 95 b8 1a 00 00 	mov    QWORD PTR [rbp+0x1ab8],rdx
  4052ac:	48 b8 e0 fe a3 e0 22 	movabs rax,0xc3069022e0a3fee0
  4052b3:	90 06 c3 
  4052b6:	48 ba e0 fe a3 e0 22 	movabs rdx,0x2d227422e0a3fee0
  4052bd:	74 22 2d 
  4052c0:	48 89 85 c0 1a 00 00 	mov    QWORD PTR [rbp+0x1ac0],rax
  4052c7:	48 89 95 c8 1a 00 00 	mov    QWORD PTR [rbp+0x1ac8],rdx
  4052ce:	48 b8 f5 82 74 00 3c 	movabs rax,0x2283f53c007482f5
  4052d5:	f5 83 22 
  4052d8:	48 ba 90 06 bf 02 14 	movabs rdx,0x6907f1402bf0690
  4052df:	7f 90 06 
  4052e2:	48 89 85 d0 1a 00 00 	mov    QWORD PTR [rbp+0x1ad0],rax
  4052e9:	48 89 95 d8 1a 00 00 	mov    QWORD PTR [rbp+0x1ad8],rdx
  4052f0:	48 b8 d5 12 14 88 90 	movabs rax,0xe0d50690881412d5
  4052f7:	06 d5 e0 
  4052fa:	48 ba 64 01 60 03 02 	movabs rdx,0x9027170203600164
  405301:	17 27 90 
  405304:	48 89 85 e0 1a 00 00 	mov    QWORD PTR [rbp+0x1ae0],rax
  40530b:	48 89 95 e8 1a 00 00 	mov    QWORD PTR [rbp+0x1ae8],rdx
  405312:	48 b8 06 d8 e0 04 70 	movabs rax,0x1602037004e0d806
  405319:	03 02 16 
  40531c:	48 ba e1 24 fe 60 03 	movabs rdx,0xd017020360fe24e1
  405323:	02 17 d0 
  405326:	48 89 85 f0 1a 00 00 	mov    QWORD PTR [rbp+0x1af0],rax
  40532d:	48 89 95 f8 1a 00 00 	mov    QWORD PTR [rbp+0x1af8],rdx
  405334:	48 b8 a8 a2 85 00 a2 	movabs rax,0xdb0690a20085a2a8
  40533b:	90 06 db 
  40533e:	48 ba e0 f9 a3 e0 fa 	movabs rdx,0x90160fae0a3f9e0
  405345:	60 01 09 
  405348:	48 89 85 00 1b 00 00 	mov    QWORD PTR [rbp+0x1b00],rax
  40534f:	48 89 95 08 1b 00 00 	mov    QWORD PTR [rbp+0x1b08],rdx
  405356:	48 b8 90 06 d6 e0 fb 	movabs rax,0xf5e0a3fbe0d60690
  40535d:	a3 e0 f5 
  405360:	48 ba 82 8b 83 05 a2 	movabs rdx,0xd90690a205838b82
  405367:	90 06 d9 
  40536a:	48 89 85 10 1b 00 00 	mov    QWORD PTR [rbp+0x1b10],rax
  405371:	48 89 95 18 1b 00 00 	mov    QWORD PTR [rbp+0x1b18],rdx
  405378:	48 b8 e0 fb a3 e0 f5 	movabs rax,0x858b84f5e0a3fbe0
  40537f:	84 8b 85 
  405382:	48 ba 05 a2 e0 fb a3 	movabs rdx,0xe0a205a3fbe0a205
  405389:	05 a2 e0 
  40538c:	48 89 85 20 1b 00 00 	mov    QWORD PTR [rbp+0x1b20],rax
  405393:	48 89 95 28 1b 00 00 	mov    QWORD PTR [rbp+0x1b28],rdx
  40539a:	48 b8 a3 05 a2 c3 9b 	movabs rax,0xaf05609bc3a205a3
  4053a1:	60 05 af 
  4053a4:	48 ba 00 88 a2 22 da 	movabs rdx,0xead9ecda22a28800
  4053ab:	ec d9 ea 
  4053ae:	48 89 85 30 1b 00 00 	mov    QWORD PTR [rbp+0x1b30],rax
  4053b5:	48 89 95 38 1b 00 00 	mov    QWORD PTR [rbp+0x1b38],rdx
  4053bc:	48 b8 88 a2 02 17 d0 	movabs rax,0x85a2a8d01702a288
  4053c3:	a8 a2 85 
  4053c6:	48 ba 00 a2 90 06 db 	movabs rdx,0xf9e0db0690a200
  4053cd:	e0 f9 00 
  4053d0:	48 89 85 40 1b 00 00 	mov    QWORD PTR [rbp+0x1b40],rax
  4053d7:	48 89 95 48 1b 00 00 	mov    QWORD PTR [rbp+0x1b48],rdx
  4053de:	48 c7 85 50 1b 00 00 	mov    QWORD PTR [rbp+0x1b50],0x0
  4053e5:	00 00 00 00 
  4053e9:	c7 85 58 1b 00 00 00 	mov    DWORD PTR [rbp+0x1b58],0x0
  4053f0:	00 00 00 
  4053f3:	66 c7 85 5c 1b 00 00 	mov    WORD PTR [rbp+0x1b5c],0x0
  4053fa:	00 00 
  4053fc:	48 b8 00 58 96 eb ff 	movabs rax,0xffeb965800
  405403:	00 00 00 
  405406:	ba 00 00 00 00       	mov    edx,0x0
  40540b:	48 89 85 40 19 00 00 	mov    QWORD PTR [rbp+0x1940],rax
  405412:	48 89 95 48 19 00 00 	mov    QWORD PTR [rbp+0x1948],rdx
  405419:	48 8d 95 50 19 00 00 	lea    rdx,[rbp+0x1950]
  405420:	b8 00 00 00 00       	mov    eax,0x0
  405425:	b9 1f 00 00 00       	mov    ecx,0x1f
  40542a:	48 89 d7             	mov    rdi,rdx
  40542d:	f3 48 ab             	rep stos QWORD PTR es:[rdi],rax
  405430:	48 89 fa             	mov    rdx,rdi
  405433:	89 02                	mov    DWORD PTR [rdx],eax
  405435:	48 83 c2 04          	add    rdx,0x4
  405439:	66 89 02             	mov    WORD PTR [rdx],ax
  40543c:	48 83 c2 02          	add    rdx,0x2
  405440:	48 b8 a3 e0 fa 60 01 	movabs rax,0x690090160fae0a3
  405447:	09 90 06 
  40544a:	48 ba d6 e0 fb a3 e0 	movabs rdx,0x8b82f5e0a3fbe0d6
  405451:	f5 82 8b 
  405454:	48 89 85 30 18 00 00 	mov    QWORD PTR [rbp+0x1830],rax
  40545b:	48 89 95 38 18 00 00 	mov    QWORD PTR [rbp+0x1838],rdx
  405462:	48 b8 83 05 a2 90 06 	movabs rax,0xfbe0d90690a20583
  405469:	d9 e0 fb 
  40546c:	48 ba a3 e0 f5 84 8b 	movabs rdx,0xa205858b84f5e0a3
  405473:	85 05 a2 
  405476:	48 89 85 40 18 00 00 	mov    QWORD PTR [rbp+0x1840],rax
  40547d:	48 89 95 48 18 00 00 	mov    QWORD PTR [rbp+0x1848],rdx
  405484:	48 b8 e0 fb a3 05 a2 	movabs rax,0xa393e4a205a3fbe0
  40548b:	e4 93 a3 
  40548e:	48 ba 05 a2 c3 9b 60 	movabs rdx,0xaf05609bc3a205
  405495:	05 af 00 
  405498:	48 89 85 50 18 00 00 	mov    QWORD PTR [rbp+0x1850],rax
  40549f:	48 89 95 58 18 00 00 	mov    QWORD PTR [rbp+0x1858],rdx
  4054a6:	48 b8 88 a2 22 da eb 	movabs rax,0x88e9d9ebda22a288
  4054ad:	d9 e9 88 
  4054b0:	48 ba a2 02 17 d0 90 	movabs rdx,0xe0d50690d01702a2
  4054b7:	06 d5 e0 
  4054ba:	48 89 85 60 18 00 00 	mov    QWORD PTR [rbp+0x1860],rax
  4054c1:	48 89 95 68 18 00 00 	mov    QWORD PTR [rbp+0x1868],rdx
  4054c8:	48 b8 f4 60 03 02 17 	movabs rax,0x690ce17020360f4
  4054cf:	ce 90 06 
  4054d2:	48 ba d8 e0 04 70 03 	movabs rdx,0x881702037004e0d8
  4054d9:	02 17 88 
  4054dc:	48 89 85 70 18 00 00 	mov    QWORD PTR [rbp+0x1870],rax
  4054e3:	48 89 95 78 18 00 00 	mov    QWORD PTR [rbp+0x1878],rdx
  4054ea:	48 b8 24 fe 60 03 02 	movabs rax,0xa8d017020360fe24
  4054f1:	17 d0 a8 
  4054f4:	48 ba a2 85 00 a2 90 	movabs rdx,0xe0db0690a20085a2
  4054fb:	06 db e0 
  4054fe:	48 89 85 80 18 00 00 	mov    QWORD PTR [rbp+0x1880],rax
  405505:	48 89 95 88 18 00 00 	mov    QWORD PTR [rbp+0x1888],rdx
  40550c:	48 b8 f9 a3 e0 fa 60 	movabs rax,0x90090160fae0a3f9
  405513:	01 09 90 
  405516:	48 ba 06 d6 e0 fb a3 	movabs rdx,0x82f5e0a3fbe0d606
  40551d:	e0 f5 82 
  405520:	48 89 85 90 18 00 00 	mov    QWORD PTR [rbp+0x1890],rax
  405527:	48 89 95 98 18 00 00 	mov    QWORD PTR [rbp+0x1898],rdx
  40552e:	48 b8 8b 83 05 a2 90 	movabs rax,0xe0d90690a205838b
  405535:	06 d9 e0 
  405538:	48 ba fb a3 e0 f5 84 	movabs rdx,0x5858b84f5e0a3fb
  40553f:	8b 85 05 
  405542:	48 89 85 a0 18 00 00 	mov    QWORD PTR [rbp+0x18a0],rax
  405549:	48 89 95 a8 18 00 00 	mov    QWORD PTR [rbp+0x18a8],rdx
  405550:	48 b8 a2 e4 93 fb a3 	movabs rax,0xe0a205a3fb93e4a2
  405557:	05 a2 e0 
  40555a:	48 ba a3 05 a2 c3 9b 	movabs rdx,0xaf05609bc3a205a3
  405561:	60 05 af 
  405564:	48 89 85 b0 18 00 00 	mov    QWORD PTR [rbp+0x18b0],rax
  40556b:	48 89 95 b8 18 00 00 	mov    QWORD PTR [rbp+0x18b8],rdx
  405572:	48 b8 00 88 a2 22 da 	movabs rax,0xe9d9ebda22a28800
  405579:	eb d9 e9 
  40557c:	48 ba 88 a2 02 17 d0 	movabs rdx,0x85a2a8d01702a288
  405583:	a8 a2 85 
  405586:	48 89 85 c0 18 00 00 	mov    QWORD PTR [rbp+0x18c0],rax
  40558d:	48 89 95 c8 18 00 00 	mov    QWORD PTR [rbp+0x18c8],rdx
  405594:	48 b8 00 a2 90 06 db 	movabs rax,0xa3f9e0db0690a200
  40559b:	e0 f9 a3 
  40559e:	48 ba e0 fa 60 01 09 	movabs rdx,0xd60690090160fae0
  4055a5:	90 06 d6 
  4055a8:	48 89 85 d0 18 00 00 	mov    QWORD PTR [rbp+0x18d0],rax
  4055af:	48 89 95 d8 18 00 00 	mov    QWORD PTR [rbp+0x18d8],rdx
  4055b6:	48 b8 e0 fb a3 e0 f5 	movabs rax,0x838b82f5e0a3fbe0
  4055bd:	82 8b 83 
  4055c0:	48 ba 05 a2 90 06 d9 	movabs rdx,0xa3fbe0d90690a205
  4055c7:	e0 fb a3 
  4055ca:	48 89 85 e0 18 00 00 	mov    QWORD PTR [rbp+0x18e0],rax
  4055d1:	48 89 95 e8 18 00 00 	mov    QWORD PTR [rbp+0x18e8],rdx
  4055d8:	48 b8 e0 f5 84 8b 85 	movabs rax,0xe4a205858b84f5e0
  4055df:	05 a2 e4 
  4055e2:	48 ba 93 fb a3 05 a2 	movabs rdx,0xa393e4a205a3fb93
  4055e9:	e4 93 a3 
  4055ec:	48 89 85 f0 18 00 00 	mov    QWORD PTR [rbp+0x18f0],rax
  4055f3:	48 89 95 f8 18 00 00 	mov    QWORD PTR [rbp+0x18f8],rdx
  4055fa:	48 b8 05 a2 c3 9b 60 	movabs rax,0xaf05609bc3a205
  405601:	05 af 00 
  405604:	48 ba 88 a2 22 da ea 	movabs rdx,0x88e8d9eada22a288
  40560b:	d9 e8 88 
  40560e:	48 89 85 00 19 00 00 	mov    QWORD PTR [rbp+0x1900],rax
  405615:	48 89 95 08 19 00 00 	mov    QWORD PTR [rbp+0x1908],rdx
  40561c:	48 b8 a2 80 02 80 fe 	movabs rax,0x22017ffe800280a2
  405623:	7f 01 22 
  405626:	48 ba 12 16 3c fd fc 	movabs rdx,0x3d1612fcfd3c1612
  40562d:	12 16 3d 
  405630:	48 89 85 10 19 00 00 	mov    QWORD PTR [rbp+0x1910],rax
  405637:	48 89 95 18 19 00 00 	mov    QWORD PTR [rbp+0x1918],rdx
  40563e:	48 b8 12 1d df 90 06 	movabs rax,0xfae0bc0690df1d12
  405645:	bc e0 fa 
  405648:	48 ba a3 e0 24 16 f5 	movabs rdx,0x7482f51624e0a3
  40564f:	82 74 00 
  405652:	48 89 85 20 19 00 00 	mov    QWORD PTR [rbp+0x1920],rax
  405659:	48 89 95 28 19 00 00 	mov    QWORD PTR [rbp+0x1928],rdx
  405660:	48 c7 85 30 19 00 00 	mov    QWORD PTR [rbp+0x1930],0x0
  405667:	00 00 00 00 
  40566b:	c7 85 38 19 00 00 00 	mov    DWORD PTR [rbp+0x1938],0x0
  405672:	00 00 00 
  405675:	66 c7 85 3c 19 00 00 	mov    WORD PTR [rbp+0x193c],0x0
  40567c:	00 00 
  40567e:	48 b8 00 58 97 ea ff 	movabs rax,0xffea975800
  405685:	00 00 00 
  405688:	ba 00 00 00 00       	mov    edx,0x0
  40568d:	48 89 85 20 17 00 00 	mov    QWORD PTR [rbp+0x1720],rax
  405694:	48 89 95 28 17 00 00 	mov    QWORD PTR [rbp+0x1728],rdx
  40569b:	48 8d 95 30 17 00 00 	lea    rdx,[rbp+0x1730]
  4056a2:	b8 00 00 00 00       	mov    eax,0x0
  4056a7:	b9 1f 00 00 00       	mov    ecx,0x1f
  4056ac:	48 89 d7             	mov    rdi,rdx
  4056af:	f3 48 ab             	rep stos QWORD PTR es:[rdi],rax
  4056b2:	48 89 fa             	mov    rdx,rdi
  4056b5:	89 02                	mov    DWORD PTR [rdx],eax
  4056b7:	48 83 c2 04          	add    rdx,0x4
  4056bb:	66 89 02             	mov    WORD PTR [rdx],ax
  4056be:	48 83 c2 02          	add    rdx,0x2
  4056c2:	48 b8 02 12 15 da c3 	movabs rax,0xbd0690c3da151202
  4056c9:	90 06 bd 
  4056cc:	48 ba e0 94 30 90 06 	movabs rdx,0x64e0bc06903094e0
  4056d3:	bc e0 64 
  4056d6:	48 89 85 10 16 00 00 	mov    QWORD PTR [rbp+0x1610],rax
  4056dd:	48 89 95 18 16 00 00 	mov    QWORD PTR [rbp+0x1618],rdx
  4056e4:	48 b8 80 94 80 40 dc 	movabs rax,0x100090dc40809480
  4056eb:	90 00 10 
  4056ee:	48 ba e0 ff 7e 00 64 	movabs rdx,0x5708064007effe0
  4056f5:	80 70 05 
  4056f8:	48 89 85 20 16 00 00 	mov    QWORD PTR [rbp+0x1620],rax
  4056ff:	48 89 95 28 16 00 00 	mov    QWORD PTR [rbp+0x1628],rdx
  405706:	48 b8 fc 7d 20 80 14 	movabs rax,0x8164ef1480207dfc
  40570d:	ef 64 81 
  405710:	48 ba 4e 70 05 fc 7d 	movabs rdx,0x980307dfc05704e
  405717:	30 80 09 
  40571a:	48 89 85 30 16 00 00 	mov    QWORD PTR [rbp+0x1630],rax
  405721:	48 89 95 38 16 00 00 	mov    QWORD PTR [rbp+0x1638],rdx
  405728:	48 b8 ef 64 82 4e 70 	movabs rax,0x7dfc03704e8264ef
  40572f:	03 fc 7d 
  405732:	48 ba 40 12 16 3c 12 	movabs rdx,0xff5916123c161240
  405739:	16 59 ff 
  40573c:	48 89 85 40 16 00 00 	mov    QWORD PTR [rbp+0x1640],rax
  405743:	48 89 95 48 16 00 00 	mov    QWORD PTR [rbp+0x1648],rdx
  40574a:	48 b8 c3 94 10 ee 64 	movabs rax,0x80948064ee1094c3
  405751:	80 94 80 
  405754:	48 ba 50 24 ef 2d ff 	movabs rdx,0xfe3ceeff2def2450
  40575b:	ee 3c fe 
  40575e:	48 89 85 50 16 00 00 	mov    QWORD PTR [rbp+0x1650],rax
  405765:	48 89 95 58 16 00 00 	mov    QWORD PTR [rbp+0x1658],rdx
  40576c:	48 b8 74 48 2f f5 82 	movabs rax,0x3e047482f52f4874
  405773:	74 04 3e 
  405776:	48 ba f5 83 e0 ff 90 	movabs rdx,0xe0bc0690ffe083f5
  40577d:	06 bc e0 
  405780:	48 89 85 60 16 00 00 	mov    QWORD PTR [rbp+0x1660],rax
  405787:	48 89 95 68 16 00 00 	mov    QWORD PTR [rbp+0x1668],rdx
  40578e:	48 b8 fa a3 e0 24 12 	movabs rax,0x7482f51224e0a3fa
  405795:	f5 82 74 
  405798:	48 ba 00 12 15 da 80 	movabs rdx,0x1612ce80da151200
  40579f:	ce 12 16 
  4057a2:	48 89 85 70 16 00 00 	mov    QWORD PTR [rbp+0x1670],rax
  4057a9:	48 89 95 78 16 00 00 	mov    QWORD PTR [rbp+0x1678],rdx
  4057b0:	48 b8 3c e4 fc fd 12 	movabs rax,0x78591612fdfce43c
  4057b7:	16 59 78 
  4057ba:	48 ba 03 c3 33 ce 33 	movabs rdx,0xf9d8ce33ce33c303
  4057c1:	ce d8 f9 
  4057c4:	48 89 85 80 16 00 00 	mov    QWORD PTR [rbp+0x1680],rax
  4057cb:	48 89 95 88 16 00 00 	mov    QWORD PTR [rbp+0x1688],rdx
  4057d2:	48 b8 12 16 12 e0 ff 	movabs rax,0x691612ffe0121612
  4057d9:	12 16 69 
  4057dc:	48 ba ef f0 0d bd 00 	movabs rdx,0xed0c0100bd0df0ef
  4057e3:	01 0c ed 
  4057e6:	48 89 85 90 16 00 00 	mov    QWORD PTR [rbp+0x1690],rax
  4057ed:	48 89 95 98 16 00 00 	mov    QWORD PTR [rbp+0x1698],rdx
  4057f4:	48 b8 64 08 4c 70 df 	movabs rax,0x221612df704c0864
  4057fb:	12 16 22 
  4057fe:	48 ba 7d 01 7f 01 12 	movabs rdx,0x12e51112017f017d
  405805:	11 e5 12 
  405808:	48 89 85 a0 16 00 00 	mov    QWORD PTR [rbp+0x16a0],rax
  40580f:	48 89 95 a8 16 00 00 	mov    QWORD PTR [rbp+0x16a8],rdx
  405816:	48 b8 16 22 7d 10 7f 	movabs rax,0x1112017f107d2216
  40581d:	01 12 11 
  405820:	48 ba e5 e4 fc fd 12 	movabs rdx,0xe0691612fdfce4e5
  405827:	16 69 e0 
  40582a:	48 89 85 b0 16 00 00 	mov    QWORD PTR [rbp+0x16b0],rax
  405831:	48 89 95 b8 16 00 00 	mov    QWORD PTR [rbp+0x16b8],rdx
  405838:	48 b8 fb 12 16 59 78 	movabs rax,0x33c30378591612fb
  40583f:	03 c3 33 
  405842:	48 ba ce 33 ce d8 f9 	movabs rdx,0x121612f9d8ce33ce
  405849:	12 16 12 
  40584c:	48 89 85 c0 16 00 00 	mov    QWORD PTR [rbp+0x16c0],rax
  405853:	48 89 95 c8 16 00 00 	mov    QWORD PTR [rbp+0x16c8],rdx
  40585a:	48 b8 eb f0 0d bd 00 	movabs rax,0xed0c0100bd0df0eb
  405861:	01 0c ed 
  405864:	48 ba 64 08 4c 70 df 	movabs rdx,0xdf1512df704c0864
  40586b:	12 15 df 
  40586e:	48 89 85 d0 16 00 00 	mov    QWORD PTR [rbp+0x16d0],rax
  405875:	48 89 95 d8 16 00 00 	mov    QWORD PTR [rbp+0x16d8],rdx
  40587c:	48 b8 c3 90 06 bd e0 	movabs rax,0x900694e0bd0690c3
  405883:	94 06 90 
  405886:	48 ba 06 bc e0 64 80 	movabs rdx,0x4080948064e0bc06
  40588d:	94 80 40 
  405890:	48 89 85 e0 16 00 00 	mov    QWORD PTR [rbp+0x16e0],rax
  405897:	48 89 95 e8 16 00 00 	mov    QWORD PTR [rbp+0x16e8],rdx
  40589e:	48 b8 90 22 90 06 a8 	movabs rax,0xa3fee0a806902290
  4058a5:	e0 fe a3 
  4058a8:	48 ba e0 24 12 f5 82 	movabs rdx,0x3e007482f51224e0
  4058af:	74 00 3e 
  4058b2:	48 89 85 f0 16 00 00 	mov    QWORD PTR [rbp+0x16f0],rax
  4058b9:	48 89 95 f8 16 00 00 	mov    QWORD PTR [rbp+0x16f8],rdx
  4058c0:	48 b8 f5 83 e0 22 f0 	movabs rax,0x2374a3f022e083f5
  4058c7:	a3 74 23 
  4058ca:	48 ba f0 74 07 a3 f0 	movabs rdx,0xa3e4f0a30774f0
  4058d1:	e4 a3 00 
  4058d4:	48 89 85 00 17 00 00 	mov    QWORD PTR [rbp+0x1700],rax
  4058db:	48 89 95 08 17 00 00 	mov    QWORD PTR [rbp+0x1708],rdx
  4058e2:	48 c7 85 10 17 00 00 	mov    QWORD PTR [rbp+0x1710],0x0
  4058e9:	00 00 00 00 
  4058ed:	c7 85 18 17 00 00 00 	mov    DWORD PTR [rbp+0x1718],0x0
  4058f4:	00 00 00 
  4058f7:	66 c7 85 1c 17 00 00 	mov    WORD PTR [rbp+0x171c],0x0
  4058fe:	00 00 
  405900:	48 b8 00 58 98 e9 ff 	movabs rax,0xffe9985800
  405907:	00 00 00 
  40590a:	ba 00 00 00 00       	mov    edx,0x0
  40590f:	48 89 85 00 15 00 00 	mov    QWORD PTR [rbp+0x1500],rax
  405916:	48 89 95 08 15 00 00 	mov    QWORD PTR [rbp+0x1508],rdx
  40591d:	48 8d 95 10 15 00 00 	lea    rdx,[rbp+0x1510]
  405924:	b8 00 00 00 00       	mov    eax,0x0
  405929:	b9 1f 00 00 00       	mov    ecx,0x1f
  40592e:	48 89 d7             	mov    rdi,rdx
  405931:	f3 48 ab             	rep stos QWORD PTR es:[rdi],rax
  405934:	48 89 fa             	mov    rdx,rdi
  405937:	89 02                	mov    DWORD PTR [rdx],eax
  405939:	48 83 c2 04          	add    rdx,0x4
  40593d:	66 89 02             	mov    WORD PTR [rdx],ax
  405940:	48 83 c2 02          	add    rdx,0x2
  405944:	48 b8 f0 a3 f0 a3 f0 	movabs rax,0xa3f022f0a3f0a3f0
  40594b:	22 f0 a3 
  40594e:	48 ba 74 30 f0 a3 74 	movabs rdx,0x22f00274a3f03074
  405955:	02 f0 22 
  405958:	48 89 85 f0 13 00 00 	mov    QWORD PTR [rbp+0x13f0],rax
  40595f:	48 89 95 f8 13 00 00 	mov    QWORD PTR [rbp+0x13f8],rdx
  405966:	48 b8 e0 24 16 f5 82 	movabs rax,0x234e482f51624e0
  40596d:	e4 34 02 
  405970:	48 ba f5 83 e0 ff 90 	movabs rdx,0xe0070290ffe083f5
  405977:	02 07 e0 
  40597a:	48 89 85 00 14 00 00 	mov    QWORD PTR [rbp+0x1400],rax
  405981:	48 89 95 08 14 00 00 	mov    QWORD PTR [rbp+0x1408],rdx
  405988:	48 b8 2f f0 90 02 06 	movabs rax,0xf004e0060290f02f
  40598f:	e0 04 f0 
  405992:	48 ba 22 ff e0 5f 94 	movabs rdx,0x807400945fe0ff22
  405999:	00 74 80 
  40599c:	48 89 85 10 14 00 00 	mov    QWORD PTR [rbp+0x1410],rax
  4059a3:	48 89 95 18 14 00 00 	mov    QWORD PTR [rbp+0x1418],rdx
  4059aa:	48 b8 94 80 22 90 06 	movabs rax,0xff74c20690228094
  4059b1:	c2 74 ff 
  4059b4:	48 ba 7b 01 7a 04 79 	movabs rdx,0x22f04879047a017b
  4059bb:	48 f0 22 
  4059be:	48 89 85 20 14 00 00 	mov    QWORD PTR [rbp+0x1420],rax
  4059c5:	48 89 95 28 14 00 00 	mov    QWORD PTR [rbp+0x1428],rdx
  4059cc:	48 b8 90 06 a8 e4 75 	movabs rax,0x201f075e4a80690
  4059d3:	f0 01 02 
  4059d6:	48 ba 14 1c e4 90 06 	movabs rdx,0xa3f0a80690e41c14
  4059dd:	a8 f0 a3 
  4059e0:	48 89 85 30 14 00 00 	mov    QWORD PTR [rbp+0x1430],rax
  4059e7:	48 89 95 38 14 00 00 	mov    QWORD PTR [rbp+0x1438],rdx
  4059ee:	48 b8 f0 22 7b 01 7a 	movabs rax,0x1279007a017b22f0
  4059f5:	00 79 12 
  4059f8:	48 ba 90 06 c3 e4 f0 	movabs rdx,0x1874a3f0e4c30690
  4059ff:	a3 74 18 
  405a02:	48 89 85 40 14 00 00 	mov    QWORD PTR [rbp+0x1440],rax
  405a09:	48 89 95 48 14 00 00 	mov    QWORD PTR [rbp+0x1448],rdx
  405a10:	48 b8 f0 22 74 31 f0 	movabs rax,0x274a3f0317422f0
  405a17:	a3 74 02 
  405a1a:	48 ba f0 22 f0 a3 74 	movabs rdx,0xa3f02074a3f022f0
  405a21:	20 f0 a3 
  405a24:	48 89 85 50 14 00 00 	mov    QWORD PTR [rbp+0x1450],rax
  405a2b:	48 89 95 58 14 00 00 	mov    QWORD PTR [rbp+0x1458],rdx
  405a32:	48 b8 22 90 02 06 e0 	movabs rax,0x2f94c3e006029022
  405a39:	c3 94 2f 
  405a3c:	48 ba 74 80 94 80 22 	movabs rdx,0xf00902280948074
  405a43:	90 00 0f 
  405a46:	48 89 85 60 14 00 00 	mov    QWORD PTR [rbp+0x1460],rax
  405a4d:	48 89 95 68 14 00 00 	mov    QWORD PTR [rbp+0x1468],rdx
  405a54:	48 b8 e0 ff 90 02 12 	movabs rax,0x226fe0120290ffe0
  405a5b:	e0 6f 22 
  405a5e:	48 ba a3 f0 a3 74 0b 	movabs rdx,0x690f00b74a3f0a3
  405a65:	f0 90 06 
  405a68:	48 89 85 70 14 00 00 	mov    QWORD PTR [rbp+0x1470],rax
  405a6f:	48 89 95 78 14 00 00 	mov    QWORD PTR [rbp+0x1478],rdx
  405a76:	48 b8 dd e0 22 90 00 	movabs rax,0xffe010009022e0dd
  405a7d:	10 e0 ff 
  405a80:	48 ba 90 02 15 e0 22 	movabs rdx,0x74a3f022e0150290
  405a87:	f0 a3 74 
  405a8a:	48 89 85 80 14 00 00 	mov    QWORD PTR [rbp+0x1480],rax
  405a91:	48 89 95 88 14 00 00 	mov    QWORD PTR [rbp+0x1488],rdx
  405a98:	48 b8 2f f0 a3 22 f0 	movabs rax,0x174a3f022a3f02f
  405a9f:	a3 74 01 
  405aa2:	48 ba f0 a3 22 90 06 	movabs rdx,0x1402ac069022a3f0
  405aa9:	ac 02 14 
  405aac:	48 89 85 90 14 00 00 	mov    QWORD PTR [rbp+0x1490],rax
  405ab3:	48 89 95 98 14 00 00 	mov    QWORD PTR [rbp+0x1498],rdx
  405aba:	48 b8 67 e4 90 02 07 	movabs rax,0x290f0070290e467
  405ac1:	f0 90 02 
  405ac4:	48 ba 06 f0 22 7b 01 	movabs rdx,0x79047a017b22f006
  405acb:	7a 04 79 
  405ace:	48 89 85 a0 14 00 00 	mov    QWORD PTR [rbp+0x14a0],rax
  405ad5:	48 89 95 a8 14 00 00 	mov    QWORD PTR [rbp+0x14a8],rdx
  405adc:	48 b8 48 90 06 c2 22 	movabs rax,0xcd069022c2069048
  405ae3:	90 06 cd 
  405ae6:	48 ba 12 16 06 12 16 	movabs rdx,0xa3e40b1612061612
  405aed:	0b e4 a3 
  405af0:	48 89 85 b0 14 00 00 	mov    QWORD PTR [rbp+0x14b0],rax
  405af7:	48 89 95 b8 14 00 00 	mov    QWORD PTR [rbp+0x14b8],rdx
  405afe:	48 b8 f0 a3 f0 c3 90 	movabs rax,0xe0d30690c3f0a3f0
  405b05:	06 d3 e0 
  405b08:	48 ba 94 02 40 03 02 	movabs rdx,0xe07e1a0203400294
  405b0f:	1a 7e e0 
  405b12:	48 89 85 c0 14 00 00 	mov    QWORD PTR [rbp+0x14c0],rax
  405b19:	48 89 95 c8 14 00 00 	mov    QWORD PTR [rbp+0x14c8],rdx
  405b20:	48 b8 fe a3 e0 ff fd 	movabs rax,0xd10690fdffe0a3fe
  405b27:	90 06 d1 
  405b2a:	48 ba e0 fa a3 e0 fb 	movabs rdx,0x12902dfbe0a3fae0
  405b31:	2d 90 12 
  405b34:	48 89 85 d0 14 00 00 	mov    QWORD PTR [rbp+0x14d0],rax
  405b3b:	48 89 95 d8 14 00 00 	mov    QWORD PTR [rbp+0x14d8],rdx
  405b42:	48 b8 35 f0 eb 2f ea 	movabs rax,0xf0a33eea2febf035
  405b49:	3e a3 f0 
  405b4c:	48 ba 90 12 33 e4 f0 	movabs rdx,0x4a3f0e4331290
  405b53:	a3 04 00 
  405b56:	48 89 85 e0 14 00 00 	mov    QWORD PTR [rbp+0x14e0],rax
  405b5d:	48 89 95 e8 14 00 00 	mov    QWORD PTR [rbp+0x14e8],rdx
  405b64:	48 c7 85 f0 14 00 00 	mov    QWORD PTR [rbp+0x14f0],0x0
  405b6b:	00 00 00 00 
  405b6f:	c7 85 f8 14 00 00 00 	mov    DWORD PTR [rbp+0x14f8],0x0
  405b76:	00 00 00 
  405b79:	66 c7 85 fc 14 00 00 	mov    WORD PTR [rbp+0x14fc],0x0
  405b80:	00 00 
  405b82:	48 b8 00 58 99 e8 ff 	movabs rax,0xffe8995800
  405b89:	00 00 00 
  405b8c:	ba 00 00 00 00       	mov    edx,0x0
  405b91:	48 89 85 e0 12 00 00 	mov    QWORD PTR [rbp+0x12e0],rax
  405b98:	48 89 95 e8 12 00 00 	mov    QWORD PTR [rbp+0x12e8],rdx
  405b9f:	48 8d 95 f0 12 00 00 	lea    rdx,[rbp+0x12f0]
  405ba6:	b8 00 00 00 00       	mov    eax,0x0
  405bab:	b9 1f 00 00 00       	mov    ecx,0x1f
  405bb0:	48 89 d7             	mov    rdi,rdx
  405bb3:	f3 48 ab             	rep stos QWORD PTR es:[rdi],rax
  405bb6:	48 89 fa             	mov    rdx,rdi
  405bb9:	89 02                	mov    DWORD PTR [rdx],eax
  405bbb:	48 83 c2 04          	add    rdx,0x4
  405bbf:	66 89 02             	mov    WORD PTR [rdx],ax
  405bc2:	48 83 c2 02          	add    rdx,0x2
  405bc6:	48 b8 f0 75 eb 40 75 	movabs rax,0x75aae97540eb75f0
  405bcd:	e9 aa 75 
  405bd0:	48 ba ea 55 90 06 d3 	movabs rdx,0xa3fee0d3069055ea
  405bd7:	e0 fe a3 
  405bda:	48 89 85 d0 11 00 00 	mov    QWORD PTR [rbp+0x11d0],rax
  405be1:	48 89 95 d8 11 00 00 	mov    QWORD PTR [rbp+0x11d8],rdx
  405be8:	48 b8 e0 ff 90 06 cf 	movabs rax,0xa3fce0cf0690ffe0
  405bef:	e0 fc a3 
  405bf2:	48 ba e0 2f f5 82 ec 	movabs rdx,0x83f53eec82f52fe0
  405bf9:	3e f5 83 
  405bfc:	48 89 85 e0 11 00 00 	mov    QWORD PTR [rbp+0x11e0],rax
  405c03:	48 89 95 e8 11 00 00 	mov    QWORD PTR [rbp+0x11e8],rdx
  405c0a:	48 b8 e0 ff 90 06 d3 	movabs rax,0xa3fce0d30690ffe0
  405c11:	e0 fc a3 
  405c14:	48 ba e0 90 06 cd 12 	movabs rdx,0x30441612cd0690e0
  405c1b:	16 44 30 
  405c1e:	48 89 85 f0 11 00 00 	mov    QWORD PTR [rbp+0x11f0],rax
  405c25:	48 89 95 f8 11 00 00 	mov    QWORD PTR [rbp+0x11f8],rdx
  405c2c:	48 b8 e8 fd c2 e8 30 	movabs rax,0xc205e930e8c2fde8
  405c33:	e9 05 c2 
  405c36:	48 ba e9 7f 06 22 90 	movabs rdx,0xe0d3069022067fe9
  405c3d:	06 d3 e0 
  405c40:	48 89 85 00 12 00 00 	mov    QWORD PTR [rbp+0x1200],rax
  405c47:	48 89 95 08 12 00 00 	mov    QWORD PTR [rbp+0x1208],rdx
  405c4e:	48 b8 fe a3 e0 ff 90 	movabs rax,0xe0ce0690ffe0a3fe
  405c55:	06 ce e0 
  405c58:	48 ba 2f ff 90 06 cd 	movabs rdx,0xfa3ee0cd0690ff2f
  405c5f:	e0 3e fa 
  405c62:	48 89 85 10 12 00 00 	mov    QWORD PTR [rbp+0x1210],rax
  405c69:	48 89 95 18 12 00 00 	mov    QWORD PTR [rbp+0x1218],rdx
  405c70:	48 b8 a9 07 7b 01 c0 	movabs rax,0x1c002c0017b07a9
  405c77:	02 c0 01 
  405c7a:	48 ba 90 06 d3 a3 e0 	movabs rdx,0x690ffe0a3d30690
  405c81:	ff 90 06 
  405c84:	48 89 85 20 12 00 00 	mov    QWORD PTR [rbp+0x1220],rax
  405c8b:	48 89 95 28 12 00 00 	mov    QWORD PTR [rbp+0x1228],rdx
  405c92:	48 b8 d0 e0 2f ff 90 	movabs rax,0xe0cf0690ff2fe0d0
  405c99:	06 cf e0 
  405c9c:	48 ba 3e fa a9 07 90 	movabs rdx,0x12d8069007a9fa3e
  405ca3:	06 d8 12 
  405ca6:	48 89 85 30 12 00 00 	mov    QWORD PTR [rbp+0x1230],rax
  405cad:	48 89 95 38 12 00 00 	mov    QWORD PTR [rbp+0x1238],rdx
  405cb4:	48 b8 14 88 90 06 db 	movabs rax,0xf00174db06908814
  405cbb:	74 01 f0 
  405cbe:	48 ba a3 e4 f0 d0 01 	movabs rdx,0x1202d001d0f0e4a3
  405cc5:	d0 02 12 
  405cc8:	48 89 85 40 12 00 00 	mov    QWORD PTR [rbp+0x1240],rax
  405ccf:	48 89 95 48 12 00 00 	mov    QWORD PTR [rbp+0x1248],rdx
  405cd6:	48 b8 16 7a ef 70 03 	movabs rax,0x220a7f0370ef7a16
  405cdd:	7f 0a 22 
  405ce0:	48 ba 90 06 d3 74 01 	movabs rdx,0xf0750174d30690
  405ce7:	75 f0 00 
  405cea:	48 89 85 50 12 00 00 	mov    QWORD PTR [rbp+0x1250],rax
  405cf1:	48 89 95 58 12 00 00 	mov    QWORD PTR [rbp+0x1258],rdx
  405cf8:	48 b8 12 14 1c 02 19 	movabs rax,0x7fbc19021c1412
  405cff:	bc 7f 00 
  405d02:	48 ba 22 90 06 cd 12 	movabs rdx,0x90881412cd069022
  405d09:	14 88 90 
  405d0c:	48 89 85 60 12 00 00 	mov    QWORD PTR [rbp+0x1260],rax
  405d13:	48 89 95 68 12 00 00 	mov    QWORD PTR [rbp+0x1268],rdx
  405d1a:	48 b8 06 cd e0 64 01 	movabs rax,0x203600164e0cd06
  405d21:	60 03 02 
  405d24:	48 ba 1b 15 90 06 d0 	movabs rdx,0x6004e0d00690151b
  405d2b:	e0 04 60 
  405d2e:	48 89 85 70 12 00 00 	mov    QWORD PTR [rbp+0x1270],rax
  405d35:	48 89 95 78 12 00 00 	mov    QWORD PTR [rbp+0x1278],rdx
  405d3c:	48 b8 41 24 fe 60 03 	movabs rax,0x171b020360fe2441
  405d43:	02 1b 17 
  405d46:	48 ba a8 a2 85 00 a2 	movabs rdx,0xd30690a20085a2a8
  405d4d:	90 06 d3 
  405d50:	48 89 85 80 12 00 00 	mov    QWORD PTR [rbp+0x1280],rax
  405d57:	48 89 95 88 12 00 00 	mov    QWORD PTR [rbp+0x1288],rdx
  405d5e:	48 b8 e0 f9 a3 e0 fa 	movabs rax,0x90160fae0a3f9e0
  405d65:	60 01 09 
  405d68:	48 ba 90 06 ce e0 fb 	movabs rdx,0xf5e0a3fbe0ce0690
  405d6f:	a3 e0 f5 
  405d72:	48 89 85 90 12 00 00 	mov    QWORD PTR [rbp+0x1290],rax
  405d79:	48 89 95 98 12 00 00 	mov    QWORD PTR [rbp+0x1298],rdx
  405d80:	48 b8 82 8b 83 05 a2 	movabs rax,0xd10690a205838b82
  405d87:	90 06 d1 
  405d8a:	48 ba e0 fb a3 e0 f5 	movabs rdx,0x858b84f5e0a3fbe0
  405d91:	84 8b 85 
  405d94:	48 89 85 a0 12 00 00 	mov    QWORD PTR [rbp+0x12a0],rax
  405d9b:	48 89 95 a8 12 00 00 	mov    QWORD PTR [rbp+0x12a8],rdx
  405da2:	48 b8 75 a2 01 e0 a3 	movabs rax,0xf0a205a3e001a275
  405da9:	05 a2 f0 
  405dac:	48 ba a3 05 a2 da f6 	movabs rdx,0x88f4d9f6daa205a3
  405db3:	d9 f4 88 
  405db6:	48 89 85 b0 12 00 00 	mov    QWORD PTR [rbp+0x12b0],rax
  405dbd:	48 89 95 b8 12 00 00 	mov    QWORD PTR [rbp+0x12b8],rdx
  405dc4:	48 b8 a2 22 a8 a2 85 	movabs rax,0x90a20085a2a822a2
  405dcb:	00 a2 90 
  405dce:	48 ba 06 d3 e0 f9 a3 	movabs rdx,0xfae0a3f9e0d306
  405dd5:	e0 fa 00 
  405dd8:	48 89 85 c0 12 00 00 	mov    QWORD PTR [rbp+0x12c0],rax
  405ddf:	48 89 95 c8 12 00 00 	mov    QWORD PTR [rbp+0x12c8],rdx
  405de6:	48 c7 85 d0 12 00 00 	mov    QWORD PTR [rbp+0x12d0],0x0
  405ded:	00 00 00 00 
  405df1:	c7 85 d8 12 00 00 00 	mov    DWORD PTR [rbp+0x12d8],0x0
  405df8:	00 00 00 
  405dfb:	66 c7 85 dc 12 00 00 	mov    WORD PTR [rbp+0x12dc],0x0
  405e02:	00 00 
  405e04:	48 b8 00 58 9a e7 ff 	movabs rax,0xffe79a5800
  405e0b:	00 00 00 
  405e0e:	ba 00 00 00 00       	mov    edx,0x0
  405e13:	48 89 85 c0 10 00 00 	mov    QWORD PTR [rbp+0x10c0],rax
  405e1a:	48 89 95 c8 10 00 00 	mov    QWORD PTR [rbp+0x10c8],rdx
  405e21:	48 8d 95 d0 10 00 00 	lea    rdx,[rbp+0x10d0]
  405e28:	b8 00 00 00 00       	mov    eax,0x0
  405e2d:	b9 1f 00 00 00       	mov    ecx,0x1f
  405e32:	48 89 d7             	mov    rdi,rdx
  405e35:	f3 48 ab             	rep stos QWORD PTR es:[rdi],rax
  405e38:	48 89 fa             	mov    rdx,rdi
  405e3b:	89 02                	mov    DWORD PTR [rdx],eax
  405e3d:	48 83 c2 04          	add    rdx,0x4
  405e41:	66 89 02             	mov    WORD PTR [rdx],ax
  405e44:	48 83 c2 02          	add    rdx,0x2
  405e48:	48 b8 60 01 09 90 06 	movabs rax,0xfbe0ce0690090160
  405e4f:	ce e0 fb 
  405e52:	48 ba a3 e0 f5 82 8b 	movabs rdx,0xa205838b82f5e0a3
  405e59:	83 05 a2 
  405e5c:	48 89 85 b0 0f 00 00 	mov    QWORD PTR [rbp+0xfb0],rax
  405e63:	48 89 95 b8 0f 00 00 	mov    QWORD PTR [rbp+0xfb8],rdx
  405e6a:	48 b8 90 06 d1 e0 fb 	movabs rax,0xf5e0a3fbe0d10690
  405e71:	a3 e0 f5 
  405e74:	48 ba 84 8b 85 75 a2 	movabs rdx,0x93e401a275858b84
  405e7b:	01 e4 93 
  405e7e:	48 89 85 c0 0f 00 00 	mov    QWORD PTR [rbp+0xfc0],rax
  405e85:	48 89 95 c8 0f 00 00 	mov    QWORD PTR [rbp+0xfc8],rdx
  405e8c:	48 b8 a3 05 a2 f0 a3 	movabs rax,0xdaa205a3f0a205a3
  405e93:	05 a2 da 
  405e96:	48 ba f5 d9 f3 88 a2 	movabs rdx,0xfe8022a288f3d9f5
  405e9d:	22 80 fe 
  405ea0:	48 89 85 d0 0f 00 00 	mov    QWORD PTR [rbp+0xfd0],rax
  405ea7:	48 89 95 d8 0f 00 00 	mov    QWORD PTR [rbp+0xfd8],rdx
  405eae:	48 b8 22 02 02 00 e4 	movabs rax,0xf8a393e400020222
  405eb5:	93 a3 f8 
  405eb8:	48 ba e4 93 a3 40 03 	movabs rdx,0x180f60340a393e4
  405ebf:	f6 80 01 
  405ec2:	48 89 85 e0 0f 00 00 	mov    QWORD PTR [rbp+0xfe0],rax
  405ec9:	48 89 95 e8 0f 00 00 	mov    QWORD PTR [rbp+0xfe8],rdx
  405ed0:	48 b8 f2 08 df f4 80 	movabs rax,0x93e42980f4df08f2
  405ed7:	29 e4 93 
  405eda:	48 ba a3 f8 54 07 24 	movabs rdx,0xc3c80c240754f8a3
  405ee1:	0c c8 c3 
  405ee4:	48 89 85 f0 0f 00 00 	mov    QWORD PTR [rbp+0xff0],rax
  405eeb:	48 89 95 f8 0f 00 00 	mov    QWORD PTR [rbp+0xff8],rdx
  405ef2:	48 b8 33 c4 54 0f 44 	movabs rax,0x83c820440f54c433
  405ef9:	20 c8 83 
  405efc:	48 ba 40 04 f4 56 80 	movabs rdx,0xf646018056f40440
  405f03:	01 46 f6 
  405f06:	48 89 85 00 10 00 00 	mov    QWORD PTR [rbp+0x1000],rax
  405f0d:	48 89 95 08 10 00 00 	mov    QWORD PTR [rbp+0x1008],rdx
  405f14:	48 b8 df e4 80 0b 01 	movabs rax,0x80402010b80e4df
  405f1b:	02 04 08 
  405f1e:	48 ba 10 20 40 80 90 	movabs rdx,0xe49d0d9080402010
  405f25:	0d 9d e4 
  405f28:	48 89 85 10 10 00 00 	mov    QWORD PTR [rbp+0x1010],rax
  405f2f:	48 89 95 18 10 00 00 	mov    QWORD PTR [rbp+0x1018],rdx
  405f36:	48 b8 7e 01 93 60 bc 	movabs rax,0x54ffa3bc6093017e
  405f3d:	a3 ff 54 
  405f40:	48 ba 3f 30 e5 09 54 	movabs rdx,0xe4fe1f5409e5303f
  405f47:	1f fe e4 
  405f4a:	48 89 85 20 10 00 00 	mov    QWORD PTR [rbp+0x1020],rax
  405f51:	48 89 95 28 10 00 00 	mov    QWORD PTR [rbp+0x1028],rdx
  405f58:	48 b8 93 a3 60 01 0e 	movabs rax,0xc054cf0e0160a393
  405f5f:	cf 54 c0 
  405f62:	48 ba 25 e0 60 a8 40 	movabs rdx,0x93e4b840a860e025
  405f69:	b8 e4 93 
  405f6c:	48 89 85 30 10 00 00 	mov    QWORD PTR [rbp+0x1030],rax
  405f73:	48 89 95 38 10 00 00 	mov    QWORD PTR [rbp+0x1038],rdx
  405f7a:	48 b8 a3 fa e4 93 a3 	movabs rax,0x93e4f8a393e4faa3
  405f81:	f8 e4 93 
  405f84:	48 ba a3 c8 c5 82 c8 	movabs rdx,0x83c5cac882c5c8a3
  405f8b:	ca c5 83 
  405f8e:	48 89 85 40 10 00 00 	mov    QWORD PTR [rbp+0x1040],rax
  405f95:	48 89 95 48 10 00 00 	mov    QWORD PTR [rbp+0x1048],rdx
  405f9c:	48 b8 ca f0 a3 c8 c5 	movabs rax,0xcac882c5c8a3f0ca
  405fa3:	82 c8 ca 
  405fa6:	48 ba c5 83 ca df e9 	movabs rdx,0x80e7dee9dfca83c5
  405fad:	de e7 80 
  405fb0:	48 89 85 50 10 00 00 	mov    QWORD PTR [rbp+0x1050],rax
  405fb7:	48 89 95 58 10 00 00 	mov    QWORD PTR [rbp+0x1058],rdx
  405fbe:	48 b8 be e4 90 06 bc 	movabs rax,0x17bf0bc0690e4be
  405fc5:	f0 7b 01 
  405fc8:	48 ba 7a 04 79 48 90 	movabs rdx,0xf0c206904879047a
  405fcf:	06 c2 f0 
  405fd2:	48 89 85 60 10 00 00 	mov    QWORD PTR [rbp+0x1060],rax
  405fd9:	48 89 95 68 10 00 00 	mov    QWORD PTR [rbp+0x1068],rdx
  405fe0:	48 b8 a3 f0 fd 7c 70 	movabs rax,0x4e1d12707cfdf0a3
  405fe7:	12 1d 4e 
  405fea:	48 ba 90 04 48 e0 f4 	movabs rdx,0x903870f4e0480490
  405ff1:	70 38 90 
  405ff4:	48 89 85 70 10 00 00 	mov    QWORD PTR [rbp+0x1070],rax
  405ffb:	48 89 95 78 10 00 00 	mov    QWORD PTR [rbp+0x1078],rdx
  406002:	48 b8 06 bc f0 90 06 	movabs rax,0xc3e0bc0690f0bc06
  406009:	bc e0 c3 
  40600c:	48 ba 94 55 74 80 94 	movabs rdx,0x2150809480745594
  406013:	80 50 21 
  406016:	48 89 85 80 10 00 00 	mov    QWORD PTR [rbp+0x1080],rax
  40601d:	48 89 95 88 10 00 00 	mov    QWORD PTR [rbp+0x1088],rdx
  406024:	48 b8 e0 ff 24 12 f5 	movabs rax,0x34e482f51224ffe0
  40602b:	82 e4 34 
  40602e:	48 ba 00 f5 83 e0 fe 	movabs rdx,0x2f4874fee083f500
  406035:	74 48 2f 
  406038:	48 89 85 90 10 00 00 	mov    QWORD PTR [rbp+0x1090],rax
  40603f:	48 89 95 98 10 00 00 	mov    QWORD PTR [rbp+0x1098],rdx
  406046:	48 b8 f5 82 e4 34 04 	movabs rax,0xee83f50434e482f5
  40604d:	f5 83 ee 
  406050:	48 ba f0 90 06 bc e0 	movabs rdx,0xf004e0bc0690f0
  406057:	04 f0 00 
  40605a:	48 89 85 a0 10 00 00 	mov    QWORD PTR [rbp+0x10a0],rax
  406061:	48 89 95 a8 10 00 00 	mov    QWORD PTR [rbp+0x10a8],rdx
  406068:	48 c7 85 b0 10 00 00 	mov    QWORD PTR [rbp+0x10b0],0x0
  40606f:	00 00 00 00 
  406073:	c7 85 b8 10 00 00 00 	mov    DWORD PTR [rbp+0x10b8],0x0
  40607a:	00 00 00 
  40607d:	66 c7 85 bc 10 00 00 	mov    WORD PTR [rbp+0x10bc],0x0
  406084:	00 00 
  406086:	48 b8 00 58 9b e6 ff 	movabs rax,0xffe69b5800
  40608d:	00 00 00 
  406090:	ba 00 00 00 00       	mov    edx,0x0
  406095:	48 89 85 a0 0e 00 00 	mov    QWORD PTR [rbp+0xea0],rax
  40609c:	48 89 95 a8 0e 00 00 	mov    QWORD PTR [rbp+0xea8],rdx
  4060a3:	48 8d 95 b0 0e 00 00 	lea    rdx,[rbp+0xeb0]
  4060aa:	b8 00 00 00 00       	mov    eax,0x0
  4060af:	b9 1f 00 00 00       	mov    ecx,0x1f
  4060b4:	48 89 d7             	mov    rdi,rdx
  4060b7:	f3 48 ab             	rep stos QWORD PTR es:[rdi],rax
  4060ba:	48 89 fa             	mov    rdx,rdi
  4060bd:	89 02                	mov    DWORD PTR [rdx],eax
  4060bf:	48 83 c2 04          	add    rdx,0x4
  4060c3:	66 89 02             	mov    WORD PTR [rdx],ax
  4060c6:	48 83 c2 02          	add    rdx,0x2
  4060ca:	48 b8 80 d2 12 15 f5 	movabs rax,0x421012f51512d280
  4060d1:	12 10 42 
  4060d4:	48 ba e4 90 06 bc f0 	movabs rdx,0xbc0690f0bc0690e4
  4060db:	90 06 bc 
  4060de:	48 89 85 90 0d 00 00 	mov    QWORD PTR [rbp+0xd90],rax
  4060e5:	48 89 95 98 0d 00 00 	mov    QWORD PTR [rbp+0xd98],rdx
  4060ec:	48 b8 e0 ff c3 94 55 	movabs rax,0x9480745594c3ffe0
  4060f3:	74 80 94 
  4060f6:	48 ba 80 50 14 74 12 	movabs rdx,0x82f52f1274145080
  4060fd:	2f f5 82 
  406100:	48 89 85 a0 0d 00 00 	mov    QWORD PTR [rbp+0xda0],rax
  406107:	48 89 95 a8 0d 00 00 	mov    QWORD PTR [rbp+0xda8],rdx
  40610e:	48 b8 e4 34 00 f5 83 	movabs rax,0x90f0e483f50034e4
  406115:	e4 f0 90 
  406118:	48 ba 06 bc e0 04 f0 	movabs rdx,0x22de80f004e0bc06
  40611f:	80 de 22 
  406122:	48 89 85 b0 0d 00 00 	mov    QWORD PTR [rbp+0xdb0],rax
  406129:	48 89 95 b8 0d 00 00 	mov    QWORD PTR [rbp+0xdb8],rdx
  406130:	48 b8 90 06 bc 12 16 	movabs rax,0xeaa3061612bc0690
  406137:	06 a3 ea 
  40613a:	48 ba f0 a3 eb f0 e4 	movabs rdx,0xa3f0a3e4f0eba3f0
  406141:	a3 f0 a3 
  406144:	48 89 85 c0 0d 00 00 	mov    QWORD PTR [rbp+0xdc0],rax
  40614b:	48 89 95 c8 0d 00 00 	mov    QWORD PTR [rbp+0xdc8],rdx
  406152:	48 b8 f0 90 06 c0 e0 	movabs rax,0xe0a3fee0c00690f0
  406159:	fe a3 e0 
  40615c:	48 ba ff a3 e0 fc a3 	movabs rdx,0xc3fde0a3fce0a3ff
  406163:	e0 fd c3 
  406166:	48 89 85 d0 0d 00 00 	mov    QWORD PTR [rbp+0xdd0],rax
  40616d:	48 89 95 d8 0d 00 00 	mov    QWORD PTR [rbp+0xdd8],rdx
  406174:	48 b8 9f ec 9e 50 3b 	movabs rax,0x1eb753b509eec9f
  40617b:	75 eb 01 
  40617e:	48 ba 75 e9 aa 75 ea 	movabs rdx,0x69055ea75aae975
  406185:	55 90 06 
  406188:	48 89 85 e0 0d 00 00 	mov    QWORD PTR [rbp+0xde0],rax
  40618f:	48 89 95 e8 0d 00 00 	mov    QWORD PTR [rbp+0xde8],rdx
  406196:	48 b8 be e0 fe a3 e0 	movabs rax,0x82f52de0a3fee0be
  40619d:	2d f5 82 
  4061a0:	48 ba ee 3c f5 83 e0 	movabs rdx,0x690ffe083f53cee
  4061a7:	ff 90 06 
  4061aa:	48 89 85 f0 0d 00 00 	mov    QWORD PTR [rbp+0xdf0],rax
  4061b1:	48 89 95 f8 0d 00 00 	mov    QWORD PTR [rbp+0xdf8],rdx
  4061b8:	48 b8 c2 e0 fc a3 e0 	movabs rax,0xbc0690e0a3fce0c2
  4061bf:	90 06 bc 
  4061c2:	48 ba 12 16 44 30 e8 	movabs rdx,0xe8c2fde830441612
  4061c9:	fd c2 e8 
  4061cc:	48 89 85 00 0e 00 00 	mov    QWORD PTR [rbp+0xe00],rax
  4061d3:	48 89 95 08 0e 00 00 	mov    QWORD PTR [rbp+0xe08],rdx
  4061da:	48 b8 30 e9 05 c2 e9 	movabs rax,0x22067fe9c205e930
  4061e1:	7f 06 22 
  4061e4:	48 ba 90 06 c2 12 15 	movabs rdx,0xb180e21512c20690
  4061eb:	e2 80 b1 
  4061ee:	48 89 85 10 0e 00 00 	mov    QWORD PTR [rbp+0xe10],rax
  4061f5:	48 89 95 18 0e 00 00 	mov    QWORD PTR [rbp+0xe18],rdx
  4061fc:	48 b8 7f 00 22 7e 1f 	movabs rax,0x90fce41f7e22007f
  406203:	e4 fc 90 
  406206:	48 ba 19 27 f0 90 19 	movabs rdx,0x7df0261990f02719
  40620d:	26 f0 7d 
  406210:	48 89 85 20 0e 00 00 	mov    QWORD PTR [rbp+0xe20],rax
  406217:	48 89 95 28 0e 00 00 	mov    QWORD PTR [rbp+0xe28],rdx
  40621e:	48 b8 3f 90 19 23 ed 	movabs rax,0x1990f0ed2319903f
  406225:	f0 90 19 
  406228:	48 ba 21 f0 ee 90 19 	movabs rdx,0x90f0241990eef021
  40622f:	24 f0 90 
  406232:	48 89 85 30 0e 00 00 	mov    QWORD PTR [rbp+0xe30],rax
  406239:	48 89 95 38 0e 00 00 	mov    QWORD PTR [rbp+0xe38],rdx
  406240:	48 b8 19 22 f0 90 19 	movabs rax,0x44e0251990f02219
  406247:	25 e0 44 
  40624a:	48 ba 01 f0 90 19 20 	movabs rdx,0xf954e0201990f001
  406251:	e0 54 f9 
  406254:	48 89 85 40 0e 00 00 	mov    QWORD PTR [rbp+0xe40],rax
  40625b:	48 89 95 48 0e 00 00 	mov    QWORD PTR [rbp+0xe48],rdx
  406262:	48 b8 f0 e0 44 01 f0 	movabs rax,0xfde4f00144e0f0
  406269:	e4 fd 00 
  40626c:	48 ba 0d bd 00 01 0c 	movabs rdx,0x1464ed0c0100bd0d
  406273:	ed 64 14 
  406276:	48 89 85 50 0e 00 00 	mov    QWORD PTR [rbp+0xe50],rax
  40627d:	48 89 95 58 0e 00 00 	mov    QWORD PTR [rbp+0xe58],rdx
  406284:	48 b8 4c 70 f4 90 19 	movabs rax,0x54e0201990f4704c
  40628b:	20 e0 54 
  40628e:	48 ba fe f0 e4 fc fd 	movabs rdx,0xbd0d00fdfce4f0fe
  406295:	00 0d bd 
  406298:	48 89 85 60 0e 00 00 	mov    QWORD PTR [rbp+0xe60],rax
  40629f:	48 89 95 68 0e 00 00 	mov    QWORD PTR [rbp+0xe68],rdx
  4062a6:	48 b8 00 01 0c ed 64 	movabs rax,0x704c0a64ed0c0100
  4062ad:	0a 4c 70 
  4062b0:	48 ba f4 22 7e 01 7f 	movabs rdx,0x490007f017e22f4
  4062b7:	00 90 04 
  4062ba:	48 89 85 70 0e 00 00 	mov    QWORD PTR [rbp+0xe70],rax
  4062c1:	48 89 95 78 0e 00 00 	mov    QWORD PTR [rbp+0xe78],rdx
  4062c8:	48 b8 48 74 ff f0 a3 	movabs rax,0xdefcdfa3f0ff7448
  4062cf:	df fc de 
  4062d2:	48 ba fa 12 15 f5 12 	movabs rdx,0x421012f51512fa
  4062d9:	10 42 00 
  4062dc:	48 89 85 80 0e 00 00 	mov    QWORD PTR [rbp+0xe80],rax
  4062e3:	48 89 95 88 0e 00 00 	mov    QWORD PTR [rbp+0xe88],rdx
  4062ea:	48 c7 85 90 0e 00 00 	mov    QWORD PTR [rbp+0xe90],0x0
  4062f1:	00 00 00 00 
  4062f5:	c7 85 98 0e 00 00 00 	mov    DWORD PTR [rbp+0xe98],0x0
  4062fc:	00 00 00 
  4062ff:	66 c7 85 9c 0e 00 00 	mov    WORD PTR [rbp+0xe9c],0x0
  406306:	00 00 
  406308:	48 b8 00 58 9c e5 ff 	movabs rax,0xffe59c5800
  40630f:	00 00 00 
  406312:	ba 00 00 00 00       	mov    edx,0x0
  406317:	48 89 85 80 0c 00 00 	mov    QWORD PTR [rbp+0xc80],rax
  40631e:	48 89 95 88 0c 00 00 	mov    QWORD PTR [rbp+0xc88],rdx
  406325:	48 8d 95 90 0c 00 00 	lea    rdx,[rbp+0xc90]
  40632c:	b8 00 00 00 00       	mov    eax,0x0
  406331:	b9 1f 00 00 00       	mov    ecx,0x1f
  406336:	48 89 d7             	mov    rdi,rdx
  406339:	f3 48 ab             	rep stos QWORD PTR es:[rdi],rax
  40633c:	48 89 fa             	mov    rdx,rdi
  40633f:	89 02                	mov    DWORD PTR [rdx],eax
  406341:	48 83 c2 04          	add    rdx,0x4
  406345:	66 89 02             	mov    WORD PTR [rdx],ax
  406348:	48 83 c2 02          	add    rdx,0x2
  40634c:	48 b8 e4 f5 a8 75 c3 	movabs rax,0xb07501c375a8f5e4
  406353:	01 75 b0 
  406356:	48 ba 06 90 04 46 74 	movabs rdx,0xa3f0807446049006
  40635d:	80 f0 a3 
  406360:	48 89 85 70 0b 00 00 	mov    QWORD PTR [rbp+0xb70],rax
  406367:	48 89 95 78 0b 00 00 	mov    QWORD PTR [rbp+0xb78],rdx
  40636e:	48 b8 e4 f0 90 04 46 	movabs rax,0xa3fee0460490f0e4
  406375:	e0 fe a3 
  406378:	48 ba e0 ff 12 1d 83 	movabs rdx,0x460490831d12ffe0
  40637f:	90 04 46 
  406382:	48 89 85 80 0b 00 00 	mov    QWORD PTR [rbp+0xb80],rax
  406389:	48 89 95 88 0b 00 00 	mov    QWORD PTR [rbp+0xb88],rdx
  406390:	48 b8 e0 fe a3 e0 ff 	movabs rax,0x7d067cffe0a3fee0
  406397:	7c 06 7d 
  40639a:	48 ba 48 7b 60 7a 00 	movabs rdx,0x161c02007a607b48
  4063a1:	02 1c 16 
  4063a4:	48 89 85 90 0b 00 00 	mov    QWORD PTR [rbp+0xb90],rax
  4063ab:	48 89 95 98 0b 00 00 	mov    QWORD PTR [rbp+0xb98],rdx
  4063b2:	48 b8 53 e1 fe ed 4c 	movabs rax,0x7c03704cedfee153
  4063b9:	70 03 7c 
  4063bc:	48 ba 01 fd d3 ed 94 	movabs rdx,0x94ec0094edd3fd01
  4063c3:	00 ec 94 
  4063c6:	48 89 85 a0 0b 00 00 	mov    QWORD PTR [rbp+0xba0],rax
  4063cd:	48 89 95 a8 0b 00 00 	mov    QWORD PTR [rbp+0xba8],rdx
  4063d4:	48 b8 00 40 22 7f 05 	movabs rax,0x1f07ae057f224000
  4063db:	ae 07 1f 
  4063de:	ba ee 60 07 00       	mov    edx,0x760ee
  4063e3:	48 89 85 b0 0b 00 00 	mov    QWORD PTR [rbp+0xbb0],rax
  4063ea:	48 89 95 b8 0b 00 00 	mov    QWORD PTR [rbp+0xbb8],rdx
  4063f1:	48 b8 80 f3 e5 e2 12 	movabs rax,0x74b21312e2e5f380
  4063f8:	13 b2 74 
  4063fb:	48 ba 01 29 f9 e4 3a 	movabs rdx,0x1dedfa3ae4f92901
  406402:	fa ed 1d 
  406405:	48 89 85 c0 0b 00 00 	mov    QWORD PTR [rbp+0xbc0],rax
  40640c:	48 89 95 c8 0b 00 00 	mov    QWORD PTR [rbp+0xbc8],rdx
  406413:	48 b8 70 d8 1c 80 d5 	movabs rax,0x1e143d5801cd870
  40641a:	43 e1 01 
  40641d:	48 ba 22 90 06 c2 e0 	movabs rdx,0xa30270e0c2069022
  406424:	70 02 a3 
  406427:	48 89 85 d0 0b 00 00 	mov    QWORD PTR [rbp+0xbd0],rax
  40642e:	48 89 95 d8 0b 00 00 	mov    QWORD PTR [rbp+0xbd8],rdx
  406435:	48 b8 e0 70 08 90 06 	movabs rax,0xf004c206900870e0
  40643c:	c2 04 f0 
  40643f:	48 ba a3 e4 f0 c0 03 	movabs rdx,0xc002c003c0f0e4a3
  406446:	c0 02 c0 
  406449:	48 89 85 e0 0b 00 00 	mov    QWORD PTR [rbp+0xbe0],rax
  406450:	48 89 95 e8 0b 00 00 	mov    QWORD PTR [rbp+0xbe8],rdx
  406457:	48 b8 01 ae 04 af 05 	movabs rax,0x1207a905af04ae01
  40645e:	a9 07 12 
  406461:	48 ba 16 32 90 06 c2 	movabs rdx,0xa3ffe0c206903216
  406468:	e0 ff a3 
  40646b:	48 89 85 f0 0b 00 00 	mov    QWORD PTR [rbp+0xbf0],rax
  406472:	48 89 95 f8 0b 00 00 	mov    QWORD PTR [rbp+0xbf8],rdx
  406479:	48 b8 e0 cf 12 15 d2 	movabs rax,0xd001d0d21512cfe0
  406480:	d0 01 d0 
  406483:	48 ba 02 d0 03 02 1a 	movabs rdx,0x828f811a0203d002
  40648a:	81 8f 82 
  40648d:	48 89 85 00 0c 00 00 	mov    QWORD PTR [rbp+0xc00],rax
  406494:	48 89 95 08 0c 00 00 	mov    QWORD PTR [rbp+0xc08],rdx
  40649b:	48 b8 8e 83 e4 ff 75 	movabs rax,0x7511eb75ffe4838e
  4064a2:	eb 11 75 
  4064a5:	48 ba e9 55 75 ea aa 	movabs rdx,0xf0ff74aaea7555e9
  4064ac:	74 ff f0 
  4064af:	48 89 85 10 0c 00 00 	mov    QWORD PTR [rbp+0xc10],rax
  4064b6:	48 89 95 18 0c 00 00 	mov    QWORD PTR [rbp+0xc18],rdx
  4064bd:	48 b8 30 e8 fd c2 e8 	movabs rax,0x5e930e8c2fde830
  4064c4:	30 e9 05 
  4064c7:	48 ba c2 e9 7f 06 22 	movabs rdx,0xdea3022067fe9c2
  4064ce:	30 ea 0d 
  4064d1:	48 89 85 20 0c 00 00 	mov    QWORD PTR [rbp+0xc20],rax
  4064d8:	48 89 95 28 0c 00 00 	mov    QWORD PTR [rbp+0xc28],rdx
  4064df:	48 b8 c2 ea ef 64 02 	movabs rax,0x7f03700264efeac2
  4064e6:	70 03 7f 
  4064e9:	48 ba 0a 22 0f 80 da 	movabs rdx,0x22007fda800f220a
  4064f0:	7f 00 22 
  4064f3:	48 89 85 30 0c 00 00 	mov    QWORD PTR [rbp+0xc30],rax
  4064fa:	48 89 95 38 0c 00 00 	mov    QWORD PTR [rbp+0xc38],rdx
  406501:	48 b8 ae 07 ee fd 33 	movabs rax,0x4de09533fdee07ae
  406508:	95 e0 4d 
  40650b:	48 ba 70 09 7f 90 12 	movabs rdx,0xe4d31d12907f0970
  406512:	1d d3 e4 
  406515:	48 89 85 40 0c 00 00 	mov    QWORD PTR [rbp+0xc40],rax
  40651c:	48 89 95 48 0c 00 00 	mov    QWORD PTR [rbp+0xc48],rdx
  406523:	48 b8 ff 80 07 7f 98 	movabs rax,0xd31d12987f0780ff
  40652a:	12 1d d3 
  40652d:	48 ba af 06 12 1d d3 	movabs rdx,0xdf7522d31d1206af
  406534:	22 75 df 
  406537:	48 89 85 50 0c 00 00 	mov    QWORD PTR [rbp+0xc50],rax
  40653e:	48 89 95 58 0c 00 00 	mov    QWORD PTR [rbp+0xc58],rdx
  406545:	48 b8 20 8f d9 30 d8 	movabs rax,0xf5e4fdd830d98f20
  40654c:	fd e4 f5 
  40654f:	48 ba df 22 e4 f5 df 	movabs rdx,0xd8e5dff5e422df
  406556:	e5 d8 00 
  406559:	48 89 85 60 0c 00 00 	mov    QWORD PTR [rbp+0xc60],rax
  406560:	48 89 95 68 0c 00 00 	mov    QWORD PTR [rbp+0xc68],rdx
  406567:	48 c7 85 70 0c 00 00 	mov    QWORD PTR [rbp+0xc70],0x0
  40656e:	00 00 00 00 
  406572:	c7 85 78 0c 00 00 00 	mov    DWORD PTR [rbp+0xc78],0x0
  406579:	00 00 00 
  40657c:	66 c7 85 7c 0c 00 00 	mov    WORD PTR [rbp+0xc7c],0x0
  406583:	00 00 
  406585:	48 b8 00 58 9d e4 1c 	movabs rax,0x1ce49d5800
  40658c:	00 00 00 
  40658f:	ba 00 00 00 00       	mov    edx,0x0
  406594:	48 89 85 60 0a 00 00 	mov    QWORD PTR [rbp+0xa60],rax
  40659b:	48 89 95 68 0a 00 00 	mov    QWORD PTR [rbp+0xa68],rdx
  4065a2:	48 8d 95 70 0a 00 00 	lea    rdx,[rbp+0xa70]
  4065a9:	b8 00 00 00 00       	mov    eax,0x0
  4065ae:	b9 1f 00 00 00       	mov    ecx,0x1f
  4065b3:	48 89 d7             	mov    rdi,rdx
  4065b6:	f3 48 ab             	rep stos QWORD PTR es:[rdi],rax
  4065b9:	48 89 fa             	mov    rdx,rdi
  4065bc:	89 02                	mov    DWORD PTR [rdx],eax
  4065be:	48 83 c2 04          	add    rdx,0x4
  4065c2:	66 89 02             	mov    WORD PTR [rdx],ax
  4065c5:	48 83 c2 02          	add    rdx,0x2
  4065c9:	48 b8 30 e1 fb af d9 	movabs rax,0xa8c222d9affbe130
  4065d0:	22 c2 a8 
  4065d3:	48 ba 32 c2 a9 32 c2 	movabs rdx,0xc232aac232a9c232
  4065da:	aa 32 c2 
  4065dd:	48 89 85 50 09 00 00 	mov    QWORD PTR [rbp+0x950],rax
  4065e4:	48 89 95 58 09 00 00 	mov    QWORD PTR [rbp+0x958],rdx
  4065eb:	48 b8 ab 32 c2 ac 32 	movabs rax,0x32adc232acc232ab
  4065f2:	c2 ad 32 
  4065f5:	ba c2 ae 32 ff       	mov    edx,0xff32aec2
  4065fa:	48 89 85 60 09 00 00 	mov    QWORD PTR [rbp+0x960],rax
  406601:	48 89 95 68 09 00 00 	mov    QWORD PTR [rbp+0x968],rdx
  406608:	48 8d 95 70 09 00 00 	lea    rdx,[rbp+0x970]
  40660f:	b8 00 00 00 00       	mov    eax,0x0
  406614:	b9 1d 00 00 00       	mov    ecx,0x1d
  406619:	48 89 d7             	mov    rdi,rdx
  40661c:	f3 48 ab             	rep stos QWORD PTR es:[rdi],rax
  40661f:	48 89 fa             	mov    rdx,rdi
  406622:	89 02                	mov    DWORD PTR [rdx],eax
  406624:	48 83 c2 04          	add    rdx,0x4
  406628:	66 89 02             	mov    WORD PTR [rdx],ax
  40662b:	48 83 c2 02          	add    rdx,0x2
  40662f:	48 c7 85 40 08 00 00 	mov    QWORD PTR [rbp+0x840],0x6005000
  406636:	00 50 00 06 
  40663a:	48 c7 85 48 08 00 00 	mov    QWORD PTR [rbp+0x848],0x0
  406641:	00 00 00 00 
  406645:	48 8d 95 50 08 00 00 	lea    rdx,[rbp+0x850]
  40664c:	b8 00 00 00 00       	mov    eax,0x0
  406651:	b9 1f 00 00 00       	mov    ecx,0x1f
  406656:	48 89 d7             	mov    rdi,rdx
  406659:	f3 48 ab             	rep stos QWORD PTR es:[rdi],rax
  40665c:	48 89 fa             	mov    rdx,rdi
  40665f:	89 02                	mov    DWORD PTR [rdx],eax
  406661:	48 83 c2 04          	add    rdx,0x4
  406665:	66 89 02             	mov    WORD PTR [rdx],ax
  406668:	48 83 c2 02          	add    rdx,0x2
  40666c:	48 b8 00 58 80 80 80 	movabs rax,0x8080805800
  406673:	00 00 00 
  406676:	ba 00 00 00 00       	mov    edx,0x0
  40667b:	48 89 85 30 07 00 00 	mov    QWORD PTR [rbp+0x730],rax
  406682:	48 89 95 38 07 00 00 	mov    QWORD PTR [rbp+0x738],rdx
  406689:	48 8d 95 40 07 00 00 	lea    rdx,[rbp+0x740]
  406690:	b8 00 00 00 00       	mov    eax,0x0
  406695:	b9 1f 00 00 00       	mov    ecx,0x1f
  40669a:	48 89 d7             	mov    rdi,rdx
  40669d:	f3 48 ab             	rep stos QWORD PTR es:[rdi],rax
  4066a0:	48 89 fa             	mov    rdx,rdi
  4066a3:	89 02                	mov    DWORD PTR [rdx],eax
  4066a5:	48 83 c2 04          	add    rdx,0x4
  4066a9:	66 89 02             	mov    WORD PTR [rdx],ax
  4066ac:	48 83 c2 02          	add    rdx,0x2
  4066b0:	48 b8 54 1f ff ef 60 	movabs rax,0xe40e0160efff1f54
  4066b7:	01 0e e4 
  4066ba:	48 ba 93 fa a3 e4 93 	movabs rdx,0xa3e4f893e4a3fa93
  4066c1:	f8 e4 a3 
  4066c4:	48 89 85 20 06 00 00 	mov    QWORD PTR [rbp+0x620],rax
  4066cb:	48 89 95 28 06 00 00 	mov    QWORD PTR [rbp+0x628],rdx
  4066d2:	48 b8 e4 93 a3 fb c8 	movabs rax,0xc882c5c8fba393e4
  4066d9:	c5 82 c8 
  4066dc:	48 ba ca c5 83 ca eb 	movabs rdx,0xc8a3f0ebca83c5ca
  4066e3:	f0 a3 c8 
  4066e6:	48 89 85 30 06 00 00 	mov    QWORD PTR [rbp+0x630],rax
  4066ed:	48 89 95 38 06 00 00 	mov    QWORD PTR [rbp+0x638],rdx
  4066f4:	48 b8 c5 82 c8 ca c5 	movabs rax,0xdfca83c5cac882c5
  4066fb:	83 ca df 
  4066fe:	48 ba e7 de e5 80 b1 	movabs rdx,0x1f54eeb180e5dee7
  406705:	ee 54 1f 
  406708:	48 89 85 40 06 00 00 	mov    QWORD PTR [rbp+0x640],rax
  40670f:	48 89 95 48 06 00 00 	mov    QWORD PTR [rbp+0x648],rdx
  406716:	48 b8 fe 80 04 ef 54 	movabs rax,0xeff1f54ef0480fe
  40671d:	1f ff 0e 
  406720:	48 ba e4 93 f8 a3 e4 	movabs rdx,0xf6a393e4a3f893e4
  406727:	93 a3 f6 
  40672a:	48 89 85 50 06 00 00 	mov    QWORD PTR [rbp+0x650],rax
  406731:	48 89 95 58 06 00 00 	mov    QWORD PTR [rbp+0x658],rdx
  406738:	48 b8 08 df f9 de f7 	movabs rax,0x759780f7def9df08
  40673f:	80 97 75 
  406742:	48 ba 81 07 02 02 00 	movabs rdx,0xffffff0002020781
  406749:	ff ff ff 
  40674c:	48 89 85 60 06 00 00 	mov    QWORD PTR [rbp+0x660],rax
  406753:	48 89 95 68 06 00 00 	mov    QWORD PTR [rbp+0x668],rdx
  40675a:	48 c7 85 70 06 00 00 	mov    QWORD PTR [rbp+0x670],0xffffffffffffffff
  406761:	ff ff ff ff 
  406765:	48 c7 85 78 06 00 00 	mov    QWORD PTR [rbp+0x678],0xffffffffffffffff
  40676c:	ff ff ff ff 
  406770:	48 c7 85 80 06 00 00 	mov    QWORD PTR [rbp+0x680],0xffffffffffffffff
  406777:	ff ff ff ff 
  40677b:	48 c7 85 88 06 00 00 	mov    QWORD PTR [rbp+0x688],0xffffffffffffffff
  406782:	ff ff ff ff 
  406786:	48 c7 85 90 06 00 00 	mov    QWORD PTR [rbp+0x690],0xffffffffffffffff
  40678d:	ff ff ff ff 
  406791:	48 c7 85 98 06 00 00 	mov    QWORD PTR [rbp+0x698],0xffffffffffffffff
  406798:	ff ff ff ff 
  40679c:	48 c7 85 a0 06 00 00 	mov    QWORD PTR [rbp+0x6a0],0x0
  4067a3:	00 00 00 00 
  4067a7:	48 c7 85 a8 06 00 00 	mov    QWORD PTR [rbp+0x6a8],0x0
  4067ae:	00 00 00 00 
  4067b2:	48 8d 95 b0 06 00 00 	lea    rdx,[rbp+0x6b0]
  4067b9:	b8 00 00 00 00       	mov    eax,0x0
  4067be:	b9 0f 00 00 00       	mov    ecx,0xf
  4067c3:	48 89 d7             	mov    rdi,rdx
  4067c6:	f3 48 ab             	rep stos QWORD PTR es:[rdi],rax
  4067c9:	48 89 fa             	mov    rdx,rdi
  4067cc:	89 02                	mov    DWORD PTR [rdx],eax
  4067ce:	48 83 c2 04          	add    rdx,0x4
  4067d2:	66 89 02             	mov    WORD PTR [rdx],ax
  4067d5:	48 83 c2 02          	add    rdx,0x2
  4067d9:	48 b8 00 58 81 00 80 	movabs rax,0x8000815800
  4067e0:	00 00 00 
  4067e3:	ba 00 00 00 00       	mov    edx,0x0
  4067e8:	48 89 85 10 05 00 00 	mov    QWORD PTR [rbp+0x510],rax
  4067ef:	48 89 95 18 05 00 00 	mov    QWORD PTR [rbp+0x518],rdx
  4067f6:	48 8d 95 20 05 00 00 	lea    rdx,[rbp+0x520]
  4067fd:	b8 00 00 00 00       	mov    eax,0x0
  406802:	b9 1f 00 00 00       	mov    ecx,0x1f
  406807:	48 89 d7             	mov    rdi,rdx
  40680a:	f3 48 ab             	rep stos QWORD PTR es:[rdi],rax
  40680d:	48 89 fa             	mov    rdx,rdi
  406810:	89 02                	mov    DWORD PTR [rdx],eax
  406812:	48 83 c2 04          	add    rdx,0x4
  406816:	66 89 02             	mov    WORD PTR [rdx],ax
  406819:	48 83 c2 02          	add    rdx,0x2
  40681d:	48 c7 85 00 04 00 00 	mov    QWORD PTR [rbp+0x400],0xffffffffffffffff
  406824:	ff ff ff ff 
  406828:	48 c7 85 08 04 00 00 	mov    QWORD PTR [rbp+0x408],0xffffffffffffffff
  40682f:	ff ff ff ff 
  406833:	48 c7 85 10 04 00 00 	mov    QWORD PTR [rbp+0x410],0xffffffffffffffff
  40683a:	ff ff ff ff 
  40683e:	48 c7 85 18 04 00 00 	mov    QWORD PTR [rbp+0x418],0xffffffffffffffff
  406845:	ff ff ff ff 
  406849:	48 c7 85 20 04 00 00 	mov    QWORD PTR [rbp+0x420],0xffffffffffffffff
  406850:	ff ff ff ff 
  406854:	48 c7 85 28 04 00 00 	mov    QWORD PTR [rbp+0x428],0xffffffffffffffff
  40685b:	ff ff ff ff 
  40685f:	48 c7 85 30 04 00 00 	mov    QWORD PTR [rbp+0x430],0xffffffffffffffff
  406866:	ff ff ff ff 
  40686a:	48 c7 85 38 04 00 00 	mov    QWORD PTR [rbp+0x438],0xffffffffffffffff
  406871:	ff ff ff ff 
  406875:	48 c7 85 40 04 00 00 	mov    QWORD PTR [rbp+0x440],0xffffffffffffffff
  40687c:	ff ff ff ff 
  406880:	48 c7 85 48 04 00 00 	mov    QWORD PTR [rbp+0x448],0xffffffffffffffff
  406887:	ff ff ff ff 
  40688b:	48 c7 85 50 04 00 00 	mov    QWORD PTR [rbp+0x450],0xffffffffffffffff
  406892:	ff ff ff ff 
  406896:	48 c7 85 58 04 00 00 	mov    QWORD PTR [rbp+0x458],0xffffffffffffffff
  40689d:	ff ff ff ff 
  4068a1:	48 c7 85 60 04 00 00 	mov    QWORD PTR [rbp+0x460],0xffffffffffffffff
  4068a8:	ff ff ff ff 
  4068ac:	48 c7 85 68 04 00 00 	mov    QWORD PTR [rbp+0x468],0xffffffffffffffff
  4068b3:	ff ff ff ff 
  4068b7:	48 c7 85 70 04 00 00 	mov    QWORD PTR [rbp+0x470],0xffffffffffffffff
  4068be:	ff ff ff ff 
  4068c2:	48 c7 85 78 04 00 00 	mov    QWORD PTR [rbp+0x478],0xffffffffffffffff
  4068c9:	ff ff ff ff 
  4068cd:	48 c7 85 80 04 00 00 	mov    QWORD PTR [rbp+0x480],0x0
  4068d4:	00 00 00 00 
  4068d8:	48 c7 85 88 04 00 00 	mov    QWORD PTR [rbp+0x488],0x0
  4068df:	00 00 00 00 
  4068e3:	48 8d 95 90 04 00 00 	lea    rdx,[rbp+0x490]
  4068ea:	b8 00 00 00 00       	mov    eax,0x0
  4068ef:	b9 0f 00 00 00       	mov    ecx,0xf
  4068f4:	48 89 d7             	mov    rdi,rdx
  4068f7:	f3 48 ab             	rep stos QWORD PTR es:[rdi],rax
  4068fa:	48 89 fa             	mov    rdx,rdi
  4068fd:	89 02                	mov    DWORD PTR [rdx],eax
  4068ff:	48 83 c2 04          	add    rdx,0x4
  406903:	66 89 02             	mov    WORD PTR [rdx],ax
  406906:	48 83 c2 02          	add    rdx,0x2
  40690a:	48 b8 00 58 81 80 80 	movabs rax,0x8080815800
  406911:	00 00 00 
  406914:	ba 00 00 00 00       	mov    edx,0x0
  406919:	48 89 85 f0 02 00 00 	mov    QWORD PTR [rbp+0x2f0],rax
  406920:	48 89 95 f8 02 00 00 	mov    QWORD PTR [rbp+0x2f8],rdx
  406927:	48 8d 95 00 03 00 00 	lea    rdx,[rbp+0x300]
  40692e:	b8 00 00 00 00       	mov    eax,0x0
  406933:	b9 1f 00 00 00       	mov    ecx,0x1f
  406938:	48 89 d7             	mov    rdi,rdx
  40693b:	f3 48 ab             	rep stos QWORD PTR es:[rdi],rax
  40693e:	48 89 fa             	mov    rdx,rdi
  406941:	89 02                	mov    DWORD PTR [rdx],eax
  406943:	48 83 c2 04          	add    rdx,0x4
  406947:	66 89 02             	mov    WORD PTR [rdx],ax
  40694a:	48 83 c2 02          	add    rdx,0x2
  40694e:	48 c7 85 e0 01 00 00 	mov    QWORD PTR [rbp+0x1e0],0xffffffffffffffff
  406955:	ff ff ff ff 
  406959:	48 c7 85 e8 01 00 00 	mov    QWORD PTR [rbp+0x1e8],0xffffffffffffffff
  406960:	ff ff ff ff 
  406964:	48 c7 85 f0 01 00 00 	mov    QWORD PTR [rbp+0x1f0],0xffffffffffffffff
  40696b:	ff ff ff ff 
  40696f:	48 c7 85 f8 01 00 00 	mov    QWORD PTR [rbp+0x1f8],0xffffffffffffffff
  406976:	ff ff ff ff 
  40697a:	48 c7 85 00 02 00 00 	mov    QWORD PTR [rbp+0x200],0xffffffffffffffff
  406981:	ff ff ff ff 
  406985:	48 c7 85 08 02 00 00 	mov    QWORD PTR [rbp+0x208],0xffffffffffffffff
  40698c:	ff ff ff ff 
  406990:	48 c7 85 10 02 00 00 	mov    QWORD PTR [rbp+0x210],0xffffffffffffffff
  406997:	ff ff ff ff 
  40699b:	48 c7 85 18 02 00 00 	mov    QWORD PTR [rbp+0x218],0xffffffffffffffff
  4069a2:	ff ff ff ff 
  4069a6:	48 c7 85 20 02 00 00 	mov    QWORD PTR [rbp+0x220],0xffffffffffffffff
  4069ad:	ff ff ff ff 
  4069b1:	48 c7 85 28 02 00 00 	mov    QWORD PTR [rbp+0x228],0xffffffffffffffff
  4069b8:	ff ff ff ff 
  4069bc:	48 c7 85 30 02 00 00 	mov    QWORD PTR [rbp+0x230],0xffffffffffffffff
  4069c3:	ff ff ff ff 
  4069c7:	48 c7 85 38 02 00 00 	mov    QWORD PTR [rbp+0x238],0xffffffffffffffff
  4069ce:	ff ff ff ff 
  4069d2:	48 c7 85 40 02 00 00 	mov    QWORD PTR [rbp+0x240],0xffffffffffffffff
  4069d9:	ff ff ff ff 
  4069dd:	48 c7 85 48 02 00 00 	mov    QWORD PTR [rbp+0x248],0xffffffffffffffff
  4069e4:	ff ff ff ff 
  4069e8:	48 c7 85 50 02 00 00 	mov    QWORD PTR [rbp+0x250],0xffffffffffffffff
  4069ef:	ff ff ff ff 
  4069f3:	48 c7 85 58 02 00 00 	mov    QWORD PTR [rbp+0x258],0xffffffffffffffff
  4069fa:	ff ff ff ff 
  4069fe:	48 c7 85 60 02 00 00 	mov    QWORD PTR [rbp+0x260],0x0
  406a05:	00 00 00 00 
  406a09:	48 c7 85 68 02 00 00 	mov    QWORD PTR [rbp+0x268],0x0
  406a10:	00 00 00 00 
  406a14:	48 8d 95 70 02 00 00 	lea    rdx,[rbp+0x270]
  406a1b:	b8 00 00 00 00       	mov    eax,0x0
  406a20:	b9 0f 00 00 00       	mov    ecx,0xf
  406a25:	48 89 d7             	mov    rdi,rdx
  406a28:	f3 48 ab             	rep stos QWORD PTR es:[rdi],rax
  406a2b:	48 89 fa             	mov    rdx,rdi
  406a2e:	89 02                	mov    DWORD PTR [rdx],eax
  406a30:	48 83 c2 04          	add    rdx,0x4
  406a34:	66 89 02             	mov    WORD PTR [rdx],ax
  406a37:	48 83 c2 02          	add    rdx,0x2
  406a3b:	48 b8 00 58 80 00 80 	movabs rax,0x8000805800
  406a42:	00 00 00 
  406a45:	ba 00 00 00 00       	mov    edx,0x0
  406a4a:	48 89 85 d0 00 00 00 	mov    QWORD PTR [rbp+0xd0],rax
  406a51:	48 89 95 d8 00 00 00 	mov    QWORD PTR [rbp+0xd8],rdx
  406a58:	48 8d 95 e0 00 00 00 	lea    rdx,[rbp+0xe0]
  406a5f:	b8 00 00 00 00       	mov    eax,0x0
  406a64:	b9 1f 00 00 00       	mov    ecx,0x1f
  406a69:	48 89 d7             	mov    rdi,rdx
  406a6c:	f3 48 ab             	rep stos QWORD PTR es:[rdi],rax
  406a6f:	48 89 fa             	mov    rdx,rdi
  406a72:	89 02                	mov    DWORD PTR [rdx],eax
  406a74:	48 83 c2 04          	add    rdx,0x4
  406a78:	66 89 02             	mov    WORD PTR [rdx],ax
  406a7b:	48 83 c2 02          	add    rdx,0x2
  406a7f:	48 b8 02 00 3b 02 1d 	movabs rax,0x32ea1d023b0002
  406a86:	ea 32 00 
  406a89:	48 ba 00 00 00 02 1d 	movabs rdx,0x32ed1d02000000
  406a90:	ed 32 00 
  406a93:	48 89 45 c0          	mov    QWORD PTR [rbp-0x40],rax
  406a97:	48 89 55 c8          	mov    QWORD PTR [rbp-0x38],rdx
  406a9b:	48 b8 00 00 00 02 1d 	movabs rax,0x32f01d02000000
  406aa2:	f0 32 00 
  406aa5:	48 ba 00 00 00 02 1d 	movabs rdx,0x32f31d02000000
  406aac:	f3 32 00 
  406aaf:	48 89 45 d0          	mov    QWORD PTR [rbp-0x30],rax
  406ab3:	48 89 55 d8          	mov    QWORD PTR [rbp-0x28],rdx
  406ab7:	48 b8 00 00 00 02 1d 	movabs rax,0x32f61d02000000
  406abe:	f6 32 00 
  406ac1:	48 ba 00 00 00 02 1d 	movabs rdx,0x32f91d02000000
  406ac8:	f9 32 00 
  406acb:	48 89 45 e0          	mov    QWORD PTR [rbp-0x20],rax
  406acf:	48 89 55 e8          	mov    QWORD PTR [rbp-0x18],rdx
  406ad3:	48 b8 00 00 00 02 1d 	movabs rax,0x32fc1d02000000
  406ada:	fc 32 00 
  406add:	48 ba 00 00 00 75 8f 	movabs rdx,0xff78808f75000000
  406ae4:	80 78 ff 
  406ae7:	48 89 45 f0          	mov    QWORD PTR [rbp-0x10],rax
  406aeb:	48 89 55 f8          	mov    QWORD PTR [rbp-0x8],rdx
  406aef:	48 b8 e4 f6 d8 fd 90 	movabs rax,0x7f000090fdd8f6e4
  406af6:	00 00 7f 
  406af9:	48 ba a8 7e 06 ef 70 	movabs rdx,0x60ee0370ef067ea8
  406b00:	03 ee 60 
  406b03:	48 89 45 00          	mov    QWORD PTR [rbp+0x0],rax
  406b07:	48 89 55 08          	mov    QWORD PTR [rbp+0x8],rdx
  406b0b:	48 b8 08 0e e4 f0 a3 	movabs rax,0xdefcdfa3f0e40e08
  406b12:	df fc de 
  406b15:	48 ba fa 90 0d 9d 7e 	movabs rdx,0x93e4007e9d0d90fa
  406b1c:	00 e4 93 
  406b1f:	48 89 45 10          	mov    QWORD PTR [rbp+0x10],rax
  406b23:	48 89 55 18          	mov    QWORD PTR [rbp+0x18],rdx
  406b27:	48 b8 60 65 a3 ff 54 	movabs rax,0xe5303f54ffa36560
  406b2e:	3f 30 e5 
  406b31:	48 ba 11 ef fe e4 93 	movabs rdx,0xeeffa393e4feef11
  406b38:	a3 ff ee 
  406b3b:	48 89 45 20          	mov    QWORD PTR [rbp+0x20],rax
  406b3f:	48 89 55 28          	mov    QWORD PTR [rbp+0x28],rdx
  406b43:	48 b8 54 7f 30 e6 38 	movabs rax,0xfe1f5438e6307f54
  406b4a:	54 1f fe 
  406b4d:	48 ba 80 09 ef 54 7f 	movabs rdx,0x33e6307f54ef0980
  406b54:	30 e6 33 
  406b57:	48 89 45 30          	mov    QWORD PTR [rbp+0x30],rax
  406b5b:	48 89 55 38          	mov    QWORD PTR [rbp+0x38],rdx
  406b5f:	48 c7 45 40 00 00 00 	mov    QWORD PTR [rbp+0x40],0x0
  406b66:	00 
  406b67:	48 c7 45 48 00 00 00 	mov    QWORD PTR [rbp+0x48],0x0
  406b6e:	00 
  406b6f:	48 8d 55 50          	lea    rdx,[rbp+0x50]
  406b73:	b8 00 00 00 00       	mov    eax,0x0
  406b78:	b9 0f 00 00 00       	mov    ecx,0xf
  406b7d:	48 89 d7             	mov    rdi,rdx
  406b80:	f3 48 ab             	rep stos QWORD PTR es:[rdi],rax
  406b83:	48 89 fa             	mov    rdx,rdi
  406b86:	89 02                	mov    DWORD PTR [rdx],eax
  406b88:	48 83 c2 04          	add    rdx,0x4
  406b8c:	66 89 02             	mov    WORD PTR [rdx],ax
  406b8f:	48 83 c2 02          	add    rdx,0x2
  406b93:	48 8b 85 58 4c 00 00 	mov    rax,QWORD PTR [rbp+0x4c58]
  406b9a:	48 83 c0 08          	add    rax,0x8
  406b9e:	48 8b 00             	mov    rax,QWORD PTR [rax]
  406ba1:	48 89 c2             	mov    rdx,rax
  406ba4:	48 8d 0d 91 a6 00 00 	lea    rcx,[rip+0xa691]        # 41123c <.rdata+0x23c>
  406bab:	e8 27 aa ff ff       	call   4015d7 <concat>
  406bb0:	48 c7 44 24 30 00 00 	mov    QWORD PTR [rsp+0x30],0x0
  406bb7:	00 00 
  406bb9:	c7 44 24 28 00 00 00 	mov    DWORD PTR [rsp+0x28],0x0
  406bc0:	00 
  406bc1:	c7 44 24 20 03 00 00 	mov    DWORD PTR [rsp+0x20],0x3
  406bc8:	00 
  406bc9:	41 b9 00 00 00 00    	mov    r9d,0x0
  406bcf:	41 b8 00 00 00 00    	mov    r8d,0x0
  406bd5:	ba 00 00 00 c0       	mov    edx,0xc0000000
  406bda:	48 89 c1             	mov    rcx,rax
  406bdd:	48 8b 05 58 f6 00 00 	mov    rax,QWORD PTR [rip+0xf658]        # 41623c <__imp_CreateFileA>
  406be4:	ff d0                	call   rax
  406be6:	48 89 85 10 4c 00 00 	mov    QWORD PTR [rbp+0x4c10],rax
  406bed:	48 83 bd 10 4c 00 00 	cmp    QWORD PTR [rbp+0x4c10],0xffffffffffffffff
  406bf4:	ff 
  406bf5:	75 1c                	jne    406c13 <main+0x5586>
  406bf7:	48 8b 05 5e f6 00 00 	mov    rax,QWORD PTR [rip+0xf65e]        # 41625c <__imp_GetLastError>
  406bfe:	ff d0                	call   rax
  406c00:	89 c2                	mov    edx,eax
  406c02:	48 8d 0d 3b a6 00 00 	lea    rcx,[rip+0xa63b]        # 411244 <.rdata+0x244>
  406c09:	e8 75 a9 ff ff       	call   401583 <printf>
  406c0e:	e9 e3 1d 00 00       	jmp    4089f6 <main+0x7369>
  406c13:	48 8d 85 f0 4b 00 00 	lea    rax,[rbp+0x4bf0]
  406c1a:	ba 1c 00 00 00       	mov    edx,0x1c
  406c1f:	48 89 c1             	mov    rcx,rax
  406c22:	e8 29 84 00 00       	call   40f050 <RtlSecureZeroMemory>
  406c27:	c7 85 f0 4b 00 00 1c 	mov    DWORD PTR [rbp+0x4bf0],0x1c
  406c2e:	00 00 00 
  406c31:	48 8d 95 f0 4b 00 00 	lea    rdx,[rbp+0x4bf0]
  406c38:	48 8b 85 10 4c 00 00 	mov    rax,QWORD PTR [rbp+0x4c10]
  406c3f:	48 89 c1             	mov    rcx,rax
  406c42:	48 8b 05 0b f6 00 00 	mov    rax,QWORD PTR [rip+0xf60b]        # 416254 <__imp_GetCommState>
  406c49:	ff d0                	call   rax
  406c4b:	89 85 0c 4c 00 00    	mov    DWORD PTR [rbp+0x4c0c],eax
  406c51:	83 bd 0c 4c 00 00 00 	cmp    DWORD PTR [rbp+0x4c0c],0x0
  406c58:	75 1c                	jne    406c76 <main+0x55e9>
  406c5a:	48 8b 05 fb f5 00 00 	mov    rax,QWORD PTR [rip+0xf5fb]        # 41625c <__imp_GetLastError>
  406c61:	ff d0                	call   rax
  406c63:	89 c2                	mov    edx,eax
  406c65:	48 8d 0d d8 a5 00 00 	lea    rcx,[rip+0xa5d8]        # 411244 <.rdata+0x244>
  406c6c:	e8 12 a9 ff ff       	call   401583 <printf>
  406c71:	e9 80 1d 00 00       	jmp    4089f6 <main+0x7369>
  406c76:	c7 85 f4 4b 00 00 80 	mov    DWORD PTR [rbp+0x4bf4],0x2580
  406c7d:	25 00 00 
  406c80:	c6 85 02 4c 00 00 08 	mov    BYTE PTR [rbp+0x4c02],0x8
  406c87:	c6 85 03 4c 00 00 02 	mov    BYTE PTR [rbp+0x4c03],0x2
  406c8e:	c6 85 04 4c 00 00 02 	mov    BYTE PTR [rbp+0x4c04],0x2
  406c95:	0f b6 85 f9 4b 00 00 	movzx  eax,BYTE PTR [rbp+0x4bf9]
  406c9c:	83 e0 cf             	and    eax,0xffffffcf
  406c9f:	83 c8 10             	or     eax,0x10
  406ca2:	88 85 f9 4b 00 00    	mov    BYTE PTR [rbp+0x4bf9],al
  406ca8:	0f b6 85 f9 4b 00 00 	movzx  eax,BYTE PTR [rbp+0x4bf9]
  406caf:	83 c8 40             	or     eax,0x40
  406cb2:	88 85 f9 4b 00 00    	mov    BYTE PTR [rbp+0x4bf9],al
  406cb8:	48 8d 95 f0 4b 00 00 	lea    rdx,[rbp+0x4bf0]
  406cbf:	48 8b 85 10 4c 00 00 	mov    rax,QWORD PTR [rbp+0x4c10]
  406cc6:	48 89 c1             	mov    rcx,rax
  406cc9:	48 8b 05 cc f5 00 00 	mov    rax,QWORD PTR [rip+0xf5cc]        # 41629c <__imp_SetCommState>
  406cd0:	ff d0                	call   rax
  406cd2:	89 85 0c 4c 00 00    	mov    DWORD PTR [rbp+0x4c0c],eax
  406cd8:	83 bd 0c 4c 00 00 00 	cmp    DWORD PTR [rbp+0x4c0c],0x0
  406cdf:	75 1c                	jne    406cfd <main+0x5670>
  406ce1:	48 8b 05 74 f5 00 00 	mov    rax,QWORD PTR [rip+0xf574]        # 41625c <__imp_GetLastError>
  406ce8:	ff d0                	call   rax
  406cea:	89 c2                	mov    edx,eax
  406cec:	48 8d 0d 51 a5 00 00 	lea    rcx,[rip+0xa551]        # 411244 <.rdata+0x244>
  406cf3:	e8 8b a8 ff ff       	call   401583 <printf>
  406cf8:	e9 f9 1c 00 00       	jmp    4089f6 <main+0x7369>
  406cfd:	48 8d 95 f0 4b 00 00 	lea    rdx,[rbp+0x4bf0]
  406d04:	48 8b 85 10 4c 00 00 	mov    rax,QWORD PTR [rbp+0x4c10]
  406d0b:	48 89 c1             	mov    rcx,rax
  406d0e:	48 8b 05 3f f5 00 00 	mov    rax,QWORD PTR [rip+0xf53f]        # 416254 <__imp_GetCommState>
  406d15:	ff d0                	call   rax
  406d17:	89 85 0c 4c 00 00    	mov    DWORD PTR [rbp+0x4c0c],eax
  406d1d:	83 bd 0c 4c 00 00 00 	cmp    DWORD PTR [rbp+0x4c0c],0x0
  406d24:	75 1c                	jne    406d42 <main+0x56b5>
  406d26:	48 8b 05 2f f5 00 00 	mov    rax,QWORD PTR [rip+0xf52f]        # 41625c <__imp_GetLastError>
  406d2d:	ff d0                	call   rax
  406d2f:	89 c2                	mov    edx,eax
  406d31:	48 8d 0d 0c a5 00 00 	lea    rcx,[rip+0xa50c]        # 411244 <.rdata+0x244>
  406d38:	e8 46 a8 ff ff       	call   401583 <printf>
  406d3d:	e9 b4 1c 00 00       	jmp    4089f6 <main+0x7369>
  406d42:	b9 64 00 00 00       	mov    ecx,0x64
  406d47:	48 8b 05 66 f5 00 00 	mov    rax,QWORD PTR [rip+0xf566]        # 4162b4 <__imp_Sleep>
  406d4e:	ff d0                	call   rax
  406d50:	0f b6 85 f9 4b 00 00 	movzx  eax,BYTE PTR [rbp+0x4bf9]
  406d57:	83 e0 cf             	and    eax,0xffffffcf
  406d5a:	88 85 f9 4b 00 00    	mov    BYTE PTR [rbp+0x4bf9],al
  406d60:	48 8d 95 f0 4b 00 00 	lea    rdx,[rbp+0x4bf0]
  406d67:	48 8b 85 10 4c 00 00 	mov    rax,QWORD PTR [rbp+0x4c10]
  406d6e:	48 89 c1             	mov    rcx,rax
  406d71:	48 8b 05 24 f5 00 00 	mov    rax,QWORD PTR [rip+0xf524]        # 41629c <__imp_SetCommState>
  406d78:	ff d0                	call   rax
  406d7a:	89 85 0c 4c 00 00    	mov    DWORD PTR [rbp+0x4c0c],eax
  406d80:	48 8d 0d d5 a4 00 00 	lea    rcx,[rip+0xa4d5]        # 41125c <.rdata+0x25c>
  406d87:	e8 f7 a7 ff ff       	call   401583 <printf>
  406d8c:	48 8d 8d 7c 4b 00 00 	lea    rcx,[rbp+0x4b7c]
  406d93:	48 8d 95 7b 4b 00 00 	lea    rdx,[rbp+0x4b7b]
  406d9a:	48 8b 85 10 4c 00 00 	mov    rax,QWORD PTR [rbp+0x4c10]
  406da1:	48 c7 44 24 20 00 00 	mov    QWORD PTR [rsp+0x20],0x0
  406da8:	00 00 
  406daa:	49 89 c9             	mov    r9,rcx
  406dad:	41 b8 01 00 00 00    	mov    r8d,0x1
  406db3:	48 89 c1             	mov    rcx,rax
  406db6:	48 8b 05 d7 f4 00 00 	mov    rax,QWORD PTR [rip+0xf4d7]        # 416294 <__imp_ReadFile>
  406dbd:	ff d0                	call   rax
  406dbf:	85 c0                	test   eax,eax
  406dc1:	0f 84 c4 05 00 00    	je     40738b <main+0x5cfe>
  406dc7:	48 8d 8d 7c 4b 00 00 	lea    rcx,[rbp+0x4b7c]
  406dce:	48 8d 95 7b 4b 00 00 	lea    rdx,[rbp+0x4b7b]
  406dd5:	48 8b 85 10 4c 00 00 	mov    rax,QWORD PTR [rbp+0x4c10]
  406ddc:	48 c7 44 24 20 00 00 	mov    QWORD PTR [rsp+0x20],0x0
  406de3:	00 00 
  406de5:	49 89 c9             	mov    r9,rcx
  406de8:	41 b8 01 00 00 00    	mov    r8d,0x1
  406dee:	48 89 c1             	mov    rcx,rax
  406df1:	48 8b 05 9c f4 00 00 	mov    rax,QWORD PTR [rip+0xf49c]        # 416294 <__imp_ReadFile>
  406df8:	ff d0                	call   rax
  406dfa:	0f b6 85 7b 4b 00 00 	movzx  eax,BYTE PTR [rbp+0x4b7b]
  406e01:	3c 24                	cmp    al,0x24
  406e03:	0f 85 58 05 00 00    	jne    407361 <main+0x5cd4>
  406e09:	48 8d 0d 60 a4 00 00 	lea    rcx,[rip+0xa460]        # 411270 <.rdata+0x270>
  406e10:	e8 6e a7 ff ff       	call   401583 <printf>
  406e15:	48 8d 8d 7c 4b 00 00 	lea    rcx,[rbp+0x4b7c]
  406e1c:	48 8d 95 7b 4b 00 00 	lea    rdx,[rbp+0x4b7b]
  406e23:	48 8b 85 10 4c 00 00 	mov    rax,QWORD PTR [rbp+0x4c10]
  406e2a:	48 c7 44 24 20 00 00 	mov    QWORD PTR [rsp+0x20],0x0
  406e31:	00 00 
  406e33:	49 89 c9             	mov    r9,rcx
  406e36:	41 b8 01 00 00 00    	mov    r8d,0x1
  406e3c:	48 89 c1             	mov    rcx,rax
  406e3f:	48 8b 05 4e f4 00 00 	mov    rax,QWORD PTR [rip+0xf44e]        # 416294 <__imp_ReadFile>
  406e46:	ff d0                	call   rax
  406e48:	48 8d 8d 7c 4b 00 00 	lea    rcx,[rbp+0x4b7c]
  406e4f:	48 8d 95 7b 4b 00 00 	lea    rdx,[rbp+0x4b7b]
  406e56:	48 8b 85 10 4c 00 00 	mov    rax,QWORD PTR [rbp+0x4c10]
  406e5d:	48 c7 44 24 20 00 00 	mov    QWORD PTR [rsp+0x20],0x0
  406e64:	00 00 
  406e66:	49 89 c9             	mov    r9,rcx
  406e69:	41 b8 01 00 00 00    	mov    r8d,0x1
  406e6f:	48 89 c1             	mov    rcx,rax
  406e72:	48 8b 05 1b f4 00 00 	mov    rax,QWORD PTR [rip+0xf41b]        # 416294 <__imp_ReadFile>
  406e79:	ff d0                	call   rax
  406e7b:	48 8d 8d 7c 4b 00 00 	lea    rcx,[rbp+0x4b7c]
  406e82:	48 8d 95 7b 4b 00 00 	lea    rdx,[rbp+0x4b7b]
  406e89:	48 8b 85 10 4c 00 00 	mov    rax,QWORD PTR [rbp+0x4c10]
  406e90:	48 c7 44 24 20 00 00 	mov    QWORD PTR [rsp+0x20],0x0
  406e97:	00 00 
  406e99:	49 89 c9             	mov    r9,rcx
  406e9c:	41 b8 01 00 00 00    	mov    r8d,0x1
  406ea2:	48 89 c1             	mov    rcx,rax
  406ea5:	48 8b 05 e8 f3 00 00 	mov    rax,QWORD PTR [rip+0xf3e8]        # 416294 <__imp_ReadFile>
  406eac:	ff d0                	call   rax
  406eae:	48 8d 8d 7c 4b 00 00 	lea    rcx,[rbp+0x4b7c]
  406eb5:	48 8d 95 7b 4b 00 00 	lea    rdx,[rbp+0x4b7b]
  406ebc:	48 8b 85 10 4c 00 00 	mov    rax,QWORD PTR [rbp+0x4c10]
  406ec3:	48 c7 44 24 20 00 00 	mov    QWORD PTR [rsp+0x20],0x0
  406eca:	00 00 
  406ecc:	49 89 c9             	mov    r9,rcx
  406ecf:	41 b8 01 00 00 00    	mov    r8d,0x1
  406ed5:	48 89 c1             	mov    rcx,rax
  406ed8:	48 8b 05 b5 f3 00 00 	mov    rax,QWORD PTR [rip+0xf3b5]        # 416294 <__imp_ReadFile>
  406edf:	ff d0                	call   rax
  406ee1:	48 8d 8d 7c 4b 00 00 	lea    rcx,[rbp+0x4b7c]
  406ee8:	48 8d 95 7b 4b 00 00 	lea    rdx,[rbp+0x4b7b]
  406eef:	48 8b 85 10 4c 00 00 	mov    rax,QWORD PTR [rbp+0x4c10]
  406ef6:	48 c7 44 24 20 00 00 	mov    QWORD PTR [rsp+0x20],0x0
  406efd:	00 00 
  406eff:	49 89 c9             	mov    r9,rcx
  406f02:	41 b8 01 00 00 00    	mov    r8d,0x1
  406f08:	48 89 c1             	mov    rcx,rax
  406f0b:	48 8b 05 82 f3 00 00 	mov    rax,QWORD PTR [rip+0xf382]        # 416294 <__imp_ReadFile>
  406f12:	ff d0                	call   rax
  406f14:	b9 0a 00 00 00       	mov    ecx,0xa
  406f19:	48 8b 05 94 f3 00 00 	mov    rax,QWORD PTR [rip+0xf394]        # 4162b4 <__imp_Sleep>
  406f20:	ff d0                	call   rax
  406f22:	48 8d 95 46 4b 00 00 	lea    rdx,[rbp+0x4b46]
  406f29:	48 8b 85 10 4c 00 00 	mov    rax,QWORD PTR [rbp+0x4c10]
  406f30:	48 c7 44 24 20 00 00 	mov    QWORD PTR [rsp+0x20],0x0
  406f37:	00 00 
  406f39:	41 b9 00 00 00 00    	mov    r9d,0x0
  406f3f:	41 b8 04 00 00 00    	mov    r8d,0x4
  406f45:	48 89 c1             	mov    rcx,rax
  406f48:	48 8b 05 8d f3 00 00 	mov    rax,QWORD PTR [rip+0xf38d]        # 4162dc <__imp_WriteFile>
  406f4f:	ff d0                	call   rax
  406f51:	48 8d 8d 7c 4b 00 00 	lea    rcx,[rbp+0x4b7c]
  406f58:	48 8d 95 7b 4b 00 00 	lea    rdx,[rbp+0x4b7b]
  406f5f:	48 8b 85 10 4c 00 00 	mov    rax,QWORD PTR [rbp+0x4c10]
  406f66:	48 c7 44 24 20 00 00 	mov    QWORD PTR [rsp+0x20],0x0
  406f6d:	00 00 
  406f6f:	49 89 c9             	mov    r9,rcx
  406f72:	41 b8 01 00 00 00    	mov    r8d,0x1
  406f78:	48 89 c1             	mov    rcx,rax
  406f7b:	48 8b 05 12 f3 00 00 	mov    rax,QWORD PTR [rip+0xf312]        # 416294 <__imp_ReadFile>
  406f82:	ff d0                	call   rax
  406f84:	48 8d 8d 7c 4b 00 00 	lea    rcx,[rbp+0x4b7c]
  406f8b:	48 8d 95 7b 4b 00 00 	lea    rdx,[rbp+0x4b7b]
  406f92:	48 8b 85 10 4c 00 00 	mov    rax,QWORD PTR [rbp+0x4c10]
  406f99:	48 c7 44 24 20 00 00 	mov    QWORD PTR [rsp+0x20],0x0
  406fa0:	00 00 
  406fa2:	49 89 c9             	mov    r9,rcx
  406fa5:	41 b8 01 00 00 00    	mov    r8d,0x1
  406fab:	48 89 c1             	mov    rcx,rax
  406fae:	48 8b 05 df f2 00 00 	mov    rax,QWORD PTR [rip+0xf2df]        # 416294 <__imp_ReadFile>
  406fb5:	ff d0                	call   rax
  406fb7:	48 8d 8d 7c 4b 00 00 	lea    rcx,[rbp+0x4b7c]
  406fbe:	48 8d 95 7b 4b 00 00 	lea    rdx,[rbp+0x4b7b]
  406fc5:	48 8b 85 10 4c 00 00 	mov    rax,QWORD PTR [rbp+0x4c10]
  406fcc:	48 c7 44 24 20 00 00 	mov    QWORD PTR [rsp+0x20],0x0
  406fd3:	00 00 
  406fd5:	49 89 c9             	mov    r9,rcx
  406fd8:	41 b8 01 00 00 00    	mov    r8d,0x1
  406fde:	48 89 c1             	mov    rcx,rax
  406fe1:	48 8b 05 ac f2 00 00 	mov    rax,QWORD PTR [rip+0xf2ac]        # 416294 <__imp_ReadFile>
  406fe8:	ff d0                	call   rax
  406fea:	48 8d 8d 7c 4b 00 00 	lea    rcx,[rbp+0x4b7c]
  406ff1:	48 8d 95 7b 4b 00 00 	lea    rdx,[rbp+0x4b7b]
  406ff8:	48 8b 85 10 4c 00 00 	mov    rax,QWORD PTR [rbp+0x4c10]
  406fff:	48 c7 44 24 20 00 00 	mov    QWORD PTR [rsp+0x20],0x0
  407006:	00 00 
  407008:	49 89 c9             	mov    r9,rcx
  40700b:	41 b8 01 00 00 00    	mov    r8d,0x1
  407011:	48 89 c1             	mov    rcx,rax
  407014:	48 8b 05 79 f2 00 00 	mov    rax,QWORD PTR [rip+0xf279]        # 416294 <__imp_ReadFile>
  40701b:	ff d0                	call   rax
  40701d:	48 8d 0d 6d a2 00 00 	lea    rcx,[rip+0xa26d]        # 411291 <.rdata+0x291>
  407024:	e8 5a a5 ff ff       	call   401583 <printf>
  407029:	c7 85 2c 4c 00 00 00 	mov    DWORD PTR [rbp+0x4c2c],0x0
  407030:	00 00 00 
  407033:	e9 e4 00 00 00       	jmp    40711c <main+0x5a8f>
  407038:	48 8d 8d 7c 4b 00 00 	lea    rcx,[rbp+0x4b7c]
  40703f:	48 8d 95 7b 4b 00 00 	lea    rdx,[rbp+0x4b7b]
  407046:	48 8b 85 10 4c 00 00 	mov    rax,QWORD PTR [rbp+0x4c10]
  40704d:	48 c7 44 24 20 00 00 	mov    QWORD PTR [rsp+0x20],0x0
  407054:	00 00 
  407056:	49 89 c9             	mov    r9,rcx
  407059:	41 b8 01 00 00 00    	mov    r8d,0x1
  40705f:	48 89 c1             	mov    rcx,rax
  407062:	48 8b 05 2b f2 00 00 	mov    rax,QWORD PTR [rip+0xf22b]        # 416294 <__imp_ReadFile>
  407069:	ff d0                	call   rax
  40706b:	8b 85 7c 4b 00 00    	mov    eax,DWORD PTR [rbp+0x4b7c]
  407071:	85 c0                	test   eax,eax
  407073:	0f 84 9c 00 00 00    	je     407115 <main+0x5a88>
  407079:	83 bd 2c 4c 00 00 00 	cmp    DWORD PTR [rbp+0x4c2c],0x0
  407080:	75 13                	jne    407095 <main+0x5a08>
  407082:	0f b6 85 7b 4b 00 00 	movzx  eax,BYTE PTR [rbp+0x4b7b]
  407089:	0f b6 c0             	movzx  eax,al
  40708c:	c1 e0 18             	shl    eax,0x18
  40708f:	89 85 28 4c 00 00    	mov    DWORD PTR [rbp+0x4c28],eax
  407095:	83 bd 2c 4c 00 00 01 	cmp    DWORD PTR [rbp+0x4c2c],0x1
  40709c:	75 13                	jne    4070b1 <main+0x5a24>
  40709e:	0f b6 85 7b 4b 00 00 	movzx  eax,BYTE PTR [rbp+0x4b7b]
  4070a5:	0f b6 c0             	movzx  eax,al
  4070a8:	c1 e0 10             	shl    eax,0x10
  4070ab:	01 85 28 4c 00 00    	add    DWORD PTR [rbp+0x4c28],eax
  4070b1:	83 bd 2c 4c 00 00 02 	cmp    DWORD PTR [rbp+0x4c2c],0x2
  4070b8:	75 13                	jne    4070cd <main+0x5a40>
  4070ba:	0f b6 85 7b 4b 00 00 	movzx  eax,BYTE PTR [rbp+0x4b7b]
  4070c1:	0f b6 c0             	movzx  eax,al
  4070c4:	c1 e0 08             	shl    eax,0x8
  4070c7:	01 85 28 4c 00 00    	add    DWORD PTR [rbp+0x4c28],eax
  4070cd:	83 bd 2c 4c 00 00 03 	cmp    DWORD PTR [rbp+0x4c2c],0x3
  4070d4:	75 10                	jne    4070e6 <main+0x5a59>
  4070d6:	0f b6 85 7b 4b 00 00 	movzx  eax,BYTE PTR [rbp+0x4b7b]
  4070dd:	0f b6 c0             	movzx  eax,al
  4070e0:	01 85 28 4c 00 00    	add    DWORD PTR [rbp+0x4c28],eax
  4070e6:	0f b6 85 7b 4b 00 00 	movzx  eax,BYTE PTR [rbp+0x4b7b]
  4070ed:	3c 0f                	cmp    al,0xf
  4070ef:	77 0c                	ja     4070fd <main+0x5a70>
  4070f1:	48 8d 0d 9f a1 00 00 	lea    rcx,[rip+0xa19f]        # 411297 <.rdata+0x297>
  4070f8:	e8 86 a4 ff ff       	call   401583 <printf>
  4070fd:	0f b6 85 7b 4b 00 00 	movzx  eax,BYTE PTR [rbp+0x4b7b]
  407104:	0f b6 c0             	movzx  eax,al
  407107:	89 c2                	mov    edx,eax
  407109:	48 8d 0d 89 a1 00 00 	lea    rcx,[rip+0xa189]        # 411299 <.rdata+0x299>
  407110:	e8 6e a4 ff ff       	call   401583 <printf>
  407115:	83 85 2c 4c 00 00 01 	add    DWORD PTR [rbp+0x4c2c],0x1
  40711c:	83 bd 2c 4c 00 00 03 	cmp    DWORD PTR [rbp+0x4c2c],0x3
  407123:	0f 8e 0f ff ff ff    	jle    407038 <main+0x59ab>
  407129:	8b 85 28 4c 00 00    	mov    eax,DWORD PTR [rbp+0x4c28]
  40712f:	89 c2                	mov    edx,eax
  407131:	48 8d 0d 65 a1 00 00 	lea    rcx,[rip+0xa165]        # 41129d <.rdata+0x29d>
  407138:	e8 46 a4 ff ff       	call   401583 <printf>
  40713d:	48 8d 0d 60 a1 00 00 	lea    rcx,[rip+0xa160]        # 4112a4 <.rdata+0x2a4>
  407144:	e8 3a a4 ff ff       	call   401583 <printf>
  407149:	c7 85 2c 4c 00 00 00 	mov    DWORD PTR [rbp+0x4c2c],0x0
  407150:	00 00 00 
  407153:	e9 a4 00 00 00       	jmp    4071fc <main+0x5b6f>
  407158:	48 8d 8d 7c 4b 00 00 	lea    rcx,[rbp+0x4b7c]
  40715f:	48 8d 95 7b 4b 00 00 	lea    rdx,[rbp+0x4b7b]
  407166:	48 8b 85 10 4c 00 00 	mov    rax,QWORD PTR [rbp+0x4c10]
  40716d:	48 c7 44 24 20 00 00 	mov    QWORD PTR [rsp+0x20],0x0
  407174:	00 00 
  407176:	49 89 c9             	mov    r9,rcx
  407179:	41 b8 01 00 00 00    	mov    r8d,0x1
  40717f:	48 89 c1             	mov    rcx,rax
  407182:	48 8b 05 0b f1 00 00 	mov    rax,QWORD PTR [rip+0xf10b]        # 416294 <__imp_ReadFile>
  407189:	ff d0                	call   rax
  40718b:	8b 85 7c 4b 00 00    	mov    eax,DWORD PTR [rbp+0x4b7c]
  407191:	85 c0                	test   eax,eax
  407193:	74 60                	je     4071f5 <main+0x5b68>
  407195:	0f b6 95 7b 4b 00 00 	movzx  edx,BYTE PTR [rbp+0x4b7b]
  40719c:	8b 85 2c 4c 00 00    	mov    eax,DWORD PTR [rbp+0x4c2c]
  4071a2:	48 98                	cdqe
  4071a4:	88 94 05 3c 4b 00 00 	mov    BYTE PTR [rbp+rax*1+0x4b3c],dl
  4071ab:	83 bd 2c 4c 00 00 00 	cmp    DWORD PTR [rbp+0x4c2c],0x0
  4071b2:	7e 41                	jle    4071f5 <main+0x5b68>
  4071b4:	8b 85 2c 4c 00 00    	mov    eax,DWORD PTR [rbp+0x4c2c]
  4071ba:	48 98                	cdqe
  4071bc:	0f b6 84 05 3c 4b 00 	movzx  eax,BYTE PTR [rbp+rax*1+0x4b3c]
  4071c3:	00 
  4071c4:	3c 0f                	cmp    al,0xf
  4071c6:	77 0c                	ja     4071d4 <main+0x5b47>
  4071c8:	48 8d 0d c8 a0 00 00 	lea    rcx,[rip+0xa0c8]        # 411297 <.rdata+0x297>
  4071cf:	e8 af a3 ff ff       	call   401583 <printf>
  4071d4:	8b 85 2c 4c 00 00    	mov    eax,DWORD PTR [rbp+0x4c2c]
  4071da:	48 98                	cdqe
  4071dc:	0f b6 84 05 3c 4b 00 	movzx  eax,BYTE PTR [rbp+rax*1+0x4b3c]
  4071e3:	00 
  4071e4:	0f b6 c0             	movzx  eax,al
  4071e7:	89 c2                	mov    edx,eax
  4071e9:	48 8d 0d a9 a0 00 00 	lea    rcx,[rip+0xa0a9]        # 411299 <.rdata+0x299>
  4071f0:	e8 8e a3 ff ff       	call   401583 <printf>
  4071f5:	83 85 2c 4c 00 00 01 	add    DWORD PTR [rbp+0x4c2c],0x1
  4071fc:	83 bd 2c 4c 00 00 03 	cmp    DWORD PTR [rbp+0x4c2c],0x3
  407203:	0f 8e 4f ff ff ff    	jle    407158 <main+0x5acb>
  407209:	48 8d 0d 9d a0 00 00 	lea    rcx,[rip+0xa09d]        # 4112ad <.rdata+0x2ad>
  407210:	e8 6e a3 ff ff       	call   401583 <printf>
  407215:	0f b6 85 3c 4b 00 00 	movzx  eax,BYTE PTR [rbp+0x4b3c]
  40721c:	3c 0f                	cmp    al,0xf
  40721e:	77 0c                	ja     40722c <main+0x5b9f>
  407220:	48 8d 0d 70 a0 00 00 	lea    rcx,[rip+0xa070]        # 411297 <.rdata+0x297>
  407227:	e8 57 a3 ff ff       	call   401583 <printf>
  40722c:	0f b6 85 3c 4b 00 00 	movzx  eax,BYTE PTR [rbp+0x4b3c]
  407233:	0f b6 c0             	movzx  eax,al
  407236:	89 c2                	mov    edx,eax
  407238:	48 8d 0d 79 a0 00 00 	lea    rcx,[rip+0xa079]        # 4112b8 <.rdata+0x2b8>
  40723f:	e8 3f a3 ff ff       	call   401583 <printf>
  407244:	48 8d 8d 7c 4b 00 00 	lea    rcx,[rbp+0x4b7c]
  40724b:	48 8d 95 7b 4b 00 00 	lea    rdx,[rbp+0x4b7b]
  407252:	48 8b 85 10 4c 00 00 	mov    rax,QWORD PTR [rbp+0x4c10]
  407259:	48 c7 44 24 20 00 00 	mov    QWORD PTR [rsp+0x20],0x0
  407260:	00 00 
  407262:	49 89 c9             	mov    r9,rcx
  407265:	41 b8 01 00 00 00    	mov    r8d,0x1
  40726b:	48 89 c1             	mov    rcx,rax
  40726e:	48 8b 05 1f f0 00 00 	mov    rax,QWORD PTR [rip+0xf01f]        # 416294 <__imp_ReadFile>
  407275:	ff d0                	call   rax
  407277:	48 8d 0d 3d a0 00 00 	lea    rcx,[rip+0xa03d]        # 4112bb <.rdata+0x2bb>
  40727e:	e8 00 a3 ff ff       	call   401583 <printf>
  407283:	0f b6 85 7b 4b 00 00 	movzx  eax,BYTE PTR [rbp+0x4b7b]
  40728a:	84 c0                	test   al,al
  40728c:	75 26                	jne    4072b4 <main+0x5c27>
  40728e:	48 8b 85 20 4c 00 00 	mov    rax,QWORD PTR [rbp+0x4c20]
  407295:	ba 0c 00 00 00       	mov    edx,0xc
  40729a:	48 89 c1             	mov    rcx,rax
  40729d:	48 8b 05 00 f0 00 00 	mov    rax,QWORD PTR [rip+0xf000]        # 4162a4 <__imp_SetConsoleTextAttribute>
  4072a4:	ff d0                	call   rax
  4072a6:	48 8d 0d 1c a0 00 00 	lea    rcx,[rip+0xa01c]        # 4112c9 <.rdata+0x2c9>
  4072ad:	e8 d1 a2 ff ff       	call   401583 <printf>
  4072b2:	eb 24                	jmp    4072d8 <main+0x5c4b>
  4072b4:	48 8b 85 20 4c 00 00 	mov    rax,QWORD PTR [rbp+0x4c20]
  4072bb:	ba 0a 00 00 00       	mov    edx,0xa
  4072c0:	48 89 c1             	mov    rcx,rax
  4072c3:	48 8b 05 da ef 00 00 	mov    rax,QWORD PTR [rip+0xefda]        # 4162a4 <__imp_SetConsoleTextAttribute>
  4072ca:	ff d0                	call   rax
  4072cc:	48 8d 0d ff 9f 00 00 	lea    rcx,[rip+0x9fff]        # 4112d2 <.rdata+0x2d2>
  4072d3:	e8 ab a2 ff ff       	call   401583 <printf>
  4072d8:	48 8b 85 20 4c 00 00 	mov    rax,QWORD PTR [rbp+0x4c20]
  4072df:	ba 1c 00 00 00       	mov    edx,0x1c
  4072e4:	48 89 c1             	mov    rcx,rax
  4072e7:	48 8b 05 b6 ef 00 00 	mov    rax,QWORD PTR [rip+0xefb6]        # 4162a4 <__imp_SetConsoleTextAttribute>
  4072ee:	ff d0                	call   rax
  4072f0:	48 8d 0d e9 9f 00 00 	lea    rcx,[rip+0x9fe9]        # 4112e0 <.rdata+0x2e0>
  4072f7:	e8 87 a2 ff ff       	call   401583 <printf>
  4072fc:	48 8b 85 20 4c 00 00 	mov    rax,QWORD PTR [rbp+0x4c20]
  407303:	ba 07 00 00 00       	mov    edx,0x7
  407308:	48 89 c1             	mov    rcx,rax
  40730b:	48 8b 05 92 ef 00 00 	mov    rax,QWORD PTR [rip+0xef92]        # 4162a4 <__imp_SetConsoleTextAttribute>
  407312:	ff d0                	call   rax
  407314:	48 8d 0d ed 9f 00 00 	lea    rcx,[rip+0x9fed]        # 411308 <.rdata+0x308>
  40731b:	e8 63 a2 ff ff       	call   401583 <printf>
  407320:	48 8b 85 20 4c 00 00 	mov    rax,QWORD PTR [rbp+0x4c20]
  407327:	ba 07 80 00 00       	mov    edx,0x8007
  40732c:	48 89 c1             	mov    rcx,rax
  40732f:	48 8b 05 6e ef 00 00 	mov    rax,QWORD PTR [rip+0xef6e]        # 4162a4 <__imp_SetConsoleTextAttribute>
  407336:	ff d0                	call   rax
  407338:	48 8d 0d 01 a0 00 00 	lea    rcx,[rip+0xa001]        # 411340 <.rdata+0x340>
  40733f:	e8 3f a2 ff ff       	call   401583 <printf>
  407344:	48 8b 85 20 4c 00 00 	mov    rax,QWORD PTR [rbp+0x4c20]
  40734b:	ba 07 00 00 00       	mov    edx,0x7
  407350:	48 89 c1             	mov    rcx,rax
  407353:	48 8b 05 4a ef 00 00 	mov    rax,QWORD PTR [rip+0xef4a]        # 4162a4 <__imp_SetConsoleTextAttribute>
  40735a:	ff d0                	call   rax
  40735c:	e9 95 16 00 00       	jmp    4089f6 <main+0x7369>
  407361:	0f b6 85 7b 4b 00 00 	movzx  eax,BYTE PTR [rbp+0x4b7b]
  407368:	3c 1f                	cmp    al,0x1f
  40736a:	75 0e                	jne    40737a <main+0x5ced>
  40736c:	48 8d 0d ed 9f 00 00 	lea    rcx,[rip+0x9fed]        # 411360 <.rdata+0x360>
  407373:	e8 0b a2 ff ff       	call   401583 <printf>
  407378:	eb 11                	jmp    40738b <main+0x5cfe>
  40737a:	48 8d 0d 1c a0 00 00 	lea    rcx,[rip+0xa01c]        # 41139d <.rdata+0x39d>
  407381:	e8 fd a1 ff ff       	call   401583 <printf>
  407386:	e9 6b 16 00 00       	jmp    4089f6 <main+0x7369>
  40738b:	83 bd 50 4c 00 00 02 	cmp    DWORD PTR [rbp+0x4c50],0x2
  407392:	0f 84 5d 16 00 00    	je     4089f5 <main+0x7368>
  407398:	b9 64 00 00 00       	mov    ecx,0x64
  40739d:	48 8b 05 10 ef 00 00 	mov    rax,QWORD PTR [rip+0xef10]        # 4162b4 <__imp_Sleep>
  4073a4:	ff d0                	call   rax
  4073a6:	48 8d 0d fb 9f 00 00 	lea    rcx,[rip+0x9ffb]        # 4113a8 <.rdata+0x3a8>
  4073ad:	e8 d1 a1 ff ff       	call   401583 <printf>
  4073b2:	48 8d 95 71 4b 00 00 	lea    rdx,[rbp+0x4b71]
  4073b9:	48 8b 85 10 4c 00 00 	mov    rax,QWORD PTR [rbp+0x4c10]
  4073c0:	48 c7 44 24 20 00 00 	mov    QWORD PTR [rsp+0x20],0x0
  4073c7:	00 00 
  4073c9:	41 b9 00 00 00 00    	mov    r9d,0x0
  4073cf:	41 b8 04 00 00 00    	mov    r8d,0x4
  4073d5:	48 89 c1             	mov    rcx,rax
  4073d8:	48 8b 05 fd ee 00 00 	mov    rax,QWORD PTR [rip+0xeefd]        # 4162dc <__imp_WriteFile>
  4073df:	ff d0                	call   rax
  4073e1:	48 8d 95 50 4b 00 00 	lea    rdx,[rbp+0x4b50]
  4073e8:	48 8b 85 10 4c 00 00 	mov    rax,QWORD PTR [rbp+0x4c10]
  4073ef:	48 c7 44 24 20 00 00 	mov    QWORD PTR [rsp+0x20],0x0
  4073f6:	00 00 
  4073f8:	41 b9 00 00 00 00    	mov    r9d,0x0
  4073fe:	41 b8 01 00 00 00    	mov    r8d,0x1
  407404:	48 89 c1             	mov    rcx,rax
  407407:	48 8b 05 86 ee 00 00 	mov    rax,QWORD PTR [rip+0xee86]        # 416294 <__imp_ReadFile>
  40740e:	ff d0                	call   rax
  407410:	85 c0                	test   eax,eax
  407412:	74 28                	je     40743c <main+0x5daf>
  407414:	0f b6 85 50 4b 00 00 	movzx  eax,BYTE PTR [rbp+0x4b50]
  40741b:	3c 96                	cmp    al,0x96
  40741d:	74 1d                	je     40743c <main+0x5daf>
  40741f:	0f b6 85 50 4b 00 00 	movzx  eax,BYTE PTR [rbp+0x4b50]
  407426:	0f b6 c0             	movzx  eax,al
  407429:	89 c2                	mov    edx,eax
  40742b:	48 8d 0d 96 9f 00 00 	lea    rcx,[rip+0x9f96]        # 4113c8 <.rdata+0x3c8>
  407432:	e8 4c a1 ff ff       	call   401583 <printf>
  407437:	e9 ba 15 00 00       	jmp    4089f6 <main+0x7369>
  40743c:	b9 64 00 00 00       	mov    ecx,0x64
  407441:	48 8b 05 6c ee 00 00 	mov    rax,QWORD PTR [rip+0xee6c]        # 4162b4 <__imp_Sleep>
  407448:	ff d0                	call   rax
  40744a:	c7 85 f4 4b 00 00 00 	mov    DWORD PTR [rbp+0x4bf4],0x36b00
  407451:	6b 03 00 
  407454:	48 8d 95 f0 4b 00 00 	lea    rdx,[rbp+0x4bf0]
  40745b:	48 8b 85 10 4c 00 00 	mov    rax,QWORD PTR [rbp+0x4c10]
  407462:	48 89 c1             	mov    rcx,rax
  407465:	48 8b 05 30 ee 00 00 	mov    rax,QWORD PTR [rip+0xee30]        # 41629c <__imp_SetCommState>
  40746c:	ff d0                	call   rax
  40746e:	89 85 0c 4c 00 00    	mov    DWORD PTR [rbp+0x4c0c],eax
  407474:	83 bd 0c 4c 00 00 00 	cmp    DWORD PTR [rbp+0x4c0c],0x0
  40747b:	75 11                	jne    40748e <main+0x5e01>
  40747d:	48 8d 0d 54 9f 00 00 	lea    rcx,[rip+0x9f54]        # 4113d8 <.rdata+0x3d8>
  407484:	e8 fa a0 ff ff       	call   401583 <printf>
  407489:	e9 68 15 00 00       	jmp    4089f6 <main+0x7369>
  40748e:	48 8d 0d 52 9f 00 00 	lea    rcx,[rip+0x9f52]        # 4113e7 <.rdata+0x3e7>
  407495:	e8 e9 a0 ff ff       	call   401583 <printf>
  40749a:	48 8d 95 20 4a 00 00 	lea    rdx,[rbp+0x4a20]
  4074a1:	48 8b 85 10 4c 00 00 	mov    rax,QWORD PTR [rbp+0x4c10]
  4074a8:	48 c7 44 24 20 00 00 	mov    QWORD PTR [rsp+0x20],0x0
  4074af:	00 00 
  4074b1:	41 b9 00 00 00 00    	mov    r9d,0x0
  4074b7:	41 b8 05 00 00 00    	mov    r8d,0x5
  4074bd:	48 89 c1             	mov    rcx,rax
  4074c0:	48 8b 05 15 ee 00 00 	mov    rax,QWORD PTR [rip+0xee15]        # 4162dc <__imp_WriteFile>
  4074c7:	ff d0                	call   rax
  4074c9:	b9 03 00 00 00       	mov    ecx,0x3
  4074ce:	48 8b 05 df ed 00 00 	mov    rax,QWORD PTR [rip+0xeddf]        # 4162b4 <__imp_Sleep>
  4074d5:	ff d0                	call   rax
  4074d7:	48 8d 0d 1f 9f 00 00 	lea    rcx,[rip+0x9f1f]        # 4113fd <.rdata+0x3fd>
  4074de:	e8 a0 a0 ff ff       	call   401583 <printf>
  4074e3:	48 8d 95 10 49 00 00 	lea    rdx,[rbp+0x4910]
  4074ea:	48 8b 85 10 4c 00 00 	mov    rax,QWORD PTR [rbp+0x4c10]
  4074f1:	48 c7 44 24 20 00 00 	mov    QWORD PTR [rsp+0x20],0x0
  4074f8:	00 00 
  4074fa:	41 b9 00 00 00 00    	mov    r9d,0x0
  407500:	41 b8 05 00 00 00    	mov    r8d,0x5
  407506:	48 89 c1             	mov    rcx,rax
  407509:	48 8b 05 cc ed 00 00 	mov    rax,QWORD PTR [rip+0xedcc]        # 4162dc <__imp_WriteFile>
  407510:	ff d0                	call   rax
  407512:	b9 03 00 00 00       	mov    ecx,0x3
  407517:	48 8b 05 96 ed 00 00 	mov    rax,QWORD PTR [rip+0xed96]        # 4162b4 <__imp_Sleep>
  40751e:	ff d0                	call   rax
  407520:	48 8d 0d d6 9e 00 00 	lea    rcx,[rip+0x9ed6]        # 4113fd <.rdata+0x3fd>
  407527:	e8 57 a0 ff ff       	call   401583 <printf>
  40752c:	48 8d 95 00 48 00 00 	lea    rdx,[rbp+0x4800]
  407533:	48 8b 85 10 4c 00 00 	mov    rax,QWORD PTR [rbp+0x4c10]
  40753a:	48 c7 44 24 20 00 00 	mov    QWORD PTR [rsp+0x20],0x0
  407541:	00 00 
  407543:	41 b9 00 00 00 00    	mov    r9d,0x0
  407549:	41 b8 02 00 00 00    	mov    r8d,0x2
  40754f:	48 89 c1             	mov    rcx,rax
  407552:	48 8b 05 83 ed 00 00 	mov    rax,QWORD PTR [rip+0xed83]        # 4162dc <__imp_WriteFile>
  407559:	ff d0                	call   rax
  40755b:	b9 3c 00 00 00       	mov    ecx,0x3c
  407560:	48 8b 05 4d ed 00 00 	mov    rax,QWORD PTR [rip+0xed4d]        # 4162b4 <__imp_Sleep>
  407567:	ff d0                	call   rax
  407569:	48 8d 0d 8d 9e 00 00 	lea    rcx,[rip+0x9e8d]        # 4113fd <.rdata+0x3fd>
  407570:	e8 0e a0 ff ff       	call   401583 <printf>
  407575:	48 8d 95 f0 46 00 00 	lea    rdx,[rbp+0x46f0]
  40757c:	48 8b 85 10 4c 00 00 	mov    rax,QWORD PTR [rbp+0x4c10]
  407583:	48 c7 44 24 20 00 00 	mov    QWORD PTR [rsp+0x20],0x0
  40758a:	00 00 
  40758c:	41 b9 00 00 00 00    	mov    r9d,0x0
  407592:	41 b8 05 00 00 00    	mov    r8d,0x5
  407598:	48 89 c1             	mov    rcx,rax
  40759b:	48 8b 05 3a ed 00 00 	mov    rax,QWORD PTR [rip+0xed3a]        # 4162dc <__imp_WriteFile>
  4075a2:	ff d0                	call   rax
  4075a4:	b9 03 00 00 00       	mov    ecx,0x3
  4075a9:	48 8b 05 04 ed 00 00 	mov    rax,QWORD PTR [rip+0xed04]        # 4162b4 <__imp_Sleep>
  4075b0:	ff d0                	call   rax
  4075b2:	48 8d 0d 44 9e 00 00 	lea    rcx,[rip+0x9e44]        # 4113fd <.rdata+0x3fd>
  4075b9:	e8 c5 9f ff ff       	call   401583 <printf>
  4075be:	48 8d 95 e0 45 00 00 	lea    rdx,[rbp+0x45e0]
  4075c5:	48 8b 85 10 4c 00 00 	mov    rax,QWORD PTR [rbp+0x4c10]
  4075cc:	48 c7 44 24 20 00 00 	mov    QWORD PTR [rsp+0x20],0x0
  4075d3:	00 00 
  4075d5:	41 b9 00 00 00 00    	mov    r9d,0x0
  4075db:	41 b8 05 00 00 00    	mov    r8d,0x5
  4075e1:	48 89 c1             	mov    rcx,rax
  4075e4:	48 8b 05 f1 ec 00 00 	mov    rax,QWORD PTR [rip+0xecf1]        # 4162dc <__imp_WriteFile>
  4075eb:	ff d0                	call   rax
  4075ed:	b9 03 00 00 00       	mov    ecx,0x3
  4075f2:	48 8b 05 bb ec 00 00 	mov    rax,QWORD PTR [rip+0xecbb]        # 4162b4 <__imp_Sleep>
  4075f9:	ff d0                	call   rax
  4075fb:	48 8d 0d fb 9d 00 00 	lea    rcx,[rip+0x9dfb]        # 4113fd <.rdata+0x3fd>
  407602:	e8 7c 9f ff ff       	call   401583 <printf>
  407607:	48 8d 95 d0 44 00 00 	lea    rdx,[rbp+0x44d0]
  40760e:	48 8b 85 10 4c 00 00 	mov    rax,QWORD PTR [rbp+0x4c10]
  407615:	48 c7 44 24 20 00 00 	mov    QWORD PTR [rsp+0x20],0x0
  40761c:	00 00 
  40761e:	41 b9 00 00 00 00    	mov    r9d,0x0
  407624:	41 b8 ff 00 00 00    	mov    r8d,0xff
  40762a:	48 89 c1             	mov    rcx,rax
  40762d:	48 8b 05 a8 ec 00 00 	mov    rax,QWORD PTR [rip+0xeca8]        # 4162dc <__imp_WriteFile>
  407634:	ff d0                	call   rax
  407636:	b9 3c 00 00 00       	mov    ecx,0x3c
  40763b:	48 8b 05 72 ec 00 00 	mov    rax,QWORD PTR [rip+0xec72]        # 4162b4 <__imp_Sleep>
  407642:	ff d0                	call   rax
  407644:	48 8d 0d b2 9d 00 00 	lea    rcx,[rip+0x9db2]        # 4113fd <.rdata+0x3fd>
  40764b:	e8 33 9f ff ff       	call   401583 <printf>
  407650:	48 8d 95 c0 43 00 00 	lea    rdx,[rbp+0x43c0]
  407657:	48 8b 85 10 4c 00 00 	mov    rax,QWORD PTR [rbp+0x4c10]
  40765e:	48 c7 44 24 20 00 00 	mov    QWORD PTR [rsp+0x20],0x0
  407665:	00 00 
  407667:	41 b9 00 00 00 00    	mov    r9d,0x0
  40766d:	41 b8 05 00 00 00    	mov    r8d,0x5
  407673:	48 89 c1             	mov    rcx,rax
  407676:	48 8b 05 5f ec 00 00 	mov    rax,QWORD PTR [rip+0xec5f]        # 4162dc <__imp_WriteFile>
  40767d:	ff d0                	call   rax
  40767f:	b9 03 00 00 00       	mov    ecx,0x3
  407684:	48 8b 05 29 ec 00 00 	mov    rax,QWORD PTR [rip+0xec29]        # 4162b4 <__imp_Sleep>
  40768b:	ff d0                	call   rax
  40768d:	48 8d 0d 69 9d 00 00 	lea    rcx,[rip+0x9d69]        # 4113fd <.rdata+0x3fd>
  407694:	e8 ea 9e ff ff       	call   401583 <printf>
  407699:	48 8d 95 b0 42 00 00 	lea    rdx,[rbp+0x42b0]
  4076a0:	48 8b 85 10 4c 00 00 	mov    rax,QWORD PTR [rbp+0x4c10]
  4076a7:	48 c7 44 24 20 00 00 	mov    QWORD PTR [rsp+0x20],0x0
  4076ae:	00 00 
  4076b0:	41 b9 00 00 00 00    	mov    r9d,0x0
  4076b6:	41 b8 ff 00 00 00    	mov    r8d,0xff
  4076bc:	48 89 c1             	mov    rcx,rax
  4076bf:	48 8b 05 16 ec 00 00 	mov    rax,QWORD PTR [rip+0xec16]        # 4162dc <__imp_WriteFile>
  4076c6:	ff d0                	call   rax
  4076c8:	b9 3c 00 00 00       	mov    ecx,0x3c
  4076cd:	48 8b 05 e0 eb 00 00 	mov    rax,QWORD PTR [rip+0xebe0]        # 4162b4 <__imp_Sleep>
  4076d4:	ff d0                	call   rax
  4076d6:	48 8d 0d 20 9d 00 00 	lea    rcx,[rip+0x9d20]        # 4113fd <.rdata+0x3fd>
  4076dd:	e8 a1 9e ff ff       	call   401583 <printf>
  4076e2:	48 8d 95 a0 41 00 00 	lea    rdx,[rbp+0x41a0]
  4076e9:	48 8b 85 10 4c 00 00 	mov    rax,QWORD PTR [rbp+0x4c10]
  4076f0:	48 c7 44 24 20 00 00 	mov    QWORD PTR [rsp+0x20],0x0
  4076f7:	00 00 
  4076f9:	41 b9 00 00 00 00    	mov    r9d,0x0
  4076ff:	41 b8 05 00 00 00    	mov    r8d,0x5
  407705:	48 89 c1             	mov    rcx,rax
  407708:	48 8b 05 cd eb 00 00 	mov    rax,QWORD PTR [rip+0xebcd]        # 4162dc <__imp_WriteFile>
  40770f:	ff d0                	call   rax
  407711:	b9 03 00 00 00       	mov    ecx,0x3
  407716:	48 8b 05 97 eb 00 00 	mov    rax,QWORD PTR [rip+0xeb97]        # 4162b4 <__imp_Sleep>
  40771d:	ff d0                	call   rax
  40771f:	48 8d 0d d7 9c 00 00 	lea    rcx,[rip+0x9cd7]        # 4113fd <.rdata+0x3fd>
  407726:	e8 58 9e ff ff       	call   401583 <printf>
  40772b:	48 8d 95 90 40 00 00 	lea    rdx,[rbp+0x4090]
  407732:	48 8b 85 10 4c 00 00 	mov    rax,QWORD PTR [rbp+0x4c10]
  407739:	48 c7 44 24 20 00 00 	mov    QWORD PTR [rsp+0x20],0x0
  407740:	00 00 
  407742:	41 b9 00 00 00 00    	mov    r9d,0x0
  407748:	41 b8 ff 00 00 00    	mov    r8d,0xff
  40774e:	48 89 c1             	mov    rcx,rax
  407751:	48 8b 05 84 eb 00 00 	mov    rax,QWORD PTR [rip+0xeb84]        # 4162dc <__imp_WriteFile>
  407758:	ff d0                	call   rax
  40775a:	b9 3c 00 00 00       	mov    ecx,0x3c
  40775f:	48 8b 05 4e eb 00 00 	mov    rax,QWORD PTR [rip+0xeb4e]        # 4162b4 <__imp_Sleep>
  407766:	ff d0                	call   rax
  407768:	48 8d 0d 8e 9c 00 00 	lea    rcx,[rip+0x9c8e]        # 4113fd <.rdata+0x3fd>
  40776f:	e8 0f 9e ff ff       	call   401583 <printf>
  407774:	48 8d 95 80 3f 00 00 	lea    rdx,[rbp+0x3f80]
  40777b:	48 8b 85 10 4c 00 00 	mov    rax,QWORD PTR [rbp+0x4c10]
  407782:	48 c7 44 24 20 00 00 	mov    QWORD PTR [rsp+0x20],0x0
  407789:	00 00 
  40778b:	41 b9 00 00 00 00    	mov    r9d,0x0
  407791:	41 b8 05 00 00 00    	mov    r8d,0x5
  407797:	48 89 c1             	mov    rcx,rax
  40779a:	48 8b 05 3b eb 00 00 	mov    rax,QWORD PTR [rip+0xeb3b]        # 4162dc <__imp_WriteFile>
  4077a1:	ff d0                	call   rax
  4077a3:	b9 03 00 00 00       	mov    ecx,0x3
  4077a8:	48 8b 05 05 eb 00 00 	mov    rax,QWORD PTR [rip+0xeb05]        # 4162b4 <__imp_Sleep>
  4077af:	ff d0                	call   rax
  4077b1:	48 8d 0d 45 9c 00 00 	lea    rcx,[rip+0x9c45]        # 4113fd <.rdata+0x3fd>
  4077b8:	e8 c6 9d ff ff       	call   401583 <printf>
  4077bd:	48 8d 95 70 3e 00 00 	lea    rdx,[rbp+0x3e70]
  4077c4:	48 8b 85 10 4c 00 00 	mov    rax,QWORD PTR [rbp+0x4c10]
  4077cb:	48 c7 44 24 20 00 00 	mov    QWORD PTR [rsp+0x20],0x0
  4077d2:	00 00 
  4077d4:	41 b9 00 00 00 00    	mov    r9d,0x0
  4077da:	41 b8 ff 00 00 00    	mov    r8d,0xff
  4077e0:	48 89 c1             	mov    rcx,rax
  4077e3:	48 8b 05 f2 ea 00 00 	mov    rax,QWORD PTR [rip+0xeaf2]        # 4162dc <__imp_WriteFile>
  4077ea:	ff d0                	call   rax
  4077ec:	b9 3c 00 00 00       	mov    ecx,0x3c
  4077f1:	48 8b 05 bc ea 00 00 	mov    rax,QWORD PTR [rip+0xeabc]        # 4162b4 <__imp_Sleep>
  4077f8:	ff d0                	call   rax
  4077fa:	48 8d 0d fc 9b 00 00 	lea    rcx,[rip+0x9bfc]        # 4113fd <.rdata+0x3fd>
  407801:	e8 7d 9d ff ff       	call   401583 <printf>
  407806:	48 8d 95 60 3d 00 00 	lea    rdx,[rbp+0x3d60]
  40780d:	48 8b 85 10 4c 00 00 	mov    rax,QWORD PTR [rbp+0x4c10]
  407814:	48 c7 44 24 20 00 00 	mov    QWORD PTR [rsp+0x20],0x0
  40781b:	00 00 
  40781d:	41 b9 00 00 00 00    	mov    r9d,0x0
  407823:	41 b8 05 00 00 00    	mov    r8d,0x5
  407829:	48 89 c1             	mov    rcx,rax
  40782c:	48 8b 05 a9 ea 00 00 	mov    rax,QWORD PTR [rip+0xeaa9]        # 4162dc <__imp_WriteFile>
  407833:	ff d0                	call   rax
  407835:	b9 03 00 00 00       	mov    ecx,0x3
  40783a:	48 8b 05 73 ea 00 00 	mov    rax,QWORD PTR [rip+0xea73]        # 4162b4 <__imp_Sleep>
  407841:	ff d0                	call   rax
  407843:	48 8d 0d b3 9b 00 00 	lea    rcx,[rip+0x9bb3]        # 4113fd <.rdata+0x3fd>
  40784a:	e8 34 9d ff ff       	call   401583 <printf>
  40784f:	48 8d 95 50 3c 00 00 	lea    rdx,[rbp+0x3c50]
  407856:	48 8b 85 10 4c 00 00 	mov    rax,QWORD PTR [rbp+0x4c10]
  40785d:	48 c7 44 24 20 00 00 	mov    QWORD PTR [rsp+0x20],0x0
  407864:	00 00 
  407866:	41 b9 00 00 00 00    	mov    r9d,0x0
  40786c:	41 b8 ff 00 00 00    	mov    r8d,0xff
  407872:	48 89 c1             	mov    rcx,rax
  407875:	48 8b 05 60 ea 00 00 	mov    rax,QWORD PTR [rip+0xea60]        # 4162dc <__imp_WriteFile>
  40787c:	ff d0                	call   rax
  40787e:	b9 3c 00 00 00       	mov    ecx,0x3c
  407883:	48 8b 05 2a ea 00 00 	mov    rax,QWORD PTR [rip+0xea2a]        # 4162b4 <__imp_Sleep>
  40788a:	ff d0                	call   rax
  40788c:	48 8d 0d 6a 9b 00 00 	lea    rcx,[rip+0x9b6a]        # 4113fd <.rdata+0x3fd>
  407893:	e8 eb 9c ff ff       	call   401583 <printf>
  407898:	48 8d 95 40 3b 00 00 	lea    rdx,[rbp+0x3b40]
  40789f:	48 8b 85 10 4c 00 00 	mov    rax,QWORD PTR [rbp+0x4c10]
  4078a6:	48 c7 44 24 20 00 00 	mov    QWORD PTR [rsp+0x20],0x0
  4078ad:	00 00 
  4078af:	41 b9 00 00 00 00    	mov    r9d,0x0
  4078b5:	41 b8 05 00 00 00    	mov    r8d,0x5
  4078bb:	48 89 c1             	mov    rcx,rax
  4078be:	48 8b 05 17 ea 00 00 	mov    rax,QWORD PTR [rip+0xea17]        # 4162dc <__imp_WriteFile>
  4078c5:	ff d0                	call   rax
  4078c7:	b9 03 00 00 00       	mov    ecx,0x3
  4078cc:	48 8b 05 e1 e9 00 00 	mov    rax,QWORD PTR [rip+0xe9e1]        # 4162b4 <__imp_Sleep>
  4078d3:	ff d0                	call   rax
  4078d5:	48 8d 0d 21 9b 00 00 	lea    rcx,[rip+0x9b21]        # 4113fd <.rdata+0x3fd>
  4078dc:	e8 a2 9c ff ff       	call   401583 <printf>
  4078e1:	48 8d 95 30 3a 00 00 	lea    rdx,[rbp+0x3a30]
  4078e8:	48 8b 85 10 4c 00 00 	mov    rax,QWORD PTR [rbp+0x4c10]
  4078ef:	48 c7 44 24 20 00 00 	mov    QWORD PTR [rsp+0x20],0x0
  4078f6:	00 00 
  4078f8:	41 b9 00 00 00 00    	mov    r9d,0x0
  4078fe:	41 b8 ff 00 00 00    	mov    r8d,0xff
  407904:	48 89 c1             	mov    rcx,rax
  407907:	48 8b 05 ce e9 00 00 	mov    rax,QWORD PTR [rip+0xe9ce]        # 4162dc <__imp_WriteFile>
  40790e:	ff d0                	call   rax
  407910:	b9 3c 00 00 00       	mov    ecx,0x3c
  407915:	48 8b 05 98 e9 00 00 	mov    rax,QWORD PTR [rip+0xe998]        # 4162b4 <__imp_Sleep>
  40791c:	ff d0                	call   rax
  40791e:	48 8d 0d d8 9a 00 00 	lea    rcx,[rip+0x9ad8]        # 4113fd <.rdata+0x3fd>
  407925:	e8 59 9c ff ff       	call   401583 <printf>
  40792a:	48 8d 95 20 39 00 00 	lea    rdx,[rbp+0x3920]
  407931:	48 8b 85 10 4c 00 00 	mov    rax,QWORD PTR [rbp+0x4c10]
  407938:	48 c7 44 24 20 00 00 	mov    QWORD PTR [rsp+0x20],0x0
  40793f:	00 00 
  407941:	41 b9 00 00 00 00    	mov    r9d,0x0
  407947:	41 b8 05 00 00 00    	mov    r8d,0x5
  40794d:	48 89 c1             	mov    rcx,rax
  407950:	48 8b 05 85 e9 00 00 	mov    rax,QWORD PTR [rip+0xe985]        # 4162dc <__imp_WriteFile>
  407957:	ff d0                	call   rax
  407959:	b9 03 00 00 00       	mov    ecx,0x3
  40795e:	48 8b 05 4f e9 00 00 	mov    rax,QWORD PTR [rip+0xe94f]        # 4162b4 <__imp_Sleep>
  407965:	ff d0                	call   rax
  407967:	48 8d 0d 8f 9a 00 00 	lea    rcx,[rip+0x9a8f]        # 4113fd <.rdata+0x3fd>
  40796e:	e8 10 9c ff ff       	call   401583 <printf>
  407973:	48 8d 95 10 38 00 00 	lea    rdx,[rbp+0x3810]
  40797a:	48 8b 85 10 4c 00 00 	mov    rax,QWORD PTR [rbp+0x4c10]
  407981:	48 c7 44 24 20 00 00 	mov    QWORD PTR [rsp+0x20],0x0
  407988:	00 00 
  40798a:	41 b9 00 00 00 00    	mov    r9d,0x0
  407990:	41 b8 ff 00 00 00    	mov    r8d,0xff
  407996:	48 89 c1             	mov    rcx,rax
  407999:	48 8b 05 3c e9 00 00 	mov    rax,QWORD PTR [rip+0xe93c]        # 4162dc <__imp_WriteFile>
  4079a0:	ff d0                	call   rax
  4079a2:	b9 3c 00 00 00       	mov    ecx,0x3c
  4079a7:	48 8b 05 06 e9 00 00 	mov    rax,QWORD PTR [rip+0xe906]        # 4162b4 <__imp_Sleep>
  4079ae:	ff d0                	call   rax
  4079b0:	48 8d 0d 46 9a 00 00 	lea    rcx,[rip+0x9a46]        # 4113fd <.rdata+0x3fd>
  4079b7:	e8 c7 9b ff ff       	call   401583 <printf>
  4079bc:	48 8d 95 00 37 00 00 	lea    rdx,[rbp+0x3700]
  4079c3:	48 8b 85 10 4c 00 00 	mov    rax,QWORD PTR [rbp+0x4c10]
  4079ca:	48 c7 44 24 20 00 00 	mov    QWORD PTR [rsp+0x20],0x0
  4079d1:	00 00 
  4079d3:	41 b9 00 00 00 00    	mov    r9d,0x0
  4079d9:	41 b8 05 00 00 00    	mov    r8d,0x5
  4079df:	48 89 c1             	mov    rcx,rax
  4079e2:	48 8b 05 f3 e8 00 00 	mov    rax,QWORD PTR [rip+0xe8f3]        # 4162dc <__imp_WriteFile>
  4079e9:	ff d0                	call   rax
  4079eb:	b9 03 00 00 00       	mov    ecx,0x3
  4079f0:	48 8b 05 bd e8 00 00 	mov    rax,QWORD PTR [rip+0xe8bd]        # 4162b4 <__imp_Sleep>
  4079f7:	ff d0                	call   rax
  4079f9:	48 8d 0d fd 99 00 00 	lea    rcx,[rip+0x99fd]        # 4113fd <.rdata+0x3fd>
  407a00:	e8 7e 9b ff ff       	call   401583 <printf>
  407a05:	48 8d 95 f0 35 00 00 	lea    rdx,[rbp+0x35f0]
  407a0c:	48 8b 85 10 4c 00 00 	mov    rax,QWORD PTR [rbp+0x4c10]
  407a13:	48 c7 44 24 20 00 00 	mov    QWORD PTR [rsp+0x20],0x0
  407a1a:	00 00 
  407a1c:	41 b9 00 00 00 00    	mov    r9d,0x0
  407a22:	41 b8 ff 00 00 00    	mov    r8d,0xff
  407a28:	48 89 c1             	mov    rcx,rax
  407a2b:	48 8b 05 aa e8 00 00 	mov    rax,QWORD PTR [rip+0xe8aa]        # 4162dc <__imp_WriteFile>
  407a32:	ff d0                	call   rax
  407a34:	b9 3c 00 00 00       	mov    ecx,0x3c
  407a39:	48 8b 05 74 e8 00 00 	mov    rax,QWORD PTR [rip+0xe874]        # 4162b4 <__imp_Sleep>
  407a40:	ff d0                	call   rax
  407a42:	48 8d 0d b4 99 00 00 	lea    rcx,[rip+0x99b4]        # 4113fd <.rdata+0x3fd>
  407a49:	e8 35 9b ff ff       	call   401583 <printf>
  407a4e:	48 8d 95 e0 34 00 00 	lea    rdx,[rbp+0x34e0]
  407a55:	48 8b 85 10 4c 00 00 	mov    rax,QWORD PTR [rbp+0x4c10]
  407a5c:	48 c7 44 24 20 00 00 	mov    QWORD PTR [rsp+0x20],0x0
  407a63:	00 00 
  407a65:	41 b9 00 00 00 00    	mov    r9d,0x0
  407a6b:	41 b8 05 00 00 00    	mov    r8d,0x5
  407a71:	48 89 c1             	mov    rcx,rax
  407a74:	48 8b 05 61 e8 00 00 	mov    rax,QWORD PTR [rip+0xe861]        # 4162dc <__imp_WriteFile>
  407a7b:	ff d0                	call   rax
  407a7d:	b9 03 00 00 00       	mov    ecx,0x3
  407a82:	48 8b 05 2b e8 00 00 	mov    rax,QWORD PTR [rip+0xe82b]        # 4162b4 <__imp_Sleep>
  407a89:	ff d0                	call   rax
  407a8b:	48 8d 0d 6b 99 00 00 	lea    rcx,[rip+0x996b]        # 4113fd <.rdata+0x3fd>
  407a92:	e8 ec 9a ff ff       	call   401583 <printf>
  407a97:	48 8d 95 d0 33 00 00 	lea    rdx,[rbp+0x33d0]
  407a9e:	48 8b 85 10 4c 00 00 	mov    rax,QWORD PTR [rbp+0x4c10]
  407aa5:	48 c7 44 24 20 00 00 	mov    QWORD PTR [rsp+0x20],0x0
  407aac:	00 00 
  407aae:	41 b9 00 00 00 00    	mov    r9d,0x0
  407ab4:	41 b8 ff 00 00 00    	mov    r8d,0xff
  407aba:	48 89 c1             	mov    rcx,rax
  407abd:	48 8b 05 18 e8 00 00 	mov    rax,QWORD PTR [rip+0xe818]        # 4162dc <__imp_WriteFile>
  407ac4:	ff d0                	call   rax
  407ac6:	b9 3c 00 00 00       	mov    ecx,0x3c
  407acb:	48 8b 05 e2 e7 00 00 	mov    rax,QWORD PTR [rip+0xe7e2]        # 4162b4 <__imp_Sleep>
  407ad2:	ff d0                	call   rax
  407ad4:	48 8d 0d 22 99 00 00 	lea    rcx,[rip+0x9922]        # 4113fd <.rdata+0x3fd>
  407adb:	e8 a3 9a ff ff       	call   401583 <printf>
  407ae0:	48 8d 95 c0 32 00 00 	lea    rdx,[rbp+0x32c0]
  407ae7:	48 8b 85 10 4c 00 00 	mov    rax,QWORD PTR [rbp+0x4c10]
  407aee:	48 c7 44 24 20 00 00 	mov    QWORD PTR [rsp+0x20],0x0
  407af5:	00 00 
  407af7:	41 b9 00 00 00 00    	mov    r9d,0x0
  407afd:	41 b8 05 00 00 00    	mov    r8d,0x5
  407b03:	48 89 c1             	mov    rcx,rax
  407b06:	48 8b 05 cf e7 00 00 	mov    rax,QWORD PTR [rip+0xe7cf]        # 4162dc <__imp_WriteFile>
  407b0d:	ff d0                	call   rax
  407b0f:	b9 03 00 00 00       	mov    ecx,0x3
  407b14:	48 8b 05 99 e7 00 00 	mov    rax,QWORD PTR [rip+0xe799]        # 4162b4 <__imp_Sleep>
  407b1b:	ff d0                	call   rax
  407b1d:	48 8d 0d d9 98 00 00 	lea    rcx,[rip+0x98d9]        # 4113fd <.rdata+0x3fd>
  407b24:	e8 5a 9a ff ff       	call   401583 <printf>
  407b29:	48 8d 95 b0 31 00 00 	lea    rdx,[rbp+0x31b0]
  407b30:	48 8b 85 10 4c 00 00 	mov    rax,QWORD PTR [rbp+0x4c10]
  407b37:	48 c7 44 24 20 00 00 	mov    QWORD PTR [rsp+0x20],0x0
  407b3e:	00 00 
  407b40:	41 b9 00 00 00 00    	mov    r9d,0x0
  407b46:	41 b8 ff 00 00 00    	mov    r8d,0xff
  407b4c:	48 89 c1             	mov    rcx,rax
  407b4f:	48 8b 05 86 e7 00 00 	mov    rax,QWORD PTR [rip+0xe786]        # 4162dc <__imp_WriteFile>
  407b56:	ff d0                	call   rax
  407b58:	b9 3c 00 00 00       	mov    ecx,0x3c
  407b5d:	48 8b 05 50 e7 00 00 	mov    rax,QWORD PTR [rip+0xe750]        # 4162b4 <__imp_Sleep>
  407b64:	ff d0                	call   rax
  407b66:	48 8d 0d 90 98 00 00 	lea    rcx,[rip+0x9890]        # 4113fd <.rdata+0x3fd>
  407b6d:	e8 11 9a ff ff       	call   401583 <printf>
  407b72:	48 8d 95 a0 30 00 00 	lea    rdx,[rbp+0x30a0]
  407b79:	48 8b 85 10 4c 00 00 	mov    rax,QWORD PTR [rbp+0x4c10]
  407b80:	48 c7 44 24 20 00 00 	mov    QWORD PTR [rsp+0x20],0x0
  407b87:	00 00 
  407b89:	41 b9 00 00 00 00    	mov    r9d,0x0
  407b8f:	41 b8 05 00 00 00    	mov    r8d,0x5
  407b95:	48 89 c1             	mov    rcx,rax
  407b98:	48 8b 05 3d e7 00 00 	mov    rax,QWORD PTR [rip+0xe73d]        # 4162dc <__imp_WriteFile>
  407b9f:	ff d0                	call   rax
  407ba1:	b9 03 00 00 00       	mov    ecx,0x3
  407ba6:	48 8b 05 07 e7 00 00 	mov    rax,QWORD PTR [rip+0xe707]        # 4162b4 <__imp_Sleep>
  407bad:	ff d0                	call   rax
  407baf:	48 8d 0d 47 98 00 00 	lea    rcx,[rip+0x9847]        # 4113fd <.rdata+0x3fd>
  407bb6:	e8 c8 99 ff ff       	call   401583 <printf>
  407bbb:	48 8d 95 90 2f 00 00 	lea    rdx,[rbp+0x2f90]
  407bc2:	48 8b 85 10 4c 00 00 	mov    rax,QWORD PTR [rbp+0x4c10]
  407bc9:	48 c7 44 24 20 00 00 	mov    QWORD PTR [rsp+0x20],0x0
  407bd0:	00 00 
  407bd2:	41 b9 00 00 00 00    	mov    r9d,0x0
  407bd8:	41 b8 ff 00 00 00    	mov    r8d,0xff
  407bde:	48 89 c1             	mov    rcx,rax
  407be1:	48 8b 05 f4 e6 00 00 	mov    rax,QWORD PTR [rip+0xe6f4]        # 4162dc <__imp_WriteFile>
  407be8:	ff d0                	call   rax
  407bea:	b9 3c 00 00 00       	mov    ecx,0x3c
  407bef:	48 8b 05 be e6 00 00 	mov    rax,QWORD PTR [rip+0xe6be]        # 4162b4 <__imp_Sleep>
  407bf6:	ff d0                	call   rax
  407bf8:	48 8d 0d fe 97 00 00 	lea    rcx,[rip+0x97fe]        # 4113fd <.rdata+0x3fd>
  407bff:	e8 7f 99 ff ff       	call   401583 <printf>
  407c04:	48 8d 95 80 2e 00 00 	lea    rdx,[rbp+0x2e80]
  407c0b:	48 8b 85 10 4c 00 00 	mov    rax,QWORD PTR [rbp+0x4c10]
  407c12:	48 c7 44 24 20 00 00 	mov    QWORD PTR [rsp+0x20],0x0
  407c19:	00 00 
  407c1b:	41 b9 00 00 00 00    	mov    r9d,0x0
  407c21:	41 b8 05 00 00 00    	mov    r8d,0x5
  407c27:	48 89 c1             	mov    rcx,rax
  407c2a:	48 8b 05 ab e6 00 00 	mov    rax,QWORD PTR [rip+0xe6ab]        # 4162dc <__imp_WriteFile>
  407c31:	ff d0                	call   rax
  407c33:	b9 03 00 00 00       	mov    ecx,0x3
  407c38:	48 8b 05 75 e6 00 00 	mov    rax,QWORD PTR [rip+0xe675]        # 4162b4 <__imp_Sleep>
  407c3f:	ff d0                	call   rax
  407c41:	48 8d 0d b5 97 00 00 	lea    rcx,[rip+0x97b5]        # 4113fd <.rdata+0x3fd>
  407c48:	e8 36 99 ff ff       	call   401583 <printf>
  407c4d:	48 8d 95 70 2d 00 00 	lea    rdx,[rbp+0x2d70]
  407c54:	48 8b 85 10 4c 00 00 	mov    rax,QWORD PTR [rbp+0x4c10]
  407c5b:	48 c7 44 24 20 00 00 	mov    QWORD PTR [rsp+0x20],0x0
  407c62:	00 00 
  407c64:	41 b9 00 00 00 00    	mov    r9d,0x0
  407c6a:	41 b8 ff 00 00 00    	mov    r8d,0xff
  407c70:	48 89 c1             	mov    rcx,rax
  407c73:	48 8b 05 62 e6 00 00 	mov    rax,QWORD PTR [rip+0xe662]        # 4162dc <__imp_WriteFile>
  407c7a:	ff d0                	call   rax
  407c7c:	b9 3c 00 00 00       	mov    ecx,0x3c
  407c81:	48 8b 05 2c e6 00 00 	mov    rax,QWORD PTR [rip+0xe62c]        # 4162b4 <__imp_Sleep>
  407c88:	ff d0                	call   rax
  407c8a:	48 8d 0d 6c 97 00 00 	lea    rcx,[rip+0x976c]        # 4113fd <.rdata+0x3fd>
  407c91:	e8 ed 98 ff ff       	call   401583 <printf>
  407c96:	48 8d 95 60 2c 00 00 	lea    rdx,[rbp+0x2c60]
  407c9d:	48 8b 85 10 4c 00 00 	mov    rax,QWORD PTR [rbp+0x4c10]
  407ca4:	48 c7 44 24 20 00 00 	mov    QWORD PTR [rsp+0x20],0x0
  407cab:	00 00 
  407cad:	41 b9 00 00 00 00    	mov    r9d,0x0
  407cb3:	41 b8 05 00 00 00    	mov    r8d,0x5
  407cb9:	48 89 c1             	mov    rcx,rax
  407cbc:	48 8b 05 19 e6 00 00 	mov    rax,QWORD PTR [rip+0xe619]        # 4162dc <__imp_WriteFile>
  407cc3:	ff d0                	call   rax
  407cc5:	b9 03 00 00 00       	mov    ecx,0x3
  407cca:	48 8b 05 e3 e5 00 00 	mov    rax,QWORD PTR [rip+0xe5e3]        # 4162b4 <__imp_Sleep>
  407cd1:	ff d0                	call   rax
  407cd3:	48 8d 0d 23 97 00 00 	lea    rcx,[rip+0x9723]        # 4113fd <.rdata+0x3fd>
  407cda:	e8 a4 98 ff ff       	call   401583 <printf>
  407cdf:	48 8d 95 50 2b 00 00 	lea    rdx,[rbp+0x2b50]
  407ce6:	48 8b 85 10 4c 00 00 	mov    rax,QWORD PTR [rbp+0x4c10]
  407ced:	48 c7 44 24 20 00 00 	mov    QWORD PTR [rsp+0x20],0x0
  407cf4:	00 00 
  407cf6:	41 b9 00 00 00 00    	mov    r9d,0x0
  407cfc:	41 b8 ff 00 00 00    	mov    r8d,0xff
  407d02:	48 89 c1             	mov    rcx,rax
  407d05:	48 8b 05 d0 e5 00 00 	mov    rax,QWORD PTR [rip+0xe5d0]        # 4162dc <__imp_WriteFile>
  407d0c:	ff d0                	call   rax
  407d0e:	b9 3c 00 00 00       	mov    ecx,0x3c
  407d13:	48 8b 05 9a e5 00 00 	mov    rax,QWORD PTR [rip+0xe59a]        # 4162b4 <__imp_Sleep>
  407d1a:	ff d0                	call   rax
  407d1c:	48 8d 0d da 96 00 00 	lea    rcx,[rip+0x96da]        # 4113fd <.rdata+0x3fd>
  407d23:	e8 5b 98 ff ff       	call   401583 <printf>
  407d28:	48 8d 95 40 2a 00 00 	lea    rdx,[rbp+0x2a40]
  407d2f:	48 8b 85 10 4c 00 00 	mov    rax,QWORD PTR [rbp+0x4c10]
  407d36:	48 c7 44 24 20 00 00 	mov    QWORD PTR [rsp+0x20],0x0
  407d3d:	00 00 
  407d3f:	41 b9 00 00 00 00    	mov    r9d,0x0
  407d45:	41 b8 05 00 00 00    	mov    r8d,0x5
  407d4b:	48 89 c1             	mov    rcx,rax
  407d4e:	48 8b 05 87 e5 00 00 	mov    rax,QWORD PTR [rip+0xe587]        # 4162dc <__imp_WriteFile>
  407d55:	ff d0                	call   rax
  407d57:	b9 03 00 00 00       	mov    ecx,0x3
  407d5c:	48 8b 05 51 e5 00 00 	mov    rax,QWORD PTR [rip+0xe551]        # 4162b4 <__imp_Sleep>
  407d63:	ff d0                	call   rax
  407d65:	48 8d 0d 91 96 00 00 	lea    rcx,[rip+0x9691]        # 4113fd <.rdata+0x3fd>
  407d6c:	e8 12 98 ff ff       	call   401583 <printf>
  407d71:	48 8d 95 30 29 00 00 	lea    rdx,[rbp+0x2930]
  407d78:	48 8b 85 10 4c 00 00 	mov    rax,QWORD PTR [rbp+0x4c10]
  407d7f:	48 c7 44 24 20 00 00 	mov    QWORD PTR [rsp+0x20],0x0
  407d86:	00 00 
  407d88:	41 b9 00 00 00 00    	mov    r9d,0x0
  407d8e:	41 b8 ff 00 00 00    	mov    r8d,0xff
  407d94:	48 89 c1             	mov    rcx,rax
  407d97:	48 8b 05 3e e5 00 00 	mov    rax,QWORD PTR [rip+0xe53e]        # 4162dc <__imp_WriteFile>
  407d9e:	ff d0                	call   rax
  407da0:	b9 3c 00 00 00       	mov    ecx,0x3c
  407da5:	48 8b 05 08 e5 00 00 	mov    rax,QWORD PTR [rip+0xe508]        # 4162b4 <__imp_Sleep>
  407dac:	ff d0                	call   rax
  407dae:	48 8d 0d 48 96 00 00 	lea    rcx,[rip+0x9648]        # 4113fd <.rdata+0x3fd>
  407db5:	e8 c9 97 ff ff       	call   401583 <printf>
  407dba:	48 8d 95 20 28 00 00 	lea    rdx,[rbp+0x2820]
  407dc1:	48 8b 85 10 4c 00 00 	mov    rax,QWORD PTR [rbp+0x4c10]
  407dc8:	48 c7 44 24 20 00 00 	mov    QWORD PTR [rsp+0x20],0x0
  407dcf:	00 00 
  407dd1:	41 b9 00 00 00 00    	mov    r9d,0x0
  407dd7:	41 b8 05 00 00 00    	mov    r8d,0x5
  407ddd:	48 89 c1             	mov    rcx,rax
  407de0:	48 8b 05 f5 e4 00 00 	mov    rax,QWORD PTR [rip+0xe4f5]        # 4162dc <__imp_WriteFile>
  407de7:	ff d0                	call   rax
  407de9:	b9 03 00 00 00       	mov    ecx,0x3
  407dee:	48 8b 05 bf e4 00 00 	mov    rax,QWORD PTR [rip+0xe4bf]        # 4162b4 <__imp_Sleep>
  407df5:	ff d0                	call   rax
  407df7:	48 8d 0d ff 95 00 00 	lea    rcx,[rip+0x95ff]        # 4113fd <.rdata+0x3fd>
  407dfe:	e8 80 97 ff ff       	call   401583 <printf>
  407e03:	48 8d 95 10 27 00 00 	lea    rdx,[rbp+0x2710]
  407e0a:	48 8b 85 10 4c 00 00 	mov    rax,QWORD PTR [rbp+0x4c10]
  407e11:	48 c7 44 24 20 00 00 	mov    QWORD PTR [rsp+0x20],0x0
  407e18:	00 00 
  407e1a:	41 b9 00 00 00 00    	mov    r9d,0x0
  407e20:	41 b8 ff 00 00 00    	mov    r8d,0xff
  407e26:	48 89 c1             	mov    rcx,rax
  407e29:	48 8b 05 ac e4 00 00 	mov    rax,QWORD PTR [rip+0xe4ac]        # 4162dc <__imp_WriteFile>
  407e30:	ff d0                	call   rax
  407e32:	b9 3c 00 00 00       	mov    ecx,0x3c
  407e37:	48 8b 05 76 e4 00 00 	mov    rax,QWORD PTR [rip+0xe476]        # 4162b4 <__imp_Sleep>
  407e3e:	ff d0                	call   rax
  407e40:	48 8d 0d b6 95 00 00 	lea    rcx,[rip+0x95b6]        # 4113fd <.rdata+0x3fd>
  407e47:	e8 37 97 ff ff       	call   401583 <printf>
  407e4c:	48 8d 95 00 26 00 00 	lea    rdx,[rbp+0x2600]
  407e53:	48 8b 85 10 4c 00 00 	mov    rax,QWORD PTR [rbp+0x4c10]
  407e5a:	48 c7 44 24 20 00 00 	mov    QWORD PTR [rsp+0x20],0x0
  407e61:	00 00 
  407e63:	41 b9 00 00 00 00    	mov    r9d,0x0
  407e69:	41 b8 05 00 00 00    	mov    r8d,0x5
  407e6f:	48 89 c1             	mov    rcx,rax
  407e72:	48 8b 05 63 e4 00 00 	mov    rax,QWORD PTR [rip+0xe463]        # 4162dc <__imp_WriteFile>
  407e79:	ff d0                	call   rax
  407e7b:	b9 03 00 00 00       	mov    ecx,0x3
  407e80:	48 8b 05 2d e4 00 00 	mov    rax,QWORD PTR [rip+0xe42d]        # 4162b4 <__imp_Sleep>
  407e87:	ff d0                	call   rax
  407e89:	48 8d 0d 6d 95 00 00 	lea    rcx,[rip+0x956d]        # 4113fd <.rdata+0x3fd>
  407e90:	e8 ee 96 ff ff       	call   401583 <printf>
  407e95:	48 8d 95 f0 24 00 00 	lea    rdx,[rbp+0x24f0]
  407e9c:	48 8b 85 10 4c 00 00 	mov    rax,QWORD PTR [rbp+0x4c10]
  407ea3:	48 c7 44 24 20 00 00 	mov    QWORD PTR [rsp+0x20],0x0
  407eaa:	00 00 
  407eac:	41 b9 00 00 00 00    	mov    r9d,0x0
  407eb2:	41 b8 ff 00 00 00    	mov    r8d,0xff
  407eb8:	48 89 c1             	mov    rcx,rax
  407ebb:	48 8b 05 1a e4 00 00 	mov    rax,QWORD PTR [rip+0xe41a]        # 4162dc <__imp_WriteFile>
  407ec2:	ff d0                	call   rax
  407ec4:	b9 3c 00 00 00       	mov    ecx,0x3c
  407ec9:	48 8b 05 e4 e3 00 00 	mov    rax,QWORD PTR [rip+0xe3e4]        # 4162b4 <__imp_Sleep>
  407ed0:	ff d0                	call   rax
  407ed2:	48 8d 0d 24 95 00 00 	lea    rcx,[rip+0x9524]        # 4113fd <.rdata+0x3fd>
  407ed9:	e8 a5 96 ff ff       	call   401583 <printf>
  407ede:	48 8d 95 e0 23 00 00 	lea    rdx,[rbp+0x23e0]
  407ee5:	48 8b 85 10 4c 00 00 	mov    rax,QWORD PTR [rbp+0x4c10]
  407eec:	48 c7 44 24 20 00 00 	mov    QWORD PTR [rsp+0x20],0x0
  407ef3:	00 00 
  407ef5:	41 b9 00 00 00 00    	mov    r9d,0x0
  407efb:	41 b8 05 00 00 00    	mov    r8d,0x5
  407f01:	48 89 c1             	mov    rcx,rax
  407f04:	48 8b 05 d1 e3 00 00 	mov    rax,QWORD PTR [rip+0xe3d1]        # 4162dc <__imp_WriteFile>
  407f0b:	ff d0                	call   rax
  407f0d:	b9 03 00 00 00       	mov    ecx,0x3
  407f12:	48 8b 05 9b e3 00 00 	mov    rax,QWORD PTR [rip+0xe39b]        # 4162b4 <__imp_Sleep>
  407f19:	ff d0                	call   rax
  407f1b:	48 8d 0d db 94 00 00 	lea    rcx,[rip+0x94db]        # 4113fd <.rdata+0x3fd>
  407f22:	e8 5c 96 ff ff       	call   401583 <printf>
  407f27:	48 8d 95 d0 22 00 00 	lea    rdx,[rbp+0x22d0]
  407f2e:	48 8b 85 10 4c 00 00 	mov    rax,QWORD PTR [rbp+0x4c10]
  407f35:	48 c7 44 24 20 00 00 	mov    QWORD PTR [rsp+0x20],0x0
  407f3c:	00 00 
  407f3e:	41 b9 00 00 00 00    	mov    r9d,0x0
  407f44:	41 b8 ff 00 00 00    	mov    r8d,0xff
  407f4a:	48 89 c1             	mov    rcx,rax
  407f4d:	48 8b 05 88 e3 00 00 	mov    rax,QWORD PTR [rip+0xe388]        # 4162dc <__imp_WriteFile>
  407f54:	ff d0                	call   rax
  407f56:	b9 3c 00 00 00       	mov    ecx,0x3c
  407f5b:	48 8b 05 52 e3 00 00 	mov    rax,QWORD PTR [rip+0xe352]        # 4162b4 <__imp_Sleep>
  407f62:	ff d0                	call   rax
  407f64:	48 8d 0d 92 94 00 00 	lea    rcx,[rip+0x9492]        # 4113fd <.rdata+0x3fd>
  407f6b:	e8 13 96 ff ff       	call   401583 <printf>
  407f70:	48 8d 95 c0 21 00 00 	lea    rdx,[rbp+0x21c0]
  407f77:	48 8b 85 10 4c 00 00 	mov    rax,QWORD PTR [rbp+0x4c10]
  407f7e:	48 c7 44 24 20 00 00 	mov    QWORD PTR [rsp+0x20],0x0
  407f85:	00 00 
  407f87:	41 b9 00 00 00 00    	mov    r9d,0x0
  407f8d:	41 b8 05 00 00 00    	mov    r8d,0x5
  407f93:	48 89 c1             	mov    rcx,rax
  407f96:	48 8b 05 3f e3 00 00 	mov    rax,QWORD PTR [rip+0xe33f]        # 4162dc <__imp_WriteFile>
  407f9d:	ff d0                	call   rax
  407f9f:	b9 03 00 00 00       	mov    ecx,0x3
  407fa4:	48 8b 05 09 e3 00 00 	mov    rax,QWORD PTR [rip+0xe309]        # 4162b4 <__imp_Sleep>
  407fab:	ff d0                	call   rax
  407fad:	48 8d 0d 49 94 00 00 	lea    rcx,[rip+0x9449]        # 4113fd <.rdata+0x3fd>
  407fb4:	e8 ca 95 ff ff       	call   401583 <printf>
  407fb9:	48 8d 95 b0 20 00 00 	lea    rdx,[rbp+0x20b0]
  407fc0:	48 8b 85 10 4c 00 00 	mov    rax,QWORD PTR [rbp+0x4c10]
  407fc7:	48 c7 44 24 20 00 00 	mov    QWORD PTR [rsp+0x20],0x0
  407fce:	00 00 
  407fd0:	41 b9 00 00 00 00    	mov    r9d,0x0
  407fd6:	41 b8 ff 00 00 00    	mov    r8d,0xff
  407fdc:	48 89 c1             	mov    rcx,rax
  407fdf:	48 8b 05 f6 e2 00 00 	mov    rax,QWORD PTR [rip+0xe2f6]        # 4162dc <__imp_WriteFile>
  407fe6:	ff d0                	call   rax
  407fe8:	b9 3c 00 00 00       	mov    ecx,0x3c
  407fed:	48 8b 05 c0 e2 00 00 	mov    rax,QWORD PTR [rip+0xe2c0]        # 4162b4 <__imp_Sleep>
  407ff4:	ff d0                	call   rax
  407ff6:	48 8d 0d 00 94 00 00 	lea    rcx,[rip+0x9400]        # 4113fd <.rdata+0x3fd>
  407ffd:	e8 81 95 ff ff       	call   401583 <printf>
  408002:	48 8d 95 a0 1f 00 00 	lea    rdx,[rbp+0x1fa0]
  408009:	48 8b 85 10 4c 00 00 	mov    rax,QWORD PTR [rbp+0x4c10]
  408010:	48 c7 44 24 20 00 00 	mov    QWORD PTR [rsp+0x20],0x0
  408017:	00 00 
  408019:	41 b9 00 00 00 00    	mov    r9d,0x0
  40801f:	41 b8 05 00 00 00    	mov    r8d,0x5
  408025:	48 89 c1             	mov    rcx,rax
  408028:	48 8b 05 ad e2 00 00 	mov    rax,QWORD PTR [rip+0xe2ad]        # 4162dc <__imp_WriteFile>
  40802f:	ff d0                	call   rax
  408031:	b9 03 00 00 00       	mov    ecx,0x3
  408036:	48 8b 05 77 e2 00 00 	mov    rax,QWORD PTR [rip+0xe277]        # 4162b4 <__imp_Sleep>
  40803d:	ff d0                	call   rax
  40803f:	48 8d 0d b7 93 00 00 	lea    rcx,[rip+0x93b7]        # 4113fd <.rdata+0x3fd>
  408046:	e8 38 95 ff ff       	call   401583 <printf>
  40804b:	48 8d 95 90 1e 00 00 	lea    rdx,[rbp+0x1e90]
  408052:	48 8b 85 10 4c 00 00 	mov    rax,QWORD PTR [rbp+0x4c10]
  408059:	48 c7 44 24 20 00 00 	mov    QWORD PTR [rsp+0x20],0x0
  408060:	00 00 
  408062:	41 b9 00 00 00 00    	mov    r9d,0x0
  408068:	41 b8 ff 00 00 00    	mov    r8d,0xff
  40806e:	48 89 c1             	mov    rcx,rax
  408071:	48 8b 05 64 e2 00 00 	mov    rax,QWORD PTR [rip+0xe264]        # 4162dc <__imp_WriteFile>
  408078:	ff d0                	call   rax
  40807a:	b9 3c 00 00 00       	mov    ecx,0x3c
  40807f:	48 8b 05 2e e2 00 00 	mov    rax,QWORD PTR [rip+0xe22e]        # 4162b4 <__imp_Sleep>
  408086:	ff d0                	call   rax
  408088:	48 8d 0d 6e 93 00 00 	lea    rcx,[rip+0x936e]        # 4113fd <.rdata+0x3fd>
  40808f:	e8 ef 94 ff ff       	call   401583 <printf>
  408094:	48 8d 95 80 1d 00 00 	lea    rdx,[rbp+0x1d80]
  40809b:	48 8b 85 10 4c 00 00 	mov    rax,QWORD PTR [rbp+0x4c10]
  4080a2:	48 c7 44 24 20 00 00 	mov    QWORD PTR [rsp+0x20],0x0
  4080a9:	00 00 
  4080ab:	41 b9 00 00 00 00    	mov    r9d,0x0
  4080b1:	41 b8 05 00 00 00    	mov    r8d,0x5
  4080b7:	48 89 c1             	mov    rcx,rax
  4080ba:	48 8b 05 1b e2 00 00 	mov    rax,QWORD PTR [rip+0xe21b]        # 4162dc <__imp_WriteFile>
  4080c1:	ff d0                	call   rax
  4080c3:	b9 03 00 00 00       	mov    ecx,0x3
  4080c8:	48 8b 05 e5 e1 00 00 	mov    rax,QWORD PTR [rip+0xe1e5]        # 4162b4 <__imp_Sleep>
  4080cf:	ff d0                	call   rax
  4080d1:	48 8d 0d 25 93 00 00 	lea    rcx,[rip+0x9325]        # 4113fd <.rdata+0x3fd>
  4080d8:	e8 a6 94 ff ff       	call   401583 <printf>
  4080dd:	48 8d 95 70 1c 00 00 	lea    rdx,[rbp+0x1c70]
  4080e4:	48 8b 85 10 4c 00 00 	mov    rax,QWORD PTR [rbp+0x4c10]
  4080eb:	48 c7 44 24 20 00 00 	mov    QWORD PTR [rsp+0x20],0x0
  4080f2:	00 00 
  4080f4:	41 b9 00 00 00 00    	mov    r9d,0x0
  4080fa:	41 b8 ff 00 00 00    	mov    r8d,0xff
  408100:	48 89 c1             	mov    rcx,rax
  408103:	48 8b 05 d2 e1 00 00 	mov    rax,QWORD PTR [rip+0xe1d2]        # 4162dc <__imp_WriteFile>
  40810a:	ff d0                	call   rax
  40810c:	b9 3c 00 00 00       	mov    ecx,0x3c
  408111:	48 8b 05 9c e1 00 00 	mov    rax,QWORD PTR [rip+0xe19c]        # 4162b4 <__imp_Sleep>
  408118:	ff d0                	call   rax
  40811a:	48 8d 0d dc 92 00 00 	lea    rcx,[rip+0x92dc]        # 4113fd <.rdata+0x3fd>
  408121:	e8 5d 94 ff ff       	call   401583 <printf>
  408126:	48 8d 95 60 1b 00 00 	lea    rdx,[rbp+0x1b60]
  40812d:	48 8b 85 10 4c 00 00 	mov    rax,QWORD PTR [rbp+0x4c10]
  408134:	48 c7 44 24 20 00 00 	mov    QWORD PTR [rsp+0x20],0x0
  40813b:	00 00 
  40813d:	41 b9 00 00 00 00    	mov    r9d,0x0
  408143:	41 b8 05 00 00 00    	mov    r8d,0x5
  408149:	48 89 c1             	mov    rcx,rax
  40814c:	48 8b 05 89 e1 00 00 	mov    rax,QWORD PTR [rip+0xe189]        # 4162dc <__imp_WriteFile>
  408153:	ff d0                	call   rax
  408155:	b9 03 00 00 00       	mov    ecx,0x3
  40815a:	48 8b 05 53 e1 00 00 	mov    rax,QWORD PTR [rip+0xe153]        # 4162b4 <__imp_Sleep>
  408161:	ff d0                	call   rax
  408163:	48 8d 0d 93 92 00 00 	lea    rcx,[rip+0x9293]        # 4113fd <.rdata+0x3fd>
  40816a:	e8 14 94 ff ff       	call   401583 <printf>
  40816f:	48 8d 95 50 1a 00 00 	lea    rdx,[rbp+0x1a50]
  408176:	48 8b 85 10 4c 00 00 	mov    rax,QWORD PTR [rbp+0x4c10]
  40817d:	48 c7 44 24 20 00 00 	mov    QWORD PTR [rsp+0x20],0x0
  408184:	00 00 
  408186:	41 b9 00 00 00 00    	mov    r9d,0x0
  40818c:	41 b8 ff 00 00 00    	mov    r8d,0xff
  408192:	48 89 c1             	mov    rcx,rax
  408195:	48 8b 05 40 e1 00 00 	mov    rax,QWORD PTR [rip+0xe140]        # 4162dc <__imp_WriteFile>
  40819c:	ff d0                	call   rax
  40819e:	b9 3c 00 00 00       	mov    ecx,0x3c
  4081a3:	48 8b 05 0a e1 00 00 	mov    rax,QWORD PTR [rip+0xe10a]        # 4162b4 <__imp_Sleep>
  4081aa:	ff d0                	call   rax
  4081ac:	48 8d 0d 4a 92 00 00 	lea    rcx,[rip+0x924a]        # 4113fd <.rdata+0x3fd>
  4081b3:	e8 cb 93 ff ff       	call   401583 <printf>
  4081b8:	48 8d 95 40 19 00 00 	lea    rdx,[rbp+0x1940]
  4081bf:	48 8b 85 10 4c 00 00 	mov    rax,QWORD PTR [rbp+0x4c10]
  4081c6:	48 c7 44 24 20 00 00 	mov    QWORD PTR [rsp+0x20],0x0
  4081cd:	00 00 
  4081cf:	41 b9 00 00 00 00    	mov    r9d,0x0
  4081d5:	41 b8 05 00 00 00    	mov    r8d,0x5
  4081db:	48 89 c1             	mov    rcx,rax
  4081de:	48 8b 05 f7 e0 00 00 	mov    rax,QWORD PTR [rip+0xe0f7]        # 4162dc <__imp_WriteFile>
  4081e5:	ff d0                	call   rax
  4081e7:	b9 03 00 00 00       	mov    ecx,0x3
  4081ec:	48 8b 05 c1 e0 00 00 	mov    rax,QWORD PTR [rip+0xe0c1]        # 4162b4 <__imp_Sleep>
  4081f3:	ff d0                	call   rax
  4081f5:	48 8d 0d 01 92 00 00 	lea    rcx,[rip+0x9201]        # 4113fd <.rdata+0x3fd>
  4081fc:	e8 82 93 ff ff       	call   401583 <printf>
  408201:	48 8d 95 30 18 00 00 	lea    rdx,[rbp+0x1830]
  408208:	48 8b 85 10 4c 00 00 	mov    rax,QWORD PTR [rbp+0x4c10]
  40820f:	48 c7 44 24 20 00 00 	mov    QWORD PTR [rsp+0x20],0x0
  408216:	00 00 
  408218:	41 b9 00 00 00 00    	mov    r9d,0x0
  40821e:	41 b8 ff 00 00 00    	mov    r8d,0xff
  408224:	48 89 c1             	mov    rcx,rax
  408227:	48 8b 05 ae e0 00 00 	mov    rax,QWORD PTR [rip+0xe0ae]        # 4162dc <__imp_WriteFile>
  40822e:	ff d0                	call   rax
  408230:	b9 3c 00 00 00       	mov    ecx,0x3c
  408235:	48 8b 05 78 e0 00 00 	mov    rax,QWORD PTR [rip+0xe078]        # 4162b4 <__imp_Sleep>
  40823c:	ff d0                	call   rax
  40823e:	48 8d 0d b8 91 00 00 	lea    rcx,[rip+0x91b8]        # 4113fd <.rdata+0x3fd>
  408245:	e8 39 93 ff ff       	call   401583 <printf>
  40824a:	48 8d 95 20 17 00 00 	lea    rdx,[rbp+0x1720]
  408251:	48 8b 85 10 4c 00 00 	mov    rax,QWORD PTR [rbp+0x4c10]
  408258:	48 c7 44 24 20 00 00 	mov    QWORD PTR [rsp+0x20],0x0
  40825f:	00 00 
  408261:	41 b9 00 00 00 00    	mov    r9d,0x0
  408267:	41 b8 05 00 00 00    	mov    r8d,0x5
  40826d:	48 89 c1             	mov    rcx,rax
  408270:	48 8b 05 65 e0 00 00 	mov    rax,QWORD PTR [rip+0xe065]        # 4162dc <__imp_WriteFile>
  408277:	ff d0                	call   rax
  408279:	b9 03 00 00 00       	mov    ecx,0x3
  40827e:	48 8b 05 2f e0 00 00 	mov    rax,QWORD PTR [rip+0xe02f]        # 4162b4 <__imp_Sleep>
  408285:	ff d0                	call   rax
  408287:	48 8d 0d 6f 91 00 00 	lea    rcx,[rip+0x916f]        # 4113fd <.rdata+0x3fd>
  40828e:	e8 f0 92 ff ff       	call   401583 <printf>
  408293:	48 8d 95 10 16 00 00 	lea    rdx,[rbp+0x1610]
  40829a:	48 8b 85 10 4c 00 00 	mov    rax,QWORD PTR [rbp+0x4c10]
  4082a1:	48 c7 44 24 20 00 00 	mov    QWORD PTR [rsp+0x20],0x0
  4082a8:	00 00 
  4082aa:	41 b9 00 00 00 00    	mov    r9d,0x0
  4082b0:	41 b8 ff 00 00 00    	mov    r8d,0xff
  4082b6:	48 89 c1             	mov    rcx,rax
  4082b9:	48 8b 05 1c e0 00 00 	mov    rax,QWORD PTR [rip+0xe01c]        # 4162dc <__imp_WriteFile>
  4082c0:	ff d0                	call   rax
  4082c2:	b9 3c 00 00 00       	mov    ecx,0x3c
  4082c7:	48 8b 05 e6 df 00 00 	mov    rax,QWORD PTR [rip+0xdfe6]        # 4162b4 <__imp_Sleep>
  4082ce:	ff d0                	call   rax
  4082d0:	48 8d 0d 26 91 00 00 	lea    rcx,[rip+0x9126]        # 4113fd <.rdata+0x3fd>
  4082d7:	e8 a7 92 ff ff       	call   401583 <printf>
  4082dc:	48 8d 95 00 15 00 00 	lea    rdx,[rbp+0x1500]
  4082e3:	48 8b 85 10 4c 00 00 	mov    rax,QWORD PTR [rbp+0x4c10]
  4082ea:	48 c7 44 24 20 00 00 	mov    QWORD PTR [rsp+0x20],0x0
  4082f1:	00 00 
  4082f3:	41 b9 00 00 00 00    	mov    r9d,0x0
  4082f9:	41 b8 05 00 00 00    	mov    r8d,0x5
  4082ff:	48 89 c1             	mov    rcx,rax
  408302:	48 8b 05 d3 df 00 00 	mov    rax,QWORD PTR [rip+0xdfd3]        # 4162dc <__imp_WriteFile>
  408309:	ff d0                	call   rax
  40830b:	b9 03 00 00 00       	mov    ecx,0x3
  408310:	48 8b 05 9d df 00 00 	mov    rax,QWORD PTR [rip+0xdf9d]        # 4162b4 <__imp_Sleep>
  408317:	ff d0                	call   rax
  408319:	48 8d 0d dd 90 00 00 	lea    rcx,[rip+0x90dd]        # 4113fd <.rdata+0x3fd>
  408320:	e8 5e 92 ff ff       	call   401583 <printf>
  408325:	48 8d 95 f0 13 00 00 	lea    rdx,[rbp+0x13f0]
  40832c:	48 8b 85 10 4c 00 00 	mov    rax,QWORD PTR [rbp+0x4c10]
  408333:	48 c7 44 24 20 00 00 	mov    QWORD PTR [rsp+0x20],0x0
  40833a:	00 00 
  40833c:	41 b9 00 00 00 00    	mov    r9d,0x0
  408342:	41 b8 ff 00 00 00    	mov    r8d,0xff
  408348:	48 89 c1             	mov    rcx,rax
  40834b:	48 8b 05 8a df 00 00 	mov    rax,QWORD PTR [rip+0xdf8a]        # 4162dc <__imp_WriteFile>
  408352:	ff d0                	call   rax
  408354:	b9 3c 00 00 00       	mov    ecx,0x3c
  408359:	48 8b 05 54 df 00 00 	mov    rax,QWORD PTR [rip+0xdf54]        # 4162b4 <__imp_Sleep>
  408360:	ff d0                	call   rax
  408362:	48 8d 0d 94 90 00 00 	lea    rcx,[rip+0x9094]        # 4113fd <.rdata+0x3fd>
  408369:	e8 15 92 ff ff       	call   401583 <printf>
  40836e:	48 8d 95 e0 12 00 00 	lea    rdx,[rbp+0x12e0]
  408375:	48 8b 85 10 4c 00 00 	mov    rax,QWORD PTR [rbp+0x4c10]
  40837c:	48 c7 44 24 20 00 00 	mov    QWORD PTR [rsp+0x20],0x0
  408383:	00 00 
  408385:	41 b9 00 00 00 00    	mov    r9d,0x0
  40838b:	41 b8 05 00 00 00    	mov    r8d,0x5
  408391:	48 89 c1             	mov    rcx,rax
  408394:	48 8b 05 41 df 00 00 	mov    rax,QWORD PTR [rip+0xdf41]        # 4162dc <__imp_WriteFile>
  40839b:	ff d0                	call   rax
  40839d:	b9 03 00 00 00       	mov    ecx,0x3
  4083a2:	48 8b 05 0b df 00 00 	mov    rax,QWORD PTR [rip+0xdf0b]        # 4162b4 <__imp_Sleep>
  4083a9:	ff d0                	call   rax
  4083ab:	48 8d 0d 4b 90 00 00 	lea    rcx,[rip+0x904b]        # 4113fd <.rdata+0x3fd>
  4083b2:	e8 cc 91 ff ff       	call   401583 <printf>
  4083b7:	48 8d 95 d0 11 00 00 	lea    rdx,[rbp+0x11d0]
  4083be:	48 8b 85 10 4c 00 00 	mov    rax,QWORD PTR [rbp+0x4c10]
  4083c5:	48 c7 44 24 20 00 00 	mov    QWORD PTR [rsp+0x20],0x0
  4083cc:	00 00 
  4083ce:	41 b9 00 00 00 00    	mov    r9d,0x0
  4083d4:	41 b8 ff 00 00 00    	mov    r8d,0xff
  4083da:	48 89 c1             	mov    rcx,rax
  4083dd:	48 8b 05 f8 de 00 00 	mov    rax,QWORD PTR [rip+0xdef8]        # 4162dc <__imp_WriteFile>
  4083e4:	ff d0                	call   rax
  4083e6:	b9 3c 00 00 00       	mov    ecx,0x3c
  4083eb:	48 8b 05 c2 de 00 00 	mov    rax,QWORD PTR [rip+0xdec2]        # 4162b4 <__imp_Sleep>
  4083f2:	ff d0                	call   rax
  4083f4:	48 8d 0d 02 90 00 00 	lea    rcx,[rip+0x9002]        # 4113fd <.rdata+0x3fd>
  4083fb:	e8 83 91 ff ff       	call   401583 <printf>
  408400:	48 8d 95 c0 10 00 00 	lea    rdx,[rbp+0x10c0]
  408407:	48 8b 85 10 4c 00 00 	mov    rax,QWORD PTR [rbp+0x4c10]
  40840e:	48 c7 44 24 20 00 00 	mov    QWORD PTR [rsp+0x20],0x0
  408415:	00 00 
  408417:	41 b9 00 00 00 00    	mov    r9d,0x0
  40841d:	41 b8 05 00 00 00    	mov    r8d,0x5
  408423:	48 89 c1             	mov    rcx,rax
  408426:	48 8b 05 af de 00 00 	mov    rax,QWORD PTR [rip+0xdeaf]        # 4162dc <__imp_WriteFile>
  40842d:	ff d0                	call   rax
  40842f:	b9 03 00 00 00       	mov    ecx,0x3
  408434:	48 8b 05 79 de 00 00 	mov    rax,QWORD PTR [rip+0xde79]        # 4162b4 <__imp_Sleep>
  40843b:	ff d0                	call   rax
  40843d:	48 8d 0d b9 8f 00 00 	lea    rcx,[rip+0x8fb9]        # 4113fd <.rdata+0x3fd>
  408444:	e8 3a 91 ff ff       	call   401583 <printf>
  408449:	48 8d 95 b0 0f 00 00 	lea    rdx,[rbp+0xfb0]
  408450:	48 8b 85 10 4c 00 00 	mov    rax,QWORD PTR [rbp+0x4c10]
  408457:	48 c7 44 24 20 00 00 	mov    QWORD PTR [rsp+0x20],0x0
  40845e:	00 00 
  408460:	41 b9 00 00 00 00    	mov    r9d,0x0
  408466:	41 b8 ff 00 00 00    	mov    r8d,0xff
  40846c:	48 89 c1             	mov    rcx,rax
  40846f:	48 8b 05 66 de 00 00 	mov    rax,QWORD PTR [rip+0xde66]        # 4162dc <__imp_WriteFile>
  408476:	ff d0                	call   rax
  408478:	b9 3c 00 00 00       	mov    ecx,0x3c
  40847d:	48 8b 05 30 de 00 00 	mov    rax,QWORD PTR [rip+0xde30]        # 4162b4 <__imp_Sleep>
  408484:	ff d0                	call   rax
  408486:	48 8d 0d 70 8f 00 00 	lea    rcx,[rip+0x8f70]        # 4113fd <.rdata+0x3fd>
  40848d:	e8 f1 90 ff ff       	call   401583 <printf>
  408492:	48 8d 95 a0 0e 00 00 	lea    rdx,[rbp+0xea0]
  408499:	48 8b 85 10 4c 00 00 	mov    rax,QWORD PTR [rbp+0x4c10]
  4084a0:	48 c7 44 24 20 00 00 	mov    QWORD PTR [rsp+0x20],0x0
  4084a7:	00 00 
  4084a9:	41 b9 00 00 00 00    	mov    r9d,0x0
  4084af:	41 b8 05 00 00 00    	mov    r8d,0x5
  4084b5:	48 89 c1             	mov    rcx,rax
  4084b8:	48 8b 05 1d de 00 00 	mov    rax,QWORD PTR [rip+0xde1d]        # 4162dc <__imp_WriteFile>
  4084bf:	ff d0                	call   rax
  4084c1:	b9 03 00 00 00       	mov    ecx,0x3
  4084c6:	48 8b 05 e7 dd 00 00 	mov    rax,QWORD PTR [rip+0xdde7]        # 4162b4 <__imp_Sleep>
  4084cd:	ff d0                	call   rax
  4084cf:	48 8d 0d 27 8f 00 00 	lea    rcx,[rip+0x8f27]        # 4113fd <.rdata+0x3fd>
  4084d6:	e8 a8 90 ff ff       	call   401583 <printf>
  4084db:	48 8d 95 90 0d 00 00 	lea    rdx,[rbp+0xd90]
  4084e2:	48 8b 85 10 4c 00 00 	mov    rax,QWORD PTR [rbp+0x4c10]
  4084e9:	48 c7 44 24 20 00 00 	mov    QWORD PTR [rsp+0x20],0x0
  4084f0:	00 00 
  4084f2:	41 b9 00 00 00 00    	mov    r9d,0x0
  4084f8:	41 b8 ff 00 00 00    	mov    r8d,0xff
  4084fe:	48 89 c1             	mov    rcx,rax
  408501:	48 8b 05 d4 dd 00 00 	mov    rax,QWORD PTR [rip+0xddd4]        # 4162dc <__imp_WriteFile>
  408508:	ff d0                	call   rax
  40850a:	b9 3c 00 00 00       	mov    ecx,0x3c
  40850f:	48 8b 05 9e dd 00 00 	mov    rax,QWORD PTR [rip+0xdd9e]        # 4162b4 <__imp_Sleep>
  408516:	ff d0                	call   rax
  408518:	48 8d 0d de 8e 00 00 	lea    rcx,[rip+0x8ede]        # 4113fd <.rdata+0x3fd>
  40851f:	e8 5f 90 ff ff       	call   401583 <printf>
  408524:	48 8d 95 80 0c 00 00 	lea    rdx,[rbp+0xc80]
  40852b:	48 8b 85 10 4c 00 00 	mov    rax,QWORD PTR [rbp+0x4c10]
  408532:	48 c7 44 24 20 00 00 	mov    QWORD PTR [rsp+0x20],0x0
  408539:	00 00 
  40853b:	41 b9 00 00 00 00    	mov    r9d,0x0
  408541:	41 b8 05 00 00 00    	mov    r8d,0x5
  408547:	48 89 c1             	mov    rcx,rax
  40854a:	48 8b 05 8b dd 00 00 	mov    rax,QWORD PTR [rip+0xdd8b]        # 4162dc <__imp_WriteFile>
  408551:	ff d0                	call   rax
  408553:	b9 03 00 00 00       	mov    ecx,0x3
  408558:	48 8b 05 55 dd 00 00 	mov    rax,QWORD PTR [rip+0xdd55]        # 4162b4 <__imp_Sleep>
  40855f:	ff d0                	call   rax
  408561:	48 8d 0d 95 8e 00 00 	lea    rcx,[rip+0x8e95]        # 4113fd <.rdata+0x3fd>
  408568:	e8 16 90 ff ff       	call   401583 <printf>
  40856d:	48 8d 95 70 0b 00 00 	lea    rdx,[rbp+0xb70]
  408574:	48 8b 85 10 4c 00 00 	mov    rax,QWORD PTR [rbp+0x4c10]
  40857b:	48 c7 44 24 20 00 00 	mov    QWORD PTR [rsp+0x20],0x0
  408582:	00 00 
  408584:	41 b9 00 00 00 00    	mov    r9d,0x0
  40858a:	41 b8 ff 00 00 00    	mov    r8d,0xff
  408590:	48 89 c1             	mov    rcx,rax
  408593:	48 8b 05 42 dd 00 00 	mov    rax,QWORD PTR [rip+0xdd42]        # 4162dc <__imp_WriteFile>
  40859a:	ff d0                	call   rax
  40859c:	b9 3c 00 00 00       	mov    ecx,0x3c
  4085a1:	48 8b 05 0c dd 00 00 	mov    rax,QWORD PTR [rip+0xdd0c]        # 4162b4 <__imp_Sleep>
  4085a8:	ff d0                	call   rax
  4085aa:	48 8d 0d 4c 8e 00 00 	lea    rcx,[rip+0x8e4c]        # 4113fd <.rdata+0x3fd>
  4085b1:	e8 cd 8f ff ff       	call   401583 <printf>
  4085b6:	48 8d 95 60 0a 00 00 	lea    rdx,[rbp+0xa60]
  4085bd:	48 8b 85 10 4c 00 00 	mov    rax,QWORD PTR [rbp+0x4c10]
  4085c4:	48 c7 44 24 20 00 00 	mov    QWORD PTR [rsp+0x20],0x0
  4085cb:	00 00 
  4085cd:	41 b9 00 00 00 00    	mov    r9d,0x0
  4085d3:	41 b8 05 00 00 00    	mov    r8d,0x5
  4085d9:	48 89 c1             	mov    rcx,rax
  4085dc:	48 8b 05 f9 dc 00 00 	mov    rax,QWORD PTR [rip+0xdcf9]        # 4162dc <__imp_WriteFile>
  4085e3:	ff d0                	call   rax
  4085e5:	b9 03 00 00 00       	mov    ecx,0x3
  4085ea:	48 8b 05 c3 dc 00 00 	mov    rax,QWORD PTR [rip+0xdcc3]        # 4162b4 <__imp_Sleep>
  4085f1:	ff d0                	call   rax
  4085f3:	48 8d 0d 03 8e 00 00 	lea    rcx,[rip+0x8e03]        # 4113fd <.rdata+0x3fd>
  4085fa:	e8 84 8f ff ff       	call   401583 <printf>
  4085ff:	48 8d 95 50 09 00 00 	lea    rdx,[rbp+0x950]
  408606:	48 8b 85 10 4c 00 00 	mov    rax,QWORD PTR [rbp+0x4c10]
  40860d:	48 c7 44 24 20 00 00 	mov    QWORD PTR [rsp+0x20],0x0
  408614:	00 00 
  408616:	41 b9 00 00 00 00    	mov    r9d,0x0
  40861c:	41 b8 1c 00 00 00    	mov    r8d,0x1c
  408622:	48 89 c1             	mov    rcx,rax
  408625:	48 8b 05 b0 dc 00 00 	mov    rax,QWORD PTR [rip+0xdcb0]        # 4162dc <__imp_WriteFile>
  40862c:	ff d0                	call   rax
  40862e:	b9 3c 00 00 00       	mov    ecx,0x3c
  408633:	48 8b 05 7a dc 00 00 	mov    rax,QWORD PTR [rip+0xdc7a]        # 4162b4 <__imp_Sleep>
  40863a:	ff d0                	call   rax
  40863c:	48 8d 0d ba 8d 00 00 	lea    rcx,[rip+0x8dba]        # 4113fd <.rdata+0x3fd>
  408643:	e8 3b 8f ff ff       	call   401583 <printf>
  408648:	48 8d 95 40 08 00 00 	lea    rdx,[rbp+0x840]
  40864f:	48 8b 85 10 4c 00 00 	mov    rax,QWORD PTR [rbp+0x4c10]
  408656:	48 c7 44 24 20 00 00 	mov    QWORD PTR [rsp+0x20],0x0
  40865d:	00 00 
  40865f:	41 b9 00 00 00 00    	mov    r9d,0x0
  408665:	41 b8 05 00 00 00    	mov    r8d,0x5
  40866b:	48 89 c1             	mov    rcx,rax
  40866e:	48 8b 05 67 dc 00 00 	mov    rax,QWORD PTR [rip+0xdc67]        # 4162dc <__imp_WriteFile>
  408675:	ff d0                	call   rax
  408677:	b9 03 00 00 00       	mov    ecx,0x3
  40867c:	48 8b 05 31 dc 00 00 	mov    rax,QWORD PTR [rip+0xdc31]        # 4162b4 <__imp_Sleep>
  408683:	ff d0                	call   rax
  408685:	48 8d 0d 71 8d 00 00 	lea    rcx,[rip+0x8d71]        # 4113fd <.rdata+0x3fd>
  40868c:	e8 f2 8e ff ff       	call   401583 <printf>
  408691:	48 8d 95 30 07 00 00 	lea    rdx,[rbp+0x730]
  408698:	48 8b 85 10 4c 00 00 	mov    rax,QWORD PTR [rbp+0x4c10]
  40869f:	48 c7 44 24 20 00 00 	mov    QWORD PTR [rsp+0x20],0x0
  4086a6:	00 00 
  4086a8:	41 b9 00 00 00 00    	mov    r9d,0x0
  4086ae:	41 b8 05 00 00 00    	mov    r8d,0x5
  4086b4:	48 89 c1             	mov    rcx,rax
  4086b7:	48 8b 05 1e dc 00 00 	mov    rax,QWORD PTR [rip+0xdc1e]        # 4162dc <__imp_WriteFile>
  4086be:	ff d0                	call   rax
  4086c0:	b9 03 00 00 00       	mov    ecx,0x3
  4086c5:	48 8b 05 e8 db 00 00 	mov    rax,QWORD PTR [rip+0xdbe8]        # 4162b4 <__imp_Sleep>
  4086cc:	ff d0                	call   rax
  4086ce:	48 8d 0d 28 8d 00 00 	lea    rcx,[rip+0x8d28]        # 4113fd <.rdata+0x3fd>
  4086d5:	e8 a9 8e ff ff       	call   401583 <printf>
  4086da:	48 8d 95 20 06 00 00 	lea    rdx,[rbp+0x620]
  4086e1:	48 8b 85 10 4c 00 00 	mov    rax,QWORD PTR [rbp+0x4c10]
  4086e8:	48 c7 44 24 20 00 00 	mov    QWORD PTR [rsp+0x20],0x0
  4086ef:	00 00 
  4086f1:	41 b9 00 00 00 00    	mov    r9d,0x0
  4086f7:	41 b8 80 00 00 00    	mov    r8d,0x80
  4086fd:	48 89 c1             	mov    rcx,rax
  408700:	48 8b 05 d5 db 00 00 	mov    rax,QWORD PTR [rip+0xdbd5]        # 4162dc <__imp_WriteFile>
  408707:	ff d0                	call   rax
  408709:	b9 3c 00 00 00       	mov    ecx,0x3c
  40870e:	48 8b 05 9f db 00 00 	mov    rax,QWORD PTR [rip+0xdb9f]        # 4162b4 <__imp_Sleep>
  408715:	ff d0                	call   rax
  408717:	48 8d 0d df 8c 00 00 	lea    rcx,[rip+0x8cdf]        # 4113fd <.rdata+0x3fd>
  40871e:	e8 60 8e ff ff       	call   401583 <printf>
  408723:	48 8d 95 10 05 00 00 	lea    rdx,[rbp+0x510]
  40872a:	48 8b 85 10 4c 00 00 	mov    rax,QWORD PTR [rbp+0x4c10]
  408731:	48 c7 44 24 20 00 00 	mov    QWORD PTR [rsp+0x20],0x0
  408738:	00 00 
  40873a:	41 b9 00 00 00 00    	mov    r9d,0x0
  408740:	41 b8 05 00 00 00    	mov    r8d,0x5
  408746:	48 89 c1             	mov    rcx,rax
  408749:	48 8b 05 8c db 00 00 	mov    rax,QWORD PTR [rip+0xdb8c]        # 4162dc <__imp_WriteFile>
  408750:	ff d0                	call   rax
  408752:	b9 03 00 00 00       	mov    ecx,0x3
  408757:	48 8b 05 56 db 00 00 	mov    rax,QWORD PTR [rip+0xdb56]        # 4162b4 <__imp_Sleep>
  40875e:	ff d0                	call   rax
  408760:	48 8d 0d 96 8c 00 00 	lea    rcx,[rip+0x8c96]        # 4113fd <.rdata+0x3fd>
  408767:	e8 17 8e ff ff       	call   401583 <printf>
  40876c:	48 8d 95 00 04 00 00 	lea    rdx,[rbp+0x400]
  408773:	48 8b 85 10 4c 00 00 	mov    rax,QWORD PTR [rbp+0x4c10]
  40877a:	48 c7 44 24 20 00 00 	mov    QWORD PTR [rsp+0x20],0x0
  408781:	00 00 
  408783:	41 b9 00 00 00 00    	mov    r9d,0x0
  408789:	41 b8 80 00 00 00    	mov    r8d,0x80
  40878f:	48 89 c1             	mov    rcx,rax
  408792:	48 8b 05 43 db 00 00 	mov    rax,QWORD PTR [rip+0xdb43]        # 4162dc <__imp_WriteFile>
  408799:	ff d0                	call   rax
  40879b:	b9 3c 00 00 00       	mov    ecx,0x3c
  4087a0:	48 8b 05 0d db 00 00 	mov    rax,QWORD PTR [rip+0xdb0d]        # 4162b4 <__imp_Sleep>
  4087a7:	ff d0                	call   rax
  4087a9:	48 8d 0d 4d 8c 00 00 	lea    rcx,[rip+0x8c4d]        # 4113fd <.rdata+0x3fd>
  4087b0:	e8 ce 8d ff ff       	call   401583 <printf>
  4087b5:	48 8d 95 f0 02 00 00 	lea    rdx,[rbp+0x2f0]
  4087bc:	48 8b 85 10 4c 00 00 	mov    rax,QWORD PTR [rbp+0x4c10]
  4087c3:	48 c7 44 24 20 00 00 	mov    QWORD PTR [rsp+0x20],0x0
  4087ca:	00 00 
  4087cc:	41 b9 00 00 00 00    	mov    r9d,0x0
  4087d2:	41 b8 05 00 00 00    	mov    r8d,0x5
  4087d8:	48 89 c1             	mov    rcx,rax
  4087db:	48 8b 05 fa da 00 00 	mov    rax,QWORD PTR [rip+0xdafa]        # 4162dc <__imp_WriteFile>
  4087e2:	ff d0                	call   rax
  4087e4:	b9 03 00 00 00       	mov    ecx,0x3
  4087e9:	48 8b 05 c4 da 00 00 	mov    rax,QWORD PTR [rip+0xdac4]        # 4162b4 <__imp_Sleep>
  4087f0:	ff d0                	call   rax
  4087f2:	48 8d 0d 04 8c 00 00 	lea    rcx,[rip+0x8c04]        # 4113fd <.rdata+0x3fd>
  4087f9:	e8 85 8d ff ff       	call   401583 <printf>
  4087fe:	48 8d 95 e0 01 00 00 	lea    rdx,[rbp+0x1e0]
  408805:	48 8b 85 10 4c 00 00 	mov    rax,QWORD PTR [rbp+0x4c10]
  40880c:	48 c7 44 24 20 00 00 	mov    QWORD PTR [rsp+0x20],0x0
  408813:	00 00 
  408815:	41 b9 00 00 00 00    	mov    r9d,0x0
  40881b:	41 b8 80 00 00 00    	mov    r8d,0x80
  408821:	48 89 c1             	mov    rcx,rax
  408824:	48 8b 05 b1 da 00 00 	mov    rax,QWORD PTR [rip+0xdab1]        # 4162dc <__imp_WriteFile>
  40882b:	ff d0                	call   rax
  40882d:	b9 3c 00 00 00       	mov    ecx,0x3c
  408832:	48 8b 05 7b da 00 00 	mov    rax,QWORD PTR [rip+0xda7b]        # 4162b4 <__imp_Sleep>
  408839:	ff d0                	call   rax
  40883b:	48 8d 0d bb 8b 00 00 	lea    rcx,[rip+0x8bbb]        # 4113fd <.rdata+0x3fd>
  408842:	e8 3c 8d ff ff       	call   401583 <printf>
  408847:	48 8d 95 d0 00 00 00 	lea    rdx,[rbp+0xd0]
  40884e:	48 8b 85 10 4c 00 00 	mov    rax,QWORD PTR [rbp+0x4c10]
  408855:	48 c7 44 24 20 00 00 	mov    QWORD PTR [rsp+0x20],0x0
  40885c:	00 00 
  40885e:	41 b9 00 00 00 00    	mov    r9d,0x0
  408864:	41 b8 05 00 00 00    	mov    r8d,0x5
  40886a:	48 89 c1             	mov    rcx,rax
  40886d:	48 8b 05 68 da 00 00 	mov    rax,QWORD PTR [rip+0xda68]        # 4162dc <__imp_WriteFile>
  408874:	ff d0                	call   rax
  408876:	b9 03 00 00 00       	mov    ecx,0x3
  40887b:	48 8b 05 32 da 00 00 	mov    rax,QWORD PTR [rip+0xda32]        # 4162b4 <__imp_Sleep>
  408882:	ff d0                	call   rax
  408884:	48 8d 0d 72 8b 00 00 	lea    rcx,[rip+0x8b72]        # 4113fd <.rdata+0x3fd>
  40888b:	e8 f3 8c ff ff       	call   401583 <printf>
  408890:	48 8d 55 c0          	lea    rdx,[rbp-0x40]
  408894:	48 8b 85 10 4c 00 00 	mov    rax,QWORD PTR [rbp+0x4c10]
  40889b:	48 c7 44 24 20 00 00 	mov    QWORD PTR [rsp+0x20],0x0
  4088a2:	00 00 
  4088a4:	41 b9 00 00 00 00    	mov    r9d,0x0
  4088aa:	41 b8 80 00 00 00    	mov    r8d,0x80
  4088b0:	48 89 c1             	mov    rcx,rax
  4088b3:	48 8b 05 22 da 00 00 	mov    rax,QWORD PTR [rip+0xda22]        # 4162dc <__imp_WriteFile>
  4088ba:	ff d0                	call   rax
  4088bc:	b9 3c 00 00 00       	mov    ecx,0x3c
  4088c1:	48 8b 05 ec d9 00 00 	mov    rax,QWORD PTR [rip+0xd9ec]        # 4162b4 <__imp_Sleep>
  4088c8:	ff d0                	call   rax
  4088ca:	48 8d 0d 2c 8b 00 00 	lea    rcx,[rip+0x8b2c]        # 4113fd <.rdata+0x3fd>
  4088d1:	e8 ad 8c ff ff       	call   401583 <printf>
  4088d6:	48 8d 0d 22 8b 00 00 	lea    rcx,[rip+0x8b22]        # 4113ff <.rdata+0x3ff>
  4088dd:	e8 a1 8c ff ff       	call   401583 <printf>
  4088e2:	48 8d 0d 1b 8b 00 00 	lea    rcx,[rip+0x8b1b]        # 411404 <.rdata+0x404>
  4088e9:	e8 95 8c ff ff       	call   401583 <printf>
  4088ee:	c7 85 2c 4c 00 00 00 	mov    DWORD PTR [rbp+0x4c2c],0x0
  4088f5:	00 00 00 
  4088f8:	e9 ca 00 00 00       	jmp    4089c7 <main+0x733a>
  4088fd:	b9 c8 00 00 00       	mov    ecx,0xc8
  408902:	48 8b 05 ab d9 00 00 	mov    rax,QWORD PTR [rip+0xd9ab]        # 4162b4 <__imp_Sleep>
  408909:	ff d0                	call   rax
  40890b:	0f b6 85 f9 4b 00 00 	movzx  eax,BYTE PTR [rbp+0x4bf9]
  408912:	83 e0 cf             	and    eax,0xffffffcf
  408915:	83 c8 10             	or     eax,0x10
  408918:	88 85 f9 4b 00 00    	mov    BYTE PTR [rbp+0x4bf9],al
  40891e:	48 8d 95 f0 4b 00 00 	lea    rdx,[rbp+0x4bf0]
  408925:	48 8b 85 10 4c 00 00 	mov    rax,QWORD PTR [rbp+0x4c10]
  40892c:	48 89 c1             	mov    rcx,rax
  40892f:	48 8b 05 66 d9 00 00 	mov    rax,QWORD PTR [rip+0xd966]        # 41629c <__imp_SetCommState>
  408936:	ff d0                	call   rax
  408938:	89 85 0c 4c 00 00    	mov    DWORD PTR [rbp+0x4c0c],eax
  40893e:	48 8d 0d b8 8a 00 00 	lea    rcx,[rip+0x8ab8]        # 4113fd <.rdata+0x3fd>
  408945:	e8 39 8c ff ff       	call   401583 <printf>
  40894a:	b9 64 00 00 00       	mov    ecx,0x64
  40894f:	48 8b 05 5e d9 00 00 	mov    rax,QWORD PTR [rip+0xd95e]        # 4162b4 <__imp_Sleep>
  408956:	ff d0                	call   rax
  408958:	0f b6 85 f9 4b 00 00 	movzx  eax,BYTE PTR [rbp+0x4bf9]
  40895f:	83 e0 cf             	and    eax,0xffffffcf
  408962:	88 85 f9 4b 00 00    	mov    BYTE PTR [rbp+0x4bf9],al
  408968:	48 8d 95 f0 4b 00 00 	lea    rdx,[rbp+0x4bf0]
  40896f:	48 8b 85 10 4c 00 00 	mov    rax,QWORD PTR [rbp+0x4c10]
  408976:	48 89 c1             	mov    rcx,rax
  408979:	48 8b 05 1c d9 00 00 	mov    rax,QWORD PTR [rip+0xd91c]        # 41629c <__imp_SetCommState>
  408980:	ff d0                	call   rax
  408982:	89 85 0c 4c 00 00    	mov    DWORD PTR [rbp+0x4c0c],eax
  408988:	83 bd 2c 4c 00 00 02 	cmp    DWORD PTR [rbp+0x4c2c],0x2
  40898f:	7f 2f                	jg     4089c0 <main+0x7333>
  408991:	48 8d 95 46 4b 00 00 	lea    rdx,[rbp+0x4b46]
  408998:	48 8b 85 10 4c 00 00 	mov    rax,QWORD PTR [rbp+0x4c10]
  40899f:	48 c7 44 24 20 00 00 	mov    QWORD PTR [rsp+0x20],0x0
  4089a6:	00 00 
  4089a8:	41 b9 00 00 00 00    	mov    r9d,0x0
  4089ae:	41 b8 04 00 00 00    	mov    r8d,0x4
  4089b4:	48 89 c1             	mov    rcx,rax
  4089b7:	48 8b 05 1e d9 00 00 	mov    rax,QWORD PTR [rip+0xd91e]        # 4162dc <__imp_WriteFile>
  4089be:	ff d0                	call   rax
  4089c0:	83 85 2c 4c 00 00 01 	add    DWORD PTR [rbp+0x4c2c],0x1
  4089c7:	83 bd 2c 4c 00 00 02 	cmp    DWORD PTR [rbp+0x4c2c],0x2
  4089ce:	0f 8e 29 ff ff ff    	jle    4088fd <main+0x7270>
  4089d4:	48 8d 0d 34 8a 00 00 	lea    rcx,[rip+0x8a34]        # 41140f <.rdata+0x40f>
  4089db:	e8 a3 8b ff ff       	call   401583 <printf>
  4089e0:	48 8b 85 10 4c 00 00 	mov    rax,QWORD PTR [rbp+0x4c10]
  4089e7:	48 89 c1             	mov    rcx,rax
  4089ea:	48 8b 05 43 d8 00 00 	mov    rax,QWORD PTR [rip+0xd843]        # 416234 <__IAT_start__>
  4089f1:	ff d0                	call   rax
  4089f3:	eb 01                	jmp    4089f6 <main+0x7369>
  4089f5:	90                   	nop
  4089f6:	48 81 c4 b8 4c 00 00 	add    rsp,0x4cb8
  4089fd:	5f                   	pop    rdi
  4089fe:	5d                   	pop    rbp
  4089ff:	c3                   	ret

0000000000408a00 <__do_global_dtors>:
  408a00:	48 83 ec 28          	sub    rsp,0x28
  408a04:	48 8b 05 05 76 00 00 	mov    rax,QWORD PTR [rip+0x7605]        # 410010 <p.0>
  408a0b:	48 8b 00             	mov    rax,QWORD PTR [rax]
  408a0e:	48 85 c0             	test   rax,rax
  408a11:	74 22                	je     408a35 <__do_global_dtors+0x35>
  408a13:	0f 1f 44 00 00       	nop    DWORD PTR [rax+rax*1+0x0]
  408a18:	ff d0                	call   rax
  408a1a:	48 8b 05 ef 75 00 00 	mov    rax,QWORD PTR [rip+0x75ef]        # 410010 <p.0>
  408a21:	48 8d 50 08          	lea    rdx,[rax+0x8]
  408a25:	48 8b 40 08          	mov    rax,QWORD PTR [rax+0x8]
  408a29:	48 89 15 e0 75 00 00 	mov    QWORD PTR [rip+0x75e0],rdx        # 410010 <p.0>
  408a30:	48 85 c0             	test   rax,rax
  408a33:	75 e3                	jne    408a18 <__do_global_dtors+0x18>
  408a35:	48 83 c4 28          	add    rsp,0x28
  408a39:	c3                   	ret
  408a3a:	66 0f 1f 44 00 00    	nop    WORD PTR [rax+rax*1+0x0]

0000000000408a40 <__do_global_ctors>:
  408a40:	56                   	push   rsi
  408a41:	53                   	push   rbx
  408a42:	48 83 ec 28          	sub    rsp,0x28
  408a46:	48 8b 15 53 90 00 00 	mov    rdx,QWORD PTR [rip+0x9053]        # 411aa0 <.refptr.__CTOR_LIST__>
  408a4d:	48 8b 02             	mov    rax,QWORD PTR [rdx]
  408a50:	89 c1                	mov    ecx,eax
  408a52:	83 f8 ff             	cmp    eax,0xffffffff
  408a55:	74 39                	je     408a90 <__do_global_ctors+0x50>
  408a57:	85 c9                	test   ecx,ecx
  408a59:	74 20                	je     408a7b <__do_global_ctors+0x3b>
  408a5b:	89 c8                	mov    eax,ecx
  408a5d:	83 e9 01             	sub    ecx,0x1
  408a60:	48 8d 1c c2          	lea    rbx,[rdx+rax*8]
  408a64:	48 29 c8             	sub    rax,rcx
  408a67:	48 8d 74 c2 f8       	lea    rsi,[rdx+rax*8-0x8]
  408a6c:	0f 1f 40 00          	nop    DWORD PTR [rax+0x0]
  408a70:	ff 13                	call   QWORD PTR [rbx]
  408a72:	48 83 eb 08          	sub    rbx,0x8
  408a76:	48 39 f3             	cmp    rbx,rsi
  408a79:	75 f5                	jne    408a70 <__do_global_ctors+0x30>
  408a7b:	48 8d 0d 7e ff ff ff 	lea    rcx,[rip+0xffffffffffffff7e]        # 408a00 <__do_global_dtors>
  408a82:	48 83 c4 28          	add    rsp,0x28
  408a86:	5b                   	pop    rbx
  408a87:	5e                   	pop    rsi
  408a88:	e9 73 8a ff ff       	jmp    401500 <atexit>
  408a8d:	0f 1f 00             	nop    DWORD PTR [rax]
  408a90:	31 c0                	xor    eax,eax
  408a92:	66 0f 1f 44 00 00    	nop    WORD PTR [rax+rax*1+0x0]
  408a98:	44 8d 40 01          	lea    r8d,[rax+0x1]
  408a9c:	89 c1                	mov    ecx,eax
  408a9e:	4a 83 3c c2 00       	cmp    QWORD PTR [rdx+r8*8],0x0
  408aa3:	4c 89 c0             	mov    rax,r8
  408aa6:	75 f0                	jne    408a98 <__do_global_ctors+0x58>
  408aa8:	eb ad                	jmp    408a57 <__do_global_ctors+0x17>
  408aaa:	66 0f 1f 44 00 00    	nop    WORD PTR [rax+rax*1+0x0]

0000000000408ab0 <__main>:
  408ab0:	8b 05 8a c5 00 00    	mov    eax,DWORD PTR [rip+0xc58a]        # 415040 <initialized>
  408ab6:	85 c0                	test   eax,eax
  408ab8:	74 06                	je     408ac0 <__main+0x10>
  408aba:	c3                   	ret
  408abb:	0f 1f 44 00 00       	nop    DWORD PTR [rax+rax*1+0x0]
  408ac0:	c7 05 76 c5 00 00 01 	mov    DWORD PTR [rip+0xc576],0x1        # 415040 <initialized>
  408ac7:	00 00 00 
  408aca:	e9 71 ff ff ff       	jmp    408a40 <__do_global_ctors>
  408acf:	90                   	nop

0000000000408ad0 <my_lconv_init>:
  408ad0:	48 ff 25 45 d8 00 00 	rex.W jmp QWORD PTR [rip+0xd845]        # 41631c <__imp___lconv_init>
  408ad7:	90                   	nop
  408ad8:	90                   	nop
  408ad9:	90                   	nop
  408ada:	90                   	nop
  408adb:	90                   	nop
  408adc:	90                   	nop
  408add:	90                   	nop
  408ade:	90                   	nop
  408adf:	90                   	nop

0000000000408ae0 <_setargv>:
  408ae0:	31 c0                	xor    eax,eax
  408ae2:	c3                   	ret
  408ae3:	90                   	nop
  408ae4:	90                   	nop
  408ae5:	90                   	nop
  408ae6:	90                   	nop
  408ae7:	90                   	nop
  408ae8:	90                   	nop
  408ae9:	90                   	nop
  408aea:	90                   	nop
  408aeb:	90                   	nop
  408aec:	90                   	nop
  408aed:	90                   	nop
  408aee:	90                   	nop
  408aef:	90                   	nop

0000000000408af0 <__dyn_tls_dtor>:
  408af0:	48 83 ec 28          	sub    rsp,0x28
  408af4:	83 fa 03             	cmp    edx,0x3
  408af7:	74 17                	je     408b10 <__dyn_tls_dtor+0x20>
  408af9:	85 d2                	test   edx,edx
  408afb:	74 13                	je     408b10 <__dyn_tls_dtor+0x20>
  408afd:	b8 01 00 00 00       	mov    eax,0x1
  408b02:	48 83 c4 28          	add    rsp,0x28
  408b06:	c3                   	ret
  408b07:	66 0f 1f 84 00 00 00 	nop    WORD PTR [rax+rax*1+0x0]
  408b0e:	00 00 
  408b10:	e8 cb 09 00 00       	call   4094e0 <__mingw_TLScallback>
  408b15:	b8 01 00 00 00       	mov    eax,0x1
  408b1a:	48 83 c4 28          	add    rsp,0x28
  408b1e:	c3                   	ret
  408b1f:	90                   	nop

0000000000408b20 <__dyn_tls_init>:
  408b20:	56                   	push   rsi
  408b21:	53                   	push   rbx
  408b22:	48 83 ec 28          	sub    rsp,0x28
  408b26:	48 8b 05 53 8f 00 00 	mov    rax,QWORD PTR [rip+0x8f53]        # 411a80 <.refptr._CRT_MT>
  408b2d:	83 38 02             	cmp    DWORD PTR [rax],0x2
  408b30:	74 06                	je     408b38 <__dyn_tls_init+0x18>
  408b32:	c7 00 02 00 00 00    	mov    DWORD PTR [rax],0x2
  408b38:	83 fa 02             	cmp    edx,0x2
  408b3b:	74 13                	je     408b50 <__dyn_tls_init+0x30>
  408b3d:	83 fa 01             	cmp    edx,0x1
  408b40:	74 4e                	je     408b90 <__dyn_tls_init+0x70>
  408b42:	b8 01 00 00 00       	mov    eax,0x1
  408b47:	48 83 c4 28          	add    rsp,0x28
  408b4b:	5b                   	pop    rbx
  408b4c:	5e                   	pop    rsi
  408b4d:	c3                   	ret
  408b4e:	66 90                	xchg   ax,ax
  408b50:	48 8d 1d 09 e5 00 00 	lea    rbx,[rip+0xe509]        # 417060 <__xd_z>
  408b57:	48 8d 35 02 e5 00 00 	lea    rsi,[rip+0xe502]        # 417060 <__xd_z>
  408b5e:	48 39 de             	cmp    rsi,rbx
  408b61:	74 df                	je     408b42 <__dyn_tls_init+0x22>
  408b63:	0f 1f 44 00 00       	nop    DWORD PTR [rax+rax*1+0x0]
  408b68:	48 8b 03             	mov    rax,QWORD PTR [rbx]
  408b6b:	48 85 c0             	test   rax,rax
  408b6e:	74 02                	je     408b72 <__dyn_tls_init+0x52>
  408b70:	ff d0                	call   rax
  408b72:	48 83 c3 08          	add    rbx,0x8
  408b76:	48 39 de             	cmp    rsi,rbx
  408b79:	75 ed                	jne    408b68 <__dyn_tls_init+0x48>
  408b7b:	b8 01 00 00 00       	mov    eax,0x1
  408b80:	48 83 c4 28          	add    rsp,0x28
  408b84:	5b                   	pop    rbx
  408b85:	5e                   	pop    rsi
  408b86:	c3                   	ret
  408b87:	66 0f 1f 84 00 00 00 	nop    WORD PTR [rax+rax*1+0x0]
  408b8e:	00 00 
  408b90:	e8 4b 09 00 00       	call   4094e0 <__mingw_TLScallback>
  408b95:	b8 01 00 00 00       	mov    eax,0x1
  408b9a:	48 83 c4 28          	add    rsp,0x28
  408b9e:	5b                   	pop    rbx
  408b9f:	5e                   	pop    rsi
  408ba0:	c3                   	ret
  408ba1:	66 66 2e 0f 1f 84 00 	data16 cs nop WORD PTR [rax+rax*1+0x0]
  408ba8:	00 00 00 00 
  408bac:	0f 1f 40 00          	nop    DWORD PTR [rax+0x0]

0000000000408bb0 <__tlregdtor>:
  408bb0:	31 c0                	xor    eax,eax
  408bb2:	c3                   	ret
  408bb3:	90                   	nop
  408bb4:	90                   	nop
  408bb5:	90                   	nop
  408bb6:	90                   	nop
  408bb7:	90                   	nop
  408bb8:	90                   	nop
  408bb9:	90                   	nop
  408bba:	90                   	nop
  408bbb:	90                   	nop
  408bbc:	90                   	nop
  408bbd:	90                   	nop
  408bbe:	90                   	nop
  408bbf:	90                   	nop

0000000000408bc0 <_matherr>:
  408bc0:	56                   	push   rsi
  408bc1:	53                   	push   rbx
  408bc2:	48 83 ec 78          	sub    rsp,0x78
  408bc6:	0f 11 74 24 40       	movups XMMWORD PTR [rsp+0x40],xmm6
  408bcb:	0f 11 7c 24 50       	movups XMMWORD PTR [rsp+0x50],xmm7
  408bd0:	44 0f 11 44 24 60    	movups XMMWORD PTR [rsp+0x60],xmm8
  408bd6:	83 39 06             	cmp    DWORD PTR [rcx],0x6
  408bd9:	0f 87 cd 00 00 00    	ja     408cac <_matherr+0xec>
  408bdf:	8b 01                	mov    eax,DWORD PTR [rcx]
  408be1:	48 8d 15 bc 89 00 00 	lea    rdx,[rip+0x89bc]        # 4115a4 <.rdata+0x124>
  408be8:	48 63 04 82          	movsxd rax,DWORD PTR [rdx+rax*4]
  408bec:	48 01 d0             	add    rax,rdx
  408bef:	ff e0                	jmp    rax
  408bf1:	0f 1f 80 00 00 00 00 	nop    DWORD PTR [rax+0x0]
  408bf8:	48 8d 1d 57 89 00 00 	lea    rbx,[rip+0x8957]        # 411556 <.rdata+0xd6>
  408bff:	f2 44 0f 10 41 20    	movsd  xmm8,QWORD PTR [rcx+0x20]
  408c05:	f2 0f 10 79 18       	movsd  xmm7,QWORD PTR [rcx+0x18]
  408c0a:	f2 0f 10 71 10       	movsd  xmm6,QWORD PTR [rcx+0x10]
  408c0f:	48 8b 71 08          	mov    rsi,QWORD PTR [rcx+0x8]
  408c13:	b9 02 00 00 00       	mov    ecx,0x2
  408c18:	e8 13 62 00 00       	call   40ee30 <__acrt_iob_func>
  408c1d:	f2 44 0f 11 44 24 30 	movsd  QWORD PTR [rsp+0x30],xmm8
  408c24:	49 89 d8             	mov    r8,rbx
  408c27:	48 8d 15 4a 89 00 00 	lea    rdx,[rip+0x894a]        # 411578 <.rdata+0xf8>
  408c2e:	f2 0f 11 7c 24 28    	movsd  QWORD PTR [rsp+0x28],xmm7
  408c34:	48 89 c1             	mov    rcx,rax
  408c37:	49 89 f1             	mov    r9,rsi
  408c3a:	f2 0f 11 74 24 20    	movsd  QWORD PTR [rsp+0x20],xmm6
  408c40:	e8 2b 5c 00 00       	call   40e870 <fprintf>
  408c45:	90                   	nop
  408c46:	0f 10 74 24 40       	movups xmm6,XMMWORD PTR [rsp+0x40]
  408c4b:	0f 10 7c 24 50       	movups xmm7,XMMWORD PTR [rsp+0x50]
  408c50:	31 c0                	xor    eax,eax
  408c52:	44 0f 10 44 24 60    	movups xmm8,XMMWORD PTR [rsp+0x60]
  408c58:	48 83 c4 78          	add    rsp,0x78
  408c5c:	5b                   	pop    rbx
  408c5d:	5e                   	pop    rsi
  408c5e:	c3                   	ret
  408c5f:	90                   	nop
  408c60:	48 8d 1d 29 88 00 00 	lea    rbx,[rip+0x8829]        # 411490 <.rdata+0x10>
  408c67:	eb 96                	jmp    408bff <_matherr+0x3f>
  408c69:	0f 1f 80 00 00 00 00 	nop    DWORD PTR [rax+0x0]
  408c70:	48 8d 1d 59 88 00 00 	lea    rbx,[rip+0x8859]        # 4114d0 <.rdata+0x50>
  408c77:	eb 86                	jmp    408bff <_matherr+0x3f>
  408c79:	0f 1f 80 00 00 00 00 	nop    DWORD PTR [rax+0x0]
  408c80:	48 8d 1d 29 88 00 00 	lea    rbx,[rip+0x8829]        # 4114b0 <.rdata+0x30>
  408c87:	e9 73 ff ff ff       	jmp    408bff <_matherr+0x3f>
  408c8c:	0f 1f 40 00          	nop    DWORD PTR [rax+0x0]
  408c90:	48 8d 1d 89 88 00 00 	lea    rbx,[rip+0x8889]        # 411520 <.rdata+0xa0>
  408c97:	e9 63 ff ff ff       	jmp    408bff <_matherr+0x3f>
  408c9c:	0f 1f 40 00          	nop    DWORD PTR [rax+0x0]
  408ca0:	48 8d 1d 51 88 00 00 	lea    rbx,[rip+0x8851]        # 4114f8 <.rdata+0x78>
  408ca7:	e9 53 ff ff ff       	jmp    408bff <_matherr+0x3f>
  408cac:	48 8d 1d cd 87 00 00 	lea    rbx,[rip+0x87cd]        # 411480 <.rdata>
  408cb3:	e9 47 ff ff ff       	jmp    408bff <_matherr+0x3f>
  408cb8:	90                   	nop
  408cb9:	90                   	nop
  408cba:	90                   	nop
  408cbb:	90                   	nop
  408cbc:	90                   	nop
  408cbd:	90                   	nop
  408cbe:	90                   	nop
  408cbf:	90                   	nop

0000000000408cc0 <_fpreset>:
  408cc0:	db e3                	fninit
  408cc2:	c3                   	ret
  408cc3:	90                   	nop
  408cc4:	90                   	nop
  408cc5:	90                   	nop
  408cc6:	90                   	nop
  408cc7:	90                   	nop
  408cc8:	90                   	nop
  408cc9:	90                   	nop
  408cca:	90                   	nop
  408ccb:	90                   	nop
  408ccc:	90                   	nop
  408ccd:	90                   	nop
  408cce:	90                   	nop
  408ccf:	90                   	nop

0000000000408cd0 <__report_error>:
  408cd0:	41 54                	push   r12
  408cd2:	53                   	push   rbx
  408cd3:	48 83 ec 38          	sub    rsp,0x38
  408cd7:	49 89 cc             	mov    r12,rcx
  408cda:	48 8d 44 24 58       	lea    rax,[rsp+0x58]
  408cdf:	b9 02 00 00 00       	mov    ecx,0x2
  408ce4:	48 89 54 24 58       	mov    QWORD PTR [rsp+0x58],rdx
  408ce9:	4c 89 44 24 60       	mov    QWORD PTR [rsp+0x60],r8
  408cee:	4c 89 4c 24 68       	mov    QWORD PTR [rsp+0x68],r9
  408cf3:	48 89 44 24 28       	mov    QWORD PTR [rsp+0x28],rax
  408cf8:	e8 33 61 00 00       	call   40ee30 <__acrt_iob_func>
  408cfd:	41 b8 1b 00 00 00    	mov    r8d,0x1b
  408d03:	ba 01 00 00 00       	mov    edx,0x1
  408d08:	48 8d 0d b1 88 00 00 	lea    rcx,[rip+0x88b1]        # 4115c0 <.rdata>
  408d0f:	49 89 c1             	mov    r9,rax
  408d12:	e8 39 5b 00 00       	call   40e850 <fwrite>
  408d17:	48 8b 5c 24 28       	mov    rbx,QWORD PTR [rsp+0x28]
  408d1c:	b9 02 00 00 00       	mov    ecx,0x2
  408d21:	e8 0a 61 00 00       	call   40ee30 <__acrt_iob_func>
  408d26:	4c 89 e2             	mov    rdx,r12
  408d29:	48 89 c1             	mov    rcx,rax
  408d2c:	49 89 d8             	mov    r8,rbx
  408d2f:	e8 d4 5a 00 00       	call   40e808 <vfprintf>
  408d34:	e8 5f 5b 00 00       	call   40e898 <abort>
  408d39:	90                   	nop
  408d3a:	66 0f 1f 44 00 00    	nop    WORD PTR [rax+rax*1+0x0]

0000000000408d40 <mark_section_writable>:
  408d40:	41 54                	push   r12
  408d42:	56                   	push   rsi
  408d43:	53                   	push   rbx
  408d44:	48 83 ec 50          	sub    rsp,0x50
  408d48:	48 63 1d 75 c3 00 00 	movsxd rbx,DWORD PTR [rip+0xc375]        # 4150c4 <maxSections>
  408d4f:	49 89 cc             	mov    r12,rcx
  408d52:	85 db                	test   ebx,ebx
  408d54:	0f 8e 16 01 00 00    	jle    408e70 <mark_section_writable+0x130>
  408d5a:	48 8b 05 67 c3 00 00 	mov    rax,QWORD PTR [rip+0xc367]        # 4150c8 <the_secs>
  408d61:	31 c9                	xor    ecx,ecx
  408d63:	48 83 c0 18          	add    rax,0x18
  408d67:	66 0f 1f 84 00 00 00 	nop    WORD PTR [rax+rax*1+0x0]
  408d6e:	00 00 
  408d70:	48 8b 10             	mov    rdx,QWORD PTR [rax]
  408d73:	4c 39 e2             	cmp    rdx,r12
  408d76:	77 14                	ja     408d8c <mark_section_writable+0x4c>
  408d78:	4c 8b 40 08          	mov    r8,QWORD PTR [rax+0x8]
  408d7c:	45 8b 40 08          	mov    r8d,DWORD PTR [r8+0x8]
  408d80:	4c 01 c2             	add    rdx,r8
  408d83:	49 39 d4             	cmp    r12,rdx
  408d86:	0f 82 87 00 00 00    	jb     408e13 <mark_section_writable+0xd3>
  408d8c:	83 c1 01             	add    ecx,0x1
  408d8f:	48 83 c0 28          	add    rax,0x28
  408d93:	39 d9                	cmp    ecx,ebx
  408d95:	75 d9                	jne    408d70 <mark_section_writable+0x30>
  408d97:	4c 89 e1             	mov    rcx,r12
  408d9a:	e8 51 09 00 00       	call   4096f0 <__mingw_GetSectionForAddress>
  408d9f:	48 89 c6             	mov    rsi,rax
  408da2:	48 85 c0             	test   rax,rax
  408da5:	0f 84 e7 00 00 00    	je     408e92 <mark_section_writable+0x152>
  408dab:	48 8b 05 16 c3 00 00 	mov    rax,QWORD PTR [rip+0xc316]        # 4150c8 <the_secs>
  408db2:	48 8d 1c 9b          	lea    rbx,[rbx+rbx*4]
  408db6:	48 c1 e3 03          	shl    rbx,0x3
  408dba:	48 01 d8             	add    rax,rbx
  408dbd:	48 89 70 20          	mov    QWORD PTR [rax+0x20],rsi
  408dc1:	c7 00 00 00 00 00    	mov    DWORD PTR [rax],0x0
  408dc7:	e8 54 0a 00 00       	call   409820 <_GetPEImageBase>
  408dcc:	8b 4e 0c             	mov    ecx,DWORD PTR [rsi+0xc]
  408dcf:	48 8d 54 24 20       	lea    rdx,[rsp+0x20]
  408dd4:	41 b8 30 00 00 00    	mov    r8d,0x30
  408dda:	48 01 c1             	add    rcx,rax
  408ddd:	48 8b 05 e4 c2 00 00 	mov    rax,QWORD PTR [rip+0xc2e4]        # 4150c8 <the_secs>
  408de4:	48 89 4c 18 18       	mov    QWORD PTR [rax+rbx*1+0x18],rcx
  408de9:	ff 15 dd d4 00 00    	call   QWORD PTR [rip+0xd4dd]        # 4162cc <__imp_VirtualQuery>
  408def:	48 85 c0             	test   rax,rax
  408df2:	0f 84 7f 00 00 00    	je     408e77 <mark_section_writable+0x137>
  408df8:	8b 44 24 44          	mov    eax,DWORD PTR [rsp+0x44]
  408dfc:	8d 50 c0             	lea    edx,[rax-0x40]
  408dff:	83 e2 bf             	and    edx,0xffffffbf
  408e02:	74 08                	je     408e0c <mark_section_writable+0xcc>
  408e04:	8d 50 fc             	lea    edx,[rax-0x4]
  408e07:	83 e2 fb             	and    edx,0xfffffffb
  408e0a:	75 14                	jne    408e20 <mark_section_writable+0xe0>
  408e0c:	83 05 b1 c2 00 00 01 	add    DWORD PTR [rip+0xc2b1],0x1        # 4150c4 <maxSections>
  408e13:	48 83 c4 50          	add    rsp,0x50
  408e17:	5b                   	pop    rbx
  408e18:	5e                   	pop    rsi
  408e19:	41 5c                	pop    r12
  408e1b:	c3                   	ret
  408e1c:	0f 1f 40 00          	nop    DWORD PTR [rax+0x0]
  408e20:	83 f8 02             	cmp    eax,0x2
  408e23:	48 8b 4c 24 20       	mov    rcx,QWORD PTR [rsp+0x20]
  408e28:	48 8b 54 24 38       	mov    rdx,QWORD PTR [rsp+0x38]
  408e2d:	41 b8 04 00 00 00    	mov    r8d,0x4
  408e33:	b8 40 00 00 00       	mov    eax,0x40
  408e38:	44 0f 45 c0          	cmovne r8d,eax
  408e3c:	48 03 1d 85 c2 00 00 	add    rbx,QWORD PTR [rip+0xc285]        # 4150c8 <the_secs>
  408e43:	48 89 4b 08          	mov    QWORD PTR [rbx+0x8],rcx
  408e47:	49 89 d9             	mov    r9,rbx
  408e4a:	48 89 53 10          	mov    QWORD PTR [rbx+0x10],rdx
  408e4e:	ff 15 70 d4 00 00    	call   QWORD PTR [rip+0xd470]        # 4162c4 <__imp_VirtualProtect>
  408e54:	85 c0                	test   eax,eax
  408e56:	75 b4                	jne    408e0c <mark_section_writable+0xcc>
  408e58:	ff 15 fe d3 00 00    	call   QWORD PTR [rip+0xd3fe]        # 41625c <__imp_GetLastError>
  408e5e:	48 8d 0d d3 87 00 00 	lea    rcx,[rip+0x87d3]        # 411638 <.rdata+0x78>
  408e65:	89 c2                	mov    edx,eax
  408e67:	e8 64 fe ff ff       	call   408cd0 <__report_error>
  408e6c:	0f 1f 40 00          	nop    DWORD PTR [rax+0x0]
  408e70:	31 db                	xor    ebx,ebx
  408e72:	e9 20 ff ff ff       	jmp    408d97 <mark_section_writable+0x57>
  408e77:	48 8b 05 4a c2 00 00 	mov    rax,QWORD PTR [rip+0xc24a]        # 4150c8 <the_secs>
  408e7e:	8b 56 08             	mov    edx,DWORD PTR [rsi+0x8]
  408e81:	48 8d 0d 78 87 00 00 	lea    rcx,[rip+0x8778]        # 411600 <.rdata+0x40>
  408e88:	4c 8b 44 18 18       	mov    r8,QWORD PTR [rax+rbx*1+0x18]
  408e8d:	e8 3e fe ff ff       	call   408cd0 <__report_error>
  408e92:	4c 89 e2             	mov    rdx,r12
  408e95:	48 8d 0d 44 87 00 00 	lea    rcx,[rip+0x8744]        # 4115e0 <.rdata+0x20>
  408e9c:	e8 2f fe ff ff       	call   408cd0 <__report_error>
  408ea1:	90                   	nop
  408ea2:	66 66 2e 0f 1f 84 00 	data16 cs nop WORD PTR [rax+rax*1+0x0]
  408ea9:	00 00 00 00 
  408ead:	0f 1f 00             	nop    DWORD PTR [rax]

0000000000408eb0 <_pei386_runtime_relocator>:
  408eb0:	55                   	push   rbp
  408eb1:	41 57                	push   r15
  408eb3:	41 56                	push   r14
  408eb5:	41 55                	push   r13
  408eb7:	41 54                	push   r12
  408eb9:	57                   	push   rdi
  408eba:	56                   	push   rsi
  408ebb:	53                   	push   rbx
  408ebc:	48 83 ec 38          	sub    rsp,0x38
  408ec0:	48 8d ac 24 80 00 00 	lea    rbp,[rsp+0x80]
  408ec7:	00 
  408ec8:	8b 3d f2 c1 00 00    	mov    edi,DWORD PTR [rip+0xc1f2]        # 4150c0 <was_init.0>
  408ece:	85 ff                	test   edi,edi
  408ed0:	74 16                	je     408ee8 <_pei386_runtime_relocator+0x38>
  408ed2:	48 8d 65 b8          	lea    rsp,[rbp-0x48]
  408ed6:	5b                   	pop    rbx
  408ed7:	5e                   	pop    rsi
  408ed8:	5f                   	pop    rdi
  408ed9:	41 5c                	pop    r12
  408edb:	41 5d                	pop    r13
  408edd:	41 5e                	pop    r14
  408edf:	41 5f                	pop    r15
  408ee1:	5d                   	pop    rbp
  408ee2:	c3                   	ret
  408ee3:	0f 1f 44 00 00       	nop    DWORD PTR [rax+rax*1+0x0]
  408ee8:	c7 05 ce c1 00 00 01 	mov    DWORD PTR [rip+0xc1ce],0x1        # 4150c0 <was_init.0>
  408eef:	00 00 00 
  408ef2:	e8 79 08 00 00       	call   409770 <__mingw_GetSectionCount>
  408ef7:	48 98                	cdqe
  408ef9:	48 8d 04 80          	lea    rax,[rax+rax*4]
  408efd:	48 8d 04 c5 0f 00 00 	lea    rax,[rax*8+0xf]
  408f04:	00 
  408f05:	48 83 e0 f0          	and    rax,0xfffffffffffffff0
  408f09:	e8 a2 0a 00 00       	call   4099b0 <___chkstk_ms>
  408f0e:	4c 8b 25 9b 8b 00 00 	mov    r12,QWORD PTR [rip+0x8b9b]        # 411ab0 <.refptr.__RUNTIME_PSEUDO_RELOC_LIST_END__>
  408f15:	48 8b 1d a4 8b 00 00 	mov    rbx,QWORD PTR [rip+0x8ba4]        # 411ac0 <.refptr.__RUNTIME_PSEUDO_RELOC_LIST__>
  408f1c:	c7 05 9e c1 00 00 00 	mov    DWORD PTR [rip+0xc19e],0x0        # 4150c4 <maxSections>
  408f23:	00 00 00 
  408f26:	48 29 c4             	sub    rsp,rax
  408f29:	48 8d 44 24 20       	lea    rax,[rsp+0x20]
  408f2e:	48 89 05 93 c1 00 00 	mov    QWORD PTR [rip+0xc193],rax        # 4150c8 <the_secs>
  408f35:	4c 89 e0             	mov    rax,r12
  408f38:	48 29 d8             	sub    rax,rbx
  408f3b:	48 83 f8 07          	cmp    rax,0x7
  408f3f:	7e 91                	jle    408ed2 <_pei386_runtime_relocator+0x22>
  408f41:	8b 13                	mov    edx,DWORD PTR [rbx]
  408f43:	48 83 f8 0b          	cmp    rax,0xb
  408f47:	0f 8f 2b 01 00 00    	jg     409078 <_pei386_runtime_relocator+0x1c8>
  408f4d:	85 d2                	test   edx,edx
  408f4f:	0f 85 9b 01 00 00    	jne    4090f0 <_pei386_runtime_relocator+0x240>
  408f55:	8b 43 04             	mov    eax,DWORD PTR [rbx+0x4]
  408f58:	85 c0                	test   eax,eax
  408f5a:	0f 85 90 01 00 00    	jne    4090f0 <_pei386_runtime_relocator+0x240>
  408f60:	8b 53 08             	mov    edx,DWORD PTR [rbx+0x8]
  408f63:	83 fa 01             	cmp    edx,0x1
  408f66:	0f 85 c5 01 00 00    	jne    409131 <_pei386_runtime_relocator+0x281>
  408f6c:	48 83 c3 0c          	add    rbx,0xc
  408f70:	4c 39 e3             	cmp    rbx,r12
  408f73:	0f 83 59 ff ff ff    	jae    408ed2 <_pei386_runtime_relocator+0x22>
  408f79:	4c 8b 2d 60 8b 00 00 	mov    r13,QWORD PTR [rip+0x8b60]        # 411ae0 <.refptr.__image_base__>
  408f80:	49 be 00 00 00 00 ff 	movabs r14,0xffffffff00000000
  408f87:	ff ff ff 
  408f8a:	eb 31                	jmp    408fbd <_pei386_runtime_relocator+0x10d>
  408f8c:	0f 1f 40 00          	nop    DWORD PTR [rax+0x0]
  408f90:	0f b6 16             	movzx  edx,BYTE PTR [rsi]
  408f93:	48 89 f1             	mov    rcx,rsi
  408f96:	49 89 d0             	mov    r8,rdx
  408f99:	49 81 c8 00 ff ff ff 	or     r8,0xffffffffffffff00
  408fa0:	84 d2                	test   dl,dl
  408fa2:	49 0f 48 d0          	cmovs  rdx,r8
  408fa6:	48 29 c2             	sub    rdx,rax
  408fa9:	49 01 d7             	add    r15,rdx
  408fac:	e8 8f fd ff ff       	call   408d40 <mark_section_writable>
  408fb1:	44 88 3e             	mov    BYTE PTR [rsi],r15b
  408fb4:	48 83 c3 0c          	add    rbx,0xc
  408fb8:	4c 39 e3             	cmp    rbx,r12
  408fbb:	73 63                	jae    409020 <_pei386_runtime_relocator+0x170>
  408fbd:	8b 03                	mov    eax,DWORD PTR [rbx]
  408fbf:	8b 73 04             	mov    esi,DWORD PTR [rbx+0x4]
  408fc2:	0f b6 53 08          	movzx  edx,BYTE PTR [rbx+0x8]
  408fc6:	4c 01 e8             	add    rax,r13
  408fc9:	4c 01 ee             	add    rsi,r13
  408fcc:	4c 8b 38             	mov    r15,QWORD PTR [rax]
  408fcf:	83 fa 20             	cmp    edx,0x20
  408fd2:	0f 84 f0 00 00 00    	je     4090c8 <_pei386_runtime_relocator+0x218>
  408fd8:	0f 87 c2 00 00 00    	ja     4090a0 <_pei386_runtime_relocator+0x1f0>
  408fde:	83 fa 08             	cmp    edx,0x8
  408fe1:	74 ad                	je     408f90 <_pei386_runtime_relocator+0xe0>
  408fe3:	83 fa 10             	cmp    edx,0x10
  408fe6:	0f 85 39 01 00 00    	jne    409125 <_pei386_runtime_relocator+0x275>
  408fec:	0f b7 16             	movzx  edx,WORD PTR [rsi]
  408fef:	48 89 f1             	mov    rcx,rsi
  408ff2:	49 89 d0             	mov    r8,rdx
  408ff5:	49 81 c8 00 00 ff ff 	or     r8,0xffffffffffff0000
  408ffc:	66 85 d2             	test   dx,dx
  408fff:	49 0f 48 d0          	cmovs  rdx,r8
  409003:	48 83 c3 0c          	add    rbx,0xc
  409007:	48 29 c2             	sub    rdx,rax
  40900a:	49 01 d7             	add    r15,rdx
  40900d:	e8 2e fd ff ff       	call   408d40 <mark_section_writable>
  409012:	66 44 89 3e          	mov    WORD PTR [rsi],r15w
  409016:	4c 39 e3             	cmp    rbx,r12
  409019:	72 a2                	jb     408fbd <_pei386_runtime_relocator+0x10d>
  40901b:	0f 1f 44 00 00       	nop    DWORD PTR [rax+rax*1+0x0]
  409020:	8b 05 9e c0 00 00    	mov    eax,DWORD PTR [rip+0xc09e]        # 4150c4 <maxSections>
  409026:	85 c0                	test   eax,eax
  409028:	0f 8e a4 fe ff ff    	jle    408ed2 <_pei386_runtime_relocator+0x22>
  40902e:	48 8b 35 8f d2 00 00 	mov    rsi,QWORD PTR [rip+0xd28f]        # 4162c4 <__imp_VirtualProtect>
  409035:	31 db                	xor    ebx,ebx
  409037:	4c 8d 65 ac          	lea    r12,[rbp-0x54]
  40903b:	0f 1f 44 00 00       	nop    DWORD PTR [rax+rax*1+0x0]
  409040:	48 8b 05 81 c0 00 00 	mov    rax,QWORD PTR [rip+0xc081]        # 4150c8 <the_secs>
  409047:	48 01 d8             	add    rax,rbx
  40904a:	44 8b 00             	mov    r8d,DWORD PTR [rax]
  40904d:	45 85 c0             	test   r8d,r8d
  409050:	74 0d                	je     40905f <_pei386_runtime_relocator+0x1af>
  409052:	48 8b 50 10          	mov    rdx,QWORD PTR [rax+0x10]
  409056:	48 8b 48 08          	mov    rcx,QWORD PTR [rax+0x8]
  40905a:	4d 89 e1             	mov    r9,r12
  40905d:	ff d6                	call   rsi
  40905f:	83 c7 01             	add    edi,0x1
  409062:	48 83 c3 28          	add    rbx,0x28
  409066:	3b 3d 58 c0 00 00    	cmp    edi,DWORD PTR [rip+0xc058]        # 4150c4 <maxSections>
  40906c:	7c d2                	jl     409040 <_pei386_runtime_relocator+0x190>
  40906e:	e9 5f fe ff ff       	jmp    408ed2 <_pei386_runtime_relocator+0x22>
  409073:	0f 1f 44 00 00       	nop    DWORD PTR [rax+rax*1+0x0]
  409078:	85 d2                	test   edx,edx
  40907a:	75 74                	jne    4090f0 <_pei386_runtime_relocator+0x240>
  40907c:	8b 43 04             	mov    eax,DWORD PTR [rbx+0x4]
  40907f:	89 c1                	mov    ecx,eax
  409081:	0b 4b 08             	or     ecx,DWORD PTR [rbx+0x8]
  409084:	0f 85 ce fe ff ff    	jne    408f58 <_pei386_runtime_relocator+0xa8>
  40908a:	8b 53 0c             	mov    edx,DWORD PTR [rbx+0xc]
  40908d:	48 83 c3 0c          	add    rbx,0xc
  409091:	e9 b7 fe ff ff       	jmp    408f4d <_pei386_runtime_relocator+0x9d>
  409096:	66 2e 0f 1f 84 00 00 	cs nop WORD PTR [rax+rax*1+0x0]
  40909d:	00 00 00 
  4090a0:	83 fa 40             	cmp    edx,0x40
  4090a3:	0f 85 7c 00 00 00    	jne    409125 <_pei386_runtime_relocator+0x275>
  4090a9:	48 8b 16             	mov    rdx,QWORD PTR [rsi]
  4090ac:	48 89 f1             	mov    rcx,rsi
  4090af:	48 29 c2             	sub    rdx,rax
  4090b2:	49 01 d7             	add    r15,rdx
  4090b5:	e8 86 fc ff ff       	call   408d40 <mark_section_writable>
  4090ba:	4c 89 3e             	mov    QWORD PTR [rsi],r15
  4090bd:	e9 f2 fe ff ff       	jmp    408fb4 <_pei386_runtime_relocator+0x104>
  4090c2:	66 0f 1f 44 00 00    	nop    WORD PTR [rax+rax*1+0x0]
  4090c8:	8b 16                	mov    edx,DWORD PTR [rsi]
  4090ca:	48 89 d1             	mov    rcx,rdx
  4090cd:	4c 09 f2             	or     rdx,r14
  4090d0:	85 c9                	test   ecx,ecx
  4090d2:	48 0f 49 d1          	cmovns rdx,rcx
  4090d6:	48 89 f1             	mov    rcx,rsi
  4090d9:	48 29 c2             	sub    rdx,rax
  4090dc:	49 01 d7             	add    r15,rdx
  4090df:	e8 5c fc ff ff       	call   408d40 <mark_section_writable>
  4090e4:	44 89 3e             	mov    DWORD PTR [rsi],r15d
  4090e7:	e9 c8 fe ff ff       	jmp    408fb4 <_pei386_runtime_relocator+0x104>
  4090ec:	0f 1f 40 00          	nop    DWORD PTR [rax+0x0]
  4090f0:	4c 39 e3             	cmp    rbx,r12
  4090f3:	0f 83 d9 fd ff ff    	jae    408ed2 <_pei386_runtime_relocator+0x22>
  4090f9:	4c 8b 35 e0 89 00 00 	mov    r14,QWORD PTR [rip+0x89e0]        # 411ae0 <.refptr.__image_base__>
  409100:	8b 73 04             	mov    esi,DWORD PTR [rbx+0x4]
  409103:	44 8b 2b             	mov    r13d,DWORD PTR [rbx]
  409106:	48 83 c3 08          	add    rbx,0x8
  40910a:	4c 01 f6             	add    rsi,r14
  40910d:	44 03 2e             	add    r13d,DWORD PTR [rsi]
  409110:	48 89 f1             	mov    rcx,rsi
  409113:	e8 28 fc ff ff       	call   408d40 <mark_section_writable>
  409118:	44 89 2e             	mov    DWORD PTR [rsi],r13d
  40911b:	4c 39 e3             	cmp    rbx,r12
  40911e:	72 e0                	jb     409100 <_pei386_runtime_relocator+0x250>
  409120:	e9 fb fe ff ff       	jmp    409020 <_pei386_runtime_relocator+0x170>
  409125:	48 8d 0d 6c 85 00 00 	lea    rcx,[rip+0x856c]        # 411698 <.rdata+0xd8>
  40912c:	e8 9f fb ff ff       	call   408cd0 <__report_error>
  409131:	48 8d 0d 28 85 00 00 	lea    rcx,[rip+0x8528]        # 411660 <.rdata+0xa0>
  409138:	e8 93 fb ff ff       	call   408cd0 <__report_error>
  40913d:	90                   	nop
  40913e:	90                   	nop
  40913f:	90                   	nop

0000000000409140 <__mingw_raise_matherr>:
  409140:	48 83 ec 58          	sub    rsp,0x58
  409144:	48 8b 05 85 bf 00 00 	mov    rax,QWORD PTR [rip+0xbf85]        # 4150d0 <stUserMathErr>
  40914b:	48 85 c0             	test   rax,rax
  40914e:	74 2c                	je     40917c <__mingw_raise_matherr+0x3c>
  409150:	f2 0f 10 84 24 80 00 	movsd  xmm0,QWORD PTR [rsp+0x80]
  409157:	00 00 
  409159:	89 4c 24 20          	mov    DWORD PTR [rsp+0x20],ecx
  40915d:	48 8d 4c 24 20       	lea    rcx,[rsp+0x20]
  409162:	48 89 54 24 28       	mov    QWORD PTR [rsp+0x28],rdx
  409167:	f2 0f 11 54 24 30    	movsd  QWORD PTR [rsp+0x30],xmm2
  40916d:	f2 0f 11 5c 24 38    	movsd  QWORD PTR [rsp+0x38],xmm3
  409173:	f2 0f 11 44 24 40    	movsd  QWORD PTR [rsp+0x40],xmm0
  409179:	ff d0                	call   rax
  40917b:	90                   	nop
  40917c:	48 83 c4 58          	add    rsp,0x58
  409180:	c3                   	ret
  409181:	66 66 2e 0f 1f 84 00 	data16 cs nop WORD PTR [rax+rax*1+0x0]
  409188:	00 00 00 00 
  40918c:	0f 1f 40 00          	nop    DWORD PTR [rax+0x0]

0000000000409190 <__mingw_setusermatherr>:
  409190:	48 89 0d 39 bf 00 00 	mov    QWORD PTR [rip+0xbf39],rcx        # 4150d0 <stUserMathErr>
  409197:	e9 2c 57 00 00       	jmp    40e8c8 <__setusermatherr>
  40919c:	90                   	nop
  40919d:	90                   	nop
  40919e:	90                   	nop
  40919f:	90                   	nop

00000000004091a0 <_gnu_exception_handler>:
  4091a0:	41 54                	push   r12
  4091a2:	48 83 ec 20          	sub    rsp,0x20
  4091a6:	48 8b 11             	mov    rdx,QWORD PTR [rcx]
  4091a9:	8b 02                	mov    eax,DWORD PTR [rdx]
  4091ab:	49 89 cc             	mov    r12,rcx
  4091ae:	89 c1                	mov    ecx,eax
  4091b0:	81 e1 ff ff ff 20    	and    ecx,0x20ffffff
  4091b6:	81 f9 43 43 47 20    	cmp    ecx,0x20474343
  4091bc:	0f 84 be 00 00 00    	je     409280 <_gnu_exception_handler+0xe0>
  4091c2:	3d 96 00 00 c0       	cmp    eax,0xc0000096
  4091c7:	0f 87 9a 00 00 00    	ja     409267 <_gnu_exception_handler+0xc7>
  4091cd:	3d 8b 00 00 c0       	cmp    eax,0xc000008b
  4091d2:	76 44                	jbe    409218 <_gnu_exception_handler+0x78>
  4091d4:	05 73 ff ff 3f       	add    eax,0x3fffff73
  4091d9:	83 f8 09             	cmp    eax,0x9
  4091dc:	77 2a                	ja     409208 <_gnu_exception_handler+0x68>
  4091de:	48 8d 15 eb 84 00 00 	lea    rdx,[rip+0x84eb]        # 4116d0 <.rdata>
  4091e5:	48 63 04 82          	movsxd rax,DWORD PTR [rdx+rax*4]
  4091e9:	48 01 d0             	add    rax,rdx
  4091ec:	ff e0                	jmp    rax
  4091ee:	66 90                	xchg   ax,ax
  4091f0:	ba 01 00 00 00       	mov    edx,0x1
  4091f5:	b9 08 00 00 00       	mov    ecx,0x8
  4091fa:	e8 29 56 00 00       	call   40e828 <signal>
  4091ff:	e8 bc fa ff ff       	call   408cc0 <_fpreset>
  409204:	0f 1f 40 00          	nop    DWORD PTR [rax+0x0]
  409208:	b8 ff ff ff ff       	mov    eax,0xffffffff
  40920d:	48 83 c4 20          	add    rsp,0x20
  409211:	41 5c                	pop    r12
  409213:	c3                   	ret
  409214:	0f 1f 40 00          	nop    DWORD PTR [rax+0x0]
  409218:	3d 05 00 00 c0       	cmp    eax,0xc0000005
  40921d:	0f 84 dd 00 00 00    	je     409300 <_gnu_exception_handler+0x160>
  409223:	76 3b                	jbe    409260 <_gnu_exception_handler+0xc0>
  409225:	3d 08 00 00 c0       	cmp    eax,0xc0000008
  40922a:	74 dc                	je     409208 <_gnu_exception_handler+0x68>
  40922c:	3d 1d 00 00 c0       	cmp    eax,0xc000001d
  409231:	75 34                	jne    409267 <_gnu_exception_handler+0xc7>
  409233:	31 d2                	xor    edx,edx
  409235:	b9 04 00 00 00       	mov    ecx,0x4
  40923a:	e8 e9 55 00 00       	call   40e828 <signal>
  40923f:	48 83 f8 01          	cmp    rax,0x1
  409243:	0f 84 e3 00 00 00    	je     40932c <_gnu_exception_handler+0x18c>
  409249:	48 85 c0             	test   rax,rax
  40924c:	74 19                	je     409267 <_gnu_exception_handler+0xc7>
  40924e:	b9 04 00 00 00       	mov    ecx,0x4
  409253:	ff d0                	call   rax
  409255:	b8 ff ff ff ff       	mov    eax,0xffffffff
  40925a:	eb b1                	jmp    40920d <_gnu_exception_handler+0x6d>
  40925c:	0f 1f 40 00          	nop    DWORD PTR [rax+0x0]
  409260:	3d 02 00 00 80       	cmp    eax,0x80000002
  409265:	74 a1                	je     409208 <_gnu_exception_handler+0x68>
  409267:	48 8b 05 82 be 00 00 	mov    rax,QWORD PTR [rip+0xbe82]        # 4150f0 <__mingw_oldexcpt_handler>
  40926e:	48 85 c0             	test   rax,rax
  409271:	74 1d                	je     409290 <_gnu_exception_handler+0xf0>
  409273:	4c 89 e1             	mov    rcx,r12
  409276:	48 83 c4 20          	add    rsp,0x20
  40927a:	41 5c                	pop    r12
  40927c:	48 ff e0             	rex.W jmp rax
  40927f:	90                   	nop
  409280:	f6 42 04 01          	test   BYTE PTR [rdx+0x4],0x1
  409284:	0f 85 38 ff ff ff    	jne    4091c2 <_gnu_exception_handler+0x22>
  40928a:	e9 79 ff ff ff       	jmp    409208 <_gnu_exception_handler+0x68>
  40928f:	90                   	nop
  409290:	31 c0                	xor    eax,eax
  409292:	48 83 c4 20          	add    rsp,0x20
  409296:	41 5c                	pop    r12
  409298:	c3                   	ret
  409299:	0f 1f 80 00 00 00 00 	nop    DWORD PTR [rax+0x0]
  4092a0:	31 d2                	xor    edx,edx
  4092a2:	b9 08 00 00 00       	mov    ecx,0x8
  4092a7:	e8 7c 55 00 00       	call   40e828 <signal>
  4092ac:	48 83 f8 01          	cmp    rax,0x1
  4092b0:	0f 84 3a ff ff ff    	je     4091f0 <_gnu_exception_handler+0x50>
  4092b6:	48 85 c0             	test   rax,rax
  4092b9:	74 ac                	je     409267 <_gnu_exception_handler+0xc7>
  4092bb:	b9 08 00 00 00       	mov    ecx,0x8
  4092c0:	ff d0                	call   rax
  4092c2:	b8 ff ff ff ff       	mov    eax,0xffffffff
  4092c7:	e9 41 ff ff ff       	jmp    40920d <_gnu_exception_handler+0x6d>
  4092cc:	0f 1f 40 00          	nop    DWORD PTR [rax+0x0]
  4092d0:	31 d2                	xor    edx,edx
  4092d2:	b9 08 00 00 00       	mov    ecx,0x8
  4092d7:	e8 4c 55 00 00       	call   40e828 <signal>
  4092dc:	48 83 f8 01          	cmp    rax,0x1
  4092e0:	75 d4                	jne    4092b6 <_gnu_exception_handler+0x116>
  4092e2:	ba 01 00 00 00       	mov    edx,0x1
  4092e7:	b9 08 00 00 00       	mov    ecx,0x8
  4092ec:	e8 37 55 00 00       	call   40e828 <signal>
  4092f1:	b8 ff ff ff ff       	mov    eax,0xffffffff
  4092f6:	e9 12 ff ff ff       	jmp    40920d <_gnu_exception_handler+0x6d>
  4092fb:	0f 1f 44 00 00       	nop    DWORD PTR [rax+rax*1+0x0]
  409300:	31 d2                	xor    edx,edx
  409302:	b9 0b 00 00 00       	mov    ecx,0xb
  409307:	e8 1c 55 00 00       	call   40e828 <signal>
  40930c:	48 83 f8 01          	cmp    rax,0x1
  409310:	74 31                	je     409343 <_gnu_exception_handler+0x1a3>
  409312:	48 85 c0             	test   rax,rax
  409315:	0f 84 4c ff ff ff    	je     409267 <_gnu_exception_handler+0xc7>
  40931b:	b9 0b 00 00 00       	mov    ecx,0xb
  409320:	ff d0                	call   rax
  409322:	b8 ff ff ff ff       	mov    eax,0xffffffff
  409327:	e9 e1 fe ff ff       	jmp    40920d <_gnu_exception_handler+0x6d>
  40932c:	ba 01 00 00 00       	mov    edx,0x1
  409331:	b9 04 00 00 00       	mov    ecx,0x4
  409336:	e8 ed 54 00 00       	call   40e828 <signal>
  40933b:	83 c8 ff             	or     eax,0xffffffff
  40933e:	e9 ca fe ff ff       	jmp    40920d <_gnu_exception_handler+0x6d>
  409343:	ba 01 00 00 00       	mov    edx,0x1
  409348:	b9 0b 00 00 00       	mov    ecx,0xb
  40934d:	e8 d6 54 00 00       	call   40e828 <signal>
  409352:	83 c8 ff             	or     eax,0xffffffff
  409355:	e9 b3 fe ff ff       	jmp    40920d <_gnu_exception_handler+0x6d>
  40935a:	90                   	nop
  40935b:	90                   	nop
  40935c:	90                   	nop
  40935d:	90                   	nop
  40935e:	90                   	nop
  40935f:	90                   	nop

0000000000409360 <__mingwthr_run_key_dtors.part.0>:
  409360:	41 54                	push   r12
  409362:	57                   	push   rdi
  409363:	56                   	push   rsi
  409364:	53                   	push   rbx
  409365:	48 83 ec 28          	sub    rsp,0x28
  409369:	48 8d 0d b0 bd 00 00 	lea    rcx,[rip+0xbdb0]        # 415120 <__mingwthr_cs>
  409370:	ff 15 d6 ce 00 00    	call   QWORD PTR [rip+0xced6]        # 41624c <__imp_EnterCriticalSection>
  409376:	48 8b 1d 83 bd 00 00 	mov    rbx,QWORD PTR [rip+0xbd83]        # 415100 <key_dtor_list>
  40937d:	48 85 db             	test   rbx,rbx
  409380:	74 32                	je     4093b4 <__mingwthr_run_key_dtors.part.0+0x54>
  409382:	48 8b 3d 33 cf 00 00 	mov    rdi,QWORD PTR [rip+0xcf33]        # 4162bc <__imp_TlsGetValue>
  409389:	48 8b 35 cc ce 00 00 	mov    rsi,QWORD PTR [rip+0xcecc]        # 41625c <__imp_GetLastError>
  409390:	8b 0b                	mov    ecx,DWORD PTR [rbx]
  409392:	ff d7                	call   rdi
  409394:	49 89 c4             	mov    r12,rax
  409397:	ff d6                	call   rsi
  409399:	85 c0                	test   eax,eax
  40939b:	75 0e                	jne    4093ab <__mingwthr_run_key_dtors.part.0+0x4b>
  40939d:	4d 85 e4             	test   r12,r12
  4093a0:	74 09                	je     4093ab <__mingwthr_run_key_dtors.part.0+0x4b>
  4093a2:	48 8b 43 08          	mov    rax,QWORD PTR [rbx+0x8]
  4093a6:	4c 89 e1             	mov    rcx,r12
  4093a9:	ff d0                	call   rax
  4093ab:	48 8b 5b 10          	mov    rbx,QWORD PTR [rbx+0x10]
  4093af:	48 85 db             	test   rbx,rbx
  4093b2:	75 dc                	jne    409390 <__mingwthr_run_key_dtors.part.0+0x30>
  4093b4:	48 8d 0d 65 bd 00 00 	lea    rcx,[rip+0xbd65]        # 415120 <__mingwthr_cs>
  4093bb:	48 83 c4 28          	add    rsp,0x28
  4093bf:	5b                   	pop    rbx
  4093c0:	5e                   	pop    rsi
  4093c1:	5f                   	pop    rdi
  4093c2:	41 5c                	pop    r12
  4093c4:	48 ff 25 b9 ce 00 00 	rex.W jmp QWORD PTR [rip+0xceb9]        # 416284 <__imp_LeaveCriticalSection>
  4093cb:	0f 1f 44 00 00       	nop    DWORD PTR [rax+rax*1+0x0]

00000000004093d0 <___w64_mingwthr_add_key_dtor>:
  4093d0:	57                   	push   rdi
  4093d1:	56                   	push   rsi
  4093d2:	53                   	push   rbx
  4093d3:	48 83 ec 20          	sub    rsp,0x20
  4093d7:	8b 05 2b bd 00 00    	mov    eax,DWORD PTR [rip+0xbd2b]        # 415108 <__mingwthr_cs_init>
  4093dd:	89 cf                	mov    edi,ecx
  4093df:	48 89 d6             	mov    rsi,rdx
  4093e2:	85 c0                	test   eax,eax
  4093e4:	75 0a                	jne    4093f0 <___w64_mingwthr_add_key_dtor+0x20>
  4093e6:	48 83 c4 20          	add    rsp,0x20
  4093ea:	5b                   	pop    rbx
  4093eb:	5e                   	pop    rsi
  4093ec:	5f                   	pop    rdi
  4093ed:	c3                   	ret
  4093ee:	66 90                	xchg   ax,ax
  4093f0:	ba 18 00 00 00       	mov    edx,0x18
  4093f5:	b9 01 00 00 00       	mov    ecx,0x1
  4093fa:	e8 91 54 00 00       	call   40e890 <calloc>
  4093ff:	48 89 c3             	mov    rbx,rax
  409402:	48 85 c0             	test   rax,rax
  409405:	74 3c                	je     409443 <___w64_mingwthr_add_key_dtor+0x73>
  409407:	89 38                	mov    DWORD PTR [rax],edi
  409409:	48 8d 0d 10 bd 00 00 	lea    rcx,[rip+0xbd10]        # 415120 <__mingwthr_cs>
  409410:	48 89 70 08          	mov    QWORD PTR [rax+0x8],rsi
  409414:	ff 15 32 ce 00 00    	call   QWORD PTR [rip+0xce32]        # 41624c <__imp_EnterCriticalSection>
  40941a:	48 8b 05 df bc 00 00 	mov    rax,QWORD PTR [rip+0xbcdf]        # 415100 <key_dtor_list>
  409421:	48 8d 0d f8 bc 00 00 	lea    rcx,[rip+0xbcf8]        # 415120 <__mingwthr_cs>
  409428:	48 89 1d d1 bc 00 00 	mov    QWORD PTR [rip+0xbcd1],rbx        # 415100 <key_dtor_list>
  40942f:	48 89 43 10          	mov    QWORD PTR [rbx+0x10],rax
  409433:	ff 15 4b ce 00 00    	call   QWORD PTR [rip+0xce4b]        # 416284 <__imp_LeaveCriticalSection>
  409439:	31 c0                	xor    eax,eax
  40943b:	48 83 c4 20          	add    rsp,0x20
  40943f:	5b                   	pop    rbx
  409440:	5e                   	pop    rsi
  409441:	5f                   	pop    rdi
  409442:	c3                   	ret
  409443:	83 c8 ff             	or     eax,0xffffffff
  409446:	eb 9e                	jmp    4093e6 <___w64_mingwthr_add_key_dtor+0x16>
  409448:	0f 1f 84 00 00 00 00 	nop    DWORD PTR [rax+rax*1+0x0]
  40944f:	00 

0000000000409450 <___w64_mingwthr_remove_key_dtor>:
  409450:	53                   	push   rbx
  409451:	48 83 ec 20          	sub    rsp,0x20
  409455:	8b 05 ad bc 00 00    	mov    eax,DWORD PTR [rip+0xbcad]        # 415108 <__mingwthr_cs_init>
  40945b:	89 cb                	mov    ebx,ecx
  40945d:	85 c0                	test   eax,eax
  40945f:	75 0f                	jne    409470 <___w64_mingwthr_remove_key_dtor+0x20>
  409461:	31 c0                	xor    eax,eax
  409463:	48 83 c4 20          	add    rsp,0x20
  409467:	5b                   	pop    rbx
  409468:	c3                   	ret
  409469:	0f 1f 80 00 00 00 00 	nop    DWORD PTR [rax+0x0]
  409470:	48 8d 0d a9 bc 00 00 	lea    rcx,[rip+0xbca9]        # 415120 <__mingwthr_cs>
  409477:	ff 15 cf cd 00 00    	call   QWORD PTR [rip+0xcdcf]        # 41624c <__imp_EnterCriticalSection>
  40947d:	48 8b 0d 7c bc 00 00 	mov    rcx,QWORD PTR [rip+0xbc7c]        # 415100 <key_dtor_list>
  409484:	48 85 c9             	test   rcx,rcx
  409487:	74 2a                	je     4094b3 <___w64_mingwthr_remove_key_dtor+0x63>
  409489:	31 d2                	xor    edx,edx
  40948b:	eb 0e                	jmp    40949b <___w64_mingwthr_remove_key_dtor+0x4b>
  40948d:	0f 1f 00             	nop    DWORD PTR [rax]
  409490:	48 89 ca             	mov    rdx,rcx
  409493:	48 85 c0             	test   rax,rax
  409496:	74 1b                	je     4094b3 <___w64_mingwthr_remove_key_dtor+0x63>
  409498:	48 89 c1             	mov    rcx,rax
  40949b:	8b 01                	mov    eax,DWORD PTR [rcx]
  40949d:	39 d8                	cmp    eax,ebx
  40949f:	48 8b 41 10          	mov    rax,QWORD PTR [rcx+0x10]
  4094a3:	75 eb                	jne    409490 <___w64_mingwthr_remove_key_dtor+0x40>
  4094a5:	48 85 d2             	test   rdx,rdx
  4094a8:	74 26                	je     4094d0 <___w64_mingwthr_remove_key_dtor+0x80>
  4094aa:	48 89 42 10          	mov    QWORD PTR [rdx+0x10],rax
  4094ae:	e8 a5 53 00 00       	call   40e858 <free>
  4094b3:	48 8d 0d 66 bc 00 00 	lea    rcx,[rip+0xbc66]        # 415120 <__mingwthr_cs>
  4094ba:	ff 15 c4 cd 00 00    	call   QWORD PTR [rip+0xcdc4]        # 416284 <__imp_LeaveCriticalSection>
  4094c0:	31 c0                	xor    eax,eax
  4094c2:	48 83 c4 20          	add    rsp,0x20
  4094c6:	5b                   	pop    rbx
  4094c7:	c3                   	ret
  4094c8:	0f 1f 84 00 00 00 00 	nop    DWORD PTR [rax+rax*1+0x0]
  4094cf:	00 
  4094d0:	48 89 05 29 bc 00 00 	mov    QWORD PTR [rip+0xbc29],rax        # 415100 <key_dtor_list>
  4094d7:	eb d5                	jmp    4094ae <___w64_mingwthr_remove_key_dtor+0x5e>
  4094d9:	0f 1f 80 00 00 00 00 	nop    DWORD PTR [rax+0x0]

00000000004094e0 <__mingw_TLScallback>:
  4094e0:	53                   	push   rbx
  4094e1:	48 83 ec 20          	sub    rsp,0x20
  4094e5:	83 fa 02             	cmp    edx,0x2
  4094e8:	74 46                	je     409530 <__mingw_TLScallback+0x50>
  4094ea:	77 2c                	ja     409518 <__mingw_TLScallback+0x38>
  4094ec:	85 d2                	test   edx,edx
  4094ee:	74 50                	je     409540 <__mingw_TLScallback+0x60>
  4094f0:	8b 05 12 bc 00 00    	mov    eax,DWORD PTR [rip+0xbc12]        # 415108 <__mingwthr_cs_init>
  4094f6:	85 c0                	test   eax,eax
  4094f8:	0f 84 b2 00 00 00    	je     4095b0 <__mingw_TLScallback+0xd0>
  4094fe:	c7 05 00 bc 00 00 01 	mov    DWORD PTR [rip+0xbc00],0x1        # 415108 <__mingwthr_cs_init>
  409505:	00 00 00 
  409508:	b8 01 00 00 00       	mov    eax,0x1
  40950d:	48 83 c4 20          	add    rsp,0x20
  409511:	5b                   	pop    rbx
  409512:	c3                   	ret
  409513:	0f 1f 44 00 00       	nop    DWORD PTR [rax+rax*1+0x0]
  409518:	83 fa 03             	cmp    edx,0x3
  40951b:	75 eb                	jne    409508 <__mingw_TLScallback+0x28>
  40951d:	8b 05 e5 bb 00 00    	mov    eax,DWORD PTR [rip+0xbbe5]        # 415108 <__mingwthr_cs_init>
  409523:	85 c0                	test   eax,eax
  409525:	74 e1                	je     409508 <__mingw_TLScallback+0x28>
  409527:	e8 34 fe ff ff       	call   409360 <__mingwthr_run_key_dtors.part.0>
  40952c:	eb da                	jmp    409508 <__mingw_TLScallback+0x28>
  40952e:	66 90                	xchg   ax,ax
  409530:	e8 8b f7 ff ff       	call   408cc0 <_fpreset>
  409535:	b8 01 00 00 00       	mov    eax,0x1
  40953a:	48 83 c4 20          	add    rsp,0x20
  40953e:	5b                   	pop    rbx
  40953f:	c3                   	ret
  409540:	8b 05 c2 bb 00 00    	mov    eax,DWORD PTR [rip+0xbbc2]        # 415108 <__mingwthr_cs_init>
  409546:	85 c0                	test   eax,eax
  409548:	75 56                	jne    4095a0 <__mingw_TLScallback+0xc0>
  40954a:	8b 05 b8 bb 00 00    	mov    eax,DWORD PTR [rip+0xbbb8]        # 415108 <__mingwthr_cs_init>
  409550:	83 f8 01             	cmp    eax,0x1
  409553:	75 b3                	jne    409508 <__mingw_TLScallback+0x28>
  409555:	48 8b 1d a4 bb 00 00 	mov    rbx,QWORD PTR [rip+0xbba4]        # 415100 <key_dtor_list>
  40955c:	48 85 db             	test   rbx,rbx
  40955f:	74 18                	je     409579 <__mingw_TLScallback+0x99>
  409561:	0f 1f 80 00 00 00 00 	nop    DWORD PTR [rax+0x0]
  409568:	48 89 d9             	mov    rcx,rbx
  40956b:	48 8b 5b 10          	mov    rbx,QWORD PTR [rbx+0x10]
  40956f:	e8 e4 52 00 00       	call   40e858 <free>
  409574:	48 85 db             	test   rbx,rbx
  409577:	75 ef                	jne    409568 <__mingw_TLScallback+0x88>
  409579:	48 8d 0d a0 bb 00 00 	lea    rcx,[rip+0xbba0]        # 415120 <__mingwthr_cs>
  409580:	48 c7 05 75 bb 00 00 	mov    QWORD PTR [rip+0xbb75],0x0        # 415100 <key_dtor_list>
  409587:	00 00 00 00 
  40958b:	c7 05 73 bb 00 00 00 	mov    DWORD PTR [rip+0xbb73],0x0        # 415108 <__mingwthr_cs_init>
  409592:	00 00 00 
  409595:	ff 15 a9 cc 00 00    	call   QWORD PTR [rip+0xcca9]        # 416244 <__imp_DeleteCriticalSection>
  40959b:	e9 68 ff ff ff       	jmp    409508 <__mingw_TLScallback+0x28>
  4095a0:	e8 bb fd ff ff       	call   409360 <__mingwthr_run_key_dtors.part.0>
  4095a5:	eb a3                	jmp    40954a <__mingw_TLScallback+0x6a>
  4095a7:	66 0f 1f 84 00 00 00 	nop    WORD PTR [rax+rax*1+0x0]
  4095ae:	00 00 
  4095b0:	48 8d 0d 69 bb 00 00 	lea    rcx,[rip+0xbb69]        # 415120 <__mingwthr_cs>
  4095b7:	ff 15 b7 cc 00 00    	call   QWORD PTR [rip+0xccb7]        # 416274 <__imp_InitializeCriticalSection>
  4095bd:	e9 3c ff ff ff       	jmp    4094fe <__mingw_TLScallback+0x1e>
  4095c2:	90                   	nop
  4095c3:	90                   	nop
  4095c4:	90                   	nop
  4095c5:	90                   	nop
  4095c6:	90                   	nop
  4095c7:	90                   	nop
  4095c8:	90                   	nop
  4095c9:	90                   	nop
  4095ca:	90                   	nop
  4095cb:	90                   	nop
  4095cc:	90                   	nop
  4095cd:	90                   	nop
  4095ce:	90                   	nop
  4095cf:	90                   	nop

00000000004095d0 <_ValidateImageBase>:
  4095d0:	31 c0                	xor    eax,eax
  4095d2:	66 81 39 4d 5a       	cmp    WORD PTR [rcx],0x5a4d
  4095d7:	75 0f                	jne    4095e8 <_ValidateImageBase+0x18>
  4095d9:	48 63 51 3c          	movsxd rdx,DWORD PTR [rcx+0x3c]
  4095dd:	48 01 d1             	add    rcx,rdx
  4095e0:	81 39 50 45 00 00    	cmp    DWORD PTR [rcx],0x4550
  4095e6:	74 08                	je     4095f0 <_ValidateImageBase+0x20>
  4095e8:	c3                   	ret
  4095e9:	0f 1f 80 00 00 00 00 	nop    DWORD PTR [rax+0x0]
  4095f0:	31 c0                	xor    eax,eax
  4095f2:	66 81 79 18 0b 02    	cmp    WORD PTR [rcx+0x18],0x20b
  4095f8:	0f 94 c0             	sete   al
  4095fb:	c3                   	ret
  4095fc:	0f 1f 40 00          	nop    DWORD PTR [rax+0x0]

0000000000409600 <_FindPESection>:
  409600:	48 63 41 3c          	movsxd rax,DWORD PTR [rcx+0x3c]
  409604:	49 89 d0             	mov    r8,rdx
  409607:	48 8d 14 08          	lea    rdx,[rax+rcx*1]
  40960b:	0f b7 42 14          	movzx  eax,WORD PTR [rdx+0x14]
  40960f:	48 8d 44 02 18       	lea    rax,[rdx+rax*1+0x18]
  409614:	0f b7 52 06          	movzx  edx,WORD PTR [rdx+0x6]
  409618:	85 d2                	test   edx,edx
  40961a:	74 30                	je     40964c <_FindPESection+0x4c>
  40961c:	83 ea 01             	sub    edx,0x1
  40961f:	48 8d 14 92          	lea    rdx,[rdx+rdx*4]
  409623:	4c 8d 4c d0 28       	lea    r9,[rax+rdx*8+0x28]
  409628:	0f 1f 84 00 00 00 00 	nop    DWORD PTR [rax+rax*1+0x0]
  40962f:	00 
  409630:	8b 48 0c             	mov    ecx,DWORD PTR [rax+0xc]
  409633:	48 89 ca             	mov    rdx,rcx
  409636:	4c 39 c1             	cmp    rcx,r8
  409639:	77 08                	ja     409643 <_FindPESection+0x43>
  40963b:	03 50 08             	add    edx,DWORD PTR [rax+0x8]
  40963e:	4c 39 c2             	cmp    rdx,r8
  409641:	77 0b                	ja     40964e <_FindPESection+0x4e>
  409643:	48 83 c0 28          	add    rax,0x28
  409647:	4c 39 c8             	cmp    rax,r9
  40964a:	75 e4                	jne    409630 <_FindPESection+0x30>
  40964c:	31 c0                	xor    eax,eax
  40964e:	c3                   	ret
  40964f:	90                   	nop

0000000000409650 <_FindPESectionByName>:
  409650:	41 54                	push   r12
  409652:	56                   	push   rsi
  409653:	53                   	push   rbx
  409654:	48 83 ec 20          	sub    rsp,0x20
  409658:	48 89 cb             	mov    rbx,rcx
  40965b:	e8 b8 51 00 00       	call   40e818 <strlen>
  409660:	48 83 f8 08          	cmp    rax,0x8
  409664:	77 7a                	ja     4096e0 <_FindPESectionByName+0x90>
  409666:	48 8b 15 73 84 00 00 	mov    rdx,QWORD PTR [rip+0x8473]        # 411ae0 <.refptr.__image_base__>
  40966d:	45 31 e4             	xor    r12d,r12d
  409670:	66 81 3a 4d 5a       	cmp    WORD PTR [rdx],0x5a4d
  409675:	75 57                	jne    4096ce <_FindPESectionByName+0x7e>
  409677:	48 63 42 3c          	movsxd rax,DWORD PTR [rdx+0x3c]
  40967b:	48 01 d0             	add    rax,rdx
  40967e:	81 38 50 45 00 00    	cmp    DWORD PTR [rax],0x4550
  409684:	75 48                	jne    4096ce <_FindPESectionByName+0x7e>
  409686:	66 81 78 18 0b 02    	cmp    WORD PTR [rax+0x18],0x20b
  40968c:	75 40                	jne    4096ce <_FindPESectionByName+0x7e>
  40968e:	0f b7 50 14          	movzx  edx,WORD PTR [rax+0x14]
  409692:	4c 8d 64 10 18       	lea    r12,[rax+rdx*1+0x18]
  409697:	0f b7 40 06          	movzx  eax,WORD PTR [rax+0x6]
  40969b:	85 c0                	test   eax,eax
  40969d:	74 41                	je     4096e0 <_FindPESectionByName+0x90>
  40969f:	83 e8 01             	sub    eax,0x1
  4096a2:	48 8d 04 80          	lea    rax,[rax+rax*4]
  4096a6:	49 8d 74 c4 28       	lea    rsi,[r12+rax*8+0x28]
  4096ab:	eb 0c                	jmp    4096b9 <_FindPESectionByName+0x69>
  4096ad:	0f 1f 00             	nop    DWORD PTR [rax]
  4096b0:	49 83 c4 28          	add    r12,0x28
  4096b4:	49 39 f4             	cmp    r12,rsi
  4096b7:	74 27                	je     4096e0 <_FindPESectionByName+0x90>
  4096b9:	41 b8 08 00 00 00    	mov    r8d,0x8
  4096bf:	48 89 da             	mov    rdx,rbx
  4096c2:	4c 89 e1             	mov    rcx,r12
  4096c5:	e8 46 51 00 00       	call   40e810 <strncmp>
  4096ca:	85 c0                	test   eax,eax
  4096cc:	75 e2                	jne    4096b0 <_FindPESectionByName+0x60>
  4096ce:	4c 89 e0             	mov    rax,r12
  4096d1:	48 83 c4 20          	add    rsp,0x20
  4096d5:	5b                   	pop    rbx
  4096d6:	5e                   	pop    rsi
  4096d7:	41 5c                	pop    r12
  4096d9:	c3                   	ret
  4096da:	66 0f 1f 44 00 00    	nop    WORD PTR [rax+rax*1+0x0]
  4096e0:	45 31 e4             	xor    r12d,r12d
  4096e3:	4c 89 e0             	mov    rax,r12
  4096e6:	48 83 c4 20          	add    rsp,0x20
  4096ea:	5b                   	pop    rbx
  4096eb:	5e                   	pop    rsi
  4096ec:	41 5c                	pop    r12
  4096ee:	c3                   	ret
  4096ef:	90                   	nop

00000000004096f0 <__mingw_GetSectionForAddress>:
  4096f0:	48 8b 15 e9 83 00 00 	mov    rdx,QWORD PTR [rip+0x83e9]        # 411ae0 <.refptr.__image_base__>
  4096f7:	31 c0                	xor    eax,eax
  4096f9:	66 81 3a 4d 5a       	cmp    WORD PTR [rdx],0x5a4d
  4096fe:	75 10                	jne    409710 <__mingw_GetSectionForAddress+0x20>
  409700:	4c 63 42 3c          	movsxd r8,DWORD PTR [rdx+0x3c]
  409704:	49 01 d0             	add    r8,rdx
  409707:	41 81 38 50 45 00 00 	cmp    DWORD PTR [r8],0x4550
  40970e:	74 08                	je     409718 <__mingw_GetSectionForAddress+0x28>
  409710:	c3                   	ret
  409711:	0f 1f 80 00 00 00 00 	nop    DWORD PTR [rax+0x0]
  409718:	66 41 81 78 18 0b 02 	cmp    WORD PTR [r8+0x18],0x20b
  40971f:	75 ef                	jne    409710 <__mingw_GetSectionForAddress+0x20>
  409721:	41 0f b7 40 14       	movzx  eax,WORD PTR [r8+0x14]
  409726:	48 29 d1             	sub    rcx,rdx
  409729:	41 0f b7 50 06       	movzx  edx,WORD PTR [r8+0x6]
  40972e:	49 8d 44 00 18       	lea    rax,[r8+rax*1+0x18]
  409733:	85 d2                	test   edx,edx
  409735:	74 2e                	je     409765 <__mingw_GetSectionForAddress+0x75>
  409737:	83 ea 01             	sub    edx,0x1
  40973a:	48 8d 14 92          	lea    rdx,[rdx+rdx*4]
  40973e:	4c 8d 4c d0 28       	lea    r9,[rax+rdx*8+0x28]
  409743:	0f 1f 44 00 00       	nop    DWORD PTR [rax+rax*1+0x0]
  409748:	44 8b 40 0c          	mov    r8d,DWORD PTR [rax+0xc]
  40974c:	4c 89 c2             	mov    rdx,r8
  40974f:	4c 39 c1             	cmp    rcx,r8
  409752:	72 08                	jb     40975c <__mingw_GetSectionForAddress+0x6c>
  409754:	03 50 08             	add    edx,DWORD PTR [rax+0x8]
  409757:	48 39 d1             	cmp    rcx,rdx
  40975a:	72 b4                	jb     409710 <__mingw_GetSectionForAddress+0x20>
  40975c:	48 83 c0 28          	add    rax,0x28
  409760:	4c 39 c8             	cmp    rax,r9
  409763:	75 e3                	jne    409748 <__mingw_GetSectionForAddress+0x58>
  409765:	31 c0                	xor    eax,eax
  409767:	c3                   	ret
  409768:	0f 1f 84 00 00 00 00 	nop    DWORD PTR [rax+rax*1+0x0]
  40976f:	00 

0000000000409770 <__mingw_GetSectionCount>:
  409770:	48 8b 05 69 83 00 00 	mov    rax,QWORD PTR [rip+0x8369]        # 411ae0 <.refptr.__image_base__>
  409777:	45 31 c0             	xor    r8d,r8d
  40977a:	66 81 38 4d 5a       	cmp    WORD PTR [rax],0x5a4d
  40977f:	75 0f                	jne    409790 <__mingw_GetSectionCount+0x20>
  409781:	48 63 50 3c          	movsxd rdx,DWORD PTR [rax+0x3c]
  409785:	48 01 d0             	add    rax,rdx
  409788:	81 38 50 45 00 00    	cmp    DWORD PTR [rax],0x4550
  40978e:	74 08                	je     409798 <__mingw_GetSectionCount+0x28>
  409790:	44 89 c0             	mov    eax,r8d
  409793:	c3                   	ret
  409794:	0f 1f 40 00          	nop    DWORD PTR [rax+0x0]
  409798:	66 81 78 18 0b 02    	cmp    WORD PTR [rax+0x18],0x20b
  40979e:	75 f0                	jne    409790 <__mingw_GetSectionCount+0x20>
  4097a0:	44 0f b7 40 06       	movzx  r8d,WORD PTR [rax+0x6]
  4097a5:	44 89 c0             	mov    eax,r8d
  4097a8:	c3                   	ret
  4097a9:	0f 1f 80 00 00 00 00 	nop    DWORD PTR [rax+0x0]

00000000004097b0 <_FindPESectionExec>:
  4097b0:	4c 8b 05 29 83 00 00 	mov    r8,QWORD PTR [rip+0x8329]        # 411ae0 <.refptr.__image_base__>
  4097b7:	31 c0                	xor    eax,eax
  4097b9:	66 41 81 38 4d 5a    	cmp    WORD PTR [r8],0x5a4d
  4097bf:	75 0f                	jne    4097d0 <_FindPESectionExec+0x20>
  4097c1:	49 63 50 3c          	movsxd rdx,DWORD PTR [r8+0x3c]
  4097c5:	4c 01 c2             	add    rdx,r8
  4097c8:	81 3a 50 45 00 00    	cmp    DWORD PTR [rdx],0x4550
  4097ce:	74 08                	je     4097d8 <_FindPESectionExec+0x28>
  4097d0:	c3                   	ret
  4097d1:	0f 1f 80 00 00 00 00 	nop    DWORD PTR [rax+0x0]
  4097d8:	66 81 7a 18 0b 02    	cmp    WORD PTR [rdx+0x18],0x20b
  4097de:	75 f0                	jne    4097d0 <_FindPESectionExec+0x20>
  4097e0:	0f b7 42 14          	movzx  eax,WORD PTR [rdx+0x14]
  4097e4:	48 8d 44 02 18       	lea    rax,[rdx+rax*1+0x18]
  4097e9:	0f b7 52 06          	movzx  edx,WORD PTR [rdx+0x6]
  4097ed:	85 d2                	test   edx,edx
  4097ef:	74 27                	je     409818 <_FindPESectionExec+0x68>
  4097f1:	83 ea 01             	sub    edx,0x1
  4097f4:	48 8d 14 92          	lea    rdx,[rdx+rdx*4]
  4097f8:	48 8d 54 d0 28       	lea    rdx,[rax+rdx*8+0x28]
  4097fd:	0f 1f 00             	nop    DWORD PTR [rax]
  409800:	f6 40 27 20          	test   BYTE PTR [rax+0x27],0x20
  409804:	74 09                	je     40980f <_FindPESectionExec+0x5f>
  409806:	48 85 c9             	test   rcx,rcx
  409809:	74 c5                	je     4097d0 <_FindPESectionExec+0x20>
  40980b:	48 83 e9 01          	sub    rcx,0x1
  40980f:	48 83 c0 28          	add    rax,0x28
  409813:	48 39 d0             	cmp    rax,rdx
  409816:	75 e8                	jne    409800 <_FindPESectionExec+0x50>
  409818:	31 c0                	xor    eax,eax
  40981a:	c3                   	ret
  40981b:	0f 1f 44 00 00       	nop    DWORD PTR [rax+rax*1+0x0]

0000000000409820 <_GetPEImageBase>:
  409820:	48 8b 05 b9 82 00 00 	mov    rax,QWORD PTR [rip+0x82b9]        # 411ae0 <.refptr.__image_base__>
  409827:	45 31 c0             	xor    r8d,r8d
  40982a:	66 81 38 4d 5a       	cmp    WORD PTR [rax],0x5a4d
  40982f:	75 0f                	jne    409840 <_GetPEImageBase+0x20>
  409831:	48 63 50 3c          	movsxd rdx,DWORD PTR [rax+0x3c]
  409835:	48 01 c2             	add    rdx,rax
  409838:	81 3a 50 45 00 00    	cmp    DWORD PTR [rdx],0x4550
  40983e:	74 08                	je     409848 <_GetPEImageBase+0x28>
  409840:	4c 89 c0             	mov    rax,r8
  409843:	c3                   	ret
  409844:	0f 1f 40 00          	nop    DWORD PTR [rax+0x0]
  409848:	66 81 7a 18 0b 02    	cmp    WORD PTR [rdx+0x18],0x20b
  40984e:	4c 0f 44 c0          	cmove  r8,rax
  409852:	4c 89 c0             	mov    rax,r8
  409855:	c3                   	ret
  409856:	66 2e 0f 1f 84 00 00 	cs nop WORD PTR [rax+rax*1+0x0]
  40985d:	00 00 00 

0000000000409860 <_IsNonwritableInCurrentImage>:
  409860:	48 8b 05 79 82 00 00 	mov    rax,QWORD PTR [rip+0x8279]        # 411ae0 <.refptr.__image_base__>
  409867:	45 31 c0             	xor    r8d,r8d
  40986a:	66 81 38 4d 5a       	cmp    WORD PTR [rax],0x5a4d
  40986f:	75 0f                	jne    409880 <_IsNonwritableInCurrentImage+0x20>
  409871:	48 63 50 3c          	movsxd rdx,DWORD PTR [rax+0x3c]
  409875:	48 01 c2             	add    rdx,rax
  409878:	81 3a 50 45 00 00    	cmp    DWORD PTR [rdx],0x4550
  40987e:	74 08                	je     409888 <_IsNonwritableInCurrentImage+0x28>
  409880:	44 89 c0             	mov    eax,r8d
  409883:	c3                   	ret
  409884:	0f 1f 40 00          	nop    DWORD PTR [rax+0x0]
  409888:	66 81 7a 18 0b 02    	cmp    WORD PTR [rdx+0x18],0x20b
  40988e:	75 f0                	jne    409880 <_IsNonwritableInCurrentImage+0x20>
  409890:	48 29 c1             	sub    rcx,rax
  409893:	0f b7 42 14          	movzx  eax,WORD PTR [rdx+0x14]
  409897:	48 8d 44 02 18       	lea    rax,[rdx+rax*1+0x18]
  40989c:	0f b7 52 06          	movzx  edx,WORD PTR [rdx+0x6]
  4098a0:	85 d2                	test   edx,edx
  4098a2:	74 dc                	je     409880 <_IsNonwritableInCurrentImage+0x20>
  4098a4:	83 ea 01             	sub    edx,0x1
  4098a7:	48 8d 14 92          	lea    rdx,[rdx+rdx*4]
  4098ab:	4c 8d 4c d0 28       	lea    r9,[rax+rdx*8+0x28]
  4098b0:	44 8b 40 0c          	mov    r8d,DWORD PTR [rax+0xc]
  4098b4:	4c 89 c2             	mov    rdx,r8
  4098b7:	4c 39 c1             	cmp    rcx,r8
  4098ba:	72 08                	jb     4098c4 <_IsNonwritableInCurrentImage+0x64>
  4098bc:	03 50 08             	add    edx,DWORD PTR [rax+0x8]
  4098bf:	48 39 d1             	cmp    rcx,rdx
  4098c2:	72 14                	jb     4098d8 <_IsNonwritableInCurrentImage+0x78>
  4098c4:	48 83 c0 28          	add    rax,0x28
  4098c8:	49 39 c1             	cmp    r9,rax
  4098cb:	75 e3                	jne    4098b0 <_IsNonwritableInCurrentImage+0x50>
  4098cd:	45 31 c0             	xor    r8d,r8d
  4098d0:	44 89 c0             	mov    eax,r8d
  4098d3:	c3                   	ret
  4098d4:	0f 1f 40 00          	nop    DWORD PTR [rax+0x0]
  4098d8:	44 8b 40 24          	mov    r8d,DWORD PTR [rax+0x24]
  4098dc:	41 f7 d0             	not    r8d
  4098df:	41 c1 e8 1f          	shr    r8d,0x1f
  4098e3:	44 89 c0             	mov    eax,r8d
  4098e6:	c3                   	ret
  4098e7:	66 0f 1f 84 00 00 00 	nop    WORD PTR [rax+rax*1+0x0]
  4098ee:	00 00 

00000000004098f0 <__mingw_enum_import_library_names>:
  4098f0:	4c 8b 1d e9 81 00 00 	mov    r11,QWORD PTR [rip+0x81e9]        # 411ae0 <.refptr.__image_base__>
  4098f7:	45 31 c9             	xor    r9d,r9d
  4098fa:	66 41 81 3b 4d 5a    	cmp    WORD PTR [r11],0x5a4d
  409900:	75 10                	jne    409912 <__mingw_enum_import_library_names+0x22>
  409902:	4d 63 43 3c          	movsxd r8,DWORD PTR [r11+0x3c]
  409906:	4d 01 d8             	add    r8,r11
  409909:	41 81 38 50 45 00 00 	cmp    DWORD PTR [r8],0x4550
  409910:	74 0e                	je     409920 <__mingw_enum_import_library_names+0x30>
  409912:	4c 89 c8             	mov    rax,r9
  409915:	c3                   	ret
  409916:	66 2e 0f 1f 84 00 00 	cs nop WORD PTR [rax+rax*1+0x0]
  40991d:	00 00 00 
  409920:	66 41 81 78 18 0b 02 	cmp    WORD PTR [r8+0x18],0x20b
  409927:	75 e9                	jne    409912 <__mingw_enum_import_library_names+0x22>
  409929:	41 8b 80 90 00 00 00 	mov    eax,DWORD PTR [r8+0x90]
  409930:	85 c0                	test   eax,eax
  409932:	74 de                	je     409912 <__mingw_enum_import_library_names+0x22>
  409934:	41 0f b7 50 14       	movzx  edx,WORD PTR [r8+0x14]
  409939:	49 8d 54 10 18       	lea    rdx,[r8+rdx*1+0x18]
  40993e:	45 0f b7 40 06       	movzx  r8d,WORD PTR [r8+0x6]
  409943:	45 85 c0             	test   r8d,r8d
  409946:	74 ca                	je     409912 <__mingw_enum_import_library_names+0x22>
  409948:	41 83 e8 01          	sub    r8d,0x1
  40994c:	4f 8d 04 80          	lea    r8,[r8+r8*4]
  409950:	4e 8d 54 c2 28       	lea    r10,[rdx+r8*8+0x28]
  409955:	0f 1f 00             	nop    DWORD PTR [rax]
  409958:	44 8b 4a 0c          	mov    r9d,DWORD PTR [rdx+0xc]
  40995c:	4d 89 c8             	mov    r8,r9
  40995f:	4c 39 c8             	cmp    rax,r9
  409962:	72 09                	jb     40996d <__mingw_enum_import_library_names+0x7d>
  409964:	44 03 42 08          	add    r8d,DWORD PTR [rdx+0x8]
  409968:	4c 39 c0             	cmp    rax,r8
  40996b:	72 13                	jb     409980 <__mingw_enum_import_library_names+0x90>
  40996d:	48 83 c2 28          	add    rdx,0x28
  409971:	49 39 d2             	cmp    r10,rdx
  409974:	75 e2                	jne    409958 <__mingw_enum_import_library_names+0x68>
  409976:	45 31 c9             	xor    r9d,r9d
  409979:	4c 89 c8             	mov    rax,r9
  40997c:	c3                   	ret
  40997d:	0f 1f 00             	nop    DWORD PTR [rax]
  409980:	4c 01 d8             	add    rax,r11
  409983:	eb 0a                	jmp    40998f <__mingw_enum_import_library_names+0x9f>
  409985:	0f 1f 00             	nop    DWORD PTR [rax]
  409988:	83 e9 01             	sub    ecx,0x1
  40998b:	48 83 c0 14          	add    rax,0x14
  40998f:	44 8b 40 04          	mov    r8d,DWORD PTR [rax+0x4]
  409993:	45 85 c0             	test   r8d,r8d
  409996:	75 07                	jne    40999f <__mingw_enum_import_library_names+0xaf>
  409998:	8b 50 0c             	mov    edx,DWORD PTR [rax+0xc]
  40999b:	85 d2                	test   edx,edx
  40999d:	74 d7                	je     409976 <__mingw_enum_import_library_names+0x86>
  40999f:	85 c9                	test   ecx,ecx
  4099a1:	7f e5                	jg     409988 <__mingw_enum_import_library_names+0x98>
  4099a3:	44 8b 48 0c          	mov    r9d,DWORD PTR [rax+0xc]
  4099a7:	4d 01 d9             	add    r9,r11
  4099aa:	4c 89 c8             	mov    rax,r9
  4099ad:	c3                   	ret
  4099ae:	90                   	nop
  4099af:	90                   	nop

00000000004099b0 <___chkstk_ms>:
  4099b0:	51                   	push   rcx
  4099b1:	50                   	push   rax
  4099b2:	48 3d 00 10 00 00    	cmp    rax,0x1000
  4099b8:	48 8d 4c 24 18       	lea    rcx,[rsp+0x18]
  4099bd:	72 19                	jb     4099d8 <___chkstk_ms+0x28>
  4099bf:	48 81 e9 00 10 00 00 	sub    rcx,0x1000
  4099c6:	48 83 09 00          	or     QWORD PTR [rcx],0x0
  4099ca:	48 2d 00 10 00 00    	sub    rax,0x1000
  4099d0:	48 3d 00 10 00 00    	cmp    rax,0x1000
  4099d6:	77 e7                	ja     4099bf <___chkstk_ms+0xf>
  4099d8:	48 29 c1             	sub    rcx,rax
  4099db:	48 83 09 00          	or     QWORD PTR [rcx],0x0
  4099df:	58                   	pop    rax
  4099e0:	59                   	pop    rcx
  4099e1:	c3                   	ret
  4099e2:	90                   	nop
  4099e3:	90                   	nop
  4099e4:	90                   	nop
  4099e5:	90                   	nop
  4099e6:	90                   	nop
  4099e7:	90                   	nop
  4099e8:	90                   	nop
  4099e9:	90                   	nop
  4099ea:	90                   	nop
  4099eb:	90                   	nop
  4099ec:	90                   	nop
  4099ed:	90                   	nop
  4099ee:	90                   	nop
  4099ef:	90                   	nop

00000000004099f0 <__mingw_vfprintf>:
  4099f0:	41 55                	push   r13
  4099f2:	41 54                	push   r12
  4099f4:	53                   	push   rbx
  4099f5:	48 83 ec 30          	sub    rsp,0x30
  4099f9:	4c 89 c3             	mov    rbx,r8
  4099fc:	49 89 cc             	mov    r12,rcx
  4099ff:	49 89 d5             	mov    r13,rdx
  409a02:	e8 69 54 00 00       	call   40ee70 <_lock_file>
  409a07:	48 89 5c 24 20       	mov    QWORD PTR [rsp+0x20],rbx
  409a0c:	4d 89 e9             	mov    r9,r13
  409a0f:	45 31 c0             	xor    r8d,r8d
  409a12:	4c 89 e2             	mov    rdx,r12
  409a15:	b9 00 60 00 00       	mov    ecx,0x6000
  409a1a:	e8 61 1c 00 00       	call   40b680 <__mingw_pformat>
  409a1f:	4c 89 e1             	mov    rcx,r12
  409a22:	41 89 c5             	mov    r13d,eax
  409a25:	e8 b6 54 00 00       	call   40eee0 <_unlock_file>
  409a2a:	44 89 e8             	mov    eax,r13d
  409a2d:	48 83 c4 30          	add    rsp,0x30
  409a31:	5b                   	pop    rbx
  409a32:	41 5c                	pop    r12
  409a34:	41 5d                	pop    r13
  409a36:	c3                   	ret
  409a37:	90                   	nop
  409a38:	90                   	nop
  409a39:	90                   	nop
  409a3a:	90                   	nop
  409a3b:	90                   	nop
  409a3c:	90                   	nop
  409a3d:	90                   	nop
  409a3e:	90                   	nop
  409a3f:	90                   	nop

0000000000409a40 <__pformat_cvt>:
  409a40:	48 83 ec 58          	sub    rsp,0x58
  409a44:	44 8b 5a 08          	mov    r11d,DWORD PTR [rdx+0x8]
  409a48:	4c 8b 12             	mov    r10,QWORD PTR [rdx]
  409a4b:	4c 89 d8             	mov    rax,r11
  409a4e:	66 25 ff 7f          	and    ax,0x7fff
  409a52:	0f 85 90 00 00 00    	jne    409ae8 <__pformat_cvt+0xa8>
  409a58:	4d 89 d3             	mov    r11,r10
  409a5b:	0f b7 42 08          	movzx  eax,WORD PTR [rdx+0x8]
  409a5f:	49 c1 eb 20          	shr    r11,0x20
  409a63:	45 09 da             	or     r10d,r11d
  409a66:	74 70                	je     409ad8 <__pformat_cvt+0x98>
  409a68:	45 85 db             	test   r11d,r11d
  409a6b:	0f 89 cf 00 00 00    	jns    409b40 <__pformat_cvt+0x100>
  409a71:	41 89 c2             	mov    r10d,eax
  409a74:	c7 44 24 44 01 00 00 	mov    DWORD PTR [rsp+0x44],0x1
  409a7b:	00 
  409a7c:	66 41 81 e2 ff 7f    	and    r10w,0x7fff
  409a82:	66 41 81 ea 3e 40    	sub    r10w,0x403e
  409a88:	45 0f bf d2          	movsx  r10d,r10w
  409a8c:	0f 1f 40 00          	nop    DWORD PTR [rax+0x0]
  409a90:	25 00 80 00 00       	and    eax,0x8000
  409a95:	4c 8b 9c 24 80 00 00 	mov    r11,QWORD PTR [rsp+0x80]
  409a9c:	00 
  409a9d:	41 89 03             	mov    DWORD PTR [r11],eax
  409aa0:	48 8d 44 24 48       	lea    rax,[rsp+0x48]
  409aa5:	4c 89 4c 24 30       	mov    QWORD PTR [rsp+0x30],r9
  409aaa:	4c 8d 4c 24 44       	lea    r9,[rsp+0x44]
  409aaf:	44 89 44 24 28       	mov    DWORD PTR [rsp+0x28],r8d
  409ab4:	49 89 d0             	mov    r8,rdx
  409ab7:	44 89 d2             	mov    edx,r10d
  409aba:	89 4c 24 20          	mov    DWORD PTR [rsp+0x20],ecx
  409abe:	48 8d 0d 9b 65 00 00 	lea    rcx,[rip+0x659b]        # 410060 <fpi.0>
  409ac5:	48 89 44 24 38       	mov    QWORD PTR [rsp+0x38],rax
  409aca:	e8 c1 27 00 00       	call   40c290 <__gdtoa>
  409acf:	48 83 c4 58          	add    rsp,0x58
  409ad3:	c3                   	ret
  409ad4:	0f 1f 40 00          	nop    DWORD PTR [rax+0x0]
  409ad8:	c7 44 24 44 00 00 00 	mov    DWORD PTR [rsp+0x44],0x0
  409adf:	00 
  409ae0:	45 31 d2             	xor    r10d,r10d
  409ae3:	eb ab                	jmp    409a90 <__pformat_cvt+0x50>
  409ae5:	0f 1f 00             	nop    DWORD PTR [rax]
  409ae8:	66 3d ff 7f          	cmp    ax,0x7fff
  409aec:	74 12                	je     409b00 <__pformat_cvt+0xc0>
  409aee:	0f b7 42 08          	movzx  eax,WORD PTR [rdx+0x8]
  409af2:	e9 7a ff ff ff       	jmp    409a71 <__pformat_cvt+0x31>
  409af7:	66 0f 1f 84 00 00 00 	nop    WORD PTR [rax+rax*1+0x0]
  409afe:	00 00 
  409b00:	4c 89 d0             	mov    rax,r10
  409b03:	48 c1 e8 20          	shr    rax,0x20
  409b07:	25 ff ff ff 7f       	and    eax,0x7fffffff
  409b0c:	44 09 d0             	or     eax,r10d
  409b0f:	74 17                	je     409b28 <__pformat_cvt+0xe8>
  409b11:	c7 44 24 44 04 00 00 	mov    DWORD PTR [rsp+0x44],0x4
  409b18:	00 
  409b19:	45 31 d2             	xor    r10d,r10d
  409b1c:	31 c0                	xor    eax,eax
  409b1e:	e9 72 ff ff ff       	jmp    409a95 <__pformat_cvt+0x55>
  409b23:	0f 1f 44 00 00       	nop    DWORD PTR [rax+rax*1+0x0]
  409b28:	c7 44 24 44 03 00 00 	mov    DWORD PTR [rsp+0x44],0x3
  409b2f:	00 
  409b30:	0f b7 42 08          	movzx  eax,WORD PTR [rdx+0x8]
  409b34:	45 31 d2             	xor    r10d,r10d
  409b37:	e9 54 ff ff ff       	jmp    409a90 <__pformat_cvt+0x50>
  409b3c:	0f 1f 40 00          	nop    DWORD PTR [rax+0x0]
  409b40:	c7 44 24 44 02 00 00 	mov    DWORD PTR [rsp+0x44],0x2
  409b47:	00 
  409b48:	41 ba c3 bf ff ff    	mov    r10d,0xffffbfc3
  409b4e:	e9 3d ff ff ff       	jmp    409a90 <__pformat_cvt+0x50>
  409b53:	66 66 2e 0f 1f 84 00 	data16 cs nop WORD PTR [rax+rax*1+0x0]
  409b5a:	00 00 00 00 
  409b5e:	66 90                	xchg   ax,ax

0000000000409b60 <__pformat_putc>:
  409b60:	53                   	push   rbx
  409b61:	48 83 ec 20          	sub    rsp,0x20
  409b65:	48 89 d3             	mov    rbx,rdx
  409b68:	8b 52 08             	mov    edx,DWORD PTR [rdx+0x8]
  409b6b:	f6 c6 40             	test   dh,0x40
  409b6e:	75 08                	jne    409b78 <__pformat_putc+0x18>
  409b70:	8b 43 24             	mov    eax,DWORD PTR [rbx+0x24]
  409b73:	39 43 28             	cmp    DWORD PTR [rbx+0x28],eax
  409b76:	7e 13                	jle    409b8b <__pformat_putc+0x2b>
  409b78:	4c 8b 03             	mov    r8,QWORD PTR [rbx]
  409b7b:	80 e6 20             	and    dh,0x20
  409b7e:	75 20                	jne    409ba0 <__pformat_putc+0x40>
  409b80:	48 63 43 24          	movsxd rax,DWORD PTR [rbx+0x24]
  409b84:	41 88 0c 00          	mov    BYTE PTR [r8+rax*1],cl
  409b88:	8b 43 24             	mov    eax,DWORD PTR [rbx+0x24]
  409b8b:	83 c0 01             	add    eax,0x1
  409b8e:	89 43 24             	mov    DWORD PTR [rbx+0x24],eax
  409b91:	48 83 c4 20          	add    rsp,0x20
  409b95:	5b                   	pop    rbx
  409b96:	c3                   	ret
  409b97:	66 0f 1f 84 00 00 00 	nop    WORD PTR [rax+rax*1+0x0]
  409b9e:	00 00 
  409ba0:	4c 89 c2             	mov    rdx,r8
  409ba3:	e8 c0 4c 00 00       	call   40e868 <fputc>
  409ba8:	8b 43 24             	mov    eax,DWORD PTR [rbx+0x24]
  409bab:	83 c0 01             	add    eax,0x1
  409bae:	89 43 24             	mov    DWORD PTR [rbx+0x24],eax
  409bb1:	48 83 c4 20          	add    rsp,0x20
  409bb5:	5b                   	pop    rbx
  409bb6:	c3                   	ret
  409bb7:	66 0f 1f 84 00 00 00 	nop    WORD PTR [rax+rax*1+0x0]
  409bbe:	00 00 

0000000000409bc0 <__pformat_wputchars>:
  409bc0:	41 56                	push   r14
  409bc2:	41 55                	push   r13
  409bc4:	41 54                	push   r12
  409bc6:	55                   	push   rbp
  409bc7:	57                   	push   rdi
  409bc8:	56                   	push   rsi
  409bc9:	53                   	push   rbx
  409bca:	48 83 ec 40          	sub    rsp,0x40
  409bce:	4c 8d 6c 24 28       	lea    r13,[rsp+0x28]
  409bd3:	4c 8d 64 24 30       	lea    r12,[rsp+0x30]
  409bd8:	4c 89 c3             	mov    rbx,r8
  409bdb:	48 89 cd             	mov    rbp,rcx
  409bde:	89 d7                	mov    edi,edx
  409be0:	4d 89 e8             	mov    r8,r13
  409be3:	31 d2                	xor    edx,edx
  409be5:	4c 89 e1             	mov    rcx,r12
  409be8:	e8 f3 50 00 00       	call   40ece0 <wcrtomb>
  409bed:	8b 43 10             	mov    eax,DWORD PTR [rbx+0x10]
  409bf0:	85 c0                	test   eax,eax
  409bf2:	78 05                	js     409bf9 <__pformat_wputchars+0x39>
  409bf4:	39 c7                	cmp    edi,eax
  409bf6:	0f 4f f8             	cmovg  edi,eax
  409bf9:	8b 43 0c             	mov    eax,DWORD PTR [rbx+0xc]
  409bfc:	39 f8                	cmp    eax,edi
  409bfe:	0f 8f c5 00 00 00    	jg     409cc9 <__pformat_wputchars+0x109>
  409c04:	c7 43 0c ff ff ff ff 	mov    DWORD PTR [rbx+0xc],0xffffffff
  409c0b:	85 ff                	test   edi,edi
  409c0d:	0f 8e fc 00 00 00    	jle    409d0f <__pformat_wputchars+0x14f>
  409c13:	0f 1f 44 00 00       	nop    DWORD PTR [rax+rax*1+0x0]
  409c18:	0f b7 55 00          	movzx  edx,WORD PTR [rbp+0x0]
  409c1c:	4d 89 e8             	mov    r8,r13
  409c1f:	4c 89 e1             	mov    rcx,r12
  409c22:	48 83 c5 02          	add    rbp,0x2
  409c26:	e8 b5 50 00 00       	call   40ece0 <wcrtomb>
  409c2b:	85 c0                	test   eax,eax
  409c2d:	7e 7e                	jle    409cad <__pformat_wputchars+0xed>
  409c2f:	83 e8 01             	sub    eax,0x1
  409c32:	4c 89 e6             	mov    rsi,r12
  409c35:	4d 8d 74 04 01       	lea    r14,[r12+rax*1+0x1]
  409c3a:	eb 1a                	jmp    409c56 <__pformat_wputchars+0x96>
  409c3c:	0f 1f 40 00          	nop    DWORD PTR [rax+0x0]
  409c40:	48 63 43 24          	movsxd rax,DWORD PTR [rbx+0x24]
  409c44:	41 88 0c 00          	mov    BYTE PTR [r8+rax*1],cl
  409c48:	8b 43 24             	mov    eax,DWORD PTR [rbx+0x24]
  409c4b:	83 c0 01             	add    eax,0x1
  409c4e:	89 43 24             	mov    DWORD PTR [rbx+0x24],eax
  409c51:	4c 39 f6             	cmp    rsi,r14
  409c54:	74 36                	je     409c8c <__pformat_wputchars+0xcc>
  409c56:	8b 53 08             	mov    edx,DWORD PTR [rbx+0x8]
  409c59:	48 83 c6 01          	add    rsi,0x1
  409c5d:	f6 c6 40             	test   dh,0x40
  409c60:	75 08                	jne    409c6a <__pformat_wputchars+0xaa>
  409c62:	8b 43 24             	mov    eax,DWORD PTR [rbx+0x24]
  409c65:	39 43 28             	cmp    DWORD PTR [rbx+0x28],eax
  409c68:	7e e1                	jle    409c4b <__pformat_wputchars+0x8b>
  409c6a:	0f be 4e ff          	movsx  ecx,BYTE PTR [rsi-0x1]
  409c6e:	4c 8b 03             	mov    r8,QWORD PTR [rbx]
  409c71:	80 e6 20             	and    dh,0x20
  409c74:	74 ca                	je     409c40 <__pformat_wputchars+0x80>
  409c76:	4c 89 c2             	mov    rdx,r8
  409c79:	e8 ea 4b 00 00       	call   40e868 <fputc>
  409c7e:	8b 43 24             	mov    eax,DWORD PTR [rbx+0x24]
  409c81:	83 c0 01             	add    eax,0x1
  409c84:	89 43 24             	mov    DWORD PTR [rbx+0x24],eax
  409c87:	4c 39 f6             	cmp    rsi,r14
  409c8a:	75 ca                	jne    409c56 <__pformat_wputchars+0x96>
  409c8c:	83 ef 01             	sub    edi,0x1
  409c8f:	75 87                	jne    409c18 <__pformat_wputchars+0x58>
  409c91:	8b 43 0c             	mov    eax,DWORD PTR [rbx+0xc]
  409c94:	8d 50 ff             	lea    edx,[rax-0x1]
  409c97:	89 53 0c             	mov    DWORD PTR [rbx+0xc],edx
  409c9a:	85 c0                	test   eax,eax
  409c9c:	7e 1c                	jle    409cba <__pformat_wputchars+0xfa>
  409c9e:	66 90                	xchg   ax,ax
  409ca0:	48 89 da             	mov    rdx,rbx
  409ca3:	b9 20 00 00 00       	mov    ecx,0x20
  409ca8:	e8 b3 fe ff ff       	call   409b60 <__pformat_putc>
  409cad:	8b 43 0c             	mov    eax,DWORD PTR [rbx+0xc]
  409cb0:	8d 50 ff             	lea    edx,[rax-0x1]
  409cb3:	89 53 0c             	mov    DWORD PTR [rbx+0xc],edx
  409cb6:	85 c0                	test   eax,eax
  409cb8:	7f e6                	jg     409ca0 <__pformat_wputchars+0xe0>
  409cba:	48 83 c4 40          	add    rsp,0x40
  409cbe:	5b                   	pop    rbx
  409cbf:	5e                   	pop    rsi
  409cc0:	5f                   	pop    rdi
  409cc1:	5d                   	pop    rbp
  409cc2:	41 5c                	pop    r12
  409cc4:	41 5d                	pop    r13
  409cc6:	41 5e                	pop    r14
  409cc8:	c3                   	ret
  409cc9:	29 f8                	sub    eax,edi
  409ccb:	89 43 0c             	mov    DWORD PTR [rbx+0xc],eax
  409cce:	f6 43 09 04          	test   BYTE PTR [rbx+0x9],0x4
  409cd2:	75 2b                	jne    409cff <__pformat_wputchars+0x13f>
  409cd4:	83 e8 01             	sub    eax,0x1
  409cd7:	89 43 0c             	mov    DWORD PTR [rbx+0xc],eax
  409cda:	66 0f 1f 44 00 00    	nop    WORD PTR [rax+rax*1+0x0]
  409ce0:	48 89 da             	mov    rdx,rbx
  409ce3:	b9 20 00 00 00       	mov    ecx,0x20
  409ce8:	e8 73 fe ff ff       	call   409b60 <__pformat_putc>
  409ced:	8b 43 0c             	mov    eax,DWORD PTR [rbx+0xc]
  409cf0:	8d 50 ff             	lea    edx,[rax-0x1]
  409cf3:	89 53 0c             	mov    DWORD PTR [rbx+0xc],edx
  409cf6:	85 c0                	test   eax,eax
  409cf8:	75 e6                	jne    409ce0 <__pformat_wputchars+0x120>
  409cfa:	e9 0c ff ff ff       	jmp    409c0b <__pformat_wputchars+0x4b>
  409cff:	85 ff                	test   edi,edi
  409d01:	0f 8f 11 ff ff ff    	jg     409c18 <__pformat_wputchars+0x58>
  409d07:	83 e8 01             	sub    eax,0x1
  409d0a:	89 43 0c             	mov    DWORD PTR [rbx+0xc],eax
  409d0d:	eb 91                	jmp    409ca0 <__pformat_wputchars+0xe0>
  409d0f:	c7 43 0c fe ff ff ff 	mov    DWORD PTR [rbx+0xc],0xfffffffe
  409d16:	eb a2                	jmp    409cba <__pformat_wputchars+0xfa>
  409d18:	0f 1f 84 00 00 00 00 	nop    DWORD PTR [rax+rax*1+0x0]
  409d1f:	00 

0000000000409d20 <__pformat_putchars>:
  409d20:	57                   	push   rdi
  409d21:	56                   	push   rsi
  409d22:	53                   	push   rbx
  409d23:	48 83 ec 20          	sub    rsp,0x20
  409d27:	41 8b 40 10          	mov    eax,DWORD PTR [r8+0x10]
  409d2b:	48 89 ce             	mov    rsi,rcx
  409d2e:	89 d7                	mov    edi,edx
  409d30:	4c 89 c3             	mov    rbx,r8
  409d33:	85 c0                	test   eax,eax
  409d35:	78 05                	js     409d3c <__pformat_putchars+0x1c>
  409d37:	39 c2                	cmp    edx,eax
  409d39:	0f 4f f8             	cmovg  edi,eax
  409d3c:	8b 43 0c             	mov    eax,DWORD PTR [rbx+0xc]
  409d3f:	39 f8                	cmp    eax,edi
  409d41:	0f 8f c1 00 00 00    	jg     409e08 <__pformat_putchars+0xe8>
  409d47:	c7 43 0c ff ff ff ff 	mov    DWORD PTR [rbx+0xc],0xffffffff
  409d4e:	85 ff                	test   edi,edi
  409d50:	0f 84 9f 00 00 00    	je     409df5 <__pformat_putchars+0xd5>
  409d56:	8b 43 08             	mov    eax,DWORD PTR [rbx+0x8]
  409d59:	83 ef 01             	sub    edi,0x1
  409d5c:	48 01 f7             	add    rdi,rsi
  409d5f:	eb 23                	jmp    409d84 <__pformat_putchars+0x64>
  409d61:	0f 1f 80 00 00 00 00 	nop    DWORD PTR [rax+0x0]
  409d68:	48 63 43 24          	movsxd rax,DWORD PTR [rbx+0x24]
  409d6c:	88 0c 02             	mov    BYTE PTR [rdx+rax*1],cl
  409d6f:	8b 53 24             	mov    edx,DWORD PTR [rbx+0x24]
  409d72:	83 c2 01             	add    edx,0x1
  409d75:	89 53 24             	mov    DWORD PTR [rbx+0x24],edx
  409d78:	48 39 f7             	cmp    rdi,rsi
  409d7b:	74 44                	je     409dc1 <__pformat_putchars+0xa1>
  409d7d:	8b 43 08             	mov    eax,DWORD PTR [rbx+0x8]
  409d80:	48 83 c6 01          	add    rsi,0x1
  409d84:	f6 c4 40             	test   ah,0x40
  409d87:	75 08                	jne    409d91 <__pformat_putchars+0x71>
  409d89:	8b 53 24             	mov    edx,DWORD PTR [rbx+0x24]
  409d8c:	39 53 28             	cmp    DWORD PTR [rbx+0x28],edx
  409d8f:	7e e1                	jle    409d72 <__pformat_putchars+0x52>
  409d91:	0f be 0e             	movsx  ecx,BYTE PTR [rsi]
  409d94:	48 8b 13             	mov    rdx,QWORD PTR [rbx]
  409d97:	f6 c4 20             	test   ah,0x20
  409d9a:	74 cc                	je     409d68 <__pformat_putchars+0x48>
  409d9c:	e8 c7 4a 00 00       	call   40e868 <fputc>
  409da1:	8b 53 24             	mov    edx,DWORD PTR [rbx+0x24]
  409da4:	eb cc                	jmp    409d72 <__pformat_putchars+0x52>
  409da6:	66 2e 0f 1f 84 00 00 	cs nop WORD PTR [rax+rax*1+0x0]
  409dad:	00 00 00 
  409db0:	48 63 43 24          	movsxd rax,DWORD PTR [rbx+0x24]
  409db4:	c6 04 02 20          	mov    BYTE PTR [rdx+rax*1],0x20
  409db8:	8b 53 24             	mov    edx,DWORD PTR [rbx+0x24]
  409dbb:	83 c2 01             	add    edx,0x1
  409dbe:	89 53 24             	mov    DWORD PTR [rbx+0x24],edx
  409dc1:	8b 43 0c             	mov    eax,DWORD PTR [rbx+0xc]
  409dc4:	8d 50 ff             	lea    edx,[rax-0x1]
  409dc7:	89 53 0c             	mov    DWORD PTR [rbx+0xc],edx
  409dca:	85 c0                	test   eax,eax
  409dcc:	7e 2e                	jle    409dfc <__pformat_putchars+0xdc>
  409dce:	8b 43 08             	mov    eax,DWORD PTR [rbx+0x8]
  409dd1:	f6 c4 40             	test   ah,0x40
  409dd4:	75 08                	jne    409dde <__pformat_putchars+0xbe>
  409dd6:	8b 53 24             	mov    edx,DWORD PTR [rbx+0x24]
  409dd9:	39 53 28             	cmp    DWORD PTR [rbx+0x28],edx
  409ddc:	7e dd                	jle    409dbb <__pformat_putchars+0x9b>
  409dde:	48 8b 13             	mov    rdx,QWORD PTR [rbx]
  409de1:	f6 c4 20             	test   ah,0x20
  409de4:	74 ca                	je     409db0 <__pformat_putchars+0x90>
  409de6:	b9 20 00 00 00       	mov    ecx,0x20
  409deb:	e8 78 4a 00 00       	call   40e868 <fputc>
  409df0:	8b 53 24             	mov    edx,DWORD PTR [rbx+0x24]
  409df3:	eb c6                	jmp    409dbb <__pformat_putchars+0x9b>
  409df5:	c7 43 0c fe ff ff ff 	mov    DWORD PTR [rbx+0xc],0xfffffffe
  409dfc:	48 83 c4 20          	add    rsp,0x20
  409e00:	5b                   	pop    rbx
  409e01:	5e                   	pop    rsi
  409e02:	5f                   	pop    rdi
  409e03:	c3                   	ret
  409e04:	0f 1f 40 00          	nop    DWORD PTR [rax+0x0]
  409e08:	29 f8                	sub    eax,edi
  409e0a:	89 43 0c             	mov    DWORD PTR [rbx+0xc],eax
  409e0d:	89 c2                	mov    edx,eax
  409e0f:	8b 43 08             	mov    eax,DWORD PTR [rbx+0x8]
  409e12:	f6 c4 04             	test   ah,0x4
  409e15:	75 29                	jne    409e40 <__pformat_putchars+0x120>
  409e17:	8d 42 ff             	lea    eax,[rdx-0x1]
  409e1a:	89 43 0c             	mov    DWORD PTR [rbx+0xc],eax
  409e1d:	0f 1f 00             	nop    DWORD PTR [rax]
  409e20:	48 89 da             	mov    rdx,rbx
  409e23:	b9 20 00 00 00       	mov    ecx,0x20
  409e28:	e8 33 fd ff ff       	call   409b60 <__pformat_putc>
  409e2d:	8b 43 0c             	mov    eax,DWORD PTR [rbx+0xc]
  409e30:	8d 50 ff             	lea    edx,[rax-0x1]
  409e33:	89 53 0c             	mov    DWORD PTR [rbx+0xc],edx
  409e36:	85 c0                	test   eax,eax
  409e38:	75 e6                	jne    409e20 <__pformat_putchars+0x100>
  409e3a:	e9 0f ff ff ff       	jmp    409d4e <__pformat_putchars+0x2e>
  409e3f:	90                   	nop
  409e40:	85 ff                	test   edi,edi
  409e42:	0f 85 11 ff ff ff    	jne    409d59 <__pformat_putchars+0x39>
  409e48:	83 ea 01             	sub    edx,0x1
  409e4b:	89 53 0c             	mov    DWORD PTR [rbx+0xc],edx
  409e4e:	eb 81                	jmp    409dd1 <__pformat_putchars+0xb1>

0000000000409e50 <__pformat_puts>:
  409e50:	41 54                	push   r12
  409e52:	53                   	push   rbx
  409e53:	48 83 ec 28          	sub    rsp,0x28
  409e57:	48 8d 05 a2 78 00 00 	lea    rax,[rip+0x78a2]        # 411700 <.rdata>
  409e5e:	49 89 cc             	mov    r12,rcx
  409e61:	48 85 c9             	test   rcx,rcx
  409e64:	48 89 d3             	mov    rbx,rdx
  409e67:	48 63 52 10          	movsxd rdx,DWORD PTR [rdx+0x10]
  409e6b:	4c 0f 44 e0          	cmove  r12,rax
  409e6f:	4c 89 e1             	mov    rcx,r12
  409e72:	85 d2                	test   edx,edx
  409e74:	78 1a                	js     409e90 <__pformat_puts+0x40>
  409e76:	e8 25 49 00 00       	call   40e7a0 <strnlen>
  409e7b:	48 89 c2             	mov    rdx,rax
  409e7e:	49 89 d8             	mov    r8,rbx
  409e81:	4c 89 e1             	mov    rcx,r12
  409e84:	48 83 c4 28          	add    rsp,0x28
  409e88:	5b                   	pop    rbx
  409e89:	41 5c                	pop    r12
  409e8b:	e9 90 fe ff ff       	jmp    409d20 <__pformat_putchars>
  409e90:	e8 83 49 00 00       	call   40e818 <strlen>
  409e95:	eb e4                	jmp    409e7b <__pformat_puts+0x2b>
  409e97:	66 0f 1f 84 00 00 00 	nop    WORD PTR [rax+rax*1+0x0]
  409e9e:	00 00 

0000000000409ea0 <__pformat_emit_inf_or_nan>:
  409ea0:	48 83 ec 38          	sub    rsp,0x38
  409ea4:	45 8b 48 08          	mov    r9d,DWORD PTR [r8+0x8]
  409ea8:	41 c7 40 10 ff ff ff 	mov    DWORD PTR [r8+0x10],0xffffffff
  409eaf:	ff 
  409eb0:	49 89 d2             	mov    r10,rdx
  409eb3:	85 c9                	test   ecx,ecx
  409eb5:	74 49                	je     409f00 <__pformat_emit_inf_or_nan+0x60>
  409eb7:	c6 44 24 2c 2d       	mov    BYTE PTR [rsp+0x2c],0x2d
  409ebc:	48 8d 4c 24 2d       	lea    rcx,[rsp+0x2d]
  409ec1:	4c 8d 5c 24 2c       	lea    r11,[rsp+0x2c]
  409ec6:	41 83 e1 20          	and    r9d,0x20
  409eca:	31 d2                	xor    edx,edx
  409ecc:	41 0f b6 04 12       	movzx  eax,BYTE PTR [r10+rdx*1]
  409ed1:	83 e0 df             	and    eax,0xffffffdf
  409ed4:	44 09 c8             	or     eax,r9d
  409ed7:	88 04 11             	mov    BYTE PTR [rcx+rdx*1],al
  409eda:	48 83 c2 01          	add    rdx,0x1
  409ede:	48 83 fa 03          	cmp    rdx,0x3
  409ee2:	75 e8                	jne    409ecc <__pformat_emit_inf_or_nan+0x2c>
  409ee4:	48 8d 51 03          	lea    rdx,[rcx+0x3]
  409ee8:	4c 89 d9             	mov    rcx,r11
  409eeb:	4c 29 da             	sub    rdx,r11
  409eee:	e8 2d fe ff ff       	call   409d20 <__pformat_putchars>
  409ef3:	90                   	nop
  409ef4:	48 83 c4 38          	add    rsp,0x38
  409ef8:	c3                   	ret
  409ef9:	0f 1f 80 00 00 00 00 	nop    DWORD PTR [rax+0x0]
  409f00:	41 f7 c1 00 01 00 00 	test   r9d,0x100
  409f07:	74 17                	je     409f20 <__pformat_emit_inf_or_nan+0x80>
  409f09:	c6 44 24 2c 2b       	mov    BYTE PTR [rsp+0x2c],0x2b
  409f0e:	48 8d 4c 24 2d       	lea    rcx,[rsp+0x2d]
  409f13:	4c 8d 5c 24 2c       	lea    r11,[rsp+0x2c]
  409f18:	eb ac                	jmp    409ec6 <__pformat_emit_inf_or_nan+0x26>
  409f1a:	66 0f 1f 44 00 00    	nop    WORD PTR [rax+rax*1+0x0]
  409f20:	41 f6 c1 40          	test   r9b,0x40
  409f24:	74 1a                	je     409f40 <__pformat_emit_inf_or_nan+0xa0>
  409f26:	c6 44 24 2c 20       	mov    BYTE PTR [rsp+0x2c],0x20
  409f2b:	48 8d 4c 24 2d       	lea    rcx,[rsp+0x2d]
  409f30:	4c 8d 5c 24 2c       	lea    r11,[rsp+0x2c]
  409f35:	eb 8f                	jmp    409ec6 <__pformat_emit_inf_or_nan+0x26>
  409f37:	66 0f 1f 84 00 00 00 	nop    WORD PTR [rax+rax*1+0x0]
  409f3e:	00 00 
  409f40:	4c 8d 5c 24 2c       	lea    r11,[rsp+0x2c]
  409f45:	4c 89 d9             	mov    rcx,r11
  409f48:	e9 79 ff ff ff       	jmp    409ec6 <__pformat_emit_inf_or_nan+0x26>
  409f4d:	0f 1f 00             	nop    DWORD PTR [rax]

0000000000409f50 <__pformat_xint.isra.0>:
  409f50:	55                   	push   rbp
  409f51:	41 57                	push   r15
  409f53:	41 56                	push   r14
  409f55:	41 55                	push   r13
  409f57:	41 54                	push   r12
  409f59:	57                   	push   rdi
  409f5a:	56                   	push   rsi
  409f5b:	53                   	push   rbx
  409f5c:	48 83 ec 38          	sub    rsp,0x38
  409f60:	48 8d ac 24 80 00 00 	lea    rbp,[rsp+0x80]
  409f67:	00 
  409f68:	41 89 ce             	mov    r14d,ecx
  409f6b:	4c 89 c3             	mov    rbx,r8
  409f6e:	83 f9 6f             	cmp    ecx,0x6f
  409f71:	0f 84 39 03 00 00    	je     40a2b0 <__pformat_xint.isra.0+0x360>
  409f77:	45 8b 78 10          	mov    r15d,DWORD PTR [r8+0x10]
  409f7b:	b8 00 00 00 00       	mov    eax,0x0
  409f80:	41 8b 78 08          	mov    edi,DWORD PTR [r8+0x8]
  409f84:	45 85 ff             	test   r15d,r15d
  409f87:	41 0f 49 c7          	cmovns eax,r15d
  409f8b:	83 c0 12             	add    eax,0x12
  409f8e:	f7 c7 00 10 00 00    	test   edi,0x1000
  409f94:	0f 85 c6 01 00 00    	jne    40a160 <__pformat_xint.isra.0+0x210>
  409f9a:	44 8b 6b 0c          	mov    r13d,DWORD PTR [rbx+0xc]
  409f9e:	44 39 e8             	cmp    eax,r13d
  409fa1:	41 0f 4c c5          	cmovl  eax,r13d
  409fa5:	48 98                	cdqe
  409fa7:	48 83 c0 0f          	add    rax,0xf
  409fab:	48 83 e0 f0          	and    rax,0xfffffffffffffff0
  409faf:	e8 fc f9 ff ff       	call   4099b0 <___chkstk_ms>
  409fb4:	b9 04 00 00 00       	mov    ecx,0x4
  409fb9:	41 b8 0f 00 00 00    	mov    r8d,0xf
  409fbf:	48 29 c4             	sub    rsp,rax
  409fc2:	4c 8d 64 24 20       	lea    r12,[rsp+0x20]
  409fc7:	4c 89 e6             	mov    rsi,r12
  409fca:	48 85 d2             	test   rdx,rdx
  409fcd:	0f 84 f5 01 00 00    	je     40a1c8 <__pformat_xint.isra.0+0x278>
  409fd3:	45 89 f1             	mov    r9d,r14d
  409fd6:	41 83 e1 20          	and    r9d,0x20
  409fda:	66 0f 1f 44 00 00    	nop    WORD PTR [rax+rax*1+0x0]
  409fe0:	44 89 c0             	mov    eax,r8d
  409fe3:	48 83 c6 01          	add    rsi,0x1
  409fe7:	21 d0                	and    eax,edx
  409fe9:	44 8d 50 30          	lea    r10d,[rax+0x30]
  409fed:	83 c0 37             	add    eax,0x37
  409ff0:	44 09 c8             	or     eax,r9d
  409ff3:	45 89 d3             	mov    r11d,r10d
  409ff6:	41 80 fa 3a          	cmp    r10b,0x3a
  409ffa:	41 0f 42 c3          	cmovb  eax,r11d
  409ffe:	48 d3 ea             	shr    rdx,cl
  40a001:	88 46 ff             	mov    BYTE PTR [rsi-0x1],al
  40a004:	48 85 d2             	test   rdx,rdx
  40a007:	75 d7                	jne    409fe0 <__pformat_xint.isra.0+0x90>
  40a009:	4c 39 e6             	cmp    rsi,r12
  40a00c:	0f 84 b6 01 00 00    	je     40a1c8 <__pformat_xint.isra.0+0x278>
  40a012:	45 85 ff             	test   r15d,r15d
  40a015:	0f 8e c5 01 00 00    	jle    40a1e0 <__pformat_xint.isra.0+0x290>
  40a01b:	48 89 f0             	mov    rax,rsi
  40a01e:	45 89 f8             	mov    r8d,r15d
  40a021:	4c 29 e0             	sub    rax,r12
  40a024:	41 29 c0             	sub    r8d,eax
  40a027:	45 85 c0             	test   r8d,r8d
  40a02a:	0f 8e b0 01 00 00    	jle    40a1e0 <__pformat_xint.isra.0+0x290>
  40a030:	49 63 f8             	movsxd rdi,r8d
  40a033:	48 89 f1             	mov    rcx,rsi
  40a036:	ba 30 00 00 00       	mov    edx,0x30
  40a03b:	49 89 f8             	mov    r8,rdi
  40a03e:	48 01 fe             	add    rsi,rdi
  40a041:	e8 ea 47 00 00       	call   40e830 <memset>
  40a046:	4c 39 e6             	cmp    rsi,r12
  40a049:	0f 84 ad 01 00 00    	je     40a1fc <__pformat_xint.isra.0+0x2ac>
  40a04f:	48 89 f0             	mov    rax,rsi
  40a052:	4c 29 e0             	sub    rax,r12
  40a055:	44 39 e8             	cmp    eax,r13d
  40a058:	0f 8c ba 01 00 00    	jl     40a218 <__pformat_xint.isra.0+0x2c8>
  40a05e:	c7 43 0c ff ff ff ff 	mov    DWORD PTR [rbx+0xc],0xffffffff
  40a065:	41 83 fe 6f          	cmp    r14d,0x6f
  40a069:	0f 84 21 02 00 00    	je     40a290 <__pformat_xint.isra.0+0x340>
  40a06f:	41 bd ff ff ff ff    	mov    r13d,0xffffffff
  40a075:	f6 43 09 08          	test   BYTE PTR [rbx+0x9],0x8
  40a079:	0f 85 51 03 00 00    	jne    40a3d0 <__pformat_xint.isra.0+0x480>
  40a07f:	49 39 f4             	cmp    r12,rsi
  40a082:	0f 83 bf 00 00 00    	jae    40a147 <__pformat_xint.isra.0+0x1f7>
  40a088:	8b 7b 08             	mov    edi,DWORD PTR [rbx+0x8]
  40a08b:	45 8d 75 ff          	lea    r14d,[r13-0x1]
  40a08f:	eb 1f                	jmp    40a0b0 <__pformat_xint.isra.0+0x160>
  40a091:	0f 1f 80 00 00 00 00 	nop    DWORD PTR [rax+0x0]
  40a098:	48 63 43 24          	movsxd rax,DWORD PTR [rbx+0x24]
  40a09c:	88 0c 02             	mov    BYTE PTR [rdx+rax*1],cl
  40a09f:	8b 43 24             	mov    eax,DWORD PTR [rbx+0x24]
  40a0a2:	83 c0 01             	add    eax,0x1
  40a0a5:	89 43 24             	mov    DWORD PTR [rbx+0x24],eax
  40a0a8:	4c 39 e6             	cmp    rsi,r12
  40a0ab:	76 38                	jbe    40a0e5 <__pformat_xint.isra.0+0x195>
  40a0ad:	8b 7b 08             	mov    edi,DWORD PTR [rbx+0x8]
  40a0b0:	48 83 ee 01          	sub    rsi,0x1
  40a0b4:	f7 c7 00 40 00 00    	test   edi,0x4000
  40a0ba:	75 08                	jne    40a0c4 <__pformat_xint.isra.0+0x174>
  40a0bc:	8b 43 24             	mov    eax,DWORD PTR [rbx+0x24]
  40a0bf:	39 43 28             	cmp    DWORD PTR [rbx+0x28],eax
  40a0c2:	7e de                	jle    40a0a2 <__pformat_xint.isra.0+0x152>
  40a0c4:	81 e7 00 20 00 00    	and    edi,0x2000
  40a0ca:	0f be 0e             	movsx  ecx,BYTE PTR [rsi]
  40a0cd:	48 8b 13             	mov    rdx,QWORD PTR [rbx]
  40a0d0:	74 c6                	je     40a098 <__pformat_xint.isra.0+0x148>
  40a0d2:	e8 91 47 00 00       	call   40e868 <fputc>
  40a0d7:	8b 43 24             	mov    eax,DWORD PTR [rbx+0x24]
  40a0da:	83 c0 01             	add    eax,0x1
  40a0dd:	89 43 24             	mov    DWORD PTR [rbx+0x24],eax
  40a0e0:	4c 39 e6             	cmp    rsi,r12
  40a0e3:	77 c8                	ja     40a0ad <__pformat_xint.isra.0+0x15d>
  40a0e5:	45 85 ed             	test   r13d,r13d
  40a0e8:	7f 23                	jg     40a10d <__pformat_xint.isra.0+0x1bd>
  40a0ea:	eb 5b                	jmp    40a147 <__pformat_xint.isra.0+0x1f7>
  40a0ec:	0f 1f 40 00          	nop    DWORD PTR [rax+0x0]
  40a0f0:	48 63 43 24          	movsxd rax,DWORD PTR [rbx+0x24]
  40a0f4:	c6 04 02 20          	mov    BYTE PTR [rdx+rax*1],0x20
  40a0f8:	8b 43 24             	mov    eax,DWORD PTR [rbx+0x24]
  40a0fb:	83 c0 01             	add    eax,0x1
  40a0fe:	89 43 24             	mov    DWORD PTR [rbx+0x24],eax
  40a101:	41 8d 46 ff          	lea    eax,[r14-0x1]
  40a105:	45 85 f6             	test   r14d,r14d
  40a108:	7e 3d                	jle    40a147 <__pformat_xint.isra.0+0x1f7>
  40a10a:	41 89 c6             	mov    r14d,eax
  40a10d:	8b 7b 08             	mov    edi,DWORD PTR [rbx+0x8]
  40a110:	f7 c7 00 40 00 00    	test   edi,0x4000
  40a116:	75 08                	jne    40a120 <__pformat_xint.isra.0+0x1d0>
  40a118:	8b 43 24             	mov    eax,DWORD PTR [rbx+0x24]
  40a11b:	39 43 28             	cmp    DWORD PTR [rbx+0x28],eax
  40a11e:	7e db                	jle    40a0fb <__pformat_xint.isra.0+0x1ab>
  40a120:	81 e7 00 20 00 00    	and    edi,0x2000
  40a126:	48 8b 13             	mov    rdx,QWORD PTR [rbx]
  40a129:	74 c5                	je     40a0f0 <__pformat_xint.isra.0+0x1a0>
  40a12b:	b9 20 00 00 00       	mov    ecx,0x20
  40a130:	e8 33 47 00 00       	call   40e868 <fputc>
  40a135:	8b 43 24             	mov    eax,DWORD PTR [rbx+0x24]
  40a138:	83 c0 01             	add    eax,0x1
  40a13b:	89 43 24             	mov    DWORD PTR [rbx+0x24],eax
  40a13e:	41 8d 46 ff          	lea    eax,[r14-0x1]
  40a142:	45 85 f6             	test   r14d,r14d
  40a145:	7f c3                	jg     40a10a <__pformat_xint.isra.0+0x1ba>
  40a147:	48 8d 65 b8          	lea    rsp,[rbp-0x48]
  40a14b:	5b                   	pop    rbx
  40a14c:	5e                   	pop    rsi
  40a14d:	5f                   	pop    rdi
  40a14e:	41 5c                	pop    r12
  40a150:	41 5d                	pop    r13
  40a152:	41 5e                	pop    r14
  40a154:	41 5f                	pop    r15
  40a156:	5d                   	pop    rbp
  40a157:	c3                   	ret
  40a158:	0f 1f 84 00 00 00 00 	nop    DWORD PTR [rax+rax*1+0x0]
  40a15f:	00 
  40a160:	66 41 83 78 20 00    	cmp    WORD PTR [r8+0x20],0x0
  40a166:	b9 04 00 00 00       	mov    ecx,0x4
  40a16b:	0f 84 2f 02 00 00    	je     40a3a0 <__pformat_xint.isra.0+0x450>
  40a171:	41 89 c0             	mov    r8d,eax
  40a174:	41 b9 ab aa aa aa    	mov    r9d,0xaaaaaaab
  40a17a:	44 8b 6b 0c          	mov    r13d,DWORD PTR [rbx+0xc]
  40a17e:	4d 0f af c1          	imul   r8,r9
  40a182:	49 c1 e8 21          	shr    r8,0x21
  40a186:	44 01 c0             	add    eax,r8d
  40a189:	44 39 e8             	cmp    eax,r13d
  40a18c:	41 0f 4c c5          	cmovl  eax,r13d
  40a190:	48 98                	cdqe
  40a192:	48 83 c0 0f          	add    rax,0xf
  40a196:	48 83 e0 f0          	and    rax,0xfffffffffffffff0
  40a19a:	e8 11 f8 ff ff       	call   4099b0 <___chkstk_ms>
  40a19f:	48 29 c4             	sub    rsp,rax
  40a1a2:	4c 8d 64 24 20       	lea    r12,[rsp+0x20]
  40a1a7:	41 83 fe 6f          	cmp    r14d,0x6f
  40a1ab:	0f 84 49 01 00 00    	je     40a2fa <__pformat_xint.isra.0+0x3aa>
  40a1b1:	41 b8 0f 00 00 00    	mov    r8d,0xf
  40a1b7:	4c 89 e6             	mov    rsi,r12
  40a1ba:	48 85 d2             	test   rdx,rdx
  40a1bd:	0f 85 10 fe ff ff    	jne    409fd3 <__pformat_xint.isra.0+0x83>
  40a1c3:	0f 1f 44 00 00       	nop    DWORD PTR [rax+rax*1+0x0]
  40a1c8:	81 e7 ff f7 ff ff    	and    edi,0xfffff7ff
  40a1ce:	89 7b 08             	mov    DWORD PTR [rbx+0x8],edi
  40a1d1:	45 85 ff             	test   r15d,r15d
  40a1d4:	0f 8f 41 fe ff ff    	jg     40a01b <__pformat_xint.isra.0+0xcb>
  40a1da:	66 0f 1f 44 00 00    	nop    WORD PTR [rax+rax*1+0x0]
  40a1e0:	41 83 fe 6f          	cmp    r14d,0x6f
  40a1e4:	0f 84 1e 01 00 00    	je     40a308 <__pformat_xint.isra.0+0x3b8>
  40a1ea:	4c 39 e6             	cmp    rsi,r12
  40a1ed:	0f 85 5c fe ff ff    	jne    40a04f <__pformat_xint.isra.0+0xff>
  40a1f3:	45 85 ff             	test   r15d,r15d
  40a1f6:	0f 84 53 fe ff ff    	je     40a04f <__pformat_xint.isra.0+0xff>
  40a1fc:	c6 06 30             	mov    BYTE PTR [rsi],0x30
  40a1ff:	48 83 c6 01          	add    rsi,0x1
  40a203:	48 89 f0             	mov    rax,rsi
  40a206:	4c 29 e0             	sub    rax,r12
  40a209:	44 39 e8             	cmp    eax,r13d
  40a20c:	0f 8d 4c fe ff ff    	jge    40a05e <__pformat_xint.isra.0+0x10e>
  40a212:	66 0f 1f 44 00 00    	nop    WORD PTR [rax+rax*1+0x0]
  40a218:	41 29 c5             	sub    r13d,eax
  40a21b:	8b 7b 08             	mov    edi,DWORD PTR [rbx+0x8]
  40a21e:	44 89 6b 0c          	mov    DWORD PTR [rbx+0xc],r13d
  40a222:	41 83 fe 6f          	cmp    r14d,0x6f
  40a226:	0f 84 f4 00 00 00    	je     40a320 <__pformat_xint.isra.0+0x3d0>
  40a22c:	f7 c7 00 08 00 00    	test   edi,0x800
  40a232:	0f 84 18 01 00 00    	je     40a350 <__pformat_xint.isra.0+0x400>
  40a238:	41 83 ed 02          	sub    r13d,0x2
  40a23c:	45 85 ed             	test   r13d,r13d
  40a23f:	7e 09                	jle    40a24a <__pformat_xint.isra.0+0x2fa>
  40a241:	45 85 ff             	test   r15d,r15d
  40a244:	0f 88 f6 01 00 00    	js     40a440 <__pformat_xint.isra.0+0x4f0>
  40a24a:	44 88 36             	mov    BYTE PTR [rsi],r14b
  40a24d:	48 83 c6 02          	add    rsi,0x2
  40a251:	c6 46 ff 30          	mov    BYTE PTR [rsi-0x1],0x30
  40a255:	45 85 ed             	test   r13d,r13d
  40a258:	0f 8e 21 fe ff ff    	jle    40a07f <__pformat_xint.isra.0+0x12f>
  40a25e:	8b 7b 08             	mov    edi,DWORD PTR [rbx+0x8]
  40a261:	45 8d 75 ff          	lea    r14d,[r13-0x1]
  40a265:	f7 c7 00 04 00 00    	test   edi,0x400
  40a26b:	0f 85 f8 00 00 00    	jne    40a369 <__pformat_xint.isra.0+0x419>
  40a271:	0f 1f 80 00 00 00 00 	nop    DWORD PTR [rax+0x0]
  40a278:	48 89 da             	mov    rdx,rbx
  40a27b:	b9 20 00 00 00       	mov    ecx,0x20
  40a280:	e8 db f8 ff ff       	call   409b60 <__pformat_putc>
  40a285:	44 89 f0             	mov    eax,r14d
  40a288:	41 83 ee 01          	sub    r14d,0x1
  40a28c:	85 c0                	test   eax,eax
  40a28e:	7f e8                	jg     40a278 <__pformat_xint.isra.0+0x328>
  40a290:	41 be fe ff ff ff    	mov    r14d,0xfffffffe
  40a296:	41 bd ff ff ff ff    	mov    r13d,0xffffffff
  40a29c:	4c 39 e6             	cmp    rsi,r12
  40a29f:	0f 87 08 fe ff ff    	ja     40a0ad <__pformat_xint.isra.0+0x15d>
  40a2a5:	e9 9d fe ff ff       	jmp    40a147 <__pformat_xint.isra.0+0x1f7>
  40a2aa:	66 0f 1f 44 00 00    	nop    WORD PTR [rax+rax*1+0x0]
  40a2b0:	45 8b 78 10          	mov    r15d,DWORD PTR [r8+0x10]
  40a2b4:	b8 00 00 00 00       	mov    eax,0x0
  40a2b9:	41 8b 78 08          	mov    edi,DWORD PTR [r8+0x8]
  40a2bd:	45 85 ff             	test   r15d,r15d
  40a2c0:	41 0f 49 c7          	cmovns eax,r15d
  40a2c4:	83 c0 18             	add    eax,0x18
  40a2c7:	f7 c7 00 10 00 00    	test   edi,0x1000
  40a2cd:	0f 85 ad 00 00 00    	jne    40a380 <__pformat_xint.isra.0+0x430>
  40a2d3:	44 8b 6b 0c          	mov    r13d,DWORD PTR [rbx+0xc]
  40a2d7:	41 39 c5             	cmp    r13d,eax
  40a2da:	41 0f 4d c5          	cmovge eax,r13d
  40a2de:	48 98                	cdqe
  40a2e0:	48 83 c0 0f          	add    rax,0xf
  40a2e4:	48 83 e0 f0          	and    rax,0xfffffffffffffff0
  40a2e8:	e8 c3 f6 ff ff       	call   4099b0 <___chkstk_ms>
  40a2ed:	b9 03 00 00 00       	mov    ecx,0x3
  40a2f2:	48 29 c4             	sub    rsp,rax
  40a2f5:	4c 8d 64 24 20       	lea    r12,[rsp+0x20]
  40a2fa:	41 b8 07 00 00 00    	mov    r8d,0x7
  40a300:	e9 c2 fc ff ff       	jmp    409fc7 <__pformat_xint.isra.0+0x77>
  40a305:	0f 1f 00             	nop    DWORD PTR [rax]
  40a308:	f6 43 09 08          	test   BYTE PTR [rbx+0x9],0x8
  40a30c:	0f 84 d8 fe ff ff    	je     40a1ea <__pformat_xint.isra.0+0x29a>
  40a312:	c6 06 30             	mov    BYTE PTR [rsi],0x30
  40a315:	48 83 c6 01          	add    rsi,0x1
  40a319:	e9 cc fe ff ff       	jmp    40a1ea <__pformat_xint.isra.0+0x29a>
  40a31e:	66 90                	xchg   ax,ax
  40a320:	45 85 ff             	test   r15d,r15d
  40a323:	0f 88 b7 00 00 00    	js     40a3e0 <__pformat_xint.isra.0+0x490>
  40a329:	45 8d 75 ff          	lea    r14d,[r13-0x1]
  40a32d:	f7 c7 00 04 00 00    	test   edi,0x400
  40a333:	0f 84 3f ff ff ff    	je     40a278 <__pformat_xint.isra.0+0x328>
  40a339:	4c 39 e6             	cmp    rsi,r12
  40a33c:	0f 87 6e fd ff ff    	ja     40a0b0 <__pformat_xint.isra.0+0x160>
  40a342:	e9 c9 fd ff ff       	jmp    40a110 <__pformat_xint.isra.0+0x1c0>
  40a347:	66 0f 1f 84 00 00 00 	nop    WORD PTR [rax+rax*1+0x0]
  40a34e:	00 00 
  40a350:	45 85 ff             	test   r15d,r15d
  40a353:	0f 88 e7 00 00 00    	js     40a440 <__pformat_xint.isra.0+0x4f0>
  40a359:	45 8d 75 ff          	lea    r14d,[r13-0x1]
  40a35d:	f7 c7 00 04 00 00    	test   edi,0x400
  40a363:	0f 84 0f ff ff ff    	je     40a278 <__pformat_xint.isra.0+0x328>
  40a369:	49 39 f4             	cmp    r12,rsi
  40a36c:	0f 82 3e fd ff ff    	jb     40a0b0 <__pformat_xint.isra.0+0x160>
  40a372:	e9 99 fd ff ff       	jmp    40a110 <__pformat_xint.isra.0+0x1c0>
  40a377:	66 0f 1f 84 00 00 00 	nop    WORD PTR [rax+rax*1+0x0]
  40a37e:	00 00 
  40a380:	66 41 83 78 20 00    	cmp    WORD PTR [r8+0x20],0x0
  40a386:	0f 84 d3 00 00 00    	je     40a45f <__pformat_xint.isra.0+0x50f>
  40a38c:	b9 03 00 00 00       	mov    ecx,0x3
  40a391:	e9 db fd ff ff       	jmp    40a171 <__pformat_xint.isra.0+0x221>
  40a396:	66 2e 0f 1f 84 00 00 	cs nop WORD PTR [rax+rax*1+0x0]
  40a39d:	00 00 00 
  40a3a0:	44 8b 6b 0c          	mov    r13d,DWORD PTR [rbx+0xc]
  40a3a4:	44 39 e8             	cmp    eax,r13d
  40a3a7:	41 0f 4c c5          	cmovl  eax,r13d
  40a3ab:	48 98                	cdqe
  40a3ad:	48 83 c0 0f          	add    rax,0xf
  40a3b1:	48 83 e0 f0          	and    rax,0xfffffffffffffff0
  40a3b5:	e8 f6 f5 ff ff       	call   4099b0 <___chkstk_ms>
  40a3ba:	41 b8 0f 00 00 00    	mov    r8d,0xf
  40a3c0:	48 29 c4             	sub    rsp,rax
  40a3c3:	4c 8d 64 24 20       	lea    r12,[rsp+0x20]
  40a3c8:	e9 ea fd ff ff       	jmp    40a1b7 <__pformat_xint.isra.0+0x267>
  40a3cd:	0f 1f 00             	nop    DWORD PTR [rax]
  40a3d0:	44 88 36             	mov    BYTE PTR [rsi],r14b
  40a3d3:	48 83 c6 02          	add    rsi,0x2
  40a3d7:	c6 46 ff 30          	mov    BYTE PTR [rsi-0x1],0x30
  40a3db:	e9 9f fc ff ff       	jmp    40a07f <__pformat_xint.isra.0+0x12f>
  40a3e0:	89 f8                	mov    eax,edi
  40a3e2:	25 00 06 00 00       	and    eax,0x600
  40a3e7:	3d 00 02 00 00       	cmp    eax,0x200
  40a3ec:	0f 85 37 ff ff ff    	jne    40a329 <__pformat_xint.isra.0+0x3d9>
  40a3f2:	45 8d 4d ff          	lea    r9d,[r13-0x1]
  40a3f6:	48 89 f1             	mov    rcx,rsi
  40a3f9:	ba 30 00 00 00       	mov    edx,0x30
  40a3fe:	45 8d 79 01          	lea    r15d,[r9+0x1]
  40a402:	44 89 4d ac          	mov    DWORD PTR [rbp-0x54],r9d
  40a406:	4d 63 ff             	movsxd r15,r15d
  40a409:	4d 89 f8             	mov    r8,r15
  40a40c:	4c 01 fe             	add    rsi,r15
  40a40f:	e8 1c 44 00 00       	call   40e830 <memset>
  40a414:	44 8b 4d ac          	mov    r9d,DWORD PTR [rbp-0x54]
  40a418:	45 29 e9             	sub    r9d,r13d
  40a41b:	45 89 cd             	mov    r13d,r9d
  40a41e:	41 83 fe 6f          	cmp    r14d,0x6f
  40a422:	0f 84 2d fe ff ff    	je     40a255 <__pformat_xint.isra.0+0x305>
  40a428:	81 e7 00 08 00 00    	and    edi,0x800
  40a42e:	0f 84 21 fe ff ff    	je     40a255 <__pformat_xint.isra.0+0x305>
  40a434:	e9 11 fe ff ff       	jmp    40a24a <__pformat_xint.isra.0+0x2fa>
  40a439:	0f 1f 80 00 00 00 00 	nop    DWORD PTR [rax+0x0]
  40a440:	89 f8                	mov    eax,edi
  40a442:	25 00 06 00 00       	and    eax,0x600
  40a447:	3d 00 02 00 00       	cmp    eax,0x200
  40a44c:	74 a4                	je     40a3f2 <__pformat_xint.isra.0+0x4a2>
  40a44e:	f7 c7 00 08 00 00    	test   edi,0x800
  40a454:	0f 85 f0 fd ff ff    	jne    40a24a <__pformat_xint.isra.0+0x2fa>
  40a45a:	e9 fa fe ff ff       	jmp    40a359 <__pformat_xint.isra.0+0x409>
  40a45f:	44 8b 6b 0c          	mov    r13d,DWORD PTR [rbx+0xc]
  40a463:	44 39 e8             	cmp    eax,r13d
  40a466:	41 0f 4c c5          	cmovl  eax,r13d
  40a46a:	e9 6f fe ff ff       	jmp    40a2de <__pformat_xint.isra.0+0x38e>
  40a46f:	90                   	nop

000000000040a470 <__pformat_int.isra.0>:
  40a470:	55                   	push   rbp
  40a471:	41 57                	push   r15
  40a473:	41 56                	push   r14
  40a475:	41 55                	push   r13
  40a477:	41 54                	push   r12
  40a479:	57                   	push   rdi
  40a47a:	56                   	push   rsi
  40a47b:	53                   	push   rbx
  40a47c:	48 83 ec 28          	sub    rsp,0x28
  40a480:	48 8d ac 24 80 00 00 	lea    rbp,[rsp+0x80]
  40a487:	00 
  40a488:	b8 00 00 00 00       	mov    eax,0x0
  40a48d:	44 8b 72 10          	mov    r14d,DWORD PTR [rdx+0x10]
  40a491:	8b 7a 08             	mov    edi,DWORD PTR [rdx+0x8]
  40a494:	45 85 f6             	test   r14d,r14d
  40a497:	41 0f 49 c6          	cmovns eax,r14d
  40a49b:	48 89 d3             	mov    rbx,rdx
  40a49e:	83 c0 17             	add    eax,0x17
  40a4a1:	f7 c7 00 10 00 00    	test   edi,0x1000
  40a4a7:	74 0b                	je     40a4b4 <__pformat_int.isra.0+0x44>
  40a4a9:	66 83 7a 20 00       	cmp    WORD PTR [rdx+0x20],0x0
  40a4ae:	0f 85 3c 02 00 00    	jne    40a6f0 <__pformat_int.isra.0+0x280>
  40a4b4:	8b 73 0c             	mov    esi,DWORD PTR [rbx+0xc]
  40a4b7:	39 c6                	cmp    esi,eax
  40a4b9:	0f 4d c6             	cmovge eax,esi
  40a4bc:	48 98                	cdqe
  40a4be:	48 83 c0 0f          	add    rax,0xf
  40a4c2:	48 83 e0 f0          	and    rax,0xfffffffffffffff0
  40a4c6:	e8 e5 f4 ff ff       	call   4099b0 <___chkstk_ms>
  40a4cb:	48 29 c4             	sub    rsp,rax
  40a4ce:	4c 8d 64 24 20       	lea    r12,[rsp+0x20]
  40a4d3:	40 f6 c7 80          	test   dil,0x80
  40a4d7:	74 10                	je     40a4e9 <__pformat_int.isra.0+0x79>
  40a4d9:	48 85 c9             	test   rcx,rcx
  40a4dc:	0f 88 4e 02 00 00    	js     40a730 <__pformat_int.isra.0+0x2c0>
  40a4e2:	40 80 e7 7f          	and    dil,0x7f
  40a4e6:	89 7b 08             	mov    DWORD PTR [rbx+0x8],edi
  40a4e9:	48 85 c9             	test   rcx,rcx
  40a4ec:	0f 84 16 03 00 00    	je     40a808 <__pformat_int.isra.0+0x398>
  40a4f2:	49 bb 03 00 00 00 00 	movabs r11,0x8000000000000003
  40a4f9:	00 00 80 
  40a4fc:	41 89 fa             	mov    r10d,edi
  40a4ff:	4d 89 e0             	mov    r8,r12
  40a502:	49 b9 cd cc cc cc cc 	movabs r9,0xcccccccccccccccd
  40a509:	cc cc cc 
  40a50c:	41 81 e2 00 10 00 00 	and    r10d,0x1000
  40a513:	0f 1f 44 00 00       	nop    DWORD PTR [rax+rax*1+0x0]
  40a518:	4d 8d 68 01          	lea    r13,[r8+0x1]
  40a51c:	4d 39 c4             	cmp    r12,r8
  40a51f:	74 2f                	je     40a550 <__pformat_int.isra.0+0xe0>
  40a521:	45 85 d2             	test   r10d,r10d
  40a524:	74 2a                	je     40a550 <__pformat_int.isra.0+0xe0>
  40a526:	66 83 7b 20 00       	cmp    WORD PTR [rbx+0x20],0x0
  40a52b:	74 23                	je     40a550 <__pformat_int.isra.0+0xe0>
  40a52d:	4c 89 c0             	mov    rax,r8
  40a530:	4c 29 e0             	sub    rax,r12
  40a533:	4c 21 d8             	and    rax,r11
  40a536:	48 83 f8 03          	cmp    rax,0x3
  40a53a:	75 14                	jne    40a550 <__pformat_int.isra.0+0xe0>
  40a53c:	49 8d 40 02          	lea    rax,[r8+0x2]
  40a540:	41 c6 00 2c          	mov    BYTE PTR [r8],0x2c
  40a544:	4d 89 e8             	mov    r8,r13
  40a547:	49 89 c5             	mov    r13,rax
  40a54a:	66 0f 1f 44 00 00    	nop    WORD PTR [rax+rax*1+0x0]
  40a550:	48 89 c8             	mov    rax,rcx
  40a553:	49 f7 e1             	mul    r9
  40a556:	48 89 c8             	mov    rax,rcx
  40a559:	48 c1 ea 03          	shr    rdx,0x3
  40a55d:	4c 8d 3c 92          	lea    r15,[rdx+rdx*4]
  40a561:	4d 01 ff             	add    r15,r15
  40a564:	4c 29 f8             	sub    rax,r15
  40a567:	83 c0 30             	add    eax,0x30
  40a56a:	41 88 00             	mov    BYTE PTR [r8],al
  40a56d:	48 83 f9 09          	cmp    rcx,0x9
  40a571:	76 0d                	jbe    40a580 <__pformat_int.isra.0+0x110>
  40a573:	48 89 d1             	mov    rcx,rdx
  40a576:	4d 89 e8             	mov    r8,r13
  40a579:	eb 9d                	jmp    40a518 <__pformat_int.isra.0+0xa8>
  40a57b:	0f 1f 44 00 00       	nop    DWORD PTR [rax+rax*1+0x0]
  40a580:	45 85 f6             	test   r14d,r14d
  40a583:	0f 8e b7 01 00 00    	jle    40a740 <__pformat_int.isra.0+0x2d0>
  40a589:	4c 89 e8             	mov    rax,r13
  40a58c:	45 89 f0             	mov    r8d,r14d
  40a58f:	4c 29 e0             	sub    rax,r12
  40a592:	41 29 c0             	sub    r8d,eax
  40a595:	45 85 c0             	test   r8d,r8d
  40a598:	7e 16                	jle    40a5b0 <__pformat_int.isra.0+0x140>
  40a59a:	4d 63 f8             	movsxd r15,r8d
  40a59d:	4c 89 e9             	mov    rcx,r13
  40a5a0:	ba 30 00 00 00       	mov    edx,0x30
  40a5a5:	4d 89 f8             	mov    r8,r15
  40a5a8:	4d 01 fd             	add    r13,r15
  40a5ab:	e8 80 42 00 00       	call   40e830 <memset>
  40a5b0:	4d 39 ec             	cmp    r12,r13
  40a5b3:	0f 84 9f 01 00 00    	je     40a758 <__pformat_int.isra.0+0x2e8>
  40a5b9:	85 f6                	test   esi,esi
  40a5bb:	7e 33                	jle    40a5f0 <__pformat_int.isra.0+0x180>
  40a5bd:	4c 89 e8             	mov    rax,r13
  40a5c0:	4c 29 e0             	sub    rax,r12
  40a5c3:	29 c6                	sub    esi,eax
  40a5c5:	89 73 0c             	mov    DWORD PTR [rbx+0xc],esi
  40a5c8:	85 f6                	test   esi,esi
  40a5ca:	7e 24                	jle    40a5f0 <__pformat_int.isra.0+0x180>
  40a5cc:	f7 c7 c0 01 00 00    	test   edi,0x1c0
  40a5d2:	0f 85 98 01 00 00    	jne    40a770 <__pformat_int.isra.0+0x300>
  40a5d8:	45 85 f6             	test   r14d,r14d
  40a5db:	0f 88 9e 01 00 00    	js     40a77f <__pformat_int.isra.0+0x30f>
  40a5e1:	f7 c7 00 04 00 00    	test   edi,0x400
  40a5e7:	0f 84 db 01 00 00    	je     40a7c8 <__pformat_int.isra.0+0x358>
  40a5ed:	0f 1f 00             	nop    DWORD PTR [rax]
  40a5f0:	40 f6 c7 80          	test   dil,0x80
  40a5f4:	0f 84 d6 00 00 00    	je     40a6d0 <__pformat_int.isra.0+0x260>
  40a5fa:	41 c6 45 00 2d       	mov    BYTE PTR [r13+0x0],0x2d
  40a5ff:	49 8d 75 01          	lea    rsi,[r13+0x1]
  40a603:	49 39 f4             	cmp    r12,rsi
  40a606:	72 20                	jb     40a628 <__pformat_int.isra.0+0x1b8>
  40a608:	eb 53                	jmp    40a65d <__pformat_int.isra.0+0x1ed>
  40a60a:	66 0f 1f 44 00 00    	nop    WORD PTR [rax+rax*1+0x0]
  40a610:	48 63 43 24          	movsxd rax,DWORD PTR [rbx+0x24]
  40a614:	88 0c 02             	mov    BYTE PTR [rdx+rax*1],cl
  40a617:	8b 43 24             	mov    eax,DWORD PTR [rbx+0x24]
  40a61a:	83 c0 01             	add    eax,0x1
  40a61d:	89 43 24             	mov    DWORD PTR [rbx+0x24],eax
  40a620:	49 39 f4             	cmp    r12,rsi
  40a623:	74 38                	je     40a65d <__pformat_int.isra.0+0x1ed>
  40a625:	8b 7b 08             	mov    edi,DWORD PTR [rbx+0x8]
  40a628:	48 83 ee 01          	sub    rsi,0x1
  40a62c:	f7 c7 00 40 00 00    	test   edi,0x4000
  40a632:	75 08                	jne    40a63c <__pformat_int.isra.0+0x1cc>
  40a634:	8b 43 24             	mov    eax,DWORD PTR [rbx+0x24]
  40a637:	39 43 28             	cmp    DWORD PTR [rbx+0x28],eax
  40a63a:	7e de                	jle    40a61a <__pformat_int.isra.0+0x1aa>
  40a63c:	81 e7 00 20 00 00    	and    edi,0x2000
  40a642:	0f be 0e             	movsx  ecx,BYTE PTR [rsi]
  40a645:	48 8b 13             	mov    rdx,QWORD PTR [rbx]
  40a648:	74 c6                	je     40a610 <__pformat_int.isra.0+0x1a0>
  40a64a:	e8 19 42 00 00       	call   40e868 <fputc>
  40a64f:	8b 43 24             	mov    eax,DWORD PTR [rbx+0x24]
  40a652:	83 c0 01             	add    eax,0x1
  40a655:	89 43 24             	mov    DWORD PTR [rbx+0x24],eax
  40a658:	49 39 f4             	cmp    r12,rsi
  40a65b:	75 c8                	jne    40a625 <__pformat_int.isra.0+0x1b5>
  40a65d:	8b 43 0c             	mov    eax,DWORD PTR [rbx+0xc]
  40a660:	eb 1a                	jmp    40a67c <__pformat_int.isra.0+0x20c>
  40a662:	66 0f 1f 44 00 00    	nop    WORD PTR [rax+rax*1+0x0]
  40a668:	48 63 43 24          	movsxd rax,DWORD PTR [rbx+0x24]
  40a66c:	c6 04 02 20          	mov    BYTE PTR [rdx+rax*1],0x20
  40a670:	8b 53 24             	mov    edx,DWORD PTR [rbx+0x24]
  40a673:	8b 43 0c             	mov    eax,DWORD PTR [rbx+0xc]
  40a676:	83 c2 01             	add    edx,0x1
  40a679:	89 53 24             	mov    DWORD PTR [rbx+0x24],edx
  40a67c:	89 c2                	mov    edx,eax
  40a67e:	83 e8 01             	sub    eax,0x1
  40a681:	89 43 0c             	mov    DWORD PTR [rbx+0xc],eax
  40a684:	85 d2                	test   edx,edx
  40a686:	7e 30                	jle    40a6b8 <__pformat_int.isra.0+0x248>
  40a688:	8b 4b 08             	mov    ecx,DWORD PTR [rbx+0x8]
  40a68b:	f6 c5 40             	test   ch,0x40
  40a68e:	75 08                	jne    40a698 <__pformat_int.isra.0+0x228>
  40a690:	8b 53 24             	mov    edx,DWORD PTR [rbx+0x24]
  40a693:	39 53 28             	cmp    DWORD PTR [rbx+0x28],edx
  40a696:	7e de                	jle    40a676 <__pformat_int.isra.0+0x206>
  40a698:	48 8b 13             	mov    rdx,QWORD PTR [rbx]
  40a69b:	80 e5 20             	and    ch,0x20
  40a69e:	74 c8                	je     40a668 <__pformat_int.isra.0+0x1f8>
  40a6a0:	b9 20 00 00 00       	mov    ecx,0x20
  40a6a5:	e8 be 41 00 00       	call   40e868 <fputc>
  40a6aa:	8b 53 24             	mov    edx,DWORD PTR [rbx+0x24]
  40a6ad:	8b 43 0c             	mov    eax,DWORD PTR [rbx+0xc]
  40a6b0:	eb c4                	jmp    40a676 <__pformat_int.isra.0+0x206>
  40a6b2:	66 0f 1f 44 00 00    	nop    WORD PTR [rax+rax*1+0x0]
  40a6b8:	48 8d 65 a8          	lea    rsp,[rbp-0x58]
  40a6bc:	5b                   	pop    rbx
  40a6bd:	5e                   	pop    rsi
  40a6be:	5f                   	pop    rdi
  40a6bf:	41 5c                	pop    r12
  40a6c1:	41 5d                	pop    r13
  40a6c3:	41 5e                	pop    r14
  40a6c5:	41 5f                	pop    r15
  40a6c7:	5d                   	pop    rbp
  40a6c8:	c3                   	ret
  40a6c9:	0f 1f 80 00 00 00 00 	nop    DWORD PTR [rax+0x0]
  40a6d0:	f7 c7 00 01 00 00    	test   edi,0x100
  40a6d6:	74 38                	je     40a710 <__pformat_int.isra.0+0x2a0>
  40a6d8:	41 c6 45 00 2b       	mov    BYTE PTR [r13+0x0],0x2b
  40a6dd:	49 8d 75 01          	lea    rsi,[r13+0x1]
  40a6e1:	e9 1d ff ff ff       	jmp    40a603 <__pformat_int.isra.0+0x193>
  40a6e6:	66 2e 0f 1f 84 00 00 	cs nop WORD PTR [rax+rax*1+0x0]
  40a6ed:	00 00 00 
  40a6f0:	89 c2                	mov    edx,eax
  40a6f2:	41 b8 ab aa aa aa    	mov    r8d,0xaaaaaaab
  40a6f8:	49 0f af d0          	imul   rdx,r8
  40a6fc:	48 c1 ea 21          	shr    rdx,0x21
  40a700:	01 d0                	add    eax,edx
  40a702:	e9 ad fd ff ff       	jmp    40a4b4 <__pformat_int.isra.0+0x44>
  40a707:	66 0f 1f 84 00 00 00 	nop    WORD PTR [rax+rax*1+0x0]
  40a70e:	00 00 
  40a710:	4c 89 ee             	mov    rsi,r13
  40a713:	40 f6 c7 40          	test   dil,0x40
  40a717:	0f 84 e6 fe ff ff    	je     40a603 <__pformat_int.isra.0+0x193>
  40a71d:	41 c6 45 00 20       	mov    BYTE PTR [r13+0x0],0x20
  40a722:	48 83 c6 01          	add    rsi,0x1
  40a726:	e9 d8 fe ff ff       	jmp    40a603 <__pformat_int.isra.0+0x193>
  40a72b:	0f 1f 44 00 00       	nop    DWORD PTR [rax+rax*1+0x0]
  40a730:	48 f7 d9             	neg    rcx
  40a733:	e9 ba fd ff ff       	jmp    40a4f2 <__pformat_int.isra.0+0x82>
  40a738:	0f 1f 84 00 00 00 00 	nop    DWORD PTR [rax+rax*1+0x0]
  40a73f:	00 
  40a740:	4d 39 ec             	cmp    r12,r13
  40a743:	0f 85 70 fe ff ff    	jne    40a5b9 <__pformat_int.isra.0+0x149>
  40a749:	45 85 f6             	test   r14d,r14d
  40a74c:	0f 84 67 fe ff ff    	je     40a5b9 <__pformat_int.isra.0+0x149>
  40a752:	66 0f 1f 44 00 00    	nop    WORD PTR [rax+rax*1+0x0]
  40a758:	41 c6 45 00 30       	mov    BYTE PTR [r13+0x0],0x30
  40a75d:	49 83 c5 01          	add    r13,0x1
  40a761:	e9 53 fe ff ff       	jmp    40a5b9 <__pformat_int.isra.0+0x149>
  40a766:	66 2e 0f 1f 84 00 00 	cs nop WORD PTR [rax+rax*1+0x0]
  40a76d:	00 00 00 
  40a770:	83 ee 01             	sub    esi,0x1
  40a773:	89 73 0c             	mov    DWORD PTR [rbx+0xc],esi
  40a776:	45 85 f6             	test   r14d,r14d
  40a779:	0f 89 62 fe ff ff    	jns    40a5e1 <__pformat_int.isra.0+0x171>
  40a77f:	89 f8                	mov    eax,edi
  40a781:	25 00 06 00 00       	and    eax,0x600
  40a786:	3d 00 02 00 00       	cmp    eax,0x200
  40a78b:	0f 85 50 fe ff ff    	jne    40a5e1 <__pformat_int.isra.0+0x171>
  40a791:	8b 53 0c             	mov    edx,DWORD PTR [rbx+0xc]
  40a794:	8d 42 ff             	lea    eax,[rdx-0x1]
  40a797:	89 43 0c             	mov    DWORD PTR [rbx+0xc],eax
  40a79a:	85 d2                	test   edx,edx
  40a79c:	0f 8e 4e fe ff ff    	jle    40a5f0 <__pformat_int.isra.0+0x180>
  40a7a2:	48 8d 70 01          	lea    rsi,[rax+0x1]
  40a7a6:	4c 89 e9             	mov    rcx,r13
  40a7a9:	ba 30 00 00 00       	mov    edx,0x30
  40a7ae:	49 89 f0             	mov    r8,rsi
  40a7b1:	49 01 f5             	add    r13,rsi
  40a7b4:	e8 77 40 00 00       	call   40e830 <memset>
  40a7b9:	c7 43 0c ff ff ff ff 	mov    DWORD PTR [rbx+0xc],0xffffffff
  40a7c0:	e9 2b fe ff ff       	jmp    40a5f0 <__pformat_int.isra.0+0x180>
  40a7c5:	0f 1f 00             	nop    DWORD PTR [rax]
  40a7c8:	8b 43 0c             	mov    eax,DWORD PTR [rbx+0xc]
  40a7cb:	8d 50 ff             	lea    edx,[rax-0x1]
  40a7ce:	89 53 0c             	mov    DWORD PTR [rbx+0xc],edx
  40a7d1:	85 c0                	test   eax,eax
  40a7d3:	0f 8e 17 fe ff ff    	jle    40a5f0 <__pformat_int.isra.0+0x180>
  40a7d9:	0f 1f 80 00 00 00 00 	nop    DWORD PTR [rax+0x0]
  40a7e0:	48 89 da             	mov    rdx,rbx
  40a7e3:	b9 20 00 00 00       	mov    ecx,0x20
  40a7e8:	e8 73 f3 ff ff       	call   409b60 <__pformat_putc>
  40a7ed:	8b 43 0c             	mov    eax,DWORD PTR [rbx+0xc]
  40a7f0:	8d 50 ff             	lea    edx,[rax-0x1]
  40a7f3:	89 53 0c             	mov    DWORD PTR [rbx+0xc],edx
  40a7f6:	85 c0                	test   eax,eax
  40a7f8:	7f e6                	jg     40a7e0 <__pformat_int.isra.0+0x370>
  40a7fa:	8b 7b 08             	mov    edi,DWORD PTR [rbx+0x8]
  40a7fd:	e9 ee fd ff ff       	jmp    40a5f0 <__pformat_int.isra.0+0x180>
  40a802:	66 0f 1f 44 00 00    	nop    WORD PTR [rax+rax*1+0x0]
  40a808:	4d 89 e5             	mov    r13,r12
  40a80b:	45 89 f0             	mov    r8d,r14d
  40a80e:	45 85 f6             	test   r14d,r14d
  40a811:	0f 8f 83 fd ff ff    	jg     40a59a <__pformat_int.isra.0+0x12a>
  40a817:	e9 2d ff ff ff       	jmp    40a749 <__pformat_int.isra.0+0x2d9>
  40a81c:	0f 1f 40 00          	nop    DWORD PTR [rax+0x0]

000000000040a820 <__pformat_emit_radix_point>:
  40a820:	55                   	push   rbp
  40a821:	41 54                	push   r12
  40a823:	57                   	push   rdi
  40a824:	56                   	push   rsi
  40a825:	53                   	push   rbx
  40a826:	48 89 e5             	mov    rbp,rsp
  40a829:	48 83 ec 30          	sub    rsp,0x30
  40a82d:	83 79 14 fd          	cmp    DWORD PTR [rcx+0x14],0xfffffffd
  40a831:	49 89 cc             	mov    r12,rcx
  40a834:	0f 84 e6 00 00 00    	je     40a920 <__pformat_emit_radix_point+0x100>
  40a83a:	0f b7 51 18          	movzx  edx,WORD PTR [rcx+0x18]
  40a83e:	66 85 d2             	test   dx,dx
  40a841:	0f 84 b9 00 00 00    	je     40a900 <__pformat_emit_radix_point+0xe0>
  40a847:	49 63 44 24 14       	movsxd rax,DWORD PTR [r12+0x14]
  40a84c:	48 89 e6             	mov    rsi,rsp
  40a84f:	48 83 c0 0f          	add    rax,0xf
  40a853:	48 83 e0 f0          	and    rax,0xfffffffffffffff0
  40a857:	e8 54 f1 ff ff       	call   4099b0 <___chkstk_ms>
  40a85c:	48 29 c4             	sub    rsp,rax
  40a85f:	4c 8d 45 f8          	lea    r8,[rbp-0x8]
  40a863:	48 c7 45 f8 00 00 00 	mov    QWORD PTR [rbp-0x8],0x0
  40a86a:	00 
  40a86b:	48 8d 5c 24 20       	lea    rbx,[rsp+0x20]
  40a870:	48 89 d9             	mov    rcx,rbx
  40a873:	e8 68 44 00 00       	call   40ece0 <wcrtomb>
  40a878:	85 c0                	test   eax,eax
  40a87a:	0f 8e e0 00 00 00    	jle    40a960 <__pformat_emit_radix_point+0x140>
  40a880:	83 e8 01             	sub    eax,0x1
  40a883:	48 8d 7c 03 01       	lea    rdi,[rbx+rax*1+0x1]
  40a888:	eb 21                	jmp    40a8ab <__pformat_emit_radix_point+0x8b>
  40a88a:	66 0f 1f 44 00 00    	nop    WORD PTR [rax+rax*1+0x0]
  40a890:	49 63 44 24 24       	movsxd rax,DWORD PTR [r12+0x24]
  40a895:	41 88 0c 00          	mov    BYTE PTR [r8+rax*1],cl
  40a899:	41 8b 44 24 24       	mov    eax,DWORD PTR [r12+0x24]
  40a89e:	83 c0 01             	add    eax,0x1
  40a8a1:	41 89 44 24 24       	mov    DWORD PTR [r12+0x24],eax
  40a8a6:	48 39 df             	cmp    rdi,rbx
  40a8a9:	74 41                	je     40a8ec <__pformat_emit_radix_point+0xcc>
  40a8ab:	41 8b 54 24 08       	mov    edx,DWORD PTR [r12+0x8]
  40a8b0:	48 83 c3 01          	add    rbx,0x1
  40a8b4:	f6 c6 40             	test   dh,0x40
  40a8b7:	75 0c                	jne    40a8c5 <__pformat_emit_radix_point+0xa5>
  40a8b9:	41 8b 44 24 24       	mov    eax,DWORD PTR [r12+0x24]
  40a8be:	41 39 44 24 28       	cmp    DWORD PTR [r12+0x28],eax
  40a8c3:	7e d9                	jle    40a89e <__pformat_emit_radix_point+0x7e>
  40a8c5:	0f be 4b ff          	movsx  ecx,BYTE PTR [rbx-0x1]
  40a8c9:	4d 8b 04 24          	mov    r8,QWORD PTR [r12]
  40a8cd:	80 e6 20             	and    dh,0x20
  40a8d0:	74 be                	je     40a890 <__pformat_emit_radix_point+0x70>
  40a8d2:	4c 89 c2             	mov    rdx,r8
  40a8d5:	e8 8e 3f 00 00       	call   40e868 <fputc>
  40a8da:	41 8b 44 24 24       	mov    eax,DWORD PTR [r12+0x24]
  40a8df:	83 c0 01             	add    eax,0x1
  40a8e2:	41 89 44 24 24       	mov    DWORD PTR [r12+0x24],eax
  40a8e7:	48 39 df             	cmp    rdi,rbx
  40a8ea:	75 bf                	jne    40a8ab <__pformat_emit_radix_point+0x8b>
  40a8ec:	48 89 f4             	mov    rsp,rsi
  40a8ef:	48 89 ec             	mov    rsp,rbp
  40a8f2:	5b                   	pop    rbx
  40a8f3:	5e                   	pop    rsi
  40a8f4:	5f                   	pop    rdi
  40a8f5:	41 5c                	pop    r12
  40a8f7:	5d                   	pop    rbp
  40a8f8:	c3                   	ret
  40a8f9:	0f 1f 80 00 00 00 00 	nop    DWORD PTR [rax+0x0]
  40a900:	4c 89 e2             	mov    rdx,r12
  40a903:	b9 2e 00 00 00       	mov    ecx,0x2e
  40a908:	e8 53 f2 ff ff       	call   409b60 <__pformat_putc>
  40a90d:	90                   	nop
  40a90e:	48 89 ec             	mov    rsp,rbp
  40a911:	5b                   	pop    rbx
  40a912:	5e                   	pop    rsi
  40a913:	5f                   	pop    rdi
  40a914:	41 5c                	pop    r12
  40a916:	5d                   	pop    rbp
  40a917:	c3                   	ret
  40a918:	0f 1f 84 00 00 00 00 	nop    DWORD PTR [rax+rax*1+0x0]
  40a91f:	00 
  40a920:	48 c7 45 f8 00 00 00 	mov    QWORD PTR [rbp-0x8],0x0
  40a927:	00 
  40a928:	48 8d 5d f8          	lea    rbx,[rbp-0x8]
  40a92c:	e8 17 3f 00 00       	call   40e848 <localeconv>
  40a931:	48 8d 4d f6          	lea    rcx,[rbp-0xa]
  40a935:	49 89 d9             	mov    r9,rbx
  40a938:	41 b8 10 00 00 00    	mov    r8d,0x10
  40a93e:	48 8b 10             	mov    rdx,QWORD PTR [rax]
  40a941:	e8 2a 41 00 00       	call   40ea70 <mbrtowc>
  40a946:	85 c0                	test   eax,eax
  40a948:	7e 2e                	jle    40a978 <__pformat_emit_radix_point+0x158>
  40a94a:	0f b7 55 f6          	movzx  edx,WORD PTR [rbp-0xa]
  40a94e:	66 41 89 54 24 18    	mov    WORD PTR [r12+0x18],dx
  40a954:	41 89 44 24 14       	mov    DWORD PTR [r12+0x14],eax
  40a959:	e9 e0 fe ff ff       	jmp    40a83e <__pformat_emit_radix_point+0x1e>
  40a95e:	66 90                	xchg   ax,ax
  40a960:	4c 89 e2             	mov    rdx,r12
  40a963:	b9 2e 00 00 00       	mov    ecx,0x2e
  40a968:	e8 f3 f1 ff ff       	call   409b60 <__pformat_putc>
  40a96d:	48 89 f4             	mov    rsp,rsi
  40a970:	e9 7a ff ff ff       	jmp    40a8ef <__pformat_emit_radix_point+0xcf>
  40a975:	0f 1f 00             	nop    DWORD PTR [rax]
  40a978:	41 0f b7 54 24 18    	movzx  edx,WORD PTR [r12+0x18]
  40a97e:	eb d4                	jmp    40a954 <__pformat_emit_radix_point+0x134>

000000000040a980 <__pformat_emit_float>:
  40a980:	55                   	push   rbp
  40a981:	57                   	push   rdi
  40a982:	56                   	push   rsi
  40a983:	53                   	push   rbx
  40a984:	48 83 ec 28          	sub    rsp,0x28
  40a988:	41 8b 41 0c          	mov    eax,DWORD PTR [r9+0xc]
  40a98c:	89 cd                	mov    ebp,ecx
  40a98e:	48 89 d7             	mov    rdi,rdx
  40a991:	44 89 c6             	mov    esi,r8d
  40a994:	4c 89 cb             	mov    rbx,r9
  40a997:	45 85 c0             	test   r8d,r8d
  40a99a:	0f 8e 10 02 00 00    	jle    40abb0 <__pformat_emit_float+0x230>
  40a9a0:	41 39 c0             	cmp    r8d,eax
  40a9a3:	0f 8e f7 00 00 00    	jle    40aaa0 <__pformat_emit_float+0x120>
  40a9a9:	c7 43 0c ff ff ff ff 	mov    DWORD PTR [rbx+0xc],0xffffffff
  40a9b0:	b8 ff ff ff ff       	mov    eax,0xffffffff
  40a9b5:	f6 43 09 10          	test   BYTE PTR [rbx+0x9],0x10
  40a9b9:	74 4d                	je     40aa08 <__pformat_emit_float+0x88>
  40a9bb:	66 83 7b 20 00       	cmp    WORD PTR [rbx+0x20],0x0
  40a9c0:	0f 84 0a 01 00 00    	je     40aad0 <__pformat_emit_float+0x150>
  40a9c6:	ba ab aa aa aa       	mov    edx,0xaaaaaaab
  40a9cb:	44 8d 46 02          	lea    r8d,[rsi+0x2]
  40a9cf:	4c 0f af c2          	imul   r8,rdx
  40a9d3:	89 c2                	mov    edx,eax
  40a9d5:	49 c1 e8 21          	shr    r8,0x21
  40a9d9:	41 8d 48 ff          	lea    ecx,[r8-0x1]
  40a9dd:	29 c1                	sub    ecx,eax
  40a9df:	41 83 f8 01          	cmp    r8d,0x1
  40a9e3:	75 1b                	jne    40aa00 <__pformat_emit_float+0x80>
  40a9e5:	e9 e6 00 00 00       	jmp    40aad0 <__pformat_emit_float+0x150>
  40a9ea:	66 0f 1f 44 00 00    	nop    WORD PTR [rax+rax*1+0x0]
  40a9f0:	83 ea 01             	sub    edx,0x1
  40a9f3:	89 c8                	mov    eax,ecx
  40a9f5:	01 d0                	add    eax,edx
  40a9f7:	89 53 0c             	mov    DWORD PTR [rbx+0xc],edx
  40a9fa:	0f 84 2a 03 00 00    	je     40ad2a <__pformat_emit_float+0x3aa>
  40aa00:	85 d2                	test   edx,edx
  40aa02:	7f ec                	jg     40a9f0 <__pformat_emit_float+0x70>
  40aa04:	0f 1f 40 00          	nop    DWORD PTR [rax+0x0]
  40aa08:	85 ed                	test   ebp,ebp
  40aa0a:	0f 85 22 01 00 00    	jne    40ab32 <__pformat_emit_float+0x1b2>
  40aa10:	8b 53 08             	mov    edx,DWORD PTR [rbx+0x8]
  40aa13:	f6 c6 01             	test   dh,0x1
  40aa16:	0f 85 84 02 00 00    	jne    40aca0 <__pformat_emit_float+0x320>
  40aa1c:	83 e2 40             	and    edx,0x40
  40aa1f:	0f 85 f3 02 00 00    	jne    40ad18 <__pformat_emit_float+0x398>
  40aa25:	8b 43 0c             	mov    eax,DWORD PTR [rbx+0xc]
  40aa28:	85 c0                	test   eax,eax
  40aa2a:	7e 15                	jle    40aa41 <__pformat_emit_float+0xc1>
  40aa2c:	8b 53 08             	mov    edx,DWORD PTR [rbx+0x8]
  40aa2f:	81 e2 00 06 00 00    	and    edx,0x600
  40aa35:	81 fa 00 02 00 00    	cmp    edx,0x200
  40aa3b:	0f 84 77 02 00 00    	je     40acb8 <__pformat_emit_float+0x338>
  40aa41:	48 8d 6b 20          	lea    rbp,[rbx+0x20]
  40aa45:	85 f6                	test   esi,esi
  40aa47:	0f 8e bb 01 00 00    	jle    40ac08 <__pformat_emit_float+0x288>
  40aa4d:	0f 1f 00             	nop    DWORD PTR [rax]
  40aa50:	0f b6 07             	movzx  eax,BYTE PTR [rdi]
  40aa53:	b9 30 00 00 00       	mov    ecx,0x30
  40aa58:	84 c0                	test   al,al
  40aa5a:	74 07                	je     40aa63 <__pformat_emit_float+0xe3>
  40aa5c:	48 83 c7 01          	add    rdi,0x1
  40aa60:	0f be c8             	movsx  ecx,al
  40aa63:	48 89 da             	mov    rdx,rbx
  40aa66:	e8 f5 f0 ff ff       	call   409b60 <__pformat_putc>
  40aa6b:	83 ee 01             	sub    esi,0x1
  40aa6e:	0f 84 d4 00 00 00    	je     40ab48 <__pformat_emit_float+0x1c8>
  40aa74:	f6 43 09 10          	test   BYTE PTR [rbx+0x9],0x10
  40aa78:	74 d6                	je     40aa50 <__pformat_emit_float+0xd0>
  40aa7a:	66 83 7b 20 00       	cmp    WORD PTR [rbx+0x20],0x0
  40aa7f:	74 cf                	je     40aa50 <__pformat_emit_float+0xd0>
  40aa81:	69 c6 ab aa aa aa    	imul   eax,esi,0xaaaaaaab
  40aa87:	3d 55 55 55 55       	cmp    eax,0x55555555
  40aa8c:	77 c2                	ja     40aa50 <__pformat_emit_float+0xd0>
  40aa8e:	49 89 d8             	mov    r8,rbx
  40aa91:	ba 01 00 00 00       	mov    edx,0x1
  40aa96:	48 89 e9             	mov    rcx,rbp
  40aa99:	e8 22 f1 ff ff       	call   409bc0 <__pformat_wputchars>
  40aa9e:	eb b0                	jmp    40aa50 <__pformat_emit_float+0xd0>
  40aaa0:	41 8b 51 10          	mov    edx,DWORD PTR [r9+0x10]
  40aaa4:	44 29 c0             	sub    eax,r8d
  40aaa7:	39 d0                	cmp    eax,edx
  40aaa9:	0f 8e fa fe ff ff    	jle    40a9a9 <__pformat_emit_float+0x29>
  40aaaf:	29 d0                	sub    eax,edx
  40aab1:	89 43 0c             	mov    DWORD PTR [rbx+0xc],eax
  40aab4:	85 d2                	test   edx,edx
  40aab6:	0f 8e b4 01 00 00    	jle    40ac70 <__pformat_emit_float+0x2f0>
  40aabc:	83 e8 01             	sub    eax,0x1
  40aabf:	89 43 0c             	mov    DWORD PTR [rbx+0xc],eax
  40aac2:	85 f6                	test   esi,esi
  40aac4:	7e 0a                	jle    40aad0 <__pformat_emit_float+0x150>
  40aac6:	f6 43 09 10          	test   BYTE PTR [rbx+0x9],0x10
  40aaca:	0f 85 eb fe ff ff    	jne    40a9bb <__pformat_emit_float+0x3b>
  40aad0:	85 c0                	test   eax,eax
  40aad2:	0f 8e 30 ff ff ff    	jle    40aa08 <__pformat_emit_float+0x88>
  40aad8:	85 ed                	test   ebp,ebp
  40aada:	0f 85 f8 00 00 00    	jne    40abd8 <__pformat_emit_float+0x258>
  40aae0:	8b 53 08             	mov    edx,DWORD PTR [rbx+0x8]
  40aae3:	f7 c2 c0 01 00 00    	test   edx,0x1c0
  40aae9:	0f 84 f1 01 00 00    	je     40ace0 <__pformat_emit_float+0x360>
  40aaef:	83 e8 01             	sub    eax,0x1
  40aaf2:	89 43 0c             	mov    DWORD PTR [rbx+0xc],eax
  40aaf5:	0f 84 18 ff ff ff    	je     40aa13 <__pformat_emit_float+0x93>
  40aafb:	f6 c6 06             	test   dh,0x6
  40aafe:	0f 85 0f ff ff ff    	jne    40aa13 <__pformat_emit_float+0x93>
  40ab04:	83 e8 01             	sub    eax,0x1
  40ab07:	89 43 0c             	mov    DWORD PTR [rbx+0xc],eax
  40ab0a:	66 0f 1f 44 00 00    	nop    WORD PTR [rax+rax*1+0x0]
  40ab10:	48 89 da             	mov    rdx,rbx
  40ab13:	b9 20 00 00 00       	mov    ecx,0x20
  40ab18:	e8 43 f0 ff ff       	call   409b60 <__pformat_putc>
  40ab1d:	8b 43 0c             	mov    eax,DWORD PTR [rbx+0xc]
  40ab20:	8d 50 ff             	lea    edx,[rax-0x1]
  40ab23:	89 53 0c             	mov    DWORD PTR [rbx+0xc],edx
  40ab26:	85 c0                	test   eax,eax
  40ab28:	7f e6                	jg     40ab10 <__pformat_emit_float+0x190>
  40ab2a:	85 ed                	test   ebp,ebp
  40ab2c:	0f 84 de fe ff ff    	je     40aa10 <__pformat_emit_float+0x90>
  40ab32:	48 89 da             	mov    rdx,rbx
  40ab35:	b9 2d 00 00 00       	mov    ecx,0x2d
  40ab3a:	e8 21 f0 ff ff       	call   409b60 <__pformat_putc>
  40ab3f:	e9 e1 fe ff ff       	jmp    40aa25 <__pformat_emit_float+0xa5>
  40ab44:	0f 1f 40 00          	nop    DWORD PTR [rax+0x0]
  40ab48:	8b 43 10             	mov    eax,DWORD PTR [rbx+0x10]
  40ab4b:	85 c0                	test   eax,eax
  40ab4d:	7f 19                	jg     40ab68 <__pformat_emit_float+0x1e8>
  40ab4f:	f6 43 09 08          	test   BYTE PTR [rbx+0x9],0x8
  40ab53:	75 13                	jne    40ab68 <__pformat_emit_float+0x1e8>
  40ab55:	83 e8 01             	sub    eax,0x1
  40ab58:	89 43 10             	mov    DWORD PTR [rbx+0x10],eax
  40ab5b:	48 83 c4 28          	add    rsp,0x28
  40ab5f:	5b                   	pop    rbx
  40ab60:	5e                   	pop    rsi
  40ab61:	5f                   	pop    rdi
  40ab62:	5d                   	pop    rbp
  40ab63:	c3                   	ret
  40ab64:	0f 1f 40 00          	nop    DWORD PTR [rax+0x0]
  40ab68:	48 89 d9             	mov    rcx,rbx
  40ab6b:	e8 b0 fc ff ff       	call   40a820 <__pformat_emit_radix_point>
  40ab70:	eb 21                	jmp    40ab93 <__pformat_emit_float+0x213>
  40ab72:	66 0f 1f 44 00 00    	nop    WORD PTR [rax+rax*1+0x0]
  40ab78:	0f b6 07             	movzx  eax,BYTE PTR [rdi]
  40ab7b:	b9 30 00 00 00       	mov    ecx,0x30
  40ab80:	84 c0                	test   al,al
  40ab82:	74 07                	je     40ab8b <__pformat_emit_float+0x20b>
  40ab84:	48 83 c7 01          	add    rdi,0x1
  40ab88:	0f be c8             	movsx  ecx,al
  40ab8b:	48 89 da             	mov    rdx,rbx
  40ab8e:	e8 cd ef ff ff       	call   409b60 <__pformat_putc>
  40ab93:	8b 43 10             	mov    eax,DWORD PTR [rbx+0x10]
  40ab96:	8d 50 ff             	lea    edx,[rax-0x1]
  40ab99:	89 53 10             	mov    DWORD PTR [rbx+0x10],edx
  40ab9c:	85 c0                	test   eax,eax
  40ab9e:	7f d8                	jg     40ab78 <__pformat_emit_float+0x1f8>
  40aba0:	48 83 c4 28          	add    rsp,0x28
  40aba4:	5b                   	pop    rbx
  40aba5:	5e                   	pop    rsi
  40aba6:	5f                   	pop    rdi
  40aba7:	5d                   	pop    rbp
  40aba8:	c3                   	ret
  40aba9:	0f 1f 80 00 00 00 00 	nop    DWORD PTR [rax+0x0]
  40abb0:	85 c0                	test   eax,eax
  40abb2:	0f 8e 48 01 00 00    	jle    40ad00 <__pformat_emit_float+0x380>
  40abb8:	83 e8 01             	sub    eax,0x1
  40abbb:	8b 53 10             	mov    edx,DWORD PTR [rbx+0x10]
  40abbe:	39 d0                	cmp    eax,edx
  40abc0:	0f 8f e9 fe ff ff    	jg     40aaaf <__pformat_emit_float+0x12f>
  40abc6:	c7 43 0c ff ff ff ff 	mov    DWORD PTR [rbx+0xc],0xffffffff
  40abcd:	e9 36 fe ff ff       	jmp    40aa08 <__pformat_emit_float+0x88>
  40abd2:	66 0f 1f 44 00 00    	nop    WORD PTR [rax+rax*1+0x0]
  40abd8:	83 e8 01             	sub    eax,0x1
  40abdb:	89 43 0c             	mov    DWORD PTR [rbx+0xc],eax
  40abde:	0f 84 4e ff ff ff    	je     40ab32 <__pformat_emit_float+0x1b2>
  40abe4:	f7 43 08 00 06 00 00 	test   DWORD PTR [rbx+0x8],0x600
  40abeb:	0f 84 13 ff ff ff    	je     40ab04 <__pformat_emit_float+0x184>
  40abf1:	48 89 da             	mov    rdx,rbx
  40abf4:	b9 2d 00 00 00       	mov    ecx,0x2d
  40abf9:	e8 62 ef ff ff       	call   409b60 <__pformat_putc>
  40abfe:	e9 22 fe ff ff       	jmp    40aa25 <__pformat_emit_float+0xa5>
  40ac03:	0f 1f 44 00 00       	nop    DWORD PTR [rax+rax*1+0x0]
  40ac08:	48 89 da             	mov    rdx,rbx
  40ac0b:	b9 30 00 00 00       	mov    ecx,0x30
  40ac10:	e8 4b ef ff ff       	call   409b60 <__pformat_putc>
  40ac15:	8b 43 10             	mov    eax,DWORD PTR [rbx+0x10]
  40ac18:	85 c0                	test   eax,eax
  40ac1a:	7f 14                	jg     40ac30 <__pformat_emit_float+0x2b0>
  40ac1c:	f6 43 09 08          	test   BYTE PTR [rbx+0x9],0x8
  40ac20:	75 0e                	jne    40ac30 <__pformat_emit_float+0x2b0>
  40ac22:	85 f6                	test   esi,esi
  40ac24:	75 1d                	jne    40ac43 <__pformat_emit_float+0x2c3>
  40ac26:	e9 2a ff ff ff       	jmp    40ab55 <__pformat_emit_float+0x1d5>
  40ac2b:	0f 1f 44 00 00       	nop    DWORD PTR [rax+rax*1+0x0]
  40ac30:	48 89 d9             	mov    rcx,rbx
  40ac33:	e8 e8 fb ff ff       	call   40a820 <__pformat_emit_radix_point>
  40ac38:	85 f6                	test   esi,esi
  40ac3a:	0f 84 53 ff ff ff    	je     40ab93 <__pformat_emit_float+0x213>
  40ac40:	8b 43 10             	mov    eax,DWORD PTR [rbx+0x10]
  40ac43:	01 f0                	add    eax,esi
  40ac45:	89 43 10             	mov    DWORD PTR [rbx+0x10],eax
  40ac48:	0f 1f 84 00 00 00 00 	nop    DWORD PTR [rax+rax*1+0x0]
  40ac4f:	00 
  40ac50:	48 89 da             	mov    rdx,rbx
  40ac53:	b9 30 00 00 00       	mov    ecx,0x30
  40ac58:	e8 03 ef ff ff       	call   409b60 <__pformat_putc>
  40ac5d:	83 c6 01             	add    esi,0x1
  40ac60:	75 ee                	jne    40ac50 <__pformat_emit_float+0x2d0>
  40ac62:	e9 2c ff ff ff       	jmp    40ab93 <__pformat_emit_float+0x213>
  40ac67:	66 0f 1f 84 00 00 00 	nop    WORD PTR [rax+rax*1+0x0]
  40ac6e:	00 00 
  40ac70:	8b 53 08             	mov    edx,DWORD PTR [rbx+0x8]
  40ac73:	f6 c6 08             	test   dh,0x8
  40ac76:	0f 85 40 fe ff ff    	jne    40aabc <__pformat_emit_float+0x13c>
  40ac7c:	85 f6                	test   esi,esi
  40ac7e:	0f 8e 54 fe ff ff    	jle    40aad8 <__pformat_emit_float+0x158>
  40ac84:	80 e6 10             	and    dh,0x10
  40ac87:	0f 84 4b fe ff ff    	je     40aad8 <__pformat_emit_float+0x158>
  40ac8d:	66 83 7b 20 00       	cmp    WORD PTR [rbx+0x20],0x0
  40ac92:	0f 84 40 fe ff ff    	je     40aad8 <__pformat_emit_float+0x158>
  40ac98:	e9 29 fd ff ff       	jmp    40a9c6 <__pformat_emit_float+0x46>
  40ac9d:	0f 1f 00             	nop    DWORD PTR [rax]
  40aca0:	48 89 da             	mov    rdx,rbx
  40aca3:	b9 2b 00 00 00       	mov    ecx,0x2b
  40aca8:	e8 b3 ee ff ff       	call   409b60 <__pformat_putc>
  40acad:	e9 73 fd ff ff       	jmp    40aa25 <__pformat_emit_float+0xa5>
  40acb2:	66 0f 1f 44 00 00    	nop    WORD PTR [rax+rax*1+0x0]
  40acb8:	83 e8 01             	sub    eax,0x1
  40acbb:	89 43 0c             	mov    DWORD PTR [rbx+0xc],eax
  40acbe:	66 90                	xchg   ax,ax
  40acc0:	48 89 da             	mov    rdx,rbx
  40acc3:	b9 30 00 00 00       	mov    ecx,0x30
  40acc8:	e8 93 ee ff ff       	call   409b60 <__pformat_putc>
  40accd:	8b 43 0c             	mov    eax,DWORD PTR [rbx+0xc]
  40acd0:	8d 50 ff             	lea    edx,[rax-0x1]
  40acd3:	89 53 0c             	mov    DWORD PTR [rbx+0xc],edx
  40acd6:	85 c0                	test   eax,eax
  40acd8:	7f e6                	jg     40acc0 <__pformat_emit_float+0x340>
  40acda:	e9 62 fd ff ff       	jmp    40aa41 <__pformat_emit_float+0xc1>
  40acdf:	90                   	nop
  40ace0:	f6 c6 06             	test   dh,0x6
  40ace3:	0f 85 2a fd ff ff    	jne    40aa13 <__pformat_emit_float+0x93>
  40ace9:	8b 43 0c             	mov    eax,DWORD PTR [rbx+0xc]
  40acec:	8d 48 ff             	lea    ecx,[rax-0x1]
  40acef:	89 4b 0c             	mov    DWORD PTR [rbx+0xc],ecx
  40acf2:	85 c0                	test   eax,eax
  40acf4:	0f 8e 19 fd ff ff    	jle    40aa13 <__pformat_emit_float+0x93>
  40acfa:	e9 11 fe ff ff       	jmp    40ab10 <__pformat_emit_float+0x190>
  40acff:	90                   	nop
  40ad00:	0f 84 b5 fe ff ff    	je     40abbb <__pformat_emit_float+0x23b>
  40ad06:	c7 43 0c ff ff ff ff 	mov    DWORD PTR [rbx+0xc],0xffffffff
  40ad0d:	e9 f6 fc ff ff       	jmp    40aa08 <__pformat_emit_float+0x88>
  40ad12:	66 0f 1f 44 00 00    	nop    WORD PTR [rax+rax*1+0x0]
  40ad18:	48 89 da             	mov    rdx,rbx
  40ad1b:	b9 20 00 00 00       	mov    ecx,0x20
  40ad20:	e8 3b ee ff ff       	call   409b60 <__pformat_putc>
  40ad25:	e9 fb fc ff ff       	jmp    40aa25 <__pformat_emit_float+0xa5>
  40ad2a:	89 d0                	mov    eax,edx
  40ad2c:	e9 9f fd ff ff       	jmp    40aad0 <__pformat_emit_float+0x150>
  40ad31:	66 66 2e 0f 1f 84 00 	data16 cs nop WORD PTR [rax+rax*1+0x0]
  40ad38:	00 00 00 00 
  40ad3c:	0f 1f 40 00          	nop    DWORD PTR [rax+0x0]

000000000040ad40 <__pformat_emit_efloat>:
  40ad40:	41 55                	push   r13
  40ad42:	41 54                	push   r12
  40ad44:	53                   	push   rbx
  40ad45:	48 83 ec 20          	sub    rsp,0x20
  40ad49:	41 ba 01 00 00 00    	mov    r10d,0x1
  40ad4f:	41 83 e8 01          	sub    r8d,0x1
  40ad53:	41 89 cb             	mov    r11d,ecx
  40ad56:	4d 89 cc             	mov    r12,r9
  40ad59:	4d 63 e8             	movsxd r13,r8d
  40ad5c:	41 c1 f8 1f          	sar    r8d,0x1f
  40ad60:	49 69 cd 67 66 66 66 	imul   rcx,r13,0x66666667
  40ad67:	48 c1 f9 22          	sar    rcx,0x22
  40ad6b:	44 29 c1             	sub    ecx,r8d
  40ad6e:	74 1b                	je     40ad8b <__pformat_emit_efloat+0x4b>
  40ad70:	48 63 c1             	movsxd rax,ecx
  40ad73:	c1 f9 1f             	sar    ecx,0x1f
  40ad76:	41 83 c2 01          	add    r10d,0x1
  40ad7a:	48 69 c0 67 66 66 66 	imul   rax,rax,0x66666667
  40ad81:	48 c1 f8 22          	sar    rax,0x22
  40ad85:	29 c8                	sub    eax,ecx
  40ad87:	89 c1                	mov    ecx,eax
  40ad89:	75 e5                	jne    40ad70 <__pformat_emit_efloat+0x30>
  40ad8b:	41 8b 44 24 2c       	mov    eax,DWORD PTR [r12+0x2c]
  40ad90:	83 f8 ff             	cmp    eax,0xffffffff
  40ad93:	75 0e                	jne    40ada3 <__pformat_emit_efloat+0x63>
  40ad95:	41 c7 44 24 2c 02 00 	mov    DWORD PTR [r12+0x2c],0x2
  40ad9c:	00 00 
  40ad9e:	b8 02 00 00 00       	mov    eax,0x2
  40ada3:	44 39 d0             	cmp    eax,r10d
  40ada6:	44 89 d3             	mov    ebx,r10d
  40ada9:	45 8b 44 24 0c       	mov    r8d,DWORD PTR [r12+0xc]
  40adae:	4d 89 e1             	mov    r9,r12
  40adb1:	0f 4d d8             	cmovge ebx,eax
  40adb4:	44 89 c0             	mov    eax,r8d
  40adb7:	8d 4b 02             	lea    ecx,[rbx+0x2]
  40adba:	29 c8                	sub    eax,ecx
  40adbc:	41 39 c8             	cmp    r8d,ecx
  40adbf:	b9 ff ff ff ff       	mov    ecx,0xffffffff
  40adc4:	41 b8 01 00 00 00    	mov    r8d,0x1
  40adca:	0f 4e c1             	cmovle eax,ecx
  40adcd:	44 89 d9             	mov    ecx,r11d
  40add0:	41 89 44 24 0c       	mov    DWORD PTR [r12+0xc],eax
  40add5:	e8 a6 fb ff ff       	call   40a980 <__pformat_emit_float>
  40adda:	41 8b 4c 24 08       	mov    ecx,DWORD PTR [r12+0x8]
  40addf:	41 8b 44 24 2c       	mov    eax,DWORD PTR [r12+0x2c]
  40ade4:	4c 89 e2             	mov    rdx,r12
  40ade7:	41 89 44 24 10       	mov    DWORD PTR [r12+0x10],eax
  40adec:	89 c8                	mov    eax,ecx
  40adee:	83 e1 20             	and    ecx,0x20
  40adf1:	0d c0 01 00 00       	or     eax,0x1c0
  40adf6:	83 c9 45             	or     ecx,0x45
  40adf9:	41 89 44 24 08       	mov    DWORD PTR [r12+0x8],eax
  40adfe:	e8 5d ed ff ff       	call   409b60 <__pformat_putc>
  40ae03:	44 8d 53 01          	lea    r10d,[rbx+0x1]
  40ae07:	4c 89 e2             	mov    rdx,r12
  40ae0a:	4c 89 e9             	mov    rcx,r13
  40ae0d:	45 01 54 24 0c       	add    DWORD PTR [r12+0xc],r10d
  40ae12:	48 83 c4 20          	add    rsp,0x20
  40ae16:	5b                   	pop    rbx
  40ae17:	41 5c                	pop    r12
  40ae19:	41 5d                	pop    r13
  40ae1b:	e9 50 f6 ff ff       	jmp    40a470 <__pformat_int.isra.0>

000000000040ae20 <__pformat_efloat>:
  40ae20:	41 54                	push   r12
  40ae22:	53                   	push   rbx
  40ae23:	48 83 ec 68          	sub    rsp,0x68
  40ae27:	44 8b 42 10          	mov    r8d,DWORD PTR [rdx+0x10]
  40ae2b:	db 29                	fld    TBYTE PTR [rcx]
  40ae2d:	48 89 d3             	mov    rbx,rdx
  40ae30:	45 85 c0             	test   r8d,r8d
  40ae33:	78 6b                	js     40aea0 <__pformat_efloat+0x80>
  40ae35:	41 83 c0 01          	add    r8d,0x1
  40ae39:	48 8d 44 24 48       	lea    rax,[rsp+0x48]
  40ae3e:	db 7c 24 50          	fstp   TBYTE PTR [rsp+0x50]
  40ae42:	f3 0f 6f 44 24 50    	movdqu xmm0,XMMWORD PTR [rsp+0x50]
  40ae48:	48 8d 54 24 30       	lea    rdx,[rsp+0x30]
  40ae4d:	4c 8d 4c 24 4c       	lea    r9,[rsp+0x4c]
  40ae52:	b9 02 00 00 00       	mov    ecx,0x2
  40ae57:	48 89 44 24 20       	mov    QWORD PTR [rsp+0x20],rax
  40ae5c:	0f 11 44 24 30       	movups XMMWORD PTR [rsp+0x30],xmm0
  40ae61:	e8 da eb ff ff       	call   409a40 <__pformat_cvt>
  40ae66:	44 8b 44 24 4c       	mov    r8d,DWORD PTR [rsp+0x4c]
  40ae6b:	49 89 c4             	mov    r12,rax
  40ae6e:	41 81 f8 00 80 ff ff 	cmp    r8d,0xffff8000
  40ae75:	74 39                	je     40aeb0 <__pformat_efloat+0x90>
  40ae77:	8b 4c 24 48          	mov    ecx,DWORD PTR [rsp+0x48]
  40ae7b:	49 89 d9             	mov    r9,rbx
  40ae7e:	48 89 c2             	mov    rdx,rax
  40ae81:	e8 ba fe ff ff       	call   40ad40 <__pformat_emit_efloat>
  40ae86:	4c 89 e1             	mov    rcx,r12
  40ae89:	e8 62 12 00 00       	call   40c0f0 <__freedtoa>
  40ae8e:	90                   	nop
  40ae8f:	48 83 c4 68          	add    rsp,0x68
  40ae93:	5b                   	pop    rbx
  40ae94:	41 5c                	pop    r12
  40ae96:	c3                   	ret
  40ae97:	66 0f 1f 84 00 00 00 	nop    WORD PTR [rax+rax*1+0x0]
  40ae9e:	00 00 
  40aea0:	c7 42 10 06 00 00 00 	mov    DWORD PTR [rdx+0x10],0x6
  40aea7:	41 b8 07 00 00 00    	mov    r8d,0x7
  40aead:	eb 8a                	jmp    40ae39 <__pformat_efloat+0x19>
  40aeaf:	90                   	nop
  40aeb0:	8b 4c 24 48          	mov    ecx,DWORD PTR [rsp+0x48]
  40aeb4:	49 89 d8             	mov    r8,rbx
  40aeb7:	48 89 c2             	mov    rdx,rax
  40aeba:	e8 e1 ef ff ff       	call   409ea0 <__pformat_emit_inf_or_nan>
  40aebf:	4c 89 e1             	mov    rcx,r12
  40aec2:	e8 29 12 00 00       	call   40c0f0 <__freedtoa>
  40aec7:	90                   	nop
  40aec8:	48 83 c4 68          	add    rsp,0x68
  40aecc:	5b                   	pop    rbx
  40aecd:	41 5c                	pop    r12
  40aecf:	c3                   	ret

000000000040aed0 <__pformat_float>:
  40aed0:	41 54                	push   r12
  40aed2:	53                   	push   rbx
  40aed3:	48 83 ec 68          	sub    rsp,0x68
  40aed7:	44 8b 42 10          	mov    r8d,DWORD PTR [rdx+0x10]
  40aedb:	db 29                	fld    TBYTE PTR [rcx]
  40aedd:	48 89 d3             	mov    rbx,rdx
  40aee0:	45 85 c0             	test   r8d,r8d
  40aee3:	79 0d                	jns    40aef2 <__pformat_float+0x22>
  40aee5:	c7 42 10 06 00 00 00 	mov    DWORD PTR [rdx+0x10],0x6
  40aeec:	41 b8 06 00 00 00    	mov    r8d,0x6
  40aef2:	48 8d 44 24 48       	lea    rax,[rsp+0x48]
  40aef7:	db 7c 24 50          	fstp   TBYTE PTR [rsp+0x50]
  40aefb:	f3 0f 6f 44 24 50    	movdqu xmm0,XMMWORD PTR [rsp+0x50]
  40af01:	48 8d 54 24 30       	lea    rdx,[rsp+0x30]
  40af06:	4c 8d 4c 24 4c       	lea    r9,[rsp+0x4c]
  40af0b:	b9 03 00 00 00       	mov    ecx,0x3
  40af10:	48 89 44 24 20       	mov    QWORD PTR [rsp+0x20],rax
  40af15:	0f 11 44 24 30       	movups XMMWORD PTR [rsp+0x30],xmm0
  40af1a:	e8 21 eb ff ff       	call   409a40 <__pformat_cvt>
  40af1f:	44 8b 44 24 4c       	mov    r8d,DWORD PTR [rsp+0x4c]
  40af24:	49 89 c4             	mov    r12,rax
  40af27:	41 81 f8 00 80 ff ff 	cmp    r8d,0xffff8000
  40af2e:	74 68                	je     40af98 <__pformat_float+0xc8>
  40af30:	8b 4c 24 48          	mov    ecx,DWORD PTR [rsp+0x48]
  40af34:	48 89 c2             	mov    rdx,rax
  40af37:	49 89 d9             	mov    r9,rbx
  40af3a:	e8 41 fa ff ff       	call   40a980 <__pformat_emit_float>
  40af3f:	8b 43 0c             	mov    eax,DWORD PTR [rbx+0xc]
  40af42:	eb 18                	jmp    40af5c <__pformat_float+0x8c>
  40af44:	0f 1f 40 00          	nop    DWORD PTR [rax+0x0]
  40af48:	48 63 43 24          	movsxd rax,DWORD PTR [rbx+0x24]
  40af4c:	c6 04 02 20          	mov    BYTE PTR [rdx+rax*1],0x20
  40af50:	8b 53 24             	mov    edx,DWORD PTR [rbx+0x24]
  40af53:	8b 43 0c             	mov    eax,DWORD PTR [rbx+0xc]
  40af56:	83 c2 01             	add    edx,0x1
  40af59:	89 53 24             	mov    DWORD PTR [rbx+0x24],edx
  40af5c:	89 c2                	mov    edx,eax
  40af5e:	83 e8 01             	sub    eax,0x1
  40af61:	89 43 0c             	mov    DWORD PTR [rbx+0xc],eax
  40af64:	85 d2                	test   edx,edx
  40af66:	7e 3f                	jle    40afa7 <__pformat_float+0xd7>
  40af68:	8b 4b 08             	mov    ecx,DWORD PTR [rbx+0x8]
  40af6b:	f6 c5 40             	test   ch,0x40
  40af6e:	75 08                	jne    40af78 <__pformat_float+0xa8>
  40af70:	8b 53 24             	mov    edx,DWORD PTR [rbx+0x24]
  40af73:	39 53 28             	cmp    DWORD PTR [rbx+0x28],edx
  40af76:	7e de                	jle    40af56 <__pformat_float+0x86>
  40af78:	48 8b 13             	mov    rdx,QWORD PTR [rbx]
  40af7b:	80 e5 20             	and    ch,0x20
  40af7e:	74 c8                	je     40af48 <__pformat_float+0x78>
  40af80:	b9 20 00 00 00       	mov    ecx,0x20
  40af85:	e8 de 38 00 00       	call   40e868 <fputc>
  40af8a:	8b 53 24             	mov    edx,DWORD PTR [rbx+0x24]
  40af8d:	8b 43 0c             	mov    eax,DWORD PTR [rbx+0xc]
  40af90:	eb c4                	jmp    40af56 <__pformat_float+0x86>
  40af92:	66 0f 1f 44 00 00    	nop    WORD PTR [rax+rax*1+0x0]
  40af98:	8b 4c 24 48          	mov    ecx,DWORD PTR [rsp+0x48]
  40af9c:	49 89 d8             	mov    r8,rbx
  40af9f:	48 89 c2             	mov    rdx,rax
  40afa2:	e8 f9 ee ff ff       	call   409ea0 <__pformat_emit_inf_or_nan>
  40afa7:	4c 89 e1             	mov    rcx,r12
  40afaa:	e8 41 11 00 00       	call   40c0f0 <__freedtoa>
  40afaf:	90                   	nop
  40afb0:	48 83 c4 68          	add    rsp,0x68
  40afb4:	5b                   	pop    rbx
  40afb5:	41 5c                	pop    r12
  40afb7:	c3                   	ret
  40afb8:	0f 1f 84 00 00 00 00 	nop    DWORD PTR [rax+rax*1+0x0]
  40afbf:	00 

000000000040afc0 <__pformat_gfloat>:
  40afc0:	41 54                	push   r12
  40afc2:	56                   	push   rsi
  40afc3:	53                   	push   rbx
  40afc4:	48 83 ec 60          	sub    rsp,0x60
  40afc8:	44 8b 42 10          	mov    r8d,DWORD PTR [rdx+0x10]
  40afcc:	db 29                	fld    TBYTE PTR [rcx]
  40afce:	48 89 d3             	mov    rbx,rdx
  40afd1:	45 85 c0             	test   r8d,r8d
  40afd4:	0f 88 fe 00 00 00    	js     40b0d8 <__pformat_gfloat+0x118>
  40afda:	0f 84 e0 00 00 00    	je     40b0c0 <__pformat_gfloat+0x100>
  40afe0:	48 8d 44 24 48       	lea    rax,[rsp+0x48]
  40afe5:	db 7c 24 50          	fstp   TBYTE PTR [rsp+0x50]
  40afe9:	f3 0f 6f 44 24 50    	movdqu xmm0,XMMWORD PTR [rsp+0x50]
  40afef:	48 8d 54 24 30       	lea    rdx,[rsp+0x30]
  40aff4:	4c 8d 4c 24 4c       	lea    r9,[rsp+0x4c]
  40aff9:	b9 02 00 00 00       	mov    ecx,0x2
  40affe:	48 89 44 24 20       	mov    QWORD PTR [rsp+0x20],rax
  40b003:	0f 11 44 24 30       	movups XMMWORD PTR [rsp+0x30],xmm0
  40b008:	e8 33 ea ff ff       	call   409a40 <__pformat_cvt>
  40b00d:	8b 74 24 4c          	mov    esi,DWORD PTR [rsp+0x4c]
  40b011:	49 89 c4             	mov    r12,rax
  40b014:	81 fe 00 80 ff ff    	cmp    esi,0xffff8000
  40b01a:	0f 84 d0 00 00 00    	je     40b0f0 <__pformat_gfloat+0x130>
  40b020:	8b 43 08             	mov    eax,DWORD PTR [rbx+0x8]
  40b023:	25 00 08 00 00       	and    eax,0x800
  40b028:	83 fe fd             	cmp    esi,0xfffffffd
  40b02b:	7c 4b                	jl     40b078 <__pformat_gfloat+0xb8>
  40b02d:	8b 53 10             	mov    edx,DWORD PTR [rbx+0x10]
  40b030:	39 d6                	cmp    esi,edx
  40b032:	7f 44                	jg     40b078 <__pformat_gfloat+0xb8>
  40b034:	85 c0                	test   eax,eax
  40b036:	0f 84 cc 00 00 00    	je     40b108 <__pformat_gfloat+0x148>
  40b03c:	29 f2                	sub    edx,esi
  40b03e:	89 53 10             	mov    DWORD PTR [rbx+0x10],edx
  40b041:	8b 4c 24 48          	mov    ecx,DWORD PTR [rsp+0x48]
  40b045:	49 89 d9             	mov    r9,rbx
  40b048:	41 89 f0             	mov    r8d,esi
  40b04b:	4c 89 e2             	mov    rdx,r12
  40b04e:	e8 2d f9 ff ff       	call   40a980 <__pformat_emit_float>
  40b053:	eb 10                	jmp    40b065 <__pformat_gfloat+0xa5>
  40b055:	0f 1f 00             	nop    DWORD PTR [rax]
  40b058:	48 89 da             	mov    rdx,rbx
  40b05b:	b9 20 00 00 00       	mov    ecx,0x20
  40b060:	e8 fb ea ff ff       	call   409b60 <__pformat_putc>
  40b065:	8b 43 0c             	mov    eax,DWORD PTR [rbx+0xc]
  40b068:	8d 50 ff             	lea    edx,[rax-0x1]
  40b06b:	89 53 0c             	mov    DWORD PTR [rbx+0xc],edx
  40b06e:	85 c0                	test   eax,eax
  40b070:	7f e6                	jg     40b058 <__pformat_gfloat+0x98>
  40b072:	eb 28                	jmp    40b09c <__pformat_gfloat+0xdc>
  40b074:	0f 1f 40 00          	nop    DWORD PTR [rax+0x0]
  40b078:	85 c0                	test   eax,eax
  40b07a:	75 34                	jne    40b0b0 <__pformat_gfloat+0xf0>
  40b07c:	4c 89 e1             	mov    rcx,r12
  40b07f:	e8 94 37 00 00       	call   40e818 <strlen>
  40b084:	83 e8 01             	sub    eax,0x1
  40b087:	89 43 10             	mov    DWORD PTR [rbx+0x10],eax
  40b08a:	8b 4c 24 48          	mov    ecx,DWORD PTR [rsp+0x48]
  40b08e:	49 89 d9             	mov    r9,rbx
  40b091:	41 89 f0             	mov    r8d,esi
  40b094:	4c 89 e2             	mov    rdx,r12
  40b097:	e8 a4 fc ff ff       	call   40ad40 <__pformat_emit_efloat>
  40b09c:	4c 89 e1             	mov    rcx,r12
  40b09f:	e8 4c 10 00 00       	call   40c0f0 <__freedtoa>
  40b0a4:	90                   	nop
  40b0a5:	48 83 c4 60          	add    rsp,0x60
  40b0a9:	5b                   	pop    rbx
  40b0aa:	5e                   	pop    rsi
  40b0ab:	41 5c                	pop    r12
  40b0ad:	c3                   	ret
  40b0ae:	66 90                	xchg   ax,ax
  40b0b0:	8b 43 10             	mov    eax,DWORD PTR [rbx+0x10]
  40b0b3:	83 e8 01             	sub    eax,0x1
  40b0b6:	eb cf                	jmp    40b087 <__pformat_gfloat+0xc7>
  40b0b8:	0f 1f 84 00 00 00 00 	nop    DWORD PTR [rax+rax*1+0x0]
  40b0bf:	00 
  40b0c0:	c7 42 10 01 00 00 00 	mov    DWORD PTR [rdx+0x10],0x1
  40b0c7:	41 b8 01 00 00 00    	mov    r8d,0x1
  40b0cd:	e9 0e ff ff ff       	jmp    40afe0 <__pformat_gfloat+0x20>
  40b0d2:	66 0f 1f 44 00 00    	nop    WORD PTR [rax+rax*1+0x0]
  40b0d8:	c7 42 10 06 00 00 00 	mov    DWORD PTR [rdx+0x10],0x6
  40b0df:	41 b8 06 00 00 00    	mov    r8d,0x6
  40b0e5:	e9 f6 fe ff ff       	jmp    40afe0 <__pformat_gfloat+0x20>
  40b0ea:	66 0f 1f 44 00 00    	nop    WORD PTR [rax+rax*1+0x0]
  40b0f0:	8b 4c 24 48          	mov    ecx,DWORD PTR [rsp+0x48]
  40b0f4:	49 89 d8             	mov    r8,rbx
  40b0f7:	48 89 c2             	mov    rdx,rax
  40b0fa:	e8 a1 ed ff ff       	call   409ea0 <__pformat_emit_inf_or_nan>
  40b0ff:	eb 9b                	jmp    40b09c <__pformat_gfloat+0xdc>
  40b101:	0f 1f 80 00 00 00 00 	nop    DWORD PTR [rax+0x0]
  40b108:	4c 89 e1             	mov    rcx,r12
  40b10b:	e8 08 37 00 00       	call   40e818 <strlen>
  40b110:	29 f0                	sub    eax,esi
  40b112:	89 43 10             	mov    DWORD PTR [rbx+0x10],eax
  40b115:	0f 89 26 ff ff ff    	jns    40b041 <__pformat_gfloat+0x81>
  40b11b:	8b 53 0c             	mov    edx,DWORD PTR [rbx+0xc]
  40b11e:	85 d2                	test   edx,edx
  40b120:	0f 8e 1b ff ff ff    	jle    40b041 <__pformat_gfloat+0x81>
  40b126:	01 d0                	add    eax,edx
  40b128:	89 43 0c             	mov    DWORD PTR [rbx+0xc],eax
  40b12b:	e9 11 ff ff ff       	jmp    40b041 <__pformat_gfloat+0x81>

000000000040b130 <__pformat_xldouble>:
  40b130:	41 55                	push   r13
  40b132:	41 54                	push   r12
  40b134:	55                   	push   rbp
  40b135:	57                   	push   rdi
  40b136:	56                   	push   rsi
  40b137:	53                   	push   rbx
  40b138:	48 83 ec 58          	sub    rsp,0x58
  40b13c:	4c 8b 11             	mov    r10,QWORD PTR [rcx]
  40b13f:	44 8b 59 08          	mov    r11d,DWORD PTR [rcx+0x8]
  40b143:	45 0f bf c3          	movsx  r8d,r11w
  40b147:	4c 89 de             	mov    rsi,r11
  40b14a:	43 8d 0c 00          	lea    ecx,[r8+r8*1]
  40b14e:	49 89 d4             	mov    r12,rdx
  40b151:	4c 89 d2             	mov    rdx,r10
  40b154:	0f b7 c9             	movzx  ecx,cx
  40b157:	48 c1 ea 20          	shr    rdx,0x20
  40b15b:	81 e2 ff ff ff 7f    	and    edx,0x7fffffff
  40b161:	44 09 d2             	or     edx,r10d
  40b164:	89 d0                	mov    eax,edx
  40b166:	f7 d8                	neg    eax
  40b168:	09 d0                	or     eax,edx
  40b16a:	c1 e8 1f             	shr    eax,0x1f
  40b16d:	09 c8                	or     eax,ecx
  40b16f:	b9 fe ff 00 00       	mov    ecx,0xfffe
  40b174:	29 c1                	sub    ecx,eax
  40b176:	c1 e9 10             	shr    ecx,0x10
  40b179:	0f 85 d9 02 00 00    	jne    40b458 <__pformat_xldouble+0x328>
  40b17f:	66 45 85 db          	test   r11w,r11w
  40b183:	0f 88 d7 01 00 00    	js     40b360 <__pformat_xldouble+0x230>
  40b189:	66 81 e6 ff 7f       	and    si,0x7fff
  40b18e:	0f 85 a4 01 00 00    	jne    40b338 <__pformat_xldouble+0x208>
  40b194:	4d 85 d2             	test   r10,r10
  40b197:	0f 85 33 03 00 00    	jne    40b4d0 <__pformat_xldouble+0x3a0>
  40b19d:	41 8b 54 24 10       	mov    edx,DWORD PTR [r12+0x10]
  40b1a2:	83 fa 0e             	cmp    edx,0xe
  40b1a5:	0f 86 f5 01 00 00    	jbe    40b3a0 <__pformat_xldouble+0x270>
  40b1ab:	41 8b 4c 24 08       	mov    ecx,DWORD PTR [r12+0x8]
  40b1b0:	48 8d 7c 24 30       	lea    rdi,[rsp+0x30]
  40b1b5:	41 8b 44 24 10       	mov    eax,DWORD PTR [r12+0x10]
  40b1ba:	85 c0                	test   eax,eax
  40b1bc:	0f 8e 9e 04 00 00    	jle    40b660 <__pformat_xldouble+0x530>
  40b1c2:	c6 44 24 30 2e       	mov    BYTE PTR [rsp+0x30],0x2e
  40b1c7:	48 8d 44 24 31       	lea    rax,[rsp+0x31]
  40b1cc:	c6 00 30             	mov    BYTE PTR [rax],0x30
  40b1cf:	48 8d 58 01          	lea    rbx,[rax+0x1]
  40b1d3:	45 8b 54 24 0c       	mov    r10d,DWORD PTR [r12+0xc]
  40b1d8:	bd 02 00 00 00       	mov    ebp,0x2
  40b1dd:	45 85 d2             	test   r10d,r10d
  40b1e0:	0f 8e 8a 00 00 00    	jle    40b270 <__pformat_xldouble+0x140>
  40b1e6:	41 8b 54 24 10       	mov    edx,DWORD PTR [r12+0x10]
  40b1eb:	49 89 d9             	mov    r9,rbx
  40b1ee:	0f bf c6             	movsx  eax,si
  40b1f1:	49 29 f9             	sub    r9,rdi
  40b1f4:	46 8d 04 0a          	lea    r8d,[rdx+r9*1]
  40b1f8:	85 d2                	test   edx,edx
  40b1fa:	89 ca                	mov    edx,ecx
  40b1fc:	45 0f 4f c8          	cmovg  r9d,r8d
  40b200:	81 e2 c0 01 00 00    	and    edx,0x1c0
  40b206:	83 fa 01             	cmp    edx,0x1
  40b209:	48 0f bf d6          	movsx  rdx,si
  40b20d:	41 83 d9 fa          	sbb    r9d,0xfffffffa
  40b211:	48 69 d2 67 66 66 66 	imul   rdx,rdx,0x66666667
  40b218:	c1 f8 1f             	sar    eax,0x1f
  40b21b:	45 89 c8             	mov    r8d,r9d
  40b21e:	48 c1 fa 22          	sar    rdx,0x22
  40b222:	29 c2                	sub    edx,eax
  40b224:	74 2f                	je     40b255 <__pformat_xldouble+0x125>
  40b226:	66 2e 0f 1f 84 00 00 	cs nop WORD PTR [rax+rax*1+0x0]
  40b22d:	00 00 00 
  40b230:	48 63 c2             	movsxd rax,edx
  40b233:	41 83 c0 01          	add    r8d,0x1
  40b237:	c1 fa 1f             	sar    edx,0x1f
  40b23a:	48 69 c0 67 66 66 66 	imul   rax,rax,0x66666667
  40b241:	41 8d 68 02          	lea    ebp,[r8+0x2]
  40b245:	44 29 cd             	sub    ebp,r9d
  40b248:	48 c1 f8 22          	sar    rax,0x22
  40b24c:	29 d0                	sub    eax,edx
  40b24e:	89 c2                	mov    edx,eax
  40b250:	75 de                	jne    40b230 <__pformat_xldouble+0x100>
  40b252:	0f bf ed             	movsx  ebp,bp
  40b255:	45 39 c2             	cmp    r10d,r8d
  40b258:	0f 8e 6a 03 00 00    	jle    40b5c8 <__pformat_xldouble+0x498>
  40b25e:	45 29 c2             	sub    r10d,r8d
  40b261:	f6 c5 06             	test   ch,0x6
  40b264:	0f 84 ae 03 00 00    	je     40b618 <__pformat_xldouble+0x4e8>
  40b26a:	45 89 54 24 0c       	mov    DWORD PTR [r12+0xc],r10d
  40b26f:	90                   	nop
  40b270:	f6 c1 80             	test   cl,0x80
  40b273:	0f 85 37 03 00 00    	jne    40b5b0 <__pformat_xldouble+0x480>
  40b279:	f6 c5 01             	test   ch,0x1
  40b27c:	0f 85 5e 03 00 00    	jne    40b5e0 <__pformat_xldouble+0x4b0>
  40b282:	83 e1 40             	and    ecx,0x40
  40b285:	0f 85 75 03 00 00    	jne    40b600 <__pformat_xldouble+0x4d0>
  40b28b:	4c 89 e2             	mov    rdx,r12
  40b28e:	b9 30 00 00 00       	mov    ecx,0x30
  40b293:	e8 c8 e8 ff ff       	call   409b60 <__pformat_putc>
  40b298:	41 8b 4c 24 08       	mov    ecx,DWORD PTR [r12+0x8]
  40b29d:	4c 89 e2             	mov    rdx,r12
  40b2a0:	83 e1 20             	and    ecx,0x20
  40b2a3:	83 c9 58             	or     ecx,0x58
  40b2a6:	e8 b5 e8 ff ff       	call   409b60 <__pformat_putc>
  40b2ab:	41 8b 44 24 0c       	mov    eax,DWORD PTR [r12+0xc]
  40b2b0:	85 c0                	test   eax,eax
  40b2b2:	7e 32                	jle    40b2e6 <__pformat_xldouble+0x1b6>
  40b2b4:	41 f6 44 24 09 02    	test   BYTE PTR [r12+0x9],0x2
  40b2ba:	74 2a                	je     40b2e6 <__pformat_xldouble+0x1b6>
  40b2bc:	83 e8 01             	sub    eax,0x1
  40b2bf:	41 89 44 24 0c       	mov    DWORD PTR [r12+0xc],eax
  40b2c4:	0f 1f 40 00          	nop    DWORD PTR [rax+0x0]
  40b2c8:	4c 89 e2             	mov    rdx,r12
  40b2cb:	b9 30 00 00 00       	mov    ecx,0x30
  40b2d0:	e8 8b e8 ff ff       	call   409b60 <__pformat_putc>
  40b2d5:	41 8b 44 24 0c       	mov    eax,DWORD PTR [r12+0xc]
  40b2da:	8d 50 ff             	lea    edx,[rax-0x1]
  40b2dd:	41 89 54 24 0c       	mov    DWORD PTR [r12+0xc],edx
  40b2e2:	85 c0                	test   eax,eax
  40b2e4:	7f e2                	jg     40b2c8 <__pformat_xldouble+0x198>
  40b2e6:	4c 8d 6c 24 2e       	lea    r13,[rsp+0x2e]
  40b2eb:	48 39 fb             	cmp    rbx,rdi
  40b2ee:	77 25                	ja     40b315 <__pformat_xldouble+0x1e5>
  40b2f0:	e9 90 01 00 00       	jmp    40b485 <__pformat_xldouble+0x355>
  40b2f5:	0f 1f 00             	nop    DWORD PTR [rax]
  40b2f8:	41 0f b7 44 24 20    	movzx  eax,WORD PTR [r12+0x20]
  40b2fe:	66 89 44 24 2e       	mov    WORD PTR [rsp+0x2e],ax
  40b303:	66 85 c0             	test   ax,ax
  40b306:	0f 85 74 02 00 00    	jne    40b580 <__pformat_xldouble+0x450>
  40b30c:	48 39 fb             	cmp    rbx,rdi
  40b30f:	0f 84 70 01 00 00    	je     40b485 <__pformat_xldouble+0x355>
  40b315:	0f be 4b ff          	movsx  ecx,BYTE PTR [rbx-0x1]
  40b319:	48 83 eb 01          	sub    rbx,0x1
  40b31d:	83 f9 2e             	cmp    ecx,0x2e
  40b320:	0f 84 fa 01 00 00    	je     40b520 <__pformat_xldouble+0x3f0>
  40b326:	83 f9 2c             	cmp    ecx,0x2c
  40b329:	74 cd                	je     40b2f8 <__pformat_xldouble+0x1c8>
  40b32b:	4c 89 e2             	mov    rdx,r12
  40b32e:	e8 2d e8 ff ff       	call   409b60 <__pformat_putc>
  40b333:	eb d7                	jmp    40b30c <__pformat_xldouble+0x1dc>
  40b335:	0f 1f 00             	nop    DWORD PTR [rax]
  40b338:	66 81 fe ff 7f       	cmp    si,0x7fff
  40b33d:	75 41                	jne    40b380 <__pformat_xldouble+0x250>
  40b33f:	85 d2                	test   edx,edx
  40b341:	75 3d                	jne    40b380 <__pformat_xldouble+0x250>
  40b343:	44 89 c1             	mov    ecx,r8d
  40b346:	48 8d 15 be 63 00 00 	lea    rdx,[rip+0x63be]        # 41170b <.rdata+0xb>
  40b34d:	4d 89 e0             	mov    r8,r12
  40b350:	81 e1 00 80 00 00    	and    ecx,0x8000
  40b356:	e9 09 01 00 00       	jmp    40b464 <__pformat_xldouble+0x334>
  40b35b:	0f 1f 44 00 00       	nop    DWORD PTR [rax+rax*1+0x0]
  40b360:	41 81 4c 24 08 80 00 	or     DWORD PTR [r12+0x8],0x80
  40b367:	00 00 
  40b369:	66 81 e6 ff 7f       	and    si,0x7fff
  40b36e:	0f 84 20 fe ff ff    	je     40b194 <__pformat_xldouble+0x64>
  40b374:	eb c2                	jmp    40b338 <__pformat_xldouble+0x208>
  40b376:	66 2e 0f 1f 84 00 00 	cs nop WORD PTR [rax+rax*1+0x0]
  40b37d:	00 00 00 
  40b380:	41 8b 54 24 10       	mov    edx,DWORD PTR [r12+0x10]
  40b385:	66 81 ee ff 3f       	sub    si,0x3fff
  40b38a:	83 fa 0e             	cmp    edx,0xe
  40b38d:	0f 87 75 01 00 00    	ja     40b508 <__pformat_xldouble+0x3d8>
  40b393:	4d 85 d2             	test   r10,r10
  40b396:	78 0d                	js     40b3a5 <__pformat_xldouble+0x275>
  40b398:	0f 1f 84 00 00 00 00 	nop    DWORD PTR [rax+rax*1+0x0]
  40b39f:	00 
  40b3a0:	4d 01 d2             	add    r10,r10
  40b3a3:	79 fb                	jns    40b3a0 <__pformat_xldouble+0x270>
  40b3a5:	b9 0e 00 00 00       	mov    ecx,0xe
  40b3aa:	b8 04 00 00 00       	mov    eax,0x4
  40b3af:	49 d1 ea             	shr    r10,1
  40b3b2:	29 d1                	sub    ecx,edx
  40b3b4:	c1 e1 02             	shl    ecx,0x2
  40b3b7:	48 d3 e0             	shl    rax,cl
  40b3ba:	49 01 c2             	add    r10,rax
  40b3bd:	0f 88 35 02 00 00    	js     40b5f8 <__pformat_xldouble+0x4c8>
  40b3c3:	4d 01 d2             	add    r10,r10
  40b3c6:	b9 0f 00 00 00       	mov    ecx,0xf
  40b3cb:	29 d1                	sub    ecx,edx
  40b3cd:	c1 e1 02             	shl    ecx,0x2
  40b3d0:	49 d3 ea             	shr    r10,cl
  40b3d3:	41 8b 4c 24 08       	mov    ecx,DWORD PTR [r12+0x8]
  40b3d8:	48 8d 7c 24 30       	lea    rdi,[rsp+0x30]
  40b3dd:	41 89 c9             	mov    r9d,ecx
  40b3e0:	41 89 c8             	mov    r8d,ecx
  40b3e3:	48 89 fb             	mov    rbx,rdi
  40b3e6:	41 81 e1 00 08 00 00 	and    r9d,0x800
  40b3ed:	41 83 e0 20          	and    r8d,0x20
  40b3f1:	eb 27                	jmp    40b41a <__pformat_xldouble+0x2ea>
  40b3f3:	0f 1f 44 00 00       	nop    DWORD PTR [rax+rax*1+0x0]
  40b3f8:	31 c0                	xor    eax,eax
  40b3fa:	48 39 fb             	cmp    rbx,rdi
  40b3fd:	77 09                	ja     40b408 <__pformat_xldouble+0x2d8>
  40b3ff:	41 8b 54 24 10       	mov    edx,DWORD PTR [r12+0x10]
  40b404:	85 d2                	test   edx,edx
  40b406:	78 09                	js     40b411 <__pformat_xldouble+0x2e1>
  40b408:	83 c0 30             	add    eax,0x30
  40b40b:	88 03                	mov    BYTE PTR [rbx],al
  40b40d:	48 83 c3 01          	add    rbx,0x1
  40b411:	4d 85 d2             	test   r10,r10
  40b414:	0f 84 7e 01 00 00    	je     40b598 <__pformat_xldouble+0x468>
  40b41a:	44 89 d2             	mov    edx,r10d
  40b41d:	83 e2 0f             	and    edx,0xf
  40b420:	49 f7 c2 f0 ff ff ff 	test   r10,0xfffffffffffffff0
  40b427:	0f 84 03 01 00 00    	je     40b530 <__pformat_xldouble+0x400>
  40b42d:	41 8b 44 24 10       	mov    eax,DWORD PTR [r12+0x10]
  40b432:	49 c1 ea 04          	shr    r10,0x4
  40b436:	85 c0                	test   eax,eax
  40b438:	7e 08                	jle    40b442 <__pformat_xldouble+0x312>
  40b43a:	83 e8 01             	sub    eax,0x1
  40b43d:	41 89 44 24 10       	mov    DWORD PTR [r12+0x10],eax
  40b442:	85 d2                	test   edx,edx
  40b444:	74 b2                	je     40b3f8 <__pformat_xldouble+0x2c8>
  40b446:	89 d0                	mov    eax,edx
  40b448:	83 fa 09             	cmp    edx,0x9
  40b44b:	76 bb                	jbe    40b408 <__pformat_xldouble+0x2d8>
  40b44d:	8d 42 37             	lea    eax,[rdx+0x37]
  40b450:	44 09 c0             	or     eax,r8d
  40b453:	eb b6                	jmp    40b40b <__pformat_xldouble+0x2db>
  40b455:	0f 1f 00             	nop    DWORD PTR [rax]
  40b458:	4d 89 e0             	mov    r8,r12
  40b45b:	48 8d 15 a5 62 00 00 	lea    rdx,[rip+0x62a5]        # 411707 <.rdata+0x7>
  40b462:	31 c9                	xor    ecx,ecx
  40b464:	48 83 c4 58          	add    rsp,0x58
  40b468:	5b                   	pop    rbx
  40b469:	5e                   	pop    rsi
  40b46a:	5f                   	pop    rdi
  40b46b:	5d                   	pop    rbp
  40b46c:	41 5c                	pop    r12
  40b46e:	41 5d                	pop    r13
  40b470:	e9 2b ea ff ff       	jmp    409ea0 <__pformat_emit_inf_or_nan>
  40b475:	0f 1f 00             	nop    DWORD PTR [rax]
  40b478:	4c 89 e2             	mov    rdx,r12
  40b47b:	b9 30 00 00 00       	mov    ecx,0x30
  40b480:	e8 db e6 ff ff       	call   409b60 <__pformat_putc>
  40b485:	41 8b 44 24 10       	mov    eax,DWORD PTR [r12+0x10]
  40b48a:	8d 50 ff             	lea    edx,[rax-0x1]
  40b48d:	41 89 54 24 10       	mov    DWORD PTR [r12+0x10],edx
  40b492:	85 c0                	test   eax,eax
  40b494:	7f e2                	jg     40b478 <__pformat_xldouble+0x348>
  40b496:	41 8b 4c 24 08       	mov    ecx,DWORD PTR [r12+0x8]
  40b49b:	4c 89 e2             	mov    rdx,r12
  40b49e:	83 e1 20             	and    ecx,0x20
  40b4a1:	83 c9 50             	or     ecx,0x50
  40b4a4:	e8 b7 e6 ff ff       	call   409b60 <__pformat_putc>
  40b4a9:	41 01 6c 24 0c       	add    DWORD PTR [r12+0xc],ebp
  40b4ae:	48 0f bf ce          	movsx  rcx,si
  40b4b2:	4c 89 e2             	mov    rdx,r12
  40b4b5:	41 81 4c 24 08 c0 01 	or     DWORD PTR [r12+0x8],0x1c0
  40b4bc:	00 00 
  40b4be:	48 83 c4 58          	add    rsp,0x58
  40b4c2:	5b                   	pop    rbx
  40b4c3:	5e                   	pop    rsi
  40b4c4:	5f                   	pop    rdi
  40b4c5:	5d                   	pop    rbp
  40b4c6:	41 5c                	pop    r12
  40b4c8:	41 5d                	pop    r13
  40b4ca:	e9 a1 ef ff ff       	jmp    40a470 <__pformat_int.isra.0>
  40b4cf:	90                   	nop
  40b4d0:	0f 88 9b 01 00 00    	js     40b671 <__pformat_xldouble+0x541>
  40b4d6:	b8 01 c0 ff ff       	mov    eax,0xffffc001
  40b4db:	0f 1f 44 00 00       	nop    DWORD PTR [rax+rax*1+0x0]
  40b4e0:	89 c6                	mov    esi,eax
  40b4e2:	83 e8 01             	sub    eax,0x1
  40b4e5:	4d 01 d2             	add    r10,r10
  40b4e8:	79 f6                	jns    40b4e0 <__pformat_xldouble+0x3b0>
  40b4ea:	41 8b 54 24 10       	mov    edx,DWORD PTR [r12+0x10]
  40b4ef:	83 fa 0e             	cmp    edx,0xe
  40b4f2:	0f 86 ad fe ff ff    	jbe    40b3a5 <__pformat_xldouble+0x275>
  40b4f8:	41 8b 4c 24 08       	mov    ecx,DWORD PTR [r12+0x8]
  40b4fd:	e9 d6 fe ff ff       	jmp    40b3d8 <__pformat_xldouble+0x2a8>
  40b502:	66 0f 1f 44 00 00    	nop    WORD PTR [rax+rax*1+0x0]
  40b508:	41 8b 4c 24 08       	mov    ecx,DWORD PTR [r12+0x8]
  40b50d:	48 8d 7c 24 30       	lea    rdi,[rsp+0x30]
  40b512:	4d 85 d2             	test   r10,r10
  40b515:	0f 85 bd fe ff ff    	jne    40b3d8 <__pformat_xldouble+0x2a8>
  40b51b:	e9 95 fc ff ff       	jmp    40b1b5 <__pformat_xldouble+0x85>
  40b520:	4c 89 e1             	mov    rcx,r12
  40b523:	e8 f8 f2 ff ff       	call   40a820 <__pformat_emit_radix_point>
  40b528:	e9 df fd ff ff       	jmp    40b30c <__pformat_xldouble+0x1dc>
  40b52d:	0f 1f 00             	nop    DWORD PTR [rax]
  40b530:	48 39 fb             	cmp    rbx,rdi
  40b533:	77 13                	ja     40b548 <__pformat_xldouble+0x418>
  40b535:	45 85 c9             	test   r9d,r9d
  40b538:	75 0e                	jne    40b548 <__pformat_xldouble+0x418>
  40b53a:	45 8b 5c 24 10       	mov    r11d,DWORD PTR [r12+0x10]
  40b53f:	45 85 db             	test   r11d,r11d
  40b542:	7e 0b                	jle    40b54f <__pformat_xldouble+0x41f>
  40b544:	0f 1f 40 00          	nop    DWORD PTR [rax+0x0]
  40b548:	c6 03 2e             	mov    BYTE PTR [rbx],0x2e
  40b54b:	48 83 c3 01          	add    rbx,0x1
  40b54f:	8d 46 ff             	lea    eax,[rsi-0x1]
  40b552:	49 83 fa 01          	cmp    r10,0x1
  40b556:	74 16                	je     40b56e <__pformat_xldouble+0x43e>
  40b558:	0f 1f 84 00 00 00 00 	nop    DWORD PTR [rax+rax*1+0x0]
  40b55f:	00 
  40b560:	89 c6                	mov    esi,eax
  40b562:	49 d1 ea             	shr    r10,1
  40b565:	8d 46 ff             	lea    eax,[rsi-0x1]
  40b568:	49 83 fa 01          	cmp    r10,0x1
  40b56c:	75 f2                	jne    40b560 <__pformat_xldouble+0x430>
  40b56e:	45 31 d2             	xor    r10d,r10d
  40b571:	e9 cc fe ff ff       	jmp    40b442 <__pformat_xldouble+0x312>
  40b576:	66 2e 0f 1f 84 00 00 	cs nop WORD PTR [rax+rax*1+0x0]
  40b57d:	00 00 00 
  40b580:	4d 89 e0             	mov    r8,r12
  40b583:	ba 01 00 00 00       	mov    edx,0x1
  40b588:	4c 89 e9             	mov    rcx,r13
  40b58b:	e8 30 e6 ff ff       	call   409bc0 <__pformat_wputchars>
  40b590:	e9 77 fd ff ff       	jmp    40b30c <__pformat_xldouble+0x1dc>
  40b595:	0f 1f 00             	nop    DWORD PTR [rax]
  40b598:	48 39 fb             	cmp    rbx,rdi
  40b59b:	0f 85 32 fc ff ff    	jne    40b1d3 <__pformat_xldouble+0xa3>
  40b5a1:	e9 0f fc ff ff       	jmp    40b1b5 <__pformat_xldouble+0x85>
  40b5a6:	66 2e 0f 1f 84 00 00 	cs nop WORD PTR [rax+rax*1+0x0]
  40b5ad:	00 00 00 
  40b5b0:	4c 89 e2             	mov    rdx,r12
  40b5b3:	b9 2d 00 00 00       	mov    ecx,0x2d
  40b5b8:	e8 a3 e5 ff ff       	call   409b60 <__pformat_putc>
  40b5bd:	e9 c9 fc ff ff       	jmp    40b28b <__pformat_xldouble+0x15b>
  40b5c2:	66 0f 1f 44 00 00    	nop    WORD PTR [rax+rax*1+0x0]
  40b5c8:	41 c7 44 24 0c ff ff 	mov    DWORD PTR [r12+0xc],0xffffffff
  40b5cf:	ff ff 
  40b5d1:	e9 9a fc ff ff       	jmp    40b270 <__pformat_xldouble+0x140>
  40b5d6:	66 2e 0f 1f 84 00 00 	cs nop WORD PTR [rax+rax*1+0x0]
  40b5dd:	00 00 00 
  40b5e0:	4c 89 e2             	mov    rdx,r12
  40b5e3:	b9 2b 00 00 00       	mov    ecx,0x2b
  40b5e8:	e8 73 e5 ff ff       	call   409b60 <__pformat_putc>
  40b5ed:	e9 99 fc ff ff       	jmp    40b28b <__pformat_xldouble+0x15b>
  40b5f2:	66 0f 1f 44 00 00    	nop    WORD PTR [rax+rax*1+0x0]
  40b5f8:	83 c6 01             	add    esi,0x1
  40b5fb:	e9 c6 fd ff ff       	jmp    40b3c6 <__pformat_xldouble+0x296>
  40b600:	4c 89 e2             	mov    rdx,r12
  40b603:	b9 20 00 00 00       	mov    ecx,0x20
  40b608:	e8 53 e5 ff ff       	call   409b60 <__pformat_putc>
  40b60d:	e9 79 fc ff ff       	jmp    40b28b <__pformat_xldouble+0x15b>
  40b612:	66 0f 1f 44 00 00    	nop    WORD PTR [rax+rax*1+0x0]
  40b618:	41 8d 42 ff          	lea    eax,[r10-0x1]
  40b61c:	41 89 44 24 0c       	mov    DWORD PTR [r12+0xc],eax
  40b621:	45 85 d2             	test   r10d,r10d
  40b624:	0f 8e 46 fc ff ff    	jle    40b270 <__pformat_xldouble+0x140>
  40b62a:	66 0f 1f 44 00 00    	nop    WORD PTR [rax+rax*1+0x0]
  40b630:	4c 89 e2             	mov    rdx,r12
  40b633:	b9 20 00 00 00       	mov    ecx,0x20
  40b638:	e8 23 e5 ff ff       	call   409b60 <__pformat_putc>
  40b63d:	41 8b 44 24 0c       	mov    eax,DWORD PTR [r12+0xc]
  40b642:	8d 50 ff             	lea    edx,[rax-0x1]
  40b645:	41 89 54 24 0c       	mov    DWORD PTR [r12+0xc],edx
  40b64a:	85 c0                	test   eax,eax
  40b64c:	7f e2                	jg     40b630 <__pformat_xldouble+0x500>
  40b64e:	41 8b 4c 24 08       	mov    ecx,DWORD PTR [r12+0x8]
  40b653:	e9 18 fc ff ff       	jmp    40b270 <__pformat_xldouble+0x140>
  40b658:	0f 1f 84 00 00 00 00 	nop    DWORD PTR [rax+rax*1+0x0]
  40b65f:	00 
  40b660:	48 89 f8             	mov    rax,rdi
  40b663:	f6 c5 08             	test   ch,0x8
  40b666:	0f 84 60 fb ff ff    	je     40b1cc <__pformat_xldouble+0x9c>
  40b66c:	e9 51 fb ff ff       	jmp    40b1c2 <__pformat_xldouble+0x92>
  40b671:	be 02 c0 ff ff       	mov    esi,0xffffc002
  40b676:	e9 6f fe ff ff       	jmp    40b4ea <__pformat_xldouble+0x3ba>
  40b67b:	0f 1f 44 00 00       	nop    DWORD PTR [rax+rax*1+0x0]

000000000040b680 <__mingw_pformat>:
  40b680:	41 57                	push   r15
  40b682:	41 56                	push   r14
  40b684:	41 55                	push   r13
  40b686:	41 54                	push   r12
  40b688:	55                   	push   rbp
  40b689:	57                   	push   rdi
  40b68a:	56                   	push   rsi
  40b68b:	53                   	push   rbx
  40b68c:	48 81 ec a8 00 00 00 	sub    rsp,0xa8
  40b693:	4c 8b a4 24 10 01 00 	mov    r12,QWORD PTR [rsp+0x110]
  40b69a:	00 
  40b69b:	89 cf                	mov    edi,ecx
  40b69d:	48 89 d5             	mov    rbp,rdx
  40b6a0:	44 89 c3             	mov    ebx,r8d
  40b6a3:	4c 89 ce             	mov    rsi,r9
  40b6a6:	e8 05 32 00 00       	call   40e8b0 <_errno>
  40b6ab:	0f be 0e             	movsx  ecx,BYTE PTR [rsi]
  40b6ae:	31 d2                	xor    edx,edx
  40b6b0:	81 e7 00 60 00 00    	and    edi,0x6000
  40b6b6:	8b 00                	mov    eax,DWORD PTR [rax]
  40b6b8:	66 89 94 24 90 00 00 	mov    WORD PTR [rsp+0x90],dx
  40b6bf:	00 
  40b6c0:	89 9c 24 98 00 00 00 	mov    DWORD PTR [rsp+0x98],ebx
  40b6c7:	89 ca                	mov    edx,ecx
  40b6c9:	48 8d 5e 01          	lea    rbx,[rsi+0x1]
  40b6cd:	89 44 24 2c          	mov    DWORD PTR [rsp+0x2c],eax
  40b6d1:	48 b8 ff ff ff ff fd 	movabs rax,0xfffffffdffffffff
  40b6d8:	ff ff ff 
  40b6db:	48 89 84 24 80 00 00 	mov    QWORD PTR [rsp+0x80],rax
  40b6e2:	00 
  40b6e3:	31 c0                	xor    eax,eax
  40b6e5:	48 89 6c 24 70       	mov    QWORD PTR [rsp+0x70],rbp
  40b6ea:	89 7c 24 78          	mov    DWORD PTR [rsp+0x78],edi
  40b6ee:	c7 44 24 7c ff ff ff 	mov    DWORD PTR [rsp+0x7c],0xffffffff
  40b6f5:	ff 
  40b6f6:	66 89 84 24 88 00 00 	mov    WORD PTR [rsp+0x88],ax
  40b6fd:	00 
  40b6fe:	c7 84 24 8c 00 00 00 	mov    DWORD PTR [rsp+0x8c],0x0
  40b705:	00 00 00 00 
  40b709:	c7 84 24 94 00 00 00 	mov    DWORD PTR [rsp+0x94],0x0
  40b710:	00 00 00 00 
  40b714:	c7 84 24 9c 00 00 00 	mov    DWORD PTR [rsp+0x9c],0xffffffff
  40b71b:	ff ff ff ff 
  40b71f:	85 c9                	test   ecx,ecx
  40b721:	0f 84 30 01 00 00    	je     40b857 <__mingw_pformat+0x1d7>
  40b727:	4c 8d 2d f2 5f 00 00 	lea    r13,[rip+0x5ff2]        # 411720 <.rdata+0x20>
  40b72e:	eb 5f                	jmp    40b78f <__mingw_pformat+0x10f>
  40b730:	44 8b 44 24 78       	mov    r8d,DWORD PTR [rsp+0x78]
  40b735:	41 f7 c0 00 40 00 00 	test   r8d,0x4000
  40b73c:	75 10                	jne    40b74e <__mingw_pformat+0xce>
  40b73e:	8b 84 24 94 00 00 00 	mov    eax,DWORD PTR [rsp+0x94]
  40b745:	39 84 24 98 00 00 00 	cmp    DWORD PTR [rsp+0x98],eax
  40b74c:	7e 25                	jle    40b773 <__mingw_pformat+0xf3>
  40b74e:	41 81 e0 00 20 00 00 	and    r8d,0x2000
  40b755:	4c 8b 4c 24 70       	mov    r9,QWORD PTR [rsp+0x70]
  40b75a:	0f 85 80 00 00 00    	jne    40b7e0 <__mingw_pformat+0x160>
  40b760:	48 63 84 24 94 00 00 	movsxd rax,DWORD PTR [rsp+0x94]
  40b767:	00 
  40b768:	41 88 14 01          	mov    BYTE PTR [r9+rax*1],dl
  40b76c:	8b 84 24 94 00 00 00 	mov    eax,DWORD PTR [rsp+0x94]
  40b773:	83 c0 01             	add    eax,0x1
  40b776:	89 84 24 94 00 00 00 	mov    DWORD PTR [rsp+0x94],eax
  40b77d:	0f b6 13             	movzx  edx,BYTE PTR [rbx]
  40b780:	48 83 c3 01          	add    rbx,0x1
  40b784:	0f be ca             	movsx  ecx,dl
  40b787:	85 c9                	test   ecx,ecx
  40b789:	0f 84 c1 00 00 00    	je     40b850 <__mingw_pformat+0x1d0>
  40b78f:	83 f9 25             	cmp    ecx,0x25
  40b792:	75 9c                	jne    40b730 <__mingw_pformat+0xb0>
  40b794:	0f b6 03             	movzx  eax,BYTE PTR [rbx]
  40b797:	89 7c 24 78          	mov    DWORD PTR [rsp+0x78],edi
  40b79b:	48 c7 44 24 7c ff ff 	mov    QWORD PTR [rsp+0x7c],0xffffffffffffffff
  40b7a2:	ff ff 
  40b7a4:	84 c0                	test   al,al
  40b7a6:	0f 84 a4 00 00 00    	je     40b850 <__mingw_pformat+0x1d0>
  40b7ac:	48 89 de             	mov    rsi,rbx
  40b7af:	4c 8d 54 24 7c       	lea    r10,[rsp+0x7c]
  40b7b4:	45 31 ff             	xor    r15d,r15d
  40b7b7:	45 31 f6             	xor    r14d,r14d
  40b7ba:	41 bb 03 00 00 00    	mov    r11d,0x3
  40b7c0:	8d 50 e0             	lea    edx,[rax-0x20]
  40b7c3:	48 8d 6e 01          	lea    rbp,[rsi+0x1]
  40b7c7:	0f be c8             	movsx  ecx,al
  40b7ca:	80 fa 5a             	cmp    dl,0x5a
  40b7cd:	77 29                	ja     40b7f8 <__mingw_pformat+0x178>
  40b7cf:	0f b6 d2             	movzx  edx,dl
  40b7d2:	49 63 54 95 00       	movsxd rdx,DWORD PTR [r13+rdx*4+0x0]
  40b7d7:	4c 01 ea             	add    rdx,r13
  40b7da:	ff e2                	jmp    rdx
  40b7dc:	0f 1f 40 00          	nop    DWORD PTR [rax+0x0]
  40b7e0:	4c 89 ca             	mov    rdx,r9
  40b7e3:	e8 80 30 00 00       	call   40e868 <fputc>
  40b7e8:	8b 84 24 94 00 00 00 	mov    eax,DWORD PTR [rsp+0x94]
  40b7ef:	e9 7f ff ff ff       	jmp    40b773 <__mingw_pformat+0xf3>
  40b7f4:	0f 1f 40 00          	nop    DWORD PTR [rax+0x0]
  40b7f8:	83 e8 30             	sub    eax,0x30
  40b7fb:	3c 09                	cmp    al,0x9
  40b7fd:	0f 87 a9 06 00 00    	ja     40beac <__mingw_pformat+0x82c>
  40b803:	41 83 fe 03          	cmp    r14d,0x3
  40b807:	0f 87 9f 06 00 00    	ja     40beac <__mingw_pformat+0x82c>
  40b80d:	45 85 f6             	test   r14d,r14d
  40b810:	0f 85 6a 06 00 00    	jne    40be80 <__mingw_pformat+0x800>
  40b816:	41 be 01 00 00 00    	mov    r14d,0x1
  40b81c:	4d 85 d2             	test   r10,r10
  40b81f:	0f 84 cb 03 00 00    	je     40bbf0 <__mingw_pformat+0x570>
  40b825:	41 8b 02             	mov    eax,DWORD PTR [r10]
  40b828:	85 c0                	test   eax,eax
  40b82a:	0f 88 c5 06 00 00    	js     40bef5 <__mingw_pformat+0x875>
  40b830:	8d 04 80             	lea    eax,[rax+rax*4]
  40b833:	8d 44 41 d0          	lea    eax,[rcx+rax*2-0x30]
  40b837:	41 89 02             	mov    DWORD PTR [r10],eax
  40b83a:	0f b6 46 01          	movzx  eax,BYTE PTR [rsi+0x1]
  40b83e:	48 89 ee             	mov    rsi,rbp
  40b841:	0f 1f 80 00 00 00 00 	nop    DWORD PTR [rax+0x0]
  40b848:	84 c0                	test   al,al
  40b84a:	0f 85 70 ff ff ff    	jne    40b7c0 <__mingw_pformat+0x140>
  40b850:	8b 8c 24 94 00 00 00 	mov    ecx,DWORD PTR [rsp+0x94]
  40b857:	89 c8                	mov    eax,ecx
  40b859:	48 81 c4 a8 00 00 00 	add    rsp,0xa8
  40b860:	5b                   	pop    rbx
  40b861:	5e                   	pop    rsi
  40b862:	5f                   	pop    rdi
  40b863:	5d                   	pop    rbp
  40b864:	41 5c                	pop    r12
  40b866:	41 5d                	pop    r13
  40b868:	41 5e                	pop    r14
  40b86a:	41 5f                	pop    r15
  40b86c:	c3                   	ret
  40b86d:	0f 1f 00             	nop    DWORD PTR [rax]
  40b870:	49 8d 5c 24 08       	lea    rbx,[r12+0x8]
  40b875:	41 83 ff 03          	cmp    r15d,0x3
  40b879:	0f 84 c8 06 00 00    	je     40bf47 <__mingw_pformat+0x8c7>
  40b87f:	45 8b 0c 24          	mov    r9d,DWORD PTR [r12]
  40b883:	41 83 ff 02          	cmp    r15d,0x2
  40b887:	74 14                	je     40b89d <__mingw_pformat+0x21d>
  40b889:	41 83 ff 01          	cmp    r15d,0x1
  40b88d:	0f 84 46 06 00 00    	je     40bed9 <__mingw_pformat+0x859>
  40b893:	41 83 ff 05          	cmp    r15d,0x5
  40b897:	75 04                	jne    40b89d <__mingw_pformat+0x21d>
  40b899:	45 0f b6 c9          	movzx  r9d,r9b
  40b89d:	4c 89 4c 24 60       	mov    QWORD PTR [rsp+0x60],r9
  40b8a2:	83 f9 75             	cmp    ecx,0x75
  40b8a5:	0f 84 84 06 00 00    	je     40bf2f <__mingw_pformat+0x8af>
  40b8ab:	4c 8d 44 24 70       	lea    r8,[rsp+0x70]
  40b8b0:	4c 89 ca             	mov    rdx,r9
  40b8b3:	49 89 dc             	mov    r12,rbx
  40b8b6:	48 89 eb             	mov    rbx,rbp
  40b8b9:	e8 92 e6 ff ff       	call   409f50 <__pformat_xint.isra.0>
  40b8be:	e9 ba fe ff ff       	jmp    40b77d <__mingw_pformat+0xfd>
  40b8c3:	0f 1f 44 00 00       	nop    DWORD PTR [rax+rax*1+0x0]
  40b8c8:	0f b6 46 01          	movzx  eax,BYTE PTR [rsi+0x1]
  40b8cc:	41 bf 03 00 00 00    	mov    r15d,0x3
  40b8d2:	48 89 ee             	mov    rsi,rbp
  40b8d5:	41 be 04 00 00 00    	mov    r14d,0x4
  40b8db:	e9 68 ff ff ff       	jmp    40b848 <__mingw_pformat+0x1c8>
  40b8e0:	81 4c 24 78 80 00 00 	or     DWORD PTR [rsp+0x78],0x80
  40b8e7:	00 
  40b8e8:	49 8d 5c 24 08       	lea    rbx,[r12+0x8]
  40b8ed:	41 83 ff 03          	cmp    r15d,0x3
  40b8f1:	0f 84 5e 06 00 00    	je     40bf55 <__mingw_pformat+0x8d5>
  40b8f7:	49 63 0c 24          	movsxd rcx,DWORD PTR [r12]
  40b8fb:	41 83 ff 02          	cmp    r15d,0x2
  40b8ff:	74 14                	je     40b915 <__mingw_pformat+0x295>
  40b901:	41 83 ff 01          	cmp    r15d,0x1
  40b905:	0f 84 dc 05 00 00    	je     40bee7 <__mingw_pformat+0x867>
  40b90b:	41 83 ff 05          	cmp    r15d,0x5
  40b90f:	75 04                	jne    40b915 <__mingw_pformat+0x295>
  40b911:	48 0f be c9          	movsx  rcx,cl
  40b915:	48 89 4c 24 60       	mov    QWORD PTR [rsp+0x60],rcx
  40b91a:	48 89 c8             	mov    rax,rcx
  40b91d:	48 8d 54 24 70       	lea    rdx,[rsp+0x70]
  40b922:	49 89 dc             	mov    r12,rbx
  40b925:	48 89 eb             	mov    rbx,rbp
  40b928:	48 c1 f8 3f          	sar    rax,0x3f
  40b92c:	48 89 44 24 68       	mov    QWORD PTR [rsp+0x68],rax
  40b931:	e8 3a eb ff ff       	call   40a470 <__pformat_int.isra.0>
  40b936:	e9 42 fe ff ff       	jmp    40b77d <__mingw_pformat+0xfd>
  40b93b:	41 83 ef 02          	sub    r15d,0x2
  40b93f:	49 8b 0c 24          	mov    rcx,QWORD PTR [r12]
  40b943:	49 8d 5c 24 08       	lea    rbx,[r12+0x8]
  40b948:	41 83 ff 01          	cmp    r15d,0x1
  40b94c:	0f 86 dc 04 00 00    	jbe    40be2e <__mingw_pformat+0x7ae>
  40b952:	48 8d 54 24 70       	lea    rdx,[rsp+0x70]
  40b957:	49 89 dc             	mov    r12,rbx
  40b95a:	48 89 eb             	mov    rbx,rbp
  40b95d:	e8 ee e4 ff ff       	call   409e50 <__pformat_puts>
  40b962:	e9 16 fe ff ff       	jmp    40b77d <__mingw_pformat+0xfd>
  40b967:	41 83 ef 02          	sub    r15d,0x2
  40b96b:	41 8b 04 24          	mov    eax,DWORD PTR [r12]
  40b96f:	49 8d 5c 24 08       	lea    rbx,[r12+0x8]
  40b974:	c7 84 24 80 00 00 00 	mov    DWORD PTR [rsp+0x80],0xffffffff
  40b97b:	ff ff ff ff 
  40b97f:	41 83 ff 01          	cmp    r15d,0x1
  40b983:	0f 86 bb 02 00 00    	jbe    40bc44 <__mingw_pformat+0x5c4>
  40b989:	48 8d 4c 24 60       	lea    rcx,[rsp+0x60]
  40b98e:	4c 8d 44 24 70       	lea    r8,[rsp+0x70]
  40b993:	88 44 24 60          	mov    BYTE PTR [rsp+0x60],al
  40b997:	49 89 dc             	mov    r12,rbx
  40b99a:	ba 01 00 00 00       	mov    edx,0x1
  40b99f:	48 89 eb             	mov    rbx,rbp
  40b9a2:	e8 79 e3 ff ff       	call   409d20 <__pformat_putchars>
  40b9a7:	e9 d1 fd ff ff       	jmp    40b77d <__mingw_pformat+0xfd>
  40b9ac:	49 8b 14 24          	mov    rdx,QWORD PTR [r12]
  40b9b0:	48 63 84 24 94 00 00 	movsxd rax,DWORD PTR [rsp+0x94]
  40b9b7:	00 
  40b9b8:	49 83 c4 08          	add    r12,0x8
  40b9bc:	41 83 ff 05          	cmp    r15d,0x5
  40b9c0:	0f 84 5f 05 00 00    	je     40bf25 <__mingw_pformat+0x8a5>
  40b9c6:	41 83 ff 01          	cmp    r15d,0x1
  40b9ca:	0f 84 f5 05 00 00    	je     40bfc5 <__mingw_pformat+0x945>
  40b9d0:	41 83 ff 02          	cmp    r15d,0x2
  40b9d4:	74 0a                	je     40b9e0 <__mingw_pformat+0x360>
  40b9d6:	41 83 ff 03          	cmp    r15d,0x3
  40b9da:	0f 84 2c 06 00 00    	je     40c00c <__mingw_pformat+0x98c>
  40b9e0:	89 02                	mov    DWORD PTR [rdx],eax
  40b9e2:	48 89 eb             	mov    rbx,rbp
  40b9e5:	e9 93 fd ff ff       	jmp    40b77d <__mingw_pformat+0xfd>
  40b9ea:	8b 44 24 78          	mov    eax,DWORD PTR [rsp+0x78]
  40b9ee:	49 8b 14 24          	mov    rdx,QWORD PTR [r12]
  40b9f2:	49 83 c4 08          	add    r12,0x8
  40b9f6:	83 c8 20             	or     eax,0x20
  40b9f9:	89 44 24 78          	mov    DWORD PTR [rsp+0x78],eax
  40b9fd:	a8 04                	test   al,0x4
  40b9ff:	0f 84 0b 02 00 00    	je     40bc10 <__mingw_pformat+0x590>
  40ba05:	db 2a                	fld    TBYTE PTR [rdx]
  40ba07:	48 8d 4c 24 40       	lea    rcx,[rsp+0x40]
  40ba0c:	48 8d 54 24 70       	lea    rdx,[rsp+0x70]
  40ba11:	48 89 eb             	mov    rbx,rbp
  40ba14:	db 7c 24 40          	fstp   TBYTE PTR [rsp+0x40]
  40ba18:	e8 13 f7 ff ff       	call   40b130 <__pformat_xldouble>
  40ba1d:	e9 5b fd ff ff       	jmp    40b77d <__mingw_pformat+0xfd>
  40ba22:	45 85 f6             	test   r14d,r14d
  40ba25:	75 0a                	jne    40ba31 <__mingw_pformat+0x3b1>
  40ba27:	39 7c 24 78          	cmp    DWORD PTR [rsp+0x78],edi
  40ba2b:	0f 84 8f 04 00 00    	je     40bec0 <__mingw_pformat+0x840>
  40ba31:	49 8b 14 24          	mov    rdx,QWORD PTR [r12]
  40ba35:	49 8d 5c 24 08       	lea    rbx,[r12+0x8]
  40ba3a:	4c 8d 44 24 70       	lea    r8,[rsp+0x70]
  40ba3f:	b9 78 00 00 00       	mov    ecx,0x78
  40ba44:	48 c7 44 24 68 00 00 	mov    QWORD PTR [rsp+0x68],0x0
  40ba4b:	00 00 
  40ba4d:	49 89 dc             	mov    r12,rbx
  40ba50:	48 89 eb             	mov    rbx,rbp
  40ba53:	48 89 54 24 60       	mov    QWORD PTR [rsp+0x60],rdx
  40ba58:	e8 f3 e4 ff ff       	call   409f50 <__pformat_xint.isra.0>
  40ba5d:	e9 1b fd ff ff       	jmp    40b77d <__mingw_pformat+0xfd>
  40ba62:	0f b6 46 01          	movzx  eax,BYTE PTR [rsi+0x1]
  40ba66:	3c 36                	cmp    al,0x36
  40ba68:	0f 84 34 05 00 00    	je     40bfa2 <__mingw_pformat+0x922>
  40ba6e:	3c 33                	cmp    al,0x33
  40ba70:	0f 84 2c 04 00 00    	je     40bea2 <__mingw_pformat+0x822>
  40ba76:	48 89 ee             	mov    rsi,rbp
  40ba79:	41 bf 03 00 00 00    	mov    r15d,0x3
  40ba7f:	41 be 04 00 00 00    	mov    r14d,0x4
  40ba85:	e9 be fd ff ff       	jmp    40b848 <__mingw_pformat+0x1c8>
  40ba8a:	8b 44 24 78          	mov    eax,DWORD PTR [rsp+0x78]
  40ba8e:	49 8b 14 24          	mov    rdx,QWORD PTR [r12]
  40ba92:	49 83 c4 08          	add    r12,0x8
  40ba96:	83 c8 20             	or     eax,0x20
  40ba99:	89 44 24 78          	mov    DWORD PTR [rsp+0x78],eax
  40ba9d:	a8 04                	test   al,0x4
  40ba9f:	0f 84 db 01 00 00    	je     40bc80 <__mingw_pformat+0x600>
  40baa5:	db 2a                	fld    TBYTE PTR [rdx]
  40baa7:	48 8d 4c 24 40       	lea    rcx,[rsp+0x40]
  40baac:	48 8d 54 24 70       	lea    rdx,[rsp+0x70]
  40bab1:	48 89 eb             	mov    rbx,rbp
  40bab4:	db 7c 24 40          	fstp   TBYTE PTR [rsp+0x40]
  40bab8:	e8 63 f3 ff ff       	call   40ae20 <__pformat_efloat>
  40babd:	e9 bb fc ff ff       	jmp    40b77d <__mingw_pformat+0xfd>
  40bac2:	0f b6 46 01          	movzx  eax,BYTE PTR [rsi+0x1]
  40bac6:	3c 68                	cmp    al,0x68
  40bac8:	0f 84 ae 04 00 00    	je     40bf7c <__mingw_pformat+0x8fc>
  40bace:	48 89 ee             	mov    rsi,rbp
  40bad1:	41 bf 01 00 00 00    	mov    r15d,0x1
  40bad7:	41 be 04 00 00 00    	mov    r14d,0x4
  40badd:	e9 66 fd ff ff       	jmp    40b848 <__mingw_pformat+0x1c8>
  40bae2:	0f b6 46 01          	movzx  eax,BYTE PTR [rsi+0x1]
  40bae6:	3c 6c                	cmp    al,0x6c
  40bae8:	0f 84 75 04 00 00    	je     40bf63 <__mingw_pformat+0x8e3>
  40baee:	48 89 ee             	mov    rsi,rbp
  40baf1:	41 bf 02 00 00 00    	mov    r15d,0x2
  40baf7:	41 be 04 00 00 00    	mov    r14d,0x4
  40bafd:	e9 46 fd ff ff       	jmp    40b848 <__mingw_pformat+0x1c8>
  40bb02:	8b 4c 24 2c          	mov    ecx,DWORD PTR [rsp+0x2c]
  40bb06:	48 89 eb             	mov    rbx,rbp
  40bb09:	e8 12 2d 00 00       	call   40e820 <strerror>
  40bb0e:	48 8d 54 24 70       	lea    rdx,[rsp+0x70]
  40bb13:	48 89 c1             	mov    rcx,rax
  40bb16:	e8 35 e3 ff ff       	call   409e50 <__pformat_puts>
  40bb1b:	e9 5d fc ff ff       	jmp    40b77d <__mingw_pformat+0xfd>
  40bb20:	8b 44 24 78          	mov    eax,DWORD PTR [rsp+0x78]
  40bb24:	49 8b 14 24          	mov    rdx,QWORD PTR [r12]
  40bb28:	49 83 c4 08          	add    r12,0x8
  40bb2c:	83 c8 20             	or     eax,0x20
  40bb2f:	89 44 24 78          	mov    DWORD PTR [rsp+0x78],eax
  40bb33:	a8 04                	test   al,0x4
  40bb35:	0f 84 7d 01 00 00    	je     40bcb8 <__mingw_pformat+0x638>
  40bb3b:	db 2a                	fld    TBYTE PTR [rdx]
  40bb3d:	48 8d 4c 24 40       	lea    rcx,[rsp+0x40]
  40bb42:	48 8d 54 24 70       	lea    rdx,[rsp+0x70]
  40bb47:	48 89 eb             	mov    rbx,rbp
  40bb4a:	db 7c 24 40          	fstp   TBYTE PTR [rsp+0x40]
  40bb4e:	e8 7d f3 ff ff       	call   40aed0 <__pformat_float>
  40bb53:	e9 25 fc ff ff       	jmp    40b77d <__mingw_pformat+0xfd>
  40bb58:	8b 44 24 78          	mov    eax,DWORD PTR [rsp+0x78]
  40bb5c:	49 8b 14 24          	mov    rdx,QWORD PTR [r12]
  40bb60:	49 83 c4 08          	add    r12,0x8
  40bb64:	83 c8 20             	or     eax,0x20
  40bb67:	89 44 24 78          	mov    DWORD PTR [rsp+0x78],eax
  40bb6b:	a8 04                	test   al,0x4
  40bb6d:	0f 84 7d 01 00 00    	je     40bcf0 <__mingw_pformat+0x670>
  40bb73:	db 2a                	fld    TBYTE PTR [rdx]
  40bb75:	48 8d 4c 24 40       	lea    rcx,[rsp+0x40]
  40bb7a:	48 8d 54 24 70       	lea    rdx,[rsp+0x70]
  40bb7f:	48 89 eb             	mov    rbx,rbp
  40bb82:	db 7c 24 40          	fstp   TBYTE PTR [rsp+0x40]
  40bb86:	e8 35 f4 ff ff       	call   40afc0 <__pformat_gfloat>
  40bb8b:	e9 ed fb ff ff       	jmp    40b77d <__mingw_pformat+0xfd>
  40bb90:	0f b6 46 01          	movzx  eax,BYTE PTR [rsi+0x1]
  40bb94:	83 4c 24 78 04       	or     DWORD PTR [rsp+0x78],0x4
  40bb99:	48 89 ee             	mov    rsi,rbp
  40bb9c:	41 be 04 00 00 00    	mov    r14d,0x4
  40bba2:	e9 a1 fc ff ff       	jmp    40b848 <__mingw_pformat+0x1c8>
  40bba7:	45 85 f6             	test   r14d,r14d
  40bbaa:	75 44                	jne    40bbf0 <__mingw_pformat+0x570>
  40bbac:	0f b6 46 01          	movzx  eax,BYTE PTR [rsi+0x1]
  40bbb0:	81 4c 24 78 00 04 00 	or     DWORD PTR [rsp+0x78],0x400
  40bbb7:	00 
  40bbb8:	48 89 ee             	mov    rsi,rbp
  40bbbb:	e9 88 fc ff ff       	jmp    40b848 <__mingw_pformat+0x1c8>
  40bbc0:	41 83 fe 01          	cmp    r14d,0x1
  40bbc4:	0f 86 36 03 00 00    	jbe    40bf00 <__mingw_pformat+0x880>
  40bbca:	0f b6 46 01          	movzx  eax,BYTE PTR [rsi+0x1]
  40bbce:	41 be 04 00 00 00    	mov    r14d,0x4
  40bbd4:	48 89 ee             	mov    rsi,rbp
  40bbd7:	e9 6c fc ff ff       	jmp    40b848 <__mingw_pformat+0x1c8>
  40bbdc:	45 85 f6             	test   r14d,r14d
  40bbdf:	0f 85 90 02 00 00    	jne    40be75 <__mingw_pformat+0x7f5>
  40bbe5:	81 4c 24 78 00 02 00 	or     DWORD PTR [rsp+0x78],0x200
  40bbec:	00 
  40bbed:	0f 1f 00             	nop    DWORD PTR [rax]
  40bbf0:	0f b6 46 01          	movzx  eax,BYTE PTR [rsi+0x1]
  40bbf4:	48 89 ee             	mov    rsi,rbp
  40bbf7:	e9 4c fc ff ff       	jmp    40b848 <__mingw_pformat+0x1c8>
  40bbfc:	8b 44 24 78          	mov    eax,DWORD PTR [rsp+0x78]
  40bc00:	49 8b 14 24          	mov    rdx,QWORD PTR [r12]
  40bc04:	49 83 c4 08          	add    r12,0x8
  40bc08:	a8 04                	test   al,0x4
  40bc0a:	0f 85 f5 fd ff ff    	jne    40ba05 <__mingw_pformat+0x385>
  40bc10:	48 89 54 24 30       	mov    QWORD PTR [rsp+0x30],rdx
  40bc15:	dd 44 24 30          	fld    QWORD PTR [rsp+0x30]
  40bc19:	48 8d 54 24 70       	lea    rdx,[rsp+0x70]
  40bc1e:	48 89 eb             	mov    rbx,rbp
  40bc21:	48 8d 4c 24 40       	lea    rcx,[rsp+0x40]
  40bc26:	db 7c 24 40          	fstp   TBYTE PTR [rsp+0x40]
  40bc2a:	e8 01 f5 ff ff       	call   40b130 <__pformat_xldouble>
  40bc2f:	e9 49 fb ff ff       	jmp    40b77d <__mingw_pformat+0xfd>
  40bc34:	c7 84 24 80 00 00 00 	mov    DWORD PTR [rsp+0x80],0xffffffff
  40bc3b:	ff ff ff ff 
  40bc3f:	49 8d 5c 24 08       	lea    rbx,[r12+0x8]
  40bc44:	41 8b 04 24          	mov    eax,DWORD PTR [r12]
  40bc48:	48 8d 4c 24 60       	lea    rcx,[rsp+0x60]
  40bc4d:	4c 8d 44 24 70       	lea    r8,[rsp+0x70]
  40bc52:	49 89 dc             	mov    r12,rbx
  40bc55:	ba 01 00 00 00       	mov    edx,0x1
  40bc5a:	48 89 eb             	mov    rbx,rbp
  40bc5d:	66 89 44 24 60       	mov    WORD PTR [rsp+0x60],ax
  40bc62:	e8 59 df ff ff       	call   409bc0 <__pformat_wputchars>
  40bc67:	e9 11 fb ff ff       	jmp    40b77d <__mingw_pformat+0xfd>
  40bc6c:	8b 44 24 78          	mov    eax,DWORD PTR [rsp+0x78]
  40bc70:	49 8b 14 24          	mov    rdx,QWORD PTR [r12]
  40bc74:	49 83 c4 08          	add    r12,0x8
  40bc78:	a8 04                	test   al,0x4
  40bc7a:	0f 85 25 fe ff ff    	jne    40baa5 <__mingw_pformat+0x425>
  40bc80:	48 89 54 24 30       	mov    QWORD PTR [rsp+0x30],rdx
  40bc85:	dd 44 24 30          	fld    QWORD PTR [rsp+0x30]
  40bc89:	48 8d 54 24 70       	lea    rdx,[rsp+0x70]
  40bc8e:	48 89 eb             	mov    rbx,rbp
  40bc91:	48 8d 4c 24 40       	lea    rcx,[rsp+0x40]
  40bc96:	db 7c 24 40          	fstp   TBYTE PTR [rsp+0x40]
  40bc9a:	e8 81 f1 ff ff       	call   40ae20 <__pformat_efloat>
  40bc9f:	e9 d9 fa ff ff       	jmp    40b77d <__mingw_pformat+0xfd>
  40bca4:	8b 44 24 78          	mov    eax,DWORD PTR [rsp+0x78]
  40bca8:	49 8b 14 24          	mov    rdx,QWORD PTR [r12]
  40bcac:	49 83 c4 08          	add    r12,0x8
  40bcb0:	a8 04                	test   al,0x4
  40bcb2:	0f 85 83 fe ff ff    	jne    40bb3b <__mingw_pformat+0x4bb>
  40bcb8:	48 89 54 24 30       	mov    QWORD PTR [rsp+0x30],rdx
  40bcbd:	dd 44 24 30          	fld    QWORD PTR [rsp+0x30]
  40bcc1:	48 8d 54 24 70       	lea    rdx,[rsp+0x70]
  40bcc6:	48 89 eb             	mov    rbx,rbp
  40bcc9:	48 8d 4c 24 40       	lea    rcx,[rsp+0x40]
  40bcce:	db 7c 24 40          	fstp   TBYTE PTR [rsp+0x40]
  40bcd2:	e8 f9 f1 ff ff       	call   40aed0 <__pformat_float>
  40bcd7:	e9 a1 fa ff ff       	jmp    40b77d <__mingw_pformat+0xfd>
  40bcdc:	8b 44 24 78          	mov    eax,DWORD PTR [rsp+0x78]
  40bce0:	49 8b 14 24          	mov    rdx,QWORD PTR [r12]
  40bce4:	49 83 c4 08          	add    r12,0x8
  40bce8:	a8 04                	test   al,0x4
  40bcea:	0f 85 83 fe ff ff    	jne    40bb73 <__mingw_pformat+0x4f3>
  40bcf0:	48 89 54 24 30       	mov    QWORD PTR [rsp+0x30],rdx
  40bcf5:	dd 44 24 30          	fld    QWORD PTR [rsp+0x30]
  40bcf9:	48 8d 54 24 70       	lea    rdx,[rsp+0x70]
  40bcfe:	48 89 eb             	mov    rbx,rbp
  40bd01:	48 8d 4c 24 40       	lea    rcx,[rsp+0x40]
  40bd06:	db 7c 24 40          	fstp   TBYTE PTR [rsp+0x40]
  40bd0a:	e8 b1 f2 ff ff       	call   40afc0 <__pformat_gfloat>
  40bd0f:	e9 69 fa ff ff       	jmp    40b77d <__mingw_pformat+0xfd>
  40bd14:	48 8d 54 24 70       	lea    rdx,[rsp+0x70]
  40bd19:	b9 25 00 00 00       	mov    ecx,0x25
  40bd1e:	48 89 eb             	mov    rbx,rbp
  40bd21:	e8 3a de ff ff       	call   409b60 <__pformat_putc>
  40bd26:	e9 52 fa ff ff       	jmp    40b77d <__mingw_pformat+0xfd>
  40bd2b:	45 85 f6             	test   r14d,r14d
  40bd2e:	0f 85 bc fe ff ff    	jne    40bbf0 <__mingw_pformat+0x570>
  40bd34:	4c 8d 4c 24 60       	lea    r9,[rsp+0x60]
  40bd39:	4c 89 54 24 38       	mov    QWORD PTR [rsp+0x38],r10
  40bd3e:	81 4c 24 78 00 10 00 	or     DWORD PTR [rsp+0x78],0x1000
  40bd45:	00 
  40bd46:	4c 89 4c 24 30       	mov    QWORD PTR [rsp+0x30],r9
  40bd4b:	c7 44 24 60 00 00 00 	mov    DWORD PTR [rsp+0x60],0x0
  40bd52:	00 
  40bd53:	e8 f0 2a 00 00       	call   40e848 <localeconv>
  40bd58:	4c 8b 4c 24 30       	mov    r9,QWORD PTR [rsp+0x30]
  40bd5d:	48 8d 4c 24 5e       	lea    rcx,[rsp+0x5e]
  40bd62:	41 b8 10 00 00 00    	mov    r8d,0x10
  40bd68:	48 8b 50 08          	mov    rdx,QWORD PTR [rax+0x8]
  40bd6c:	e8 ff 2c 00 00       	call   40ea70 <mbrtowc>
  40bd71:	4c 8b 54 24 38       	mov    r10,QWORD PTR [rsp+0x38]
  40bd76:	41 bb 03 00 00 00    	mov    r11d,0x3
  40bd7c:	85 c0                	test   eax,eax
  40bd7e:	7e 0d                	jle    40bd8d <__mingw_pformat+0x70d>
  40bd80:	0f b7 54 24 5e       	movzx  edx,WORD PTR [rsp+0x5e]
  40bd85:	66 89 94 24 90 00 00 	mov    WORD PTR [rsp+0x90],dx
  40bd8c:	00 
  40bd8d:	89 84 24 8c 00 00 00 	mov    DWORD PTR [rsp+0x8c],eax
  40bd94:	0f b6 46 01          	movzx  eax,BYTE PTR [rsi+0x1]
  40bd98:	48 89 ee             	mov    rsi,rbp
  40bd9b:	e9 a8 fa ff ff       	jmp    40b848 <__mingw_pformat+0x1c8>
  40bda0:	4d 85 d2             	test   r10,r10
  40bda3:	0f 84 21 fe ff ff    	je     40bbca <__mingw_pformat+0x54a>
  40bda9:	41 f7 c6 fd ff ff ff 	test   r14d,0xfffffffd
  40bdb0:	0f 85 d7 00 00 00    	jne    40be8d <__mingw_pformat+0x80d>
  40bdb6:	41 8b 04 24          	mov    eax,DWORD PTR [r12]
  40bdba:	49 8d 54 24 08       	lea    rdx,[r12+0x8]
  40bdbf:	41 89 02             	mov    DWORD PTR [r10],eax
  40bdc2:	85 c0                	test   eax,eax
  40bdc4:	0f 88 06 02 00 00    	js     40bfd0 <__mingw_pformat+0x950>
  40bdca:	0f b6 46 01          	movzx  eax,BYTE PTR [rsi+0x1]
  40bdce:	49 89 d4             	mov    r12,rdx
  40bdd1:	48 89 ee             	mov    rsi,rbp
  40bdd4:	45 31 d2             	xor    r10d,r10d
  40bdd7:	e9 6c fa ff ff       	jmp    40b848 <__mingw_pformat+0x1c8>
  40bddc:	45 85 f6             	test   r14d,r14d
  40bddf:	0f 85 0b fe ff ff    	jne    40bbf0 <__mingw_pformat+0x570>
  40bde5:	81 4c 24 78 00 01 00 	or     DWORD PTR [rsp+0x78],0x100
  40bdec:	00 
  40bded:	e9 fe fd ff ff       	jmp    40bbf0 <__mingw_pformat+0x570>
  40bdf2:	45 85 f6             	test   r14d,r14d
  40bdf5:	0f 85 f5 fd ff ff    	jne    40bbf0 <__mingw_pformat+0x570>
  40bdfb:	0f b6 46 01          	movzx  eax,BYTE PTR [rsi+0x1]
  40bdff:	83 4c 24 78 40       	or     DWORD PTR [rsp+0x78],0x40
  40be04:	48 89 ee             	mov    rsi,rbp
  40be07:	e9 3c fa ff ff       	jmp    40b848 <__mingw_pformat+0x1c8>
  40be0c:	45 85 f6             	test   r14d,r14d
  40be0f:	0f 85 db fd ff ff    	jne    40bbf0 <__mingw_pformat+0x570>
  40be15:	0f b6 46 01          	movzx  eax,BYTE PTR [rsi+0x1]
  40be19:	81 4c 24 78 00 08 00 	or     DWORD PTR [rsp+0x78],0x800
  40be20:	00 
  40be21:	48 89 ee             	mov    rsi,rbp
  40be24:	e9 1f fa ff ff       	jmp    40b848 <__mingw_pformat+0x1c8>
  40be29:	49 8d 5c 24 08       	lea    rbx,[r12+0x8]
  40be2e:	4d 8b 24 24          	mov    r12,QWORD PTR [r12]
  40be32:	48 8d 05 d7 58 00 00 	lea    rax,[rip+0x58d7]        # 411710 <.rdata+0x10>
  40be39:	4d 85 e4             	test   r12,r12
  40be3c:	4c 0f 44 e0          	cmove  r12,rax
  40be40:	8b 84 24 80 00 00 00 	mov    eax,DWORD PTR [rsp+0x80]
  40be47:	85 c0                	test   eax,eax
  40be49:	0f 88 46 01 00 00    	js     40bf95 <__mingw_pformat+0x915>
  40be4f:	48 63 d0             	movsxd rdx,eax
  40be52:	4c 89 e1             	mov    rcx,r12
  40be55:	e8 76 29 00 00       	call   40e7d0 <wcsnlen>
  40be5a:	4c 89 e1             	mov    rcx,r12
  40be5d:	48 89 c2             	mov    rdx,rax
  40be60:	4c 8d 44 24 70       	lea    r8,[rsp+0x70]
  40be65:	49 89 dc             	mov    r12,rbx
  40be68:	e8 53 dd ff ff       	call   409bc0 <__pformat_wputchars>
  40be6d:	48 89 eb             	mov    rbx,rbp
  40be70:	e9 08 f9 ff ff       	jmp    40b77d <__mingw_pformat+0xfd>
  40be75:	41 83 fe 03          	cmp    r14d,0x3
  40be79:	77 31                	ja     40beac <__mingw_pformat+0x82c>
  40be7b:	b9 30 00 00 00       	mov    ecx,0x30
  40be80:	41 83 fe 02          	cmp    r14d,0x2
  40be84:	45 0f 44 f3          	cmove  r14d,r11d
  40be88:	e9 8f f9 ff ff       	jmp    40b81c <__mingw_pformat+0x19c>
  40be8d:	0f b6 46 01          	movzx  eax,BYTE PTR [rsi+0x1]
  40be91:	45 31 d2             	xor    r10d,r10d
  40be94:	48 89 ee             	mov    rsi,rbp
  40be97:	41 be 04 00 00 00    	mov    r14d,0x4
  40be9d:	e9 a6 f9 ff ff       	jmp    40b848 <__mingw_pformat+0x1c8>
  40bea2:	80 7e 02 32          	cmp    BYTE PTR [rsi+0x2],0x32
  40bea6:	0f 84 47 01 00 00    	je     40bff3 <__mingw_pformat+0x973>
  40beac:	48 8d 54 24 70       	lea    rdx,[rsp+0x70]
  40beb1:	b9 25 00 00 00       	mov    ecx,0x25
  40beb6:	e8 a5 dc ff ff       	call   409b60 <__pformat_putc>
  40bebb:	e9 bd f8 ff ff       	jmp    40b77d <__mingw_pformat+0xfd>
  40bec0:	c7 84 24 80 00 00 00 	mov    DWORD PTR [rsp+0x80],0x10
  40bec7:	10 00 00 00 
  40becb:	89 f8                	mov    eax,edi
  40becd:	80 cc 02             	or     ah,0x2
  40bed0:	89 44 24 78          	mov    DWORD PTR [rsp+0x78],eax
  40bed4:	e9 58 fb ff ff       	jmp    40ba31 <__mingw_pformat+0x3b1>
  40bed9:	45 0f b7 c9          	movzx  r9d,r9w
  40bedd:	4c 89 4c 24 60       	mov    QWORD PTR [rsp+0x60],r9
  40bee2:	e9 bb f9 ff ff       	jmp    40b8a2 <__mingw_pformat+0x222>
  40bee7:	48 0f bf c9          	movsx  rcx,cx
  40beeb:	48 89 4c 24 60       	mov    QWORD PTR [rsp+0x60],rcx
  40bef0:	e9 25 fa ff ff       	jmp    40b91a <__mingw_pformat+0x29a>
  40bef5:	83 e9 30             	sub    ecx,0x30
  40bef8:	41 89 0a             	mov    DWORD PTR [r10],ecx
  40befb:	e9 f0 fc ff ff       	jmp    40bbf0 <__mingw_pformat+0x570>
  40bf00:	0f b6 46 01          	movzx  eax,BYTE PTR [rsi+0x1]
  40bf04:	41 be 02 00 00 00    	mov    r14d,0x2
  40bf0a:	48 89 ee             	mov    rsi,rbp
  40bf0d:	c7 84 24 80 00 00 00 	mov    DWORD PTR [rsp+0x80],0x0
  40bf14:	00 00 00 00 
  40bf18:	4c 8d 94 24 80 00 00 	lea    r10,[rsp+0x80]
  40bf1f:	00 
  40bf20:	e9 23 f9 ff ff       	jmp    40b848 <__mingw_pformat+0x1c8>
  40bf25:	88 02                	mov    BYTE PTR [rdx],al
  40bf27:	48 89 eb             	mov    rbx,rbp
  40bf2a:	e9 4e f8 ff ff       	jmp    40b77d <__mingw_pformat+0xfd>
  40bf2f:	48 8d 54 24 70       	lea    rdx,[rsp+0x70]
  40bf34:	4c 89 c9             	mov    rcx,r9
  40bf37:	49 89 dc             	mov    r12,rbx
  40bf3a:	48 89 eb             	mov    rbx,rbp
  40bf3d:	e8 2e e5 ff ff       	call   40a470 <__pformat_int.isra.0>
  40bf42:	e9 36 f8 ff ff       	jmp    40b77d <__mingw_pformat+0xfd>
  40bf47:	4d 8b 0c 24          	mov    r9,QWORD PTR [r12]
  40bf4b:	4c 89 4c 24 60       	mov    QWORD PTR [rsp+0x60],r9
  40bf50:	e9 4d f9 ff ff       	jmp    40b8a2 <__mingw_pformat+0x222>
  40bf55:	49 8b 0c 24          	mov    rcx,QWORD PTR [r12]
  40bf59:	48 89 4c 24 60       	mov    QWORD PTR [rsp+0x60],rcx
  40bf5e:	e9 b7 f9 ff ff       	jmp    40b91a <__mingw_pformat+0x29a>
  40bf63:	0f b6 46 02          	movzx  eax,BYTE PTR [rsi+0x2]
  40bf67:	41 bf 03 00 00 00    	mov    r15d,0x3
  40bf6d:	48 83 c6 02          	add    rsi,0x2
  40bf71:	41 be 04 00 00 00    	mov    r14d,0x4
  40bf77:	e9 cc f8 ff ff       	jmp    40b848 <__mingw_pformat+0x1c8>
  40bf7c:	0f b6 46 02          	movzx  eax,BYTE PTR [rsi+0x2]
  40bf80:	41 bf 05 00 00 00    	mov    r15d,0x5
  40bf86:	48 83 c6 02          	add    rsi,0x2
  40bf8a:	41 be 04 00 00 00    	mov    r14d,0x4
  40bf90:	e9 b3 f8 ff ff       	jmp    40b848 <__mingw_pformat+0x1c8>
  40bf95:	4c 89 e1             	mov    rcx,r12
  40bf98:	e8 63 28 00 00       	call   40e800 <wcslen>
  40bf9d:	e9 b8 fe ff ff       	jmp    40be5a <__mingw_pformat+0x7da>
  40bfa2:	80 7e 02 34          	cmp    BYTE PTR [rsi+0x2],0x34
  40bfa6:	0f 85 00 ff ff ff    	jne    40beac <__mingw_pformat+0x82c>
  40bfac:	0f b6 46 03          	movzx  eax,BYTE PTR [rsi+0x3]
  40bfb0:	41 bf 03 00 00 00    	mov    r15d,0x3
  40bfb6:	48 83 c6 03          	add    rsi,0x3
  40bfba:	41 be 04 00 00 00    	mov    r14d,0x4
  40bfc0:	e9 83 f8 ff ff       	jmp    40b848 <__mingw_pformat+0x1c8>
  40bfc5:	66 89 02             	mov    WORD PTR [rdx],ax
  40bfc8:	48 89 eb             	mov    rbx,rbp
  40bfcb:	e9 ad f7 ff ff       	jmp    40b77d <__mingw_pformat+0xfd>
  40bfd0:	45 85 f6             	test   r14d,r14d
  40bfd3:	75 42                	jne    40c017 <__mingw_pformat+0x997>
  40bfd5:	0f b6 46 01          	movzx  eax,BYTE PTR [rsi+0x1]
  40bfd9:	f7 5c 24 7c          	neg    DWORD PTR [rsp+0x7c]
  40bfdd:	49 89 d4             	mov    r12,rdx
  40bfe0:	48 89 ee             	mov    rsi,rbp
  40bfe3:	81 4c 24 78 00 04 00 	or     DWORD PTR [rsp+0x78],0x400
  40bfea:	00 
  40bfeb:	45 31 d2             	xor    r10d,r10d
  40bfee:	e9 55 f8 ff ff       	jmp    40b848 <__mingw_pformat+0x1c8>
  40bff3:	0f b6 46 03          	movzx  eax,BYTE PTR [rsi+0x3]
  40bff7:	41 bf 02 00 00 00    	mov    r15d,0x2
  40bffd:	48 83 c6 03          	add    rsi,0x3
  40c001:	41 be 04 00 00 00    	mov    r14d,0x4
  40c007:	e9 3c f8 ff ff       	jmp    40b848 <__mingw_pformat+0x1c8>
  40c00c:	48 89 02             	mov    QWORD PTR [rdx],rax
  40c00f:	48 89 eb             	mov    rbx,rbp
  40c012:	e9 66 f7 ff ff       	jmp    40b77d <__mingw_pformat+0xfd>
  40c017:	c7 84 24 80 00 00 00 	mov    DWORD PTR [rsp+0x80],0xffffffff
  40c01e:	ff ff ff ff 
  40c022:	e9 a3 fd ff ff       	jmp    40bdca <__mingw_pformat+0x74a>
  40c027:	90                   	nop
  40c028:	90                   	nop
  40c029:	90                   	nop
  40c02a:	90                   	nop
  40c02b:	90                   	nop
  40c02c:	90                   	nop
  40c02d:	90                   	nop
  40c02e:	90                   	nop
  40c02f:	90                   	nop

000000000040c030 <__rv_alloc_D2A>:
  40c030:	53                   	push   rbx
  40c031:	48 83 ec 20          	sub    rsp,0x20
  40c035:	31 db                	xor    ebx,ebx
  40c037:	83 f9 1b             	cmp    ecx,0x1b
  40c03a:	7e 18                	jle    40c054 <__rv_alloc_D2A+0x24>
  40c03c:	b8 04 00 00 00       	mov    eax,0x4
  40c041:	0f 1f 80 00 00 00 00 	nop    DWORD PTR [rax+0x0]
  40c048:	01 c0                	add    eax,eax
  40c04a:	83 c3 01             	add    ebx,0x1
  40c04d:	8d 50 17             	lea    edx,[rax+0x17]
  40c050:	39 ca                	cmp    edx,ecx
  40c052:	7c f4                	jl     40c048 <__rv_alloc_D2A+0x18>
  40c054:	89 d9                	mov    ecx,ebx
  40c056:	e8 75 1b 00 00       	call   40dbd0 <__Balloc_D2A>
  40c05b:	89 18                	mov    DWORD PTR [rax],ebx
  40c05d:	48 83 c0 04          	add    rax,0x4
  40c061:	48 83 c4 20          	add    rsp,0x20
  40c065:	5b                   	pop    rbx
  40c066:	c3                   	ret
  40c067:	66 0f 1f 84 00 00 00 	nop    WORD PTR [rax+rax*1+0x0]
  40c06e:	00 00 

000000000040c070 <__nrv_alloc_D2A>:
  40c070:	57                   	push   rdi
  40c071:	56                   	push   rsi
  40c072:	53                   	push   rbx
  40c073:	48 83 ec 20          	sub    rsp,0x20
  40c077:	48 89 ce             	mov    rsi,rcx
  40c07a:	48 89 d7             	mov    rdi,rdx
  40c07d:	41 83 f8 1b          	cmp    r8d,0x1b
  40c081:	7e 65                	jle    40c0e8 <__nrv_alloc_D2A+0x78>
  40c083:	b8 04 00 00 00       	mov    eax,0x4
  40c088:	31 db                	xor    ebx,ebx
  40c08a:	66 0f 1f 44 00 00    	nop    WORD PTR [rax+rax*1+0x0]
  40c090:	01 c0                	add    eax,eax
  40c092:	83 c3 01             	add    ebx,0x1
  40c095:	8d 50 17             	lea    edx,[rax+0x17]
  40c098:	41 39 d0             	cmp    r8d,edx
  40c09b:	7f f3                	jg     40c090 <__nrv_alloc_D2A+0x20>
  40c09d:	89 d9                	mov    ecx,ebx
  40c09f:	e8 2c 1b 00 00       	call   40dbd0 <__Balloc_D2A>
  40c0a4:	48 8d 56 01          	lea    rdx,[rsi+0x1]
  40c0a8:	89 18                	mov    DWORD PTR [rax],ebx
  40c0aa:	0f b6 0e             	movzx  ecx,BYTE PTR [rsi]
  40c0ad:	4c 8d 40 04          	lea    r8,[rax+0x4]
  40c0b1:	88 48 04             	mov    BYTE PTR [rax+0x4],cl
  40c0b4:	4c 89 c0             	mov    rax,r8
  40c0b7:	84 c9                	test   cl,cl
  40c0b9:	74 16                	je     40c0d1 <__nrv_alloc_D2A+0x61>
  40c0bb:	0f 1f 44 00 00       	nop    DWORD PTR [rax+rax*1+0x0]
  40c0c0:	0f b6 0a             	movzx  ecx,BYTE PTR [rdx]
  40c0c3:	48 83 c0 01          	add    rax,0x1
  40c0c7:	48 83 c2 01          	add    rdx,0x1
  40c0cb:	88 08                	mov    BYTE PTR [rax],cl
  40c0cd:	84 c9                	test   cl,cl
  40c0cf:	75 ef                	jne    40c0c0 <__nrv_alloc_D2A+0x50>
  40c0d1:	48 85 ff             	test   rdi,rdi
  40c0d4:	74 03                	je     40c0d9 <__nrv_alloc_D2A+0x69>
  40c0d6:	48 89 07             	mov    QWORD PTR [rdi],rax
  40c0d9:	4c 89 c0             	mov    rax,r8
  40c0dc:	48 83 c4 20          	add    rsp,0x20
  40c0e0:	5b                   	pop    rbx
  40c0e1:	5e                   	pop    rsi
  40c0e2:	5f                   	pop    rdi
  40c0e3:	c3                   	ret
  40c0e4:	0f 1f 40 00          	nop    DWORD PTR [rax+0x0]
  40c0e8:	31 db                	xor    ebx,ebx
  40c0ea:	eb b1                	jmp    40c09d <__nrv_alloc_D2A+0x2d>
  40c0ec:	0f 1f 40 00          	nop    DWORD PTR [rax+0x0]

000000000040c0f0 <__freedtoa>:
  40c0f0:	ba 01 00 00 00       	mov    edx,0x1
  40c0f5:	48 89 c8             	mov    rax,rcx
  40c0f8:	8b 49 fc             	mov    ecx,DWORD PTR [rcx-0x4]
  40c0fb:	d3 e2                	shl    edx,cl
  40c0fd:	89 48 04             	mov    DWORD PTR [rax+0x4],ecx
  40c100:	48 8d 48 fc          	lea    rcx,[rax-0x4]
  40c104:	89 50 08             	mov    DWORD PTR [rax+0x8],edx
  40c107:	e9 c4 1b 00 00       	jmp    40dcd0 <__Bfree_D2A>
  40c10c:	0f 1f 40 00          	nop    DWORD PTR [rax+0x0]

000000000040c110 <__quorem_D2A>:
  40c110:	41 57                	push   r15
  40c112:	41 56                	push   r14
  40c114:	41 55                	push   r13
  40c116:	41 54                	push   r12
  40c118:	55                   	push   rbp
  40c119:	57                   	push   rdi
  40c11a:	56                   	push   rsi
  40c11b:	53                   	push   rbx
  40c11c:	48 83 ec 38          	sub    rsp,0x38
  40c120:	31 c0                	xor    eax,eax
  40c122:	8b 72 14             	mov    esi,DWORD PTR [rdx+0x14]
  40c125:	49 89 cc             	mov    r12,rcx
  40c128:	49 89 d3             	mov    r11,rdx
  40c12b:	39 71 14             	cmp    DWORD PTR [rcx+0x14],esi
  40c12e:	0f 8c ec 00 00 00    	jl     40c220 <__quorem_D2A+0x110>
  40c134:	83 ee 01             	sub    esi,0x1
  40c137:	48 8d 5a 18          	lea    rbx,[rdx+0x18]
  40c13b:	48 8d 69 18          	lea    rbp,[rcx+0x18]
  40c13f:	31 d2                	xor    edx,edx
  40c141:	4c 63 d6             	movsxd r10,esi
  40c144:	49 c1 e2 02          	shl    r10,0x2
  40c148:	4a 8d 3c 13          	lea    rdi,[rbx+r10*1]
  40c14c:	49 01 ea             	add    r10,rbp
  40c14f:	8b 07                	mov    eax,DWORD PTR [rdi]
  40c151:	45 8b 02             	mov    r8d,DWORD PTR [r10]
  40c154:	8d 48 01             	lea    ecx,[rax+0x1]
  40c157:	44 89 c0             	mov    eax,r8d
  40c15a:	f7 f1                	div    ecx
  40c15c:	89 44 24 2c          	mov    DWORD PTR [rsp+0x2c],eax
  40c160:	41 89 c5             	mov    r13d,eax
  40c163:	41 39 c8             	cmp    r8d,ecx
  40c166:	72 5e                	jb     40c1c6 <__quorem_D2A+0xb6>
  40c168:	41 89 c7             	mov    r15d,eax
  40c16b:	49 89 d9             	mov    r9,rbx
  40c16e:	49 89 e8             	mov    r8,rbp
  40c171:	45 31 f6             	xor    r14d,r14d
  40c174:	31 d2                	xor    edx,edx
  40c176:	66 2e 0f 1f 84 00 00 	cs nop WORD PTR [rax+rax*1+0x0]
  40c17d:	00 00 00 
  40c180:	41 8b 01             	mov    eax,DWORD PTR [r9]
  40c183:	41 8b 08             	mov    ecx,DWORD PTR [r8]
  40c186:	49 83 c1 04          	add    r9,0x4
  40c18a:	49 83 c0 04          	add    r8,0x4
  40c18e:	49 0f af c7          	imul   rax,r15
  40c192:	4c 01 f0             	add    rax,r14
  40c195:	49 89 c6             	mov    r14,rax
  40c198:	89 c0                	mov    eax,eax
  40c19a:	48 01 d0             	add    rax,rdx
  40c19d:	49 c1 ee 20          	shr    r14,0x20
  40c1a1:	48 29 c1             	sub    rcx,rax
  40c1a4:	48 89 c8             	mov    rax,rcx
  40c1a7:	41 89 48 fc          	mov    DWORD PTR [r8-0x4],ecx
  40c1ab:	48 c1 e8 20          	shr    rax,0x20
  40c1af:	83 e0 01             	and    eax,0x1
  40c1b2:	48 89 c2             	mov    rdx,rax
  40c1b5:	4c 39 cf             	cmp    rdi,r9
  40c1b8:	73 c6                	jae    40c180 <__quorem_D2A+0x70>
  40c1ba:	45 8b 0a             	mov    r9d,DWORD PTR [r10]
  40c1bd:	45 85 c9             	test   r9d,r9d
  40c1c0:	0f 84 9d 00 00 00    	je     40c263 <__quorem_D2A+0x153>
  40c1c6:	4c 89 da             	mov    rdx,r11
  40c1c9:	4c 89 e1             	mov    rcx,r12
  40c1cc:	e8 4f 21 00 00       	call   40e320 <__cmp_D2A>
  40c1d1:	85 c0                	test   eax,eax
  40c1d3:	78 47                	js     40c21c <__quorem_D2A+0x10c>
  40c1d5:	41 8d 45 01          	lea    eax,[r13+0x1]
  40c1d9:	49 89 e8             	mov    r8,rbp
  40c1dc:	89 44 24 2c          	mov    DWORD PTR [rsp+0x2c],eax
  40c1e0:	31 c0                	xor    eax,eax
  40c1e2:	66 0f 1f 44 00 00    	nop    WORD PTR [rax+rax*1+0x0]
  40c1e8:	8b 0b                	mov    ecx,DWORD PTR [rbx]
  40c1ea:	41 8b 10             	mov    edx,DWORD PTR [r8]
  40c1ed:	48 83 c3 04          	add    rbx,0x4
  40c1f1:	49 83 c0 04          	add    r8,0x4
  40c1f5:	48 01 c8             	add    rax,rcx
  40c1f8:	48 29 c2             	sub    rdx,rax
  40c1fb:	48 89 d0             	mov    rax,rdx
  40c1fe:	41 89 50 fc          	mov    DWORD PTR [r8-0x4],edx
  40c202:	48 c1 e8 20          	shr    rax,0x20
  40c206:	83 e0 01             	and    eax,0x1
  40c209:	48 39 df             	cmp    rdi,rbx
  40c20c:	73 da                	jae    40c1e8 <__quorem_D2A+0xd8>
  40c20e:	48 63 c6             	movsxd rax,esi
  40c211:	48 8d 44 85 00       	lea    rax,[rbp+rax*4+0x0]
  40c216:	8b 08                	mov    ecx,DWORD PTR [rax]
  40c218:	85 c9                	test   ecx,ecx
  40c21a:	74 25                	je     40c241 <__quorem_D2A+0x131>
  40c21c:	8b 44 24 2c          	mov    eax,DWORD PTR [rsp+0x2c]
  40c220:	48 83 c4 38          	add    rsp,0x38
  40c224:	5b                   	pop    rbx
  40c225:	5e                   	pop    rsi
  40c226:	5f                   	pop    rdi
  40c227:	5d                   	pop    rbp
  40c228:	41 5c                	pop    r12
  40c22a:	41 5d                	pop    r13
  40c22c:	41 5e                	pop    r14
  40c22e:	41 5f                	pop    r15
  40c230:	c3                   	ret
  40c231:	0f 1f 80 00 00 00 00 	nop    DWORD PTR [rax+0x0]
  40c238:	8b 10                	mov    edx,DWORD PTR [rax]
  40c23a:	85 d2                	test   edx,edx
  40c23c:	75 0c                	jne    40c24a <__quorem_D2A+0x13a>
  40c23e:	83 ee 01             	sub    esi,0x1
  40c241:	48 83 e8 04          	sub    rax,0x4
  40c245:	48 39 c5             	cmp    rbp,rax
  40c248:	72 ee                	jb     40c238 <__quorem_D2A+0x128>
  40c24a:	41 89 74 24 14       	mov    DWORD PTR [r12+0x14],esi
  40c24f:	eb cb                	jmp    40c21c <__quorem_D2A+0x10c>
  40c251:	0f 1f 80 00 00 00 00 	nop    DWORD PTR [rax+0x0]
  40c258:	45 8b 02             	mov    r8d,DWORD PTR [r10]
  40c25b:	45 85 c0             	test   r8d,r8d
  40c25e:	75 0c                	jne    40c26c <__quorem_D2A+0x15c>
  40c260:	83 ee 01             	sub    esi,0x1
  40c263:	49 83 ea 04          	sub    r10,0x4
  40c267:	4c 39 d5             	cmp    rbp,r10
  40c26a:	72 ec                	jb     40c258 <__quorem_D2A+0x148>
  40c26c:	41 89 74 24 14       	mov    DWORD PTR [r12+0x14],esi
  40c271:	4c 89 da             	mov    rdx,r11
  40c274:	4c 89 e1             	mov    rcx,r12
  40c277:	e8 a4 20 00 00       	call   40e320 <__cmp_D2A>
  40c27c:	85 c0                	test   eax,eax
  40c27e:	0f 89 51 ff ff ff    	jns    40c1d5 <__quorem_D2A+0xc5>
  40c284:	eb 96                	jmp    40c21c <__quorem_D2A+0x10c>
  40c286:	90                   	nop
  40c287:	90                   	nop
  40c288:	90                   	nop
  40c289:	90                   	nop
  40c28a:	90                   	nop
  40c28b:	90                   	nop
  40c28c:	90                   	nop
  40c28d:	90                   	nop
  40c28e:	90                   	nop
  40c28f:	90                   	nop

000000000040c290 <__gdtoa>:
  40c290:	41 57                	push   r15
  40c292:	41 56                	push   r14
  40c294:	41 55                	push   r13
  40c296:	41 54                	push   r12
  40c298:	55                   	push   rbp
  40c299:	57                   	push   rdi
  40c29a:	56                   	push   rsi
  40c29b:	53                   	push   rbx
  40c29c:	48 81 ec b8 00 00 00 	sub    rsp,0xb8
  40c2a3:	0f 11 b4 24 a0 00 00 	movups XMMWORD PTR [rsp+0xa0],xmm6
  40c2aa:	00 
  40c2ab:	8b 84 24 20 01 00 00 	mov    eax,DWORD PTR [rsp+0x120]
  40c2b2:	41 8b 29             	mov    ebp,DWORD PTR [r9]
  40c2b5:	44 8b b4 24 28 01 00 	mov    r14d,DWORD PTR [rsp+0x128]
  40c2bc:	00 
  40c2bd:	89 44 24 20          	mov    DWORD PTR [rsp+0x20],eax
  40c2c1:	48 8b 84 24 30 01 00 	mov    rax,QWORD PTR [rsp+0x130]
  40c2c8:	00 
  40c2c9:	48 89 cf             	mov    rdi,rcx
  40c2cc:	4c 89 ce             	mov    rsi,r9
  40c2cf:	89 54 24 40          	mov    DWORD PTR [rsp+0x40],edx
  40c2d3:	48 89 44 24 28       	mov    QWORD PTR [rsp+0x28],rax
  40c2d8:	48 8b 84 24 38 01 00 	mov    rax,QWORD PTR [rsp+0x138]
  40c2df:	00 
  40c2e0:	4c 89 44 24 38       	mov    QWORD PTR [rsp+0x38],r8
  40c2e5:	48 89 44 24 30       	mov    QWORD PTR [rsp+0x30],rax
  40c2ea:	89 e8                	mov    eax,ebp
  40c2ec:	83 e0 cf             	and    eax,0xffffffcf
  40c2ef:	41 89 01             	mov    DWORD PTR [r9],eax
  40c2f2:	89 e8                	mov    eax,ebp
  40c2f4:	83 e0 07             	and    eax,0x7
  40c2f7:	83 f8 03             	cmp    eax,0x3
  40c2fa:	0f 84 d0 02 00 00    	je     40c5d0 <__gdtoa+0x340>
  40c300:	89 eb                	mov    ebx,ebp
  40c302:	83 e3 04             	and    ebx,0x4
  40c305:	89 5c 24 48          	mov    DWORD PTR [rsp+0x48],ebx
  40c309:	75 35                	jne    40c340 <__gdtoa+0xb0>
  40c30b:	85 c0                	test   eax,eax
  40c30d:	0f 84 8d 02 00 00    	je     40c5a0 <__gdtoa+0x310>
  40c313:	83 e8 01             	sub    eax,0x1
  40c316:	31 db                	xor    ebx,ebx
  40c318:	83 f8 01             	cmp    eax,0x1
  40c31b:	76 6b                	jbe    40c388 <__gdtoa+0xf8>
  40c31d:	0f 10 b4 24 a0 00 00 	movups xmm6,XMMWORD PTR [rsp+0xa0]
  40c324:	00 
  40c325:	48 89 d8             	mov    rax,rbx
  40c328:	48 81 c4 b8 00 00 00 	add    rsp,0xb8
  40c32f:	5b                   	pop    rbx
  40c330:	5e                   	pop    rsi
  40c331:	5f                   	pop    rdi
  40c332:	5d                   	pop    rbp
  40c333:	41 5c                	pop    r12
  40c335:	41 5d                	pop    r13
  40c337:	41 5e                	pop    r14
  40c339:	41 5f                	pop    r15
  40c33b:	c3                   	ret
  40c33c:	0f 1f 40 00          	nop    DWORD PTR [rax+0x0]
  40c340:	31 db                	xor    ebx,ebx
  40c342:	83 f8 04             	cmp    eax,0x4
  40c345:	75 d6                	jne    40c31d <__gdtoa+0x8d>
  40c347:	48 8b 44 24 28       	mov    rax,QWORD PTR [rsp+0x28]
  40c34c:	48 8b 54 24 30       	mov    rdx,QWORD PTR [rsp+0x30]
  40c351:	41 b8 03 00 00 00    	mov    r8d,0x3
  40c357:	48 8d 0d 3b 55 00 00 	lea    rcx,[rip+0x553b]        # 411899 <.rdata+0x9>
  40c35e:	c7 00 00 80 ff ff    	mov    DWORD PTR [rax],0xffff8000
  40c364:	0f 10 b4 24 a0 00 00 	movups xmm6,XMMWORD PTR [rsp+0xa0]
  40c36b:	00 
  40c36c:	48 81 c4 b8 00 00 00 	add    rsp,0xb8
  40c373:	5b                   	pop    rbx
  40c374:	5e                   	pop    rsi
  40c375:	5f                   	pop    rdi
  40c376:	5d                   	pop    rbp
  40c377:	41 5c                	pop    r12
  40c379:	41 5d                	pop    r13
  40c37b:	41 5e                	pop    r14
  40c37d:	41 5f                	pop    r15
  40c37f:	e9 ec fc ff ff       	jmp    40c070 <__nrv_alloc_D2A>
  40c384:	0f 1f 40 00          	nop    DWORD PTR [rax+0x0]
  40c388:	44 8b 21             	mov    r12d,DWORD PTR [rcx]
  40c38b:	b8 20 00 00 00       	mov    eax,0x20
  40c390:	31 c9                	xor    ecx,ecx
  40c392:	41 83 fc 20          	cmp    r12d,0x20
  40c396:	7e 0a                	jle    40c3a2 <__gdtoa+0x112>
  40c398:	01 c0                	add    eax,eax
  40c39a:	83 c1 01             	add    ecx,0x1
  40c39d:	41 39 c4             	cmp    r12d,eax
  40c3a0:	7f f6                	jg     40c398 <__gdtoa+0x108>
  40c3a2:	e8 29 18 00 00       	call   40dbd0 <__Balloc_D2A>
  40c3a7:	45 8d 44 24 ff       	lea    r8d,[r12-0x1]
  40c3ac:	41 c1 f8 05          	sar    r8d,0x5
  40c3b0:	49 89 c7             	mov    r15,rax
  40c3b3:	48 8b 44 24 38       	mov    rax,QWORD PTR [rsp+0x38]
  40c3b8:	4d 63 c0             	movsxd r8,r8d
  40c3bb:	49 8d 57 18          	lea    rdx,[r15+0x18]
  40c3bf:	49 c1 e0 02          	shl    r8,0x2
  40c3c3:	4a 8d 0c 00          	lea    rcx,[rax+r8*1]
  40c3c7:	66 0f 1f 84 00 00 00 	nop    WORD PTR [rax+rax*1+0x0]
  40c3ce:	00 00 
  40c3d0:	44 8b 08             	mov    r9d,DWORD PTR [rax]
  40c3d3:	48 83 c0 04          	add    rax,0x4
  40c3d7:	48 83 c2 04          	add    rdx,0x4
  40c3db:	44 89 4a fc          	mov    DWORD PTR [rdx-0x4],r9d
  40c3df:	48 39 c1             	cmp    rcx,rax
  40c3e2:	73 ec                	jae    40c3d0 <__gdtoa+0x140>
  40c3e4:	48 8b 5c 24 38       	mov    rbx,QWORD PTR [rsp+0x38]
  40c3e9:	48 83 c1 01          	add    rcx,0x1
  40c3ed:	49 8d 40 04          	lea    rax,[r8+0x4]
  40c3f1:	48 8d 53 01          	lea    rdx,[rbx+0x1]
  40c3f5:	48 39 d1             	cmp    rcx,rdx
  40c3f8:	ba 04 00 00 00       	mov    edx,0x4
  40c3fd:	48 0f 42 c2          	cmovb  rax,rdx
  40c401:	48 c1 f8 02          	sar    rax,0x2
  40c405:	89 c3                	mov    ebx,eax
  40c407:	49 8d 04 87          	lea    rax,[r15+rax*4]
  40c40b:	eb 0f                	jmp    40c41c <__gdtoa+0x18c>
  40c40d:	0f 1f 00             	nop    DWORD PTR [rax]
  40c410:	48 83 e8 04          	sub    rax,0x4
  40c414:	85 db                	test   ebx,ebx
  40c416:	0f 84 dc 01 00 00    	je     40c5f8 <__gdtoa+0x368>
  40c41c:	44 8b 58 14          	mov    r11d,DWORD PTR [rax+0x14]
  40c420:	89 da                	mov    edx,ebx
  40c422:	83 eb 01             	sub    ebx,0x1
  40c425:	45 85 db             	test   r11d,r11d
  40c428:	74 e6                	je     40c410 <__gdtoa+0x180>
  40c42a:	48 63 db             	movsxd rbx,ebx
  40c42d:	41 89 57 14          	mov    DWORD PTR [r15+0x14],edx
  40c431:	c1 e2 05             	shl    edx,0x5
  40c434:	41 0f bd 44 9f 18    	bsr    eax,DWORD PTR [r15+rbx*4+0x18]
  40c43a:	89 d3                	mov    ebx,edx
  40c43c:	83 f0 1f             	xor    eax,0x1f
  40c43f:	29 c3                	sub    ebx,eax
  40c441:	4c 89 f9             	mov    rcx,r15
  40c444:	e8 07 16 00 00       	call   40da50 <__trailz_D2A>
  40c449:	44 8b 6c 24 40       	mov    r13d,DWORD PTR [rsp+0x40]
  40c44e:	89 84 24 9c 00 00 00 	mov    DWORD PTR [rsp+0x9c],eax
  40c455:	85 c0                	test   eax,eax
  40c457:	0f 85 ab 01 00 00    	jne    40c608 <__gdtoa+0x378>
  40c45d:	45 8b 57 14          	mov    r10d,DWORD PTR [r15+0x14]
  40c461:	45 85 d2             	test   r10d,r10d
  40c464:	0f 84 26 01 00 00    	je     40c590 <__gdtoa+0x300>
  40c46a:	48 8d 94 24 9c 00 00 	lea    rdx,[rsp+0x9c]
  40c471:	00 
  40c472:	4c 89 f9             	mov    rcx,r15
  40c475:	e8 c6 20 00 00       	call   40e540 <__b2d_D2A>
  40c47a:	f2 0f 10 0d 2e 54 00 	movsd  xmm1,QWORD PTR [rip+0x542e]        # 4118b0 <.rdata+0x20>
  40c481:	00 
  40c482:	45 8d 44 1d 00       	lea    r8d,[r13+rbx*1+0x0]
  40c487:	66 48 0f 7e c2       	movq   rdx,xmm0
  40c48c:	66 48 0f 7e c0       	movq   rax,xmm0
  40c491:	41 8d 48 ff          	lea    ecx,[r8-0x1]
  40c495:	48 c1 ea 20          	shr    rdx,0x20
  40c499:	89 c0                	mov    eax,eax
  40c49b:	41 89 c9             	mov    r9d,ecx
  40c49e:	81 e2 ff ff 0f 00    	and    edx,0xfffff
  40c4a4:	41 c1 f9 1f          	sar    r9d,0x1f
  40c4a8:	81 ca 00 00 f0 3f    	or     edx,0x3ff00000
  40c4ae:	45 89 cb             	mov    r11d,r9d
  40c4b1:	49 89 d2             	mov    r10,rdx
  40c4b4:	41 31 cb             	xor    r11d,ecx
  40c4b7:	49 c1 e2 20          	shl    r10,0x20
  40c4bb:	45 29 cb             	sub    r11d,r9d
  40c4be:	4c 09 d0             	or     rax,r10
  40c4c1:	41 81 eb 35 04 00 00 	sub    r11d,0x435
  40c4c8:	66 48 0f 6e c0       	movq   xmm0,rax
  40c4cd:	f2 0f 5c 05 cb 53 00 	subsd  xmm0,QWORD PTR [rip+0x53cb]        # 4118a0 <.rdata+0x10>
  40c4d4:	00 
  40c4d5:	f2 0f 59 05 cb 53 00 	mulsd  xmm0,QWORD PTR [rip+0x53cb]        # 4118a8 <.rdata+0x18>
  40c4dc:	00 
  40c4dd:	f2 0f 58 c8          	addsd  xmm1,xmm0
  40c4e1:	66 0f ef c0          	pxor   xmm0,xmm0
  40c4e5:	f2 0f 2a c1          	cvtsi2sd xmm0,ecx
  40c4e9:	f2 0f 59 05 c7 53 00 	mulsd  xmm0,QWORD PTR [rip+0x53c7]        # 4118b8 <.rdata+0x28>
  40c4f0:	00 
  40c4f1:	f2 0f 58 c1          	addsd  xmm0,xmm1
  40c4f5:	45 85 db             	test   r11d,r11d
  40c4f8:	7e 15                	jle    40c50f <__gdtoa+0x27f>
  40c4fa:	66 0f ef c9          	pxor   xmm1,xmm1
  40c4fe:	f2 41 0f 2a cb       	cvtsi2sd xmm1,r11d
  40c503:	f2 0f 59 0d b5 53 00 	mulsd  xmm1,QWORD PTR [rip+0x53b5]        # 4118c0 <.rdata+0x30>
  40c50a:	00 
  40c50b:	f2 0f 58 c1          	addsd  xmm0,xmm1
  40c50f:	66 0f ef f6          	pxor   xmm6,xmm6
  40c513:	f2 44 0f 2c d0       	cvttsd2si r10d,xmm0
  40c518:	66 0f 2f f0          	comisd xmm6,xmm0
  40c51c:	0f 87 1e 07 00 00    	ja     40cc40 <__gdtoa+0x9b0>
  40c522:	41 89 cb             	mov    r11d,ecx
  40c525:	89 c0                	mov    eax,eax
  40c527:	41 c1 e3 14          	shl    r11d,0x14
  40c52b:	44 01 da             	add    edx,r11d
  40c52e:	48 c1 e2 20          	shl    rdx,0x20
  40c532:	48 09 d0             	or     rax,rdx
  40c535:	48 89 84 24 80 00 00 	mov    QWORD PTR [rsp+0x80],rax
  40c53c:	00 
  40c53d:	49 89 c3             	mov    r11,rax
  40c540:	89 d8                	mov    eax,ebx
  40c542:	29 c8                	sub    eax,ecx
  40c544:	8d 48 ff             	lea    ecx,[rax-0x1]
  40c547:	89 4c 24 50          	mov    DWORD PTR [rsp+0x50],ecx
  40c54b:	41 83 fa 16          	cmp    r10d,0x16
  40c54f:	0f 87 db 00 00 00    	ja     40c630 <__gdtoa+0x3a0>
  40c555:	48 8b 0d 04 56 00 00 	mov    rcx,QWORD PTR [rip+0x5604]        # 411b60 <.refptr.__tens_D2A>
  40c55c:	49 63 d2             	movsxd rdx,r10d
  40c55f:	66 49 0f 6e eb       	movq   xmm5,r11
  40c564:	f2 0f 10 04 d1       	movsd  xmm0,QWORD PTR [rcx+rdx*8]
  40c569:	66 0f 2f c5          	comisd xmm0,xmm5
  40c56d:	0f 86 6d 03 00 00    	jbe    40c8e0 <__gdtoa+0x650>
  40c573:	c7 84 24 88 00 00 00 	mov    DWORD PTR [rsp+0x88],0x0
  40c57a:	00 00 00 00 
  40c57e:	41 83 ea 01          	sub    r10d,0x1
  40c582:	e9 b4 00 00 00       	jmp    40c63b <__gdtoa+0x3ab>
  40c587:	66 0f 1f 84 00 00 00 	nop    WORD PTR [rax+rax*1+0x0]
  40c58e:	00 00 
  40c590:	4c 89 f9             	mov    rcx,r15
  40c593:	e8 38 17 00 00       	call   40dcd0 <__Bfree_D2A>
  40c598:	0f 1f 84 00 00 00 00 	nop    DWORD PTR [rax+rax*1+0x0]
  40c59f:	00 
  40c5a0:	48 8b 44 24 28       	mov    rax,QWORD PTR [rsp+0x28]
  40c5a5:	48 8b 54 24 30       	mov    rdx,QWORD PTR [rsp+0x30]
  40c5aa:	41 b8 01 00 00 00    	mov    r8d,0x1
  40c5b0:	48 8d 0d e6 52 00 00 	lea    rcx,[rip+0x52e6]        # 41189d <.rdata+0xd>
  40c5b7:	c7 00 01 00 00 00    	mov    DWORD PTR [rax],0x1
  40c5bd:	e8 ae fa ff ff       	call   40c070 <__nrv_alloc_D2A>
  40c5c2:	48 89 c3             	mov    rbx,rax
  40c5c5:	e9 53 fd ff ff       	jmp    40c31d <__gdtoa+0x8d>
  40c5ca:	66 0f 1f 44 00 00    	nop    WORD PTR [rax+rax*1+0x0]
  40c5d0:	48 8b 44 24 28       	mov    rax,QWORD PTR [rsp+0x28]
  40c5d5:	48 8b 54 24 30       	mov    rdx,QWORD PTR [rsp+0x30]
  40c5da:	41 b8 08 00 00 00    	mov    r8d,0x8
  40c5e0:	48 8d 0d a9 52 00 00 	lea    rcx,[rip+0x52a9]        # 411890 <.rdata>
  40c5e7:	c7 00 00 80 ff ff    	mov    DWORD PTR [rax],0xffff8000
  40c5ed:	e9 72 fd ff ff       	jmp    40c364 <__gdtoa+0xd4>
  40c5f2:	66 0f 1f 44 00 00    	nop    WORD PTR [rax+rax*1+0x0]
  40c5f8:	41 c7 47 14 00 00 00 	mov    DWORD PTR [r15+0x14],0x0
  40c5ff:	00 
  40c600:	e9 3c fe ff ff       	jmp    40c441 <__gdtoa+0x1b1>
  40c605:	0f 1f 00             	nop    DWORD PTR [rax]
  40c608:	89 c2                	mov    edx,eax
  40c60a:	4c 89 f9             	mov    rcx,r15
  40c60d:	e8 3e 13 00 00       	call   40d950 <__rshift_D2A>
  40c612:	44 8b 6c 24 40       	mov    r13d,DWORD PTR [rsp+0x40]
  40c617:	2b 9c 24 9c 00 00 00 	sub    ebx,DWORD PTR [rsp+0x9c]
  40c61e:	44 03 ac 24 9c 00 00 	add    r13d,DWORD PTR [rsp+0x9c]
  40c625:	00 
  40c626:	e9 32 fe ff ff       	jmp    40c45d <__gdtoa+0x1cd>
  40c62b:	0f 1f 44 00 00       	nop    DWORD PTR [rax+rax*1+0x0]
  40c630:	c7 84 24 88 00 00 00 	mov    DWORD PTR [rsp+0x88],0x1
  40c637:	01 00 00 00 
  40c63b:	44 8b 4c 24 50       	mov    r9d,DWORD PTR [rsp+0x50]
  40c640:	c7 44 24 60 00 00 00 	mov    DWORD PTR [rsp+0x60],0x0
  40c647:	00 
  40c648:	45 85 c9             	test   r9d,r9d
  40c64b:	0f 88 cf 05 00 00    	js     40cc20 <__gdtoa+0x990>
  40c651:	45 85 d2             	test   r10d,r10d
  40c654:	0f 89 a5 02 00 00    	jns    40c8ff <__gdtoa+0x66f>
  40c65a:	44 89 d0             	mov    eax,r10d
  40c65d:	44 29 54 24 60       	sub    DWORD PTR [rsp+0x60],r10d
  40c662:	f7 d8                	neg    eax
  40c664:	44 89 54 24 70       	mov    DWORD PTR [rsp+0x70],r10d
  40c669:	45 31 d2             	xor    r10d,r10d
  40c66c:	89 44 24 74          	mov    DWORD PTR [rsp+0x74],eax
  40c670:	8b 44 24 20          	mov    eax,DWORD PTR [rsp+0x20]
  40c674:	83 f8 09             	cmp    eax,0x9
  40c677:	0f 87 a3 02 00 00    	ja     40c920 <__gdtoa+0x690>
  40c67d:	83 f8 05             	cmp    eax,0x5
  40c680:	0f 8f e2 05 00 00    	jg     40cc68 <__gdtoa+0x9d8>
  40c686:	41 81 c0 fd 03 00 00 	add    r8d,0x3fd
  40c68d:	31 c0                	xor    eax,eax
  40c68f:	41 81 f8 f7 07 00 00 	cmp    r8d,0x7f7
  40c696:	0f 96 c0             	setbe  al
  40c699:	89 44 24 54          	mov    DWORD PTR [rsp+0x54],eax
  40c69d:	8b 44 24 20          	mov    eax,DWORD PTR [rsp+0x20]
  40c6a1:	83 f8 04             	cmp    eax,0x4
  40c6a4:	0f 84 3e 0b 00 00    	je     40d1e8 <__gdtoa+0xf58>
  40c6aa:	83 f8 05             	cmp    eax,0x5
  40c6ad:	0f 84 8d 09 00 00    	je     40d040 <__gdtoa+0xdb0>
  40c6b3:	83 f8 02             	cmp    eax,0x2
  40c6b6:	0f 85 b4 06 00 00    	jne    40cd70 <__gdtoa+0xae0>
  40c6bc:	c7 44 24 68 00 00 00 	mov    DWORD PTR [rsp+0x68],0x0
  40c6c3:	00 
  40c6c4:	45 85 f6             	test   r14d,r14d
  40c6c7:	b9 01 00 00 00       	mov    ecx,0x1
  40c6cc:	41 0f 4f ce          	cmovg  ecx,r14d
  40c6d0:	89 8c 24 9c 00 00 00 	mov    DWORD PTR [rsp+0x9c],ecx
  40c6d7:	41 89 ce             	mov    r14d,ecx
  40c6da:	89 8c 24 8c 00 00 00 	mov    DWORD PTR [rsp+0x8c],ecx
  40c6e1:	89 4c 24 4c          	mov    DWORD PTR [rsp+0x4c],ecx
  40c6e5:	44 89 54 24 78       	mov    DWORD PTR [rsp+0x78],r10d
  40c6ea:	e8 41 f9 ff ff       	call   40c030 <__rv_alloc_D2A>
  40c6ef:	83 7c 24 4c 0e       	cmp    DWORD PTR [rsp+0x4c],0xe
  40c6f4:	44 0f b6 4c 24 54    	movzx  r9d,BYTE PTR [rsp+0x54]
  40c6fa:	48 89 44 24 58       	mov    QWORD PTR [rsp+0x58],rax
  40c6ff:	0f 96 c0             	setbe  al
  40c702:	44 8b 54 24 78       	mov    r10d,DWORD PTR [rsp+0x78]
  40c707:	41 21 c1             	and    r9d,eax
  40c70a:	8b 47 0c             	mov    eax,DWORD PTR [rdi+0xc]
  40c70d:	83 e8 01             	sub    eax,0x1
  40c710:	89 44 24 54          	mov    DWORD PTR [rsp+0x54],eax
  40c714:	74 28                	je     40c73e <__gdtoa+0x4ae>
  40c716:	8b 54 24 54          	mov    edx,DWORD PTR [rsp+0x54]
  40c71a:	b8 02 00 00 00       	mov    eax,0x2
  40c71f:	85 d2                	test   edx,edx
  40c721:	0f 49 c2             	cmovns eax,edx
  40c724:	83 e5 08             	and    ebp,0x8
  40c727:	89 44 24 54          	mov    DWORD PTR [rsp+0x54],eax
  40c72b:	89 c1                	mov    ecx,eax
  40c72d:	0f 84 cd 05 00 00    	je     40cd00 <__gdtoa+0xa70>
  40c733:	b8 03 00 00 00       	mov    eax,0x3
  40c738:	29 c8                	sub    eax,ecx
  40c73a:	89 44 24 54          	mov    DWORD PTR [rsp+0x54],eax
  40c73e:	45 84 c9             	test   r9b,r9b
  40c741:	0f 84 b9 05 00 00    	je     40cd00 <__gdtoa+0xa70>
  40c747:	8b 44 24 54          	mov    eax,DWORD PTR [rsp+0x54]
  40c74b:	0b 44 24 70          	or     eax,DWORD PTR [rsp+0x70]
  40c74f:	0f 85 ab 05 00 00    	jne    40cd00 <__gdtoa+0xa70>
  40c755:	44 8b 84 24 88 00 00 	mov    r8d,DWORD PTR [rsp+0x88]
  40c75c:	00 
  40c75d:	c7 84 24 9c 00 00 00 	mov    DWORD PTR [rsp+0x9c],0x0
  40c764:	00 00 00 00 
  40c768:	f2 0f 10 84 24 80 00 	movsd  xmm0,QWORD PTR [rsp+0x80]
  40c76f:	00 00 
  40c771:	45 85 c0             	test   r8d,r8d
  40c774:	74 12                	je     40c788 <__gdtoa+0x4f8>
  40c776:	f2 0f 10 25 52 51 00 	movsd  xmm4,QWORD PTR [rip+0x5152]        # 4118d0 <.rdata+0x40>
  40c77d:	00 
  40c77e:	66 0f 2f e0          	comisd xmm4,xmm0
  40c782:	0f 87 1c 0e 00 00    	ja     40d5a4 <__gdtoa+0x1314>
  40c788:	66 0f 10 c8          	movupd xmm1,xmm0
  40c78c:	f2 0f 58 c8          	addsd  xmm1,xmm0
  40c790:	f2 0f 58 0d 50 51 00 	addsd  xmm1,QWORD PTR [rip+0x5150]        # 4118e8 <.rdata+0x58>
  40c797:	00 
  40c798:	66 48 0f 7e ca       	movq   rdx,xmm1
  40c79d:	66 48 0f 7e c8       	movq   rax,xmm1
  40c7a2:	48 c1 ea 20          	shr    rdx,0x20
  40c7a6:	89 c0                	mov    eax,eax
  40c7a8:	81 ea 00 00 40 03    	sub    edx,0x3400000
  40c7ae:	48 c1 e2 20          	shl    rdx,0x20
  40c7b2:	48 09 d0             	or     rax,rdx
  40c7b5:	8b 54 24 4c          	mov    edx,DWORD PTR [rsp+0x4c]
  40c7b9:	85 d2                	test   edx,edx
  40c7bb:	0f 84 0e 05 00 00    	je     40cccf <__gdtoa+0xa3f>
  40c7c1:	44 8b 5c 24 4c       	mov    r11d,DWORD PTR [rsp+0x4c]
  40c7c6:	31 ed                	xor    ebp,ebp
  40c7c8:	48 8b 15 91 53 00 00 	mov    rdx,QWORD PTR [rip+0x5391]        # 411b60 <.refptr.__tens_D2A>
  40c7cf:	66 48 0f 6e d0       	movq   xmm2,rax
  40c7d4:	41 8d 43 ff          	lea    eax,[r11-0x1]
  40c7d8:	48 98                	cdqe
  40c7da:	f2 0f 10 24 c2       	movsd  xmm4,QWORD PTR [rdx+rax*8]
  40c7df:	8b 44 24 68          	mov    eax,DWORD PTR [rsp+0x68]
  40c7e3:	85 c0                	test   eax,eax
  40c7e5:	0f 84 c6 0c 00 00    	je     40d4b1 <__gdtoa+0x1221>
  40c7eb:	f2 0f 10 0d 1d 51 00 	movsd  xmm1,QWORD PTR [rip+0x511d]        # 411910 <.rdata+0x80>
  40c7f2:	00 
  40c7f3:	f2 0f 2c d0          	cvttsd2si edx,xmm0
  40c7f7:	48 8b 4c 24 58       	mov    rcx,QWORD PTR [rsp+0x58]
  40c7fc:	f2 0f 5e cc          	divsd  xmm1,xmm4
  40c800:	48 8d 41 01          	lea    rax,[rcx+0x1]
  40c804:	f2 0f 5c ca          	subsd  xmm1,xmm2
  40c808:	66 0f ef d2          	pxor   xmm2,xmm2
  40c80c:	f2 0f 2a d2          	cvtsi2sd xmm2,edx
  40c810:	83 c2 30             	add    edx,0x30
  40c813:	88 11                	mov    BYTE PTR [rcx],dl
  40c815:	f2 0f 5c c2          	subsd  xmm0,xmm2
  40c819:	66 0f 2f c8          	comisd xmm1,xmm0
  40c81d:	0f 87 cd 0f 00 00    	ja     40d7f0 <__gdtoa+0x1560>
  40c823:	f2 0f 10 25 a5 50 00 	movsd  xmm4,QWORD PTR [rip+0x50a5]        # 4118d0 <.rdata+0x40>
  40c82a:	00 
  40c82b:	f2 0f 10 1d a5 50 00 	movsd  xmm3,QWORD PTR [rip+0x50a5]        # 4118d8 <.rdata+0x48>
  40c832:	00 
  40c833:	eb 49                	jmp    40c87e <__gdtoa+0x5ee>
  40c835:	0f 1f 00             	nop    DWORD PTR [rax]
  40c838:	8b 8c 24 9c 00 00 00 	mov    ecx,DWORD PTR [rsp+0x9c]
  40c83f:	8d 51 01             	lea    edx,[rcx+0x1]
  40c842:	89 94 24 9c 00 00 00 	mov    DWORD PTR [rsp+0x9c],edx
  40c849:	44 39 da             	cmp    edx,r11d
  40c84c:	0f 8d a6 04 00 00    	jge    40ccf8 <__gdtoa+0xa68>
  40c852:	f2 0f 59 c3          	mulsd  xmm0,xmm3
  40c856:	66 0f ef d2          	pxor   xmm2,xmm2
  40c85a:	48 83 c0 01          	add    rax,0x1
  40c85e:	f2 0f 59 cb          	mulsd  xmm1,xmm3
  40c862:	f2 0f 2c d0          	cvttsd2si edx,xmm0
  40c866:	f2 0f 2a d2          	cvtsi2sd xmm2,edx
  40c86a:	83 c2 30             	add    edx,0x30
  40c86d:	88 50 ff             	mov    BYTE PTR [rax-0x1],dl
  40c870:	f2 0f 5c c2          	subsd  xmm0,xmm2
  40c874:	66 0f 2f c8          	comisd xmm1,xmm0
  40c878:	0f 87 72 0f 00 00    	ja     40d7f0 <__gdtoa+0x1560>
  40c87e:	66 0f 10 d4          	movupd xmm2,xmm4
  40c882:	f2 0f 5c d0          	subsd  xmm2,xmm0
  40c886:	66 0f 2f ca          	comisd xmm1,xmm2
  40c88a:	76 ac                	jbe    40c838 <__gdtoa+0x5a8>
  40c88c:	8d 7d 01             	lea    edi,[rbp+0x1]
  40c88f:	0f b6 50 ff          	movzx  edx,BYTE PTR [rax-0x1]
  40c893:	48 8b 5c 24 58       	mov    rbx,QWORD PTR [rsp+0x58]
  40c898:	48 89 c1             	mov    rcx,rax
  40c89b:	89 7c 24 50          	mov    DWORD PTR [rsp+0x50],edi
  40c89f:	eb 17                	jmp    40c8b8 <__gdtoa+0x628>
  40c8a1:	0f 1f 80 00 00 00 00 	nop    DWORD PTR [rax+0x0]
  40c8a8:	48 39 d8             	cmp    rax,rbx
  40c8ab:	0f 84 56 0e 00 00    	je     40d707 <__gdtoa+0x1477>
  40c8b1:	0f b6 50 ff          	movzx  edx,BYTE PTR [rax-0x1]
  40c8b5:	48 89 c1             	mov    rcx,rax
  40c8b8:	48 8d 41 ff          	lea    rax,[rcx-0x1]
  40c8bc:	80 fa 39             	cmp    dl,0x39
  40c8bf:	74 e7                	je     40c8a8 <__gdtoa+0x618>
  40c8c1:	48 89 4c 24 58       	mov    QWORD PTR [rsp+0x58],rcx
  40c8c6:	83 c2 01             	add    edx,0x1
  40c8c9:	88 10                	mov    BYTE PTR [rax],dl
  40c8cb:	c7 44 24 48 20 00 00 	mov    DWORD PTR [rsp+0x48],0x20
  40c8d2:	00 
  40c8d3:	e9 0f 03 00 00       	jmp    40cbe7 <__gdtoa+0x957>
  40c8d8:	0f 1f 84 00 00 00 00 	nop    DWORD PTR [rax+rax*1+0x0]
  40c8df:	00 
  40c8e0:	8b 54 24 50          	mov    edx,DWORD PTR [rsp+0x50]
  40c8e4:	c7 44 24 60 00 00 00 	mov    DWORD PTR [rsp+0x60],0x0
  40c8eb:	00 
  40c8ec:	c7 84 24 88 00 00 00 	mov    DWORD PTR [rsp+0x88],0x0
  40c8f3:	00 00 00 00 
  40c8f7:	85 d2                	test   edx,edx
  40c8f9:	0f 88 21 03 00 00    	js     40cc20 <__gdtoa+0x990>
  40c8ff:	44 01 54 24 50       	add    DWORD PTR [rsp+0x50],r10d
  40c904:	44 89 54 24 70       	mov    DWORD PTR [rsp+0x70],r10d
  40c909:	c7 44 24 74 00 00 00 	mov    DWORD PTR [rsp+0x74],0x0
  40c910:	00 
  40c911:	e9 5a fd ff ff       	jmp    40c670 <__gdtoa+0x3e0>
  40c916:	66 2e 0f 1f 84 00 00 	cs nop WORD PTR [rax+rax*1+0x0]
  40c91d:	00 00 00 
  40c920:	c7 44 24 20 00 00 00 	mov    DWORD PTR [rsp+0x20],0x0
  40c927:	00 
  40c928:	66 0f ef c0          	pxor   xmm0,xmm0
  40c92c:	44 89 54 24 4c       	mov    DWORD PTR [rsp+0x4c],r10d
  40c931:	f2 41 0f 2a c4       	cvtsi2sd xmm0,r12d
  40c936:	f2 0f 59 05 8a 4f 00 	mulsd  xmm0,QWORD PTR [rip+0x4f8a]        # 4118c8 <.rdata+0x38>
  40c93d:	00 
  40c93e:	f2 0f 2c c8          	cvttsd2si ecx,xmm0
  40c942:	83 c1 03             	add    ecx,0x3
  40c945:	89 8c 24 9c 00 00 00 	mov    DWORD PTR [rsp+0x9c],ecx
  40c94c:	e8 df f6 ff ff       	call   40c030 <__rv_alloc_D2A>
  40c951:	44 8b 54 24 4c       	mov    r10d,DWORD PTR [rsp+0x4c]
  40c956:	48 89 44 24 58       	mov    QWORD PTR [rsp+0x58],rax
  40c95b:	8b 47 0c             	mov    eax,DWORD PTR [rdi+0xc]
  40c95e:	83 e8 01             	sub    eax,0x1
  40c961:	89 44 24 54          	mov    DWORD PTR [rsp+0x54],eax
  40c965:	0f 85 11 03 00 00    	jne    40cc7c <__gdtoa+0x9ec>
  40c96b:	45 85 ed             	test   r13d,r13d
  40c96e:	0f 88 58 0d 00 00    	js     40d6cc <__gdtoa+0x143c>
  40c974:	8b 44 24 70          	mov    eax,DWORD PTR [rsp+0x70]
  40c978:	39 47 14             	cmp    DWORD PTR [rdi+0x14],eax
  40c97b:	0f 8d 89 08 00 00    	jge    40d20a <__gdtoa+0xf7a>
  40c981:	c7 44 24 4c ff ff ff 	mov    DWORD PTR [rsp+0x4c],0xffffffff
  40c988:	ff 
  40c989:	45 31 f6             	xor    r14d,r14d
  40c98c:	c7 84 24 8c 00 00 00 	mov    DWORD PTR [rsp+0x8c],0xffffffff
  40c993:	ff ff ff ff 
  40c997:	66 0f 1f 84 00 00 00 	nop    WORD PTR [rax+rax*1+0x0]
  40c99e:	00 00 
  40c9a0:	41 29 dc             	sub    r12d,ebx
  40c9a3:	44 89 e9             	mov    ecx,r13d
  40c9a6:	8b 57 04             	mov    edx,DWORD PTR [rdi+0x4]
  40c9a9:	41 8d 44 24 01       	lea    eax,[r12+0x1]
  40c9ae:	44 29 e1             	sub    ecx,r12d
  40c9b1:	89 84 24 9c 00 00 00 	mov    DWORD PTR [rsp+0x9c],eax
  40c9b8:	39 d1                	cmp    ecx,edx
  40c9ba:	0f 8d 90 06 00 00    	jge    40d050 <__gdtoa+0xdc0>
  40c9c0:	44 8b 5c 24 20       	mov    r11d,DWORD PTR [rsp+0x20]
  40c9c5:	41 8d 4b fd          	lea    ecx,[r11-0x3]
  40c9c9:	83 e1 fd             	and    ecx,0xfffffffd
  40c9cc:	0f 84 7e 06 00 00    	je     40d050 <__gdtoa+0xdc0>
  40c9d2:	41 29 d5             	sub    r13d,edx
  40c9d5:	41 83 fb 01          	cmp    r11d,0x1
  40c9d9:	44 8b 5c 24 4c       	mov    r11d,DWORD PTR [rsp+0x4c]
  40c9de:	0f 9f c1             	setg   cl
  40c9e1:	41 8d 45 01          	lea    eax,[r13+0x1]
  40c9e5:	45 85 db             	test   r11d,r11d
  40c9e8:	89 84 24 9c 00 00 00 	mov    DWORD PTR [rsp+0x9c],eax
  40c9ef:	0f 9f c2             	setg   dl
  40c9f2:	84 d1                	test   cl,dl
  40c9f4:	74 09                	je     40c9ff <__gdtoa+0x76f>
  40c9f6:	44 39 d8             	cmp    eax,r11d
  40c9f9:	0f 8f 5c 06 00 00    	jg     40d05b <__gdtoa+0xdcb>
  40c9ff:	8b 54 24 60          	mov    edx,DWORD PTR [rsp+0x60]
  40ca03:	01 44 24 50          	add    DWORD PTR [rsp+0x50],eax
  40ca07:	44 8b 6c 24 74       	mov    r13d,DWORD PTR [rsp+0x74]
  40ca0c:	01 d0                	add    eax,edx
  40ca0e:	89 d5                	mov    ebp,edx
  40ca10:	89 44 24 60          	mov    DWORD PTR [rsp+0x60],eax
  40ca14:	b9 01 00 00 00       	mov    ecx,0x1
  40ca19:	44 89 54 24 78       	mov    DWORD PTR [rsp+0x78],r10d
  40ca1e:	e8 cd 13 00 00       	call   40ddf0 <__i2b_D2A>
  40ca23:	c7 44 24 68 01 00 00 	mov    DWORD PTR [rsp+0x68],0x1
  40ca2a:	00 
  40ca2b:	44 8b 54 24 78       	mov    r10d,DWORD PTR [rsp+0x78]
  40ca30:	49 89 c4             	mov    r12,rax
  40ca33:	85 ed                	test   ebp,ebp
  40ca35:	7e 22                	jle    40ca59 <__gdtoa+0x7c9>
  40ca37:	8b 4c 24 50          	mov    ecx,DWORD PTR [rsp+0x50]
  40ca3b:	85 c9                	test   ecx,ecx
  40ca3d:	7e 1a                	jle    40ca59 <__gdtoa+0x7c9>
  40ca3f:	39 cd                	cmp    ebp,ecx
  40ca41:	89 c8                	mov    eax,ecx
  40ca43:	0f 4e c5             	cmovle eax,ebp
  40ca46:	29 44 24 60          	sub    DWORD PTR [rsp+0x60],eax
  40ca4a:	29 c1                	sub    ecx,eax
  40ca4c:	89 84 24 9c 00 00 00 	mov    DWORD PTR [rsp+0x9c],eax
  40ca53:	29 c5                	sub    ebp,eax
  40ca55:	89 4c 24 50          	mov    DWORD PTR [rsp+0x50],ecx
  40ca59:	44 8b 4c 24 74       	mov    r9d,DWORD PTR [rsp+0x74]
  40ca5e:	45 85 c9             	test   r9d,r9d
  40ca61:	74 5b                	je     40cabe <__gdtoa+0x82e>
  40ca63:	44 8b 44 24 68       	mov    r8d,DWORD PTR [rsp+0x68]
  40ca68:	45 85 c0             	test   r8d,r8d
  40ca6b:	0f 84 73 08 00 00    	je     40d2e4 <__gdtoa+0x1054>
  40ca71:	45 85 ed             	test   r13d,r13d
  40ca74:	7e 3b                	jle    40cab1 <__gdtoa+0x821>
  40ca76:	4c 89 e1             	mov    rcx,r12
  40ca79:	44 89 ea             	mov    edx,r13d
  40ca7c:	44 89 94 24 80 00 00 	mov    DWORD PTR [rsp+0x80],r10d
  40ca83:	00 
  40ca84:	e8 87 15 00 00       	call   40e010 <__pow5mult_D2A>
  40ca89:	4c 89 fa             	mov    rdx,r15
  40ca8c:	48 89 c1             	mov    rcx,rax
  40ca8f:	49 89 c4             	mov    r12,rax
  40ca92:	e8 19 14 00 00       	call   40deb0 <__mult_D2A>
  40ca97:	4c 89 f9             	mov    rcx,r15
  40ca9a:	48 89 44 24 78       	mov    QWORD PTR [rsp+0x78],rax
  40ca9f:	e8 2c 12 00 00       	call   40dcd0 <__Bfree_D2A>
  40caa4:	4c 8b 7c 24 78       	mov    r15,QWORD PTR [rsp+0x78]
  40caa9:	44 8b 94 24 80 00 00 	mov    r10d,DWORD PTR [rsp+0x80]
  40cab0:	00 
  40cab1:	8b 54 24 74          	mov    edx,DWORD PTR [rsp+0x74]
  40cab5:	44 29 ea             	sub    edx,r13d
  40cab8:	0f 85 53 08 00 00    	jne    40d311 <__gdtoa+0x1081>
  40cabe:	b9 01 00 00 00       	mov    ecx,0x1
  40cac3:	44 89 54 24 74       	mov    DWORD PTR [rsp+0x74],r10d
  40cac8:	e8 23 13 00 00       	call   40ddf0 <__i2b_D2A>
  40cacd:	83 fb 01             	cmp    ebx,0x1
  40cad0:	44 8b 54 24 74       	mov    r10d,DWORD PTR [rsp+0x74]
  40cad5:	0f 94 c3             	sete   bl
  40cad8:	83 7c 24 20 01       	cmp    DWORD PTR [rsp+0x20],0x1
  40cadd:	49 89 c5             	mov    r13,rax
  40cae0:	0f 9e c0             	setle  al
  40cae3:	21 c3                	and    ebx,eax
  40cae5:	45 85 d2             	test   r10d,r10d
  40cae8:	0f 8f 02 03 00 00    	jg     40cdf0 <__gdtoa+0xb60>
  40caee:	c7 44 24 74 00 00 00 	mov    DWORD PTR [rsp+0x74],0x0
  40caf5:	00 
  40caf6:	84 db                	test   bl,bl
  40caf8:	0f 85 43 0b 00 00    	jne    40d641 <__gdtoa+0x13b1>
  40cafe:	bf 1f 00 00 00       	mov    edi,0x1f
  40cb03:	45 85 d2             	test   r10d,r10d
  40cb06:	0f 85 07 03 00 00    	jne    40ce13 <__gdtoa+0xb83>
  40cb0c:	2b 7c 24 50          	sub    edi,DWORD PTR [rsp+0x50]
  40cb10:	44 8b 44 24 60       	mov    r8d,DWORD PTR [rsp+0x60]
  40cb15:	83 ef 04             	sub    edi,0x4
  40cb18:	83 e7 1f             	and    edi,0x1f
  40cb1b:	41 01 f8             	add    r8d,edi
  40cb1e:	89 bc 24 9c 00 00 00 	mov    DWORD PTR [rsp+0x9c],edi
  40cb25:	89 fa                	mov    edx,edi
  40cb27:	45 85 c0             	test   r8d,r8d
  40cb2a:	7e 15                	jle    40cb41 <__gdtoa+0x8b1>
  40cb2c:	44 89 c2             	mov    edx,r8d
  40cb2f:	4c 89 f9             	mov    rcx,r15
  40cb32:	e8 d9 16 00 00       	call   40e210 <__lshift_D2A>
  40cb37:	8b 94 24 9c 00 00 00 	mov    edx,DWORD PTR [rsp+0x9c]
  40cb3e:	49 89 c7             	mov    r15,rax
  40cb41:	03 54 24 50          	add    edx,DWORD PTR [rsp+0x50]
  40cb45:	85 d2                	test   edx,edx
  40cb47:	7e 0b                	jle    40cb54 <__gdtoa+0x8c4>
  40cb49:	4c 89 e9             	mov    rcx,r13
  40cb4c:	e8 bf 16 00 00       	call   40e210 <__lshift_D2A>
  40cb51:	49 89 c5             	mov    r13,rax
  40cb54:	8b 8c 24 88 00 00 00 	mov    ecx,DWORD PTR [rsp+0x88]
  40cb5b:	83 7c 24 20 02       	cmp    DWORD PTR [rsp+0x20],0x2
  40cb60:	0f 9f c3             	setg   bl
  40cb63:	85 c9                	test   ecx,ecx
  40cb65:	0f 85 35 05 00 00    	jne    40d0a0 <__gdtoa+0xe10>
  40cb6b:	8b 44 24 4c          	mov    eax,DWORD PTR [rsp+0x4c]
  40cb6f:	85 c0                	test   eax,eax
  40cb71:	0f 8f b9 02 00 00    	jg     40ce30 <__gdtoa+0xba0>
  40cb77:	84 db                	test   bl,bl
  40cb79:	0f 84 b1 02 00 00    	je     40ce30 <__gdtoa+0xba0>
  40cb7f:	8b 44 24 4c          	mov    eax,DWORD PTR [rsp+0x4c]
  40cb83:	85 c0                	test   eax,eax
  40cb85:	0f 85 4a 02 00 00    	jne    40cdd5 <__gdtoa+0xb45>
  40cb8b:	4c 89 e9             	mov    rcx,r13
  40cb8e:	45 31 c0             	xor    r8d,r8d
  40cb91:	ba 05 00 00 00       	mov    edx,0x5
  40cb96:	e8 a5 11 00 00       	call   40dd40 <__multadd_D2A>
  40cb9b:	4c 89 f9             	mov    rcx,r15
  40cb9e:	48 89 c2             	mov    rdx,rax
  40cba1:	49 89 c5             	mov    r13,rax
  40cba4:	e8 77 17 00 00       	call   40e320 <__cmp_D2A>
  40cba9:	85 c0                	test   eax,eax
  40cbab:	0f 8e 24 02 00 00    	jle    40cdd5 <__gdtoa+0xb45>
  40cbb1:	8b 44 24 70          	mov    eax,DWORD PTR [rsp+0x70]
  40cbb5:	48 8b 5c 24 58       	mov    rbx,QWORD PTR [rsp+0x58]
  40cbba:	83 c0 02             	add    eax,0x2
  40cbbd:	89 44 24 50          	mov    DWORD PTR [rsp+0x50],eax
  40cbc1:	48 83 44 24 58 01    	add    QWORD PTR [rsp+0x58],0x1
  40cbc7:	c6 03 31             	mov    BYTE PTR [rbx],0x31
  40cbca:	c7 44 24 48 20 00 00 	mov    DWORD PTR [rsp+0x48],0x20
  40cbd1:	00 
  40cbd2:	4c 89 e9             	mov    rcx,r13
  40cbd5:	e8 f6 10 00 00       	call   40dcd0 <__Bfree_D2A>
  40cbda:	4d 85 e4             	test   r12,r12
  40cbdd:	74 08                	je     40cbe7 <__gdtoa+0x957>
  40cbdf:	4c 89 e1             	mov    rcx,r12
  40cbe2:	e8 e9 10 00 00       	call   40dcd0 <__Bfree_D2A>
  40cbe7:	4c 89 f9             	mov    rcx,r15
  40cbea:	e8 e1 10 00 00       	call   40dcd0 <__Bfree_D2A>
  40cbef:	48 8b 7c 24 28       	mov    rdi,QWORD PTR [rsp+0x28]
  40cbf4:	48 8b 44 24 58       	mov    rax,QWORD PTR [rsp+0x58]
  40cbf9:	8b 4c 24 50          	mov    ecx,DWORD PTR [rsp+0x50]
  40cbfd:	c6 00 00             	mov    BYTE PTR [rax],0x0
  40cc00:	89 0f                	mov    DWORD PTR [rdi],ecx
  40cc02:	48 8b 7c 24 30       	mov    rdi,QWORD PTR [rsp+0x30]
  40cc07:	48 85 ff             	test   rdi,rdi
  40cc0a:	74 03                	je     40cc0f <__gdtoa+0x97f>
  40cc0c:	48 89 07             	mov    QWORD PTR [rdi],rax
  40cc0f:	8b 44 24 48          	mov    eax,DWORD PTR [rsp+0x48]
  40cc13:	09 06                	or     DWORD PTR [rsi],eax
  40cc15:	e9 03 f7 ff ff       	jmp    40c31d <__gdtoa+0x8d>
  40cc1a:	66 0f 1f 44 00 00    	nop    WORD PTR [rax+rax*1+0x0]
  40cc20:	ba 01 00 00 00       	mov    edx,0x1
  40cc25:	c7 44 24 50 00 00 00 	mov    DWORD PTR [rsp+0x50],0x0
  40cc2c:	00 
  40cc2d:	29 c2                	sub    edx,eax
  40cc2f:	89 54 24 60          	mov    DWORD PTR [rsp+0x60],edx
  40cc33:	e9 19 fa ff ff       	jmp    40c651 <__gdtoa+0x3c1>
  40cc38:	0f 1f 84 00 00 00 00 	nop    DWORD PTR [rax+rax*1+0x0]
  40cc3f:	00 
  40cc40:	66 0f ef c9          	pxor   xmm1,xmm1
  40cc44:	f2 41 0f 2a ca       	cvtsi2sd xmm1,r10d
  40cc49:	66 0f 2e c8          	ucomisd xmm1,xmm0
  40cc4d:	7a 0a                	jp     40cc59 <__gdtoa+0x9c9>
  40cc4f:	66 0f 2f c8          	comisd xmm1,xmm0
  40cc53:	0f 84 c9 f8 ff ff    	je     40c522 <__gdtoa+0x292>
  40cc59:	41 83 ea 01          	sub    r10d,0x1
  40cc5d:	e9 c0 f8 ff ff       	jmp    40c522 <__gdtoa+0x292>
  40cc62:	66 0f 1f 44 00 00    	nop    WORD PTR [rax+rax*1+0x0]
  40cc68:	83 e8 04             	sub    eax,0x4
  40cc6b:	c7 44 24 54 00 00 00 	mov    DWORD PTR [rsp+0x54],0x0
  40cc72:	00 
  40cc73:	89 44 24 20          	mov    DWORD PTR [rsp+0x20],eax
  40cc77:	e9 21 fa ff ff       	jmp    40c69d <__gdtoa+0x40d>
  40cc7c:	c7 44 24 68 01 00 00 	mov    DWORD PTR [rsp+0x68],0x1
  40cc83:	00 
  40cc84:	45 31 f6             	xor    r14d,r14d
  40cc87:	45 31 c9             	xor    r9d,r9d
  40cc8a:	c7 84 24 8c 00 00 00 	mov    DWORD PTR [rsp+0x8c],0xffffffff
  40cc91:	ff ff ff ff 
  40cc95:	c7 44 24 4c ff ff ff 	mov    DWORD PTR [rsp+0x4c],0xffffffff
  40cc9c:	ff 
  40cc9d:	e9 74 fa ff ff       	jmp    40c716 <__gdtoa+0x486>
  40cca2:	66 0f 10 c8          	movupd xmm1,xmm0
  40cca6:	f2 0f 58 c8          	addsd  xmm1,xmm0
  40ccaa:	f2 0f 58 0d 36 4c 00 	addsd  xmm1,QWORD PTR [rip+0x4c36]        # 4118e8 <.rdata+0x58>
  40ccb1:	00 
  40ccb2:	66 48 0f 7e ca       	movq   rdx,xmm1
  40ccb7:	66 48 0f 7e c8       	movq   rax,xmm1
  40ccbc:	48 c1 ea 20          	shr    rdx,0x20
  40ccc0:	89 c0                	mov    eax,eax
  40ccc2:	81 ea 00 00 40 03    	sub    edx,0x3400000
  40ccc8:	48 c1 e2 20          	shl    rdx,0x20
  40cccc:	48 09 d0             	or     rax,rdx
  40cccf:	f2 0f 5c 05 19 4c 00 	subsd  xmm0,QWORD PTR [rip+0x4c19]        # 4118f0 <.rdata+0x60>
  40ccd6:	00 
  40ccd7:	66 48 0f 6e c8       	movq   xmm1,rax
  40ccdc:	66 0f 2f c1          	comisd xmm0,xmm1
  40cce0:	0f 87 82 09 00 00    	ja     40d668 <__gdtoa+0x13d8>
  40cce6:	66 0f 57 0d 12 4c 00 	xorpd  xmm1,XMMWORD PTR [rip+0x4c12]        # 411900 <.rdata+0x70>
  40cced:	00 
  40ccee:	66 0f 2f c8          	comisd xmm1,xmm0
  40ccf2:	0f 87 d7 00 00 00    	ja     40cdcf <__gdtoa+0xb3f>
  40ccf8:	c7 44 24 54 00 00 00 	mov    DWORD PTR [rsp+0x54],0x0
  40ccff:	00 
  40cd00:	45 85 ed             	test   r13d,r13d
  40cd03:	0f 88 a7 00 00 00    	js     40cdb0 <__gdtoa+0xb20>
  40cd09:	8b 44 24 70          	mov    eax,DWORD PTR [rsp+0x70]
  40cd0d:	39 47 14             	cmp    DWORD PTR [rdi+0x14],eax
  40cd10:	0f 8c 9a 00 00 00    	jl     40cdb0 <__gdtoa+0xb20>
  40cd16:	48 8b 15 43 4e 00 00 	mov    rdx,QWORD PTR [rip+0x4e43]        # 411b60 <.refptr.__tens_D2A>
  40cd1d:	48 98                	cdqe
  40cd1f:	48 89 c7             	mov    rdi,rax
  40cd22:	f2 0f 10 14 c2       	movsd  xmm2,QWORD PTR [rdx+rax*8]
  40cd27:	45 85 f6             	test   r14d,r14d
  40cd2a:	0f 89 f3 04 00 00    	jns    40d223 <__gdtoa+0xf93>
  40cd30:	8b 44 24 4c          	mov    eax,DWORD PTR [rsp+0x4c]
  40cd34:	85 c0                	test   eax,eax
  40cd36:	0f 8f e7 04 00 00    	jg     40d223 <__gdtoa+0xf93>
  40cd3c:	0f 85 8d 00 00 00    	jne    40cdcf <__gdtoa+0xb3f>
  40cd42:	f2 0f 59 15 a6 4b 00 	mulsd  xmm2,QWORD PTR [rip+0x4ba6]        # 4118f0 <.rdata+0x60>
  40cd49:	00 
  40cd4a:	66 0f 2f 94 24 80 00 	comisd xmm2,QWORD PTR [rsp+0x80]
  40cd51:	00 00 
  40cd53:	73 7a                	jae    40cdcf <__gdtoa+0xb3f>
  40cd55:	83 c7 02             	add    edi,0x2
  40cd58:	48 8b 5c 24 58       	mov    rbx,QWORD PTR [rsp+0x58]
  40cd5d:	45 31 ed             	xor    r13d,r13d
  40cd60:	45 31 e4             	xor    r12d,r12d
  40cd63:	89 7c 24 50          	mov    DWORD PTR [rsp+0x50],edi
  40cd67:	e9 55 fe ff ff       	jmp    40cbc1 <__gdtoa+0x931>
  40cd6c:	0f 1f 40 00          	nop    DWORD PTR [rax+0x0]
  40cd70:	83 f8 03             	cmp    eax,0x3
  40cd73:	0f 85 af fb ff ff    	jne    40c928 <__gdtoa+0x698>
  40cd79:	c7 44 24 68 00 00 00 	mov    DWORD PTR [rsp+0x68],0x0
  40cd80:	00 
  40cd81:	8b 44 24 70          	mov    eax,DWORD PTR [rsp+0x70]
  40cd85:	44 01 f0             	add    eax,r14d
  40cd88:	89 84 24 8c 00 00 00 	mov    DWORD PTR [rsp+0x8c],eax
  40cd8f:	83 c0 01             	add    eax,0x1
  40cd92:	89 44 24 4c          	mov    DWORD PTR [rsp+0x4c],eax
  40cd96:	85 c0                	test   eax,eax
  40cd98:	0f 8e 57 04 00 00    	jle    40d1f5 <__gdtoa+0xf65>
  40cd9e:	89 84 24 9c 00 00 00 	mov    DWORD PTR [rsp+0x9c],eax
  40cda5:	89 c1                	mov    ecx,eax
  40cda7:	e9 39 f9 ff ff       	jmp    40c6e5 <__gdtoa+0x455>
  40cdac:	0f 1f 40 00          	nop    DWORD PTR [rax+0x0]
  40cdb0:	44 8b 5c 24 68       	mov    r11d,DWORD PTR [rsp+0x68]
  40cdb5:	45 85 db             	test   r11d,r11d
  40cdb8:	0f 85 e2 fb ff ff    	jne    40c9a0 <__gdtoa+0x710>
  40cdbe:	44 8b 6c 24 74       	mov    r13d,DWORD PTR [rsp+0x74]
  40cdc3:	8b 6c 24 60          	mov    ebp,DWORD PTR [rsp+0x60]
  40cdc7:	45 31 e4             	xor    r12d,r12d
  40cdca:	e9 64 fc ff ff       	jmp    40ca33 <__gdtoa+0x7a3>
  40cdcf:	45 31 ed             	xor    r13d,r13d
  40cdd2:	45 31 e4             	xor    r12d,r12d
  40cdd5:	41 f7 de             	neg    r14d
  40cdd8:	c7 44 24 48 10 00 00 	mov    DWORD PTR [rsp+0x48],0x10
  40cddf:	00 
  40cde0:	48 8b 5c 24 58       	mov    rbx,QWORD PTR [rsp+0x58]
  40cde5:	44 89 74 24 50       	mov    DWORD PTR [rsp+0x50],r14d
  40cdea:	e9 e3 fd ff ff       	jmp    40cbd2 <__gdtoa+0x942>
  40cdef:	90                   	nop
  40cdf0:	44 89 d2             	mov    edx,r10d
  40cdf3:	4c 89 e9             	mov    rcx,r13
  40cdf6:	e8 15 12 00 00       	call   40e010 <__pow5mult_D2A>
  40cdfb:	84 db                	test   bl,bl
  40cdfd:	44 8b 54 24 74       	mov    r10d,DWORD PTR [rsp+0x74]
  40ce02:	49 89 c5             	mov    r13,rax
  40ce05:	0f 85 b0 08 00 00    	jne    40d6bb <__gdtoa+0x142b>
  40ce0b:	c7 44 24 74 00 00 00 	mov    DWORD PTR [rsp+0x74],0x0
  40ce12:	00 
  40ce13:	41 8b 45 14          	mov    eax,DWORD PTR [r13+0x14]
  40ce17:	83 e8 01             	sub    eax,0x1
  40ce1a:	48 98                	cdqe
  40ce1c:	41 0f bd 7c 85 18    	bsr    edi,DWORD PTR [r13+rax*4+0x18]
  40ce22:	83 f7 1f             	xor    edi,0x1f
  40ce25:	e9 e2 fc ff ff       	jmp    40cb0c <__gdtoa+0x87c>
  40ce2a:	66 0f 1f 44 00 00    	nop    WORD PTR [rax+rax*1+0x0]
  40ce30:	8b 44 24 70          	mov    eax,DWORD PTR [rsp+0x70]
  40ce34:	83 c0 01             	add    eax,0x1
  40ce37:	89 44 24 50          	mov    DWORD PTR [rsp+0x50],eax
  40ce3b:	8b 44 24 68          	mov    eax,DWORD PTR [rsp+0x68]
  40ce3f:	85 c0                	test   eax,eax
  40ce41:	0f 84 c9 02 00 00    	je     40d110 <__gdtoa+0xe80>
  40ce47:	8d 14 2f             	lea    edx,[rdi+rbp*1]
  40ce4a:	85 d2                	test   edx,edx
  40ce4c:	7e 0b                	jle    40ce59 <__gdtoa+0xbc9>
  40ce4e:	4c 89 e1             	mov    rcx,r12
  40ce51:	e8 ba 13 00 00       	call   40e210 <__lshift_D2A>
  40ce56:	49 89 c4             	mov    r12,rax
  40ce59:	8b 44 24 74          	mov    eax,DWORD PTR [rsp+0x74]
  40ce5d:	4d 89 e6             	mov    r14,r12
  40ce60:	85 c0                	test   eax,eax
  40ce62:	0f 85 9c 07 00 00    	jne    40d604 <__gdtoa+0x1374>
  40ce68:	48 8b 44 24 58       	mov    rax,QWORD PTR [rsp+0x58]
  40ce6d:	48 89 74 24 68       	mov    QWORD PTR [rsp+0x68],rsi
  40ce72:	c7 84 24 9c 00 00 00 	mov    DWORD PTR [rsp+0x9c],0x1
  40ce79:	01 00 00 00 
  40ce7d:	48 89 44 24 40       	mov    QWORD PTR [rsp+0x40],rax
  40ce82:	e9 ad 00 00 00       	jmp    40cf34 <__gdtoa+0xca4>
  40ce87:	66 0f 1f 84 00 00 00 	nop    WORD PTR [rax+rax*1+0x0]
  40ce8e:	00 00 
  40ce90:	48 89 c1             	mov    rcx,rax
  40ce93:	e8 38 0e 00 00       	call   40dcd0 <__Bfree_D2A>
  40ce98:	b8 01 00 00 00       	mov    eax,0x1
  40ce9d:	85 ff                	test   edi,edi
  40ce9f:	0f 88 01 05 00 00    	js     40d3a6 <__gdtoa+0x1116>
  40cea5:	0b 7c 24 20          	or     edi,DWORD PTR [rsp+0x20]
  40cea9:	75 0e                	jne    40ceb9 <__gdtoa+0xc29>
  40ceab:	48 8b 7c 24 38       	mov    rdi,QWORD PTR [rsp+0x38]
  40ceb0:	f6 07 01             	test   BYTE PTR [rdi],0x1
  40ceb3:	0f 84 ed 04 00 00    	je     40d3a6 <__gdtoa+0x1116>
  40ceb9:	48 8b 74 24 40       	mov    rsi,QWORD PTR [rsp+0x40]
  40cebe:	48 8d 6e 01          	lea    rbp,[rsi+0x1]
  40cec2:	85 c0                	test   eax,eax
  40cec4:	7e 0b                	jle    40ced1 <__gdtoa+0xc41>
  40cec6:	83 7c 24 54 02       	cmp    DWORD PTR [rsp+0x54],0x2
  40cecb:	0f 85 af 07 00 00    	jne    40d680 <__gdtoa+0x13f0>
  40ced1:	88 5d ff             	mov    BYTE PTR [rbp-0x1],bl
  40ced4:	8b 44 24 4c          	mov    eax,DWORD PTR [rsp+0x4c]
  40ced8:	39 84 24 9c 00 00 00 	cmp    DWORD PTR [rsp+0x9c],eax
  40cedf:	0f 84 c6 07 00 00    	je     40d6ab <__gdtoa+0x141b>
  40cee5:	4c 89 f9             	mov    rcx,r15
  40cee8:	45 31 c0             	xor    r8d,r8d
  40ceeb:	ba 0a 00 00 00       	mov    edx,0xa
  40cef0:	e8 4b 0e 00 00       	call   40dd40 <__multadd_D2A>
  40cef5:	45 31 c0             	xor    r8d,r8d
  40cef8:	ba 0a 00 00 00       	mov    edx,0xa
  40cefd:	4c 89 e1             	mov    rcx,r12
  40cf00:	49 89 c7             	mov    r15,rax
  40cf03:	4d 39 f4             	cmp    r12,r14
  40cf06:	0f 84 24 01 00 00    	je     40d030 <__gdtoa+0xda0>
  40cf0c:	e8 2f 0e 00 00       	call   40dd40 <__multadd_D2A>
  40cf11:	4c 89 f1             	mov    rcx,r14
  40cf14:	45 31 c0             	xor    r8d,r8d
  40cf17:	ba 0a 00 00 00       	mov    edx,0xa
  40cf1c:	49 89 c4             	mov    r12,rax
  40cf1f:	e8 1c 0e 00 00       	call   40dd40 <__multadd_D2A>
  40cf24:	49 89 c6             	mov    r14,rax
  40cf27:	83 84 24 9c 00 00 00 	add    DWORD PTR [rsp+0x9c],0x1
  40cf2e:	01 
  40cf2f:	48 89 6c 24 40       	mov    QWORD PTR [rsp+0x40],rbp
  40cf34:	4c 89 ea             	mov    rdx,r13
  40cf37:	4c 89 f9             	mov    rcx,r15
  40cf3a:	e8 d1 f1 ff ff       	call   40c110 <__quorem_D2A>
  40cf3f:	4c 89 e2             	mov    rdx,r12
  40cf42:	4c 89 f9             	mov    rcx,r15
  40cf45:	89 c6                	mov    esi,eax
  40cf47:	8d 58 30             	lea    ebx,[rax+0x30]
  40cf4a:	e8 d1 13 00 00       	call   40e320 <__cmp_D2A>
  40cf4f:	4c 89 f2             	mov    rdx,r14
  40cf52:	4c 89 e9             	mov    rcx,r13
  40cf55:	89 c7                	mov    edi,eax
  40cf57:	e8 14 14 00 00       	call   40e370 <__diff_D2A>
  40cf5c:	8b 68 10             	mov    ebp,DWORD PTR [rax+0x10]
  40cf5f:	85 ed                	test   ebp,ebp
  40cf61:	0f 85 29 ff ff ff    	jne    40ce90 <__gdtoa+0xc00>
  40cf67:	48 89 c2             	mov    rdx,rax
  40cf6a:	4c 89 f9             	mov    rcx,r15
  40cf6d:	48 89 44 24 60       	mov    QWORD PTR [rsp+0x60],rax
  40cf72:	e8 a9 13 00 00       	call   40e320 <__cmp_D2A>
  40cf77:	4c 8b 44 24 60       	mov    r8,QWORD PTR [rsp+0x60]
  40cf7c:	89 c5                	mov    ebp,eax
  40cf7e:	4c 89 c1             	mov    rcx,r8
  40cf81:	e8 4a 0d 00 00       	call   40dcd0 <__Bfree_D2A>
  40cf86:	8b 44 24 20          	mov    eax,DWORD PTR [rsp+0x20]
  40cf8a:	09 e8                	or     eax,ebp
  40cf8c:	0f 85 b7 09 00 00    	jne    40d949 <__gdtoa+0x16b9>
  40cf92:	48 8b 4c 24 38       	mov    rcx,QWORD PTR [rsp+0x38]
  40cf97:	8b 11                	mov    edx,DWORD PTR [rcx]
  40cf99:	89 54 24 60          	mov    DWORD PTR [rsp+0x60],edx
  40cf9d:	83 e2 01             	and    edx,0x1
  40cfa0:	0b 54 24 54          	or     edx,DWORD PTR [rsp+0x54]
  40cfa4:	0f 85 f3 fe ff ff    	jne    40ce9d <__gdtoa+0xc0d>
  40cfaa:	48 8b 54 24 40       	mov    rdx,QWORD PTR [rsp+0x40]
  40cfaf:	89 74 24 20          	mov    DWORD PTR [rsp+0x20],esi
  40cfb3:	48 8b 74 24 68       	mov    rsi,QWORD PTR [rsp+0x68]
  40cfb8:	48 8d 6a 01          	lea    rbp,[rdx+0x1]
  40cfbc:	83 fb 39             	cmp    ebx,0x39
  40cfbf:	0f 84 b2 07 00 00    	je     40d777 <__gdtoa+0x14e7>
  40cfc5:	85 ff                	test   edi,edi
  40cfc7:	0f 8e 59 09 00 00    	jle    40d926 <__gdtoa+0x1696>
  40cfcd:	8b 5c 24 20          	mov    ebx,DWORD PTR [rsp+0x20]
  40cfd1:	b8 20 00 00 00       	mov    eax,0x20
  40cfd6:	83 c3 31             	add    ebx,0x31
  40cfd9:	48 8b 7c 24 40       	mov    rdi,QWORD PTR [rsp+0x40]
  40cfde:	89 44 24 48          	mov    DWORD PTR [rsp+0x48],eax
  40cfe2:	88 1f                	mov    BYTE PTR [rdi],bl
  40cfe4:	4c 89 e7             	mov    rdi,r12
  40cfe7:	4d 89 f4             	mov    r12,r14
  40cfea:	66 0f 1f 44 00 00    	nop    WORD PTR [rax+rax*1+0x0]
  40cff0:	4c 89 e9             	mov    rcx,r13
  40cff3:	e8 d8 0c 00 00       	call   40dcd0 <__Bfree_D2A>
  40cff8:	4d 85 e4             	test   r12,r12
  40cffb:	0f 84 01 03 00 00    	je     40d302 <__gdtoa+0x1072>
  40d001:	48 85 ff             	test   rdi,rdi
  40d004:	0f 84 a2 07 00 00    	je     40d7ac <__gdtoa+0x151c>
  40d00a:	4c 39 e7             	cmp    rdi,r12
  40d00d:	0f 84 99 07 00 00    	je     40d7ac <__gdtoa+0x151c>
  40d013:	48 89 f9             	mov    rcx,rdi
  40d016:	e8 b5 0c 00 00       	call   40dcd0 <__Bfree_D2A>
  40d01b:	48 8b 5c 24 58       	mov    rbx,QWORD PTR [rsp+0x58]
  40d020:	48 89 6c 24 58       	mov    QWORD PTR [rsp+0x58],rbp
  40d025:	e9 b5 fb ff ff       	jmp    40cbdf <__gdtoa+0x94f>
  40d02a:	66 0f 1f 44 00 00    	nop    WORD PTR [rax+rax*1+0x0]
  40d030:	e8 0b 0d 00 00       	call   40dd40 <__multadd_D2A>
  40d035:	49 89 c4             	mov    r12,rax
  40d038:	49 89 c6             	mov    r14,rax
  40d03b:	e9 e7 fe ff ff       	jmp    40cf27 <__gdtoa+0xc97>
  40d040:	c7 44 24 68 01 00 00 	mov    DWORD PTR [rsp+0x68],0x1
  40d047:	00 
  40d048:	e9 34 fd ff ff       	jmp    40cd81 <__gdtoa+0xaf1>
  40d04d:	0f 1f 00             	nop    DWORD PTR [rax]
  40d050:	83 7c 24 20 01       	cmp    DWORD PTR [rsp+0x20],0x1
  40d055:	0f 8e a4 f9 ff ff    	jle    40c9ff <__gdtoa+0x76f>
  40d05b:	8b 44 24 4c          	mov    eax,DWORD PTR [rsp+0x4c]
  40d05f:	8b 4c 24 74          	mov    ecx,DWORD PTR [rsp+0x74]
  40d063:	83 e8 01             	sub    eax,0x1
  40d066:	39 c1                	cmp    ecx,eax
  40d068:	0f 8c bd 02 00 00    	jl     40d32b <__gdtoa+0x109b>
  40d06e:	29 c1                	sub    ecx,eax
  40d070:	41 89 cd             	mov    r13d,ecx
  40d073:	8b 44 24 4c          	mov    eax,DWORD PTR [rsp+0x4c]
  40d077:	85 c0                	test   eax,eax
  40d079:	0f 88 0d 05 00 00    	js     40d58c <__gdtoa+0x12fc>
  40d07f:	8b 4c 24 60          	mov    ecx,DWORD PTR [rsp+0x60]
  40d083:	01 44 24 50          	add    DWORD PTR [rsp+0x50],eax
  40d087:	89 84 24 9c 00 00 00 	mov    DWORD PTR [rsp+0x9c],eax
  40d08e:	01 c8                	add    eax,ecx
  40d090:	89 cd                	mov    ebp,ecx
  40d092:	89 44 24 60          	mov    DWORD PTR [rsp+0x60],eax
  40d096:	e9 79 f9 ff ff       	jmp    40ca14 <__gdtoa+0x784>
  40d09b:	0f 1f 44 00 00       	nop    DWORD PTR [rax+rax*1+0x0]
  40d0a0:	4c 89 ea             	mov    rdx,r13
  40d0a3:	4c 89 f9             	mov    rcx,r15
  40d0a6:	e8 75 12 00 00       	call   40e320 <__cmp_D2A>
  40d0ab:	85 c0                	test   eax,eax
  40d0ad:	0f 89 b8 fa ff ff    	jns    40cb6b <__gdtoa+0x8db>
  40d0b3:	8b 44 24 70          	mov    eax,DWORD PTR [rsp+0x70]
  40d0b7:	45 31 c0             	xor    r8d,r8d
  40d0ba:	ba 0a 00 00 00       	mov    edx,0xa
  40d0bf:	4c 89 f9             	mov    rcx,r15
  40d0c2:	83 e8 01             	sub    eax,0x1
  40d0c5:	89 44 24 40          	mov    DWORD PTR [rsp+0x40],eax
  40d0c9:	e8 72 0c 00 00       	call   40dd40 <__multadd_D2A>
  40d0ce:	8b 54 24 68          	mov    edx,DWORD PTR [rsp+0x68]
  40d0d2:	49 89 c7             	mov    r15,rax
  40d0d5:	8b 84 24 8c 00 00 00 	mov    eax,DWORD PTR [rsp+0x8c]
  40d0dc:	85 c0                	test   eax,eax
  40d0de:	0f 9e c0             	setle  al
  40d0e1:	21 c3                	and    ebx,eax
  40d0e3:	85 d2                	test   edx,edx
  40d0e5:	0f 85 54 07 00 00    	jne    40d83f <__gdtoa+0x15af>
  40d0eb:	84 db                	test   bl,bl
  40d0ed:	0f 85 a1 06 00 00    	jne    40d794 <__gdtoa+0x1504>
  40d0f3:	8b 44 24 70          	mov    eax,DWORD PTR [rsp+0x70]
  40d0f7:	89 44 24 50          	mov    DWORD PTR [rsp+0x50],eax
  40d0fb:	8b 84 24 8c 00 00 00 	mov    eax,DWORD PTR [rsp+0x8c]
  40d102:	89 44 24 4c          	mov    DWORD PTR [rsp+0x4c],eax
  40d106:	66 2e 0f 1f 84 00 00 	cs nop WORD PTR [rax+rax*1+0x0]
  40d10d:	00 00 00 
  40d110:	c7 84 24 9c 00 00 00 	mov    DWORD PTR [rsp+0x9c],0x1
  40d117:	01 00 00 00 
  40d11b:	48 8b 6c 24 58       	mov    rbp,QWORD PTR [rsp+0x58]
  40d120:	8b 7c 24 4c          	mov    edi,DWORD PTR [rsp+0x4c]
  40d124:	eb 25                	jmp    40d14b <__gdtoa+0xebb>
  40d126:	66 2e 0f 1f 84 00 00 	cs nop WORD PTR [rax+rax*1+0x0]
  40d12d:	00 00 00 
  40d130:	4c 89 f9             	mov    rcx,r15
  40d133:	45 31 c0             	xor    r8d,r8d
  40d136:	ba 0a 00 00 00       	mov    edx,0xa
  40d13b:	e8 00 0c 00 00       	call   40dd40 <__multadd_D2A>
  40d140:	83 84 24 9c 00 00 00 	add    DWORD PTR [rsp+0x9c],0x1
  40d147:	01 
  40d148:	49 89 c7             	mov    r15,rax
  40d14b:	4c 89 ea             	mov    rdx,r13
  40d14e:	4c 89 f9             	mov    rcx,r15
  40d151:	48 83 c5 01          	add    rbp,0x1
  40d155:	e8 b6 ef ff ff       	call   40c110 <__quorem_D2A>
  40d15a:	8d 58 30             	lea    ebx,[rax+0x30]
  40d15d:	88 5d ff             	mov    BYTE PTR [rbp-0x1],bl
  40d160:	39 bc 24 9c 00 00 00 	cmp    DWORD PTR [rsp+0x9c],edi
  40d167:	7c c7                	jl     40d130 <__gdtoa+0xea0>
  40d169:	31 ff                	xor    edi,edi
  40d16b:	8b 4c 24 54          	mov    ecx,DWORD PTR [rsp+0x54]
  40d16f:	85 c9                	test   ecx,ecx
  40d171:	0f 84 e3 01 00 00    	je     40d35a <__gdtoa+0x10ca>
  40d177:	41 8b 47 14          	mov    eax,DWORD PTR [r15+0x14]
  40d17b:	0f b6 55 ff          	movzx  edx,BYTE PTR [rbp-0x1]
  40d17f:	83 f9 02             	cmp    ecx,0x2
  40d182:	0f 84 08 02 00 00    	je     40d390 <__gdtoa+0x1100>
  40d188:	83 f8 01             	cmp    eax,0x1
  40d18b:	7f 09                	jg     40d196 <__gdtoa+0xf06>
  40d18d:	45 8b 47 18          	mov    r8d,DWORD PTR [r15+0x18]
  40d191:	45 85 c0             	test   r8d,r8d
  40d194:	74 41                	je     40d1d7 <__gdtoa+0xf47>
  40d196:	48 8b 4c 24 58       	mov    rcx,QWORD PTR [rsp+0x58]
  40d19b:	eb 13                	jmp    40d1b0 <__gdtoa+0xf20>
  40d19d:	0f 1f 00             	nop    DWORD PTR [rax]
  40d1a0:	48 39 c8             	cmp    rax,rcx
  40d1a3:	0f 84 97 01 00 00    	je     40d340 <__gdtoa+0x10b0>
  40d1a9:	0f b6 50 ff          	movzx  edx,BYTE PTR [rax-0x1]
  40d1ad:	48 89 c5             	mov    rbp,rax
  40d1b0:	48 8d 45 ff          	lea    rax,[rbp-0x1]
  40d1b4:	80 fa 39             	cmp    dl,0x39
  40d1b7:	74 e7                	je     40d1a0 <__gdtoa+0xf10>
  40d1b9:	83 c2 01             	add    edx,0x1
  40d1bc:	c7 44 24 48 20 00 00 	mov    DWORD PTR [rsp+0x48],0x20
  40d1c3:	00 
  40d1c4:	88 10                	mov    BYTE PTR [rax],dl
  40d1c6:	e9 25 fe ff ff       	jmp    40cff0 <__gdtoa+0xd60>
  40d1cb:	0f 1f 44 00 00       	nop    DWORD PTR [rax+rax*1+0x0]
  40d1d0:	0f b6 55 fe          	movzx  edx,BYTE PTR [rbp-0x2]
  40d1d4:	48 89 c5             	mov    rbp,rax
  40d1d7:	48 8d 45 ff          	lea    rax,[rbp-0x1]
  40d1db:	80 fa 30             	cmp    dl,0x30
  40d1de:	74 f0                	je     40d1d0 <__gdtoa+0xf40>
  40d1e0:	e9 0b fe ff ff       	jmp    40cff0 <__gdtoa+0xd60>
  40d1e5:	0f 1f 00             	nop    DWORD PTR [rax]
  40d1e8:	c7 44 24 68 01 00 00 	mov    DWORD PTR [rsp+0x68],0x1
  40d1ef:	00 
  40d1f0:	e9 cf f4 ff ff       	jmp    40c6c4 <__gdtoa+0x434>
  40d1f5:	c7 84 24 9c 00 00 00 	mov    DWORD PTR [rsp+0x9c],0x1
  40d1fc:	01 00 00 00 
  40d200:	b9 01 00 00 00       	mov    ecx,0x1
  40d205:	e9 db f4 ff ff       	jmp    40c6e5 <__gdtoa+0x455>
  40d20a:	48 63 44 24 70       	movsxd rax,DWORD PTR [rsp+0x70]
  40d20f:	48 8b 15 4a 49 00 00 	mov    rdx,QWORD PTR [rip+0x494a]        # 411b60 <.refptr.__tens_D2A>
  40d216:	c7 44 24 4c ff ff ff 	mov    DWORD PTR [rsp+0x4c],0xffffffff
  40d21d:	ff 
  40d21e:	f2 0f 10 14 c2       	movsd  xmm2,QWORD PTR [rdx+rax*8]
  40d223:	f2 0f 10 84 24 80 00 	movsd  xmm0,QWORD PTR [rsp+0x80]
  40d22a:	00 00 
  40d22c:	44 8b 44 24 70       	mov    r8d,DWORD PTR [rsp+0x70]
  40d231:	c7 84 24 9c 00 00 00 	mov    DWORD PTR [rsp+0x9c],0x1
  40d238:	01 00 00 00 
  40d23c:	48 8b 7c 24 58       	mov    rdi,QWORD PTR [rsp+0x58]
  40d241:	66 0f 10 c8          	movupd xmm1,xmm0
  40d245:	41 83 c0 01          	add    r8d,0x1
  40d249:	f2 0f 5e ca          	divsd  xmm1,xmm2
  40d24d:	44 89 44 24 50       	mov    DWORD PTR [rsp+0x50],r8d
  40d252:	48 8d 47 01          	lea    rax,[rdi+0x1]
  40d256:	f2 0f 2c c9          	cvttsd2si ecx,xmm1
  40d25a:	66 0f ef c9          	pxor   xmm1,xmm1
  40d25e:	f2 0f 2a c9          	cvtsi2sd xmm1,ecx
  40d262:	8d 51 30             	lea    edx,[rcx+0x30]
  40d265:	88 17                	mov    BYTE PTR [rdi],dl
  40d267:	f2 0f 59 ca          	mulsd  xmm1,xmm2
  40d26b:	f2 0f 5c c1          	subsd  xmm0,xmm1
  40d26f:	66 0f 2e c6          	ucomisd xmm0,xmm6
  40d273:	0f 8b 6c 06 00 00    	jnp    40d8e5 <__gdtoa+0x1655>
  40d279:	f2 0f 10 1d 57 46 00 	movsd  xmm3,QWORD PTR [rip+0x4657]        # 4118d8 <.rdata+0x48>
  40d280:	00 
  40d281:	0f 1f 80 00 00 00 00 	nop    DWORD PTR [rax+0x0]
  40d288:	8b 94 24 9c 00 00 00 	mov    edx,DWORD PTR [rsp+0x9c]
  40d28f:	3b 54 24 4c          	cmp    edx,DWORD PTR [rsp+0x4c]
  40d293:	0f 84 ec 01 00 00    	je     40d485 <__gdtoa+0x11f5>
  40d299:	f2 0f 59 c3          	mulsd  xmm0,xmm3
  40d29d:	83 c2 01             	add    edx,0x1
  40d2a0:	48 83 c0 01          	add    rax,0x1
  40d2a4:	89 94 24 9c 00 00 00 	mov    DWORD PTR [rsp+0x9c],edx
  40d2ab:	66 0f 10 c8          	movupd xmm1,xmm0
  40d2af:	f2 0f 5e ca          	divsd  xmm1,xmm2
  40d2b3:	f2 0f 2c c9          	cvttsd2si ecx,xmm1
  40d2b7:	66 0f ef c9          	pxor   xmm1,xmm1
  40d2bb:	f2 0f 2a c9          	cvtsi2sd xmm1,ecx
  40d2bf:	8d 51 30             	lea    edx,[rcx+0x30]
  40d2c2:	88 50 ff             	mov    BYTE PTR [rax-0x1],dl
  40d2c5:	f2 0f 59 ca          	mulsd  xmm1,xmm2
  40d2c9:	f2 0f 5c c1          	subsd  xmm0,xmm1
  40d2cd:	66 0f 2e c6          	ucomisd xmm0,xmm6
  40d2d1:	7a b5                	jp     40d288 <__gdtoa+0xff8>
  40d2d3:	75 b3                	jne    40d288 <__gdtoa+0xff8>
  40d2d5:	48 8b 5c 24 58       	mov    rbx,QWORD PTR [rsp+0x58]
  40d2da:	48 89 44 24 58       	mov    QWORD PTR [rsp+0x58],rax
  40d2df:	e9 03 f9 ff ff       	jmp    40cbe7 <__gdtoa+0x957>
  40d2e4:	8b 54 24 74          	mov    edx,DWORD PTR [rsp+0x74]
  40d2e8:	4c 89 f9             	mov    rcx,r15
  40d2eb:	44 89 54 24 78       	mov    DWORD PTR [rsp+0x78],r10d
  40d2f0:	e8 1b 0d 00 00       	call   40e010 <__pow5mult_D2A>
  40d2f5:	44 8b 54 24 78       	mov    r10d,DWORD PTR [rsp+0x78]
  40d2fa:	49 89 c7             	mov    r15,rax
  40d2fd:	e9 bc f7 ff ff       	jmp    40cabe <__gdtoa+0x82e>
  40d302:	48 8b 5c 24 58       	mov    rbx,QWORD PTR [rsp+0x58]
  40d307:	48 89 6c 24 58       	mov    QWORD PTR [rsp+0x58],rbp
  40d30c:	e9 d6 f8 ff ff       	jmp    40cbe7 <__gdtoa+0x957>
  40d311:	4c 89 f9             	mov    rcx,r15
  40d314:	44 89 54 24 74       	mov    DWORD PTR [rsp+0x74],r10d
  40d319:	e8 f2 0c 00 00       	call   40e010 <__pow5mult_D2A>
  40d31e:	44 8b 54 24 74       	mov    r10d,DWORD PTR [rsp+0x74]
  40d323:	49 89 c7             	mov    r15,rax
  40d326:	e9 93 f7 ff ff       	jmp    40cabe <__gdtoa+0x82e>
  40d32b:	89 c2                	mov    edx,eax
  40d32d:	2b 54 24 74          	sub    edx,DWORD PTR [rsp+0x74]
  40d331:	45 31 ed             	xor    r13d,r13d
  40d334:	89 44 24 74          	mov    DWORD PTR [rsp+0x74],eax
  40d338:	41 01 d2             	add    r10d,edx
  40d33b:	e9 33 fd ff ff       	jmp    40d073 <__gdtoa+0xde3>
  40d340:	48 8b 44 24 58       	mov    rax,QWORD PTR [rsp+0x58]
  40d345:	83 44 24 50 01       	add    DWORD PTR [rsp+0x50],0x1
  40d34a:	c7 44 24 48 20 00 00 	mov    DWORD PTR [rsp+0x48],0x20
  40d351:	00 
  40d352:	c6 00 31             	mov    BYTE PTR [rax],0x31
  40d355:	e9 96 fc ff ff       	jmp    40cff0 <__gdtoa+0xd60>
  40d35a:	4c 89 f9             	mov    rcx,r15
  40d35d:	ba 01 00 00 00       	mov    edx,0x1
  40d362:	e8 a9 0e 00 00       	call   40e210 <__lshift_D2A>
  40d367:	4c 89 ea             	mov    rdx,r13
  40d36a:	48 89 c1             	mov    rcx,rax
  40d36d:	49 89 c7             	mov    r15,rax
  40d370:	e8 ab 0f 00 00       	call   40e320 <__cmp_D2A>
  40d375:	0f b6 55 ff          	movzx  edx,BYTE PTR [rbp-0x1]
  40d379:	85 c0                	test   eax,eax
  40d37b:	0f 8f 15 fe ff ff    	jg     40d196 <__gdtoa+0xf06>
  40d381:	75 09                	jne    40d38c <__gdtoa+0x10fc>
  40d383:	83 e3 01             	and    ebx,0x1
  40d386:	0f 85 0a fe ff ff    	jne    40d196 <__gdtoa+0xf06>
  40d38c:	41 8b 47 14          	mov    eax,DWORD PTR [r15+0x14]
  40d390:	83 f8 01             	cmp    eax,0x1
  40d393:	0f 8e d9 04 00 00    	jle    40d872 <__gdtoa+0x15e2>
  40d399:	c7 44 24 48 10 00 00 	mov    DWORD PTR [rsp+0x48],0x10
  40d3a0:	00 
  40d3a1:	e9 31 fe ff ff       	jmp    40d1d7 <__gdtoa+0xf47>
  40d3a6:	48 8b 7c 24 40       	mov    rdi,QWORD PTR [rsp+0x40]
  40d3ab:	44 8b 5c 24 54       	mov    r11d,DWORD PTR [rsp+0x54]
  40d3b0:	89 74 24 20          	mov    DWORD PTR [rsp+0x20],esi
  40d3b4:	48 8b 74 24 68       	mov    rsi,QWORD PTR [rsp+0x68]
  40d3b9:	4c 8d 4f 01          	lea    r9,[rdi+0x1]
  40d3bd:	4c 89 cd             	mov    rbp,r9
  40d3c0:	45 85 db             	test   r11d,r11d
  40d3c3:	0f 84 55 03 00 00    	je     40d71e <__gdtoa+0x148e>
  40d3c9:	41 83 7f 14 01       	cmp    DWORD PTR [r15+0x14],0x1
  40d3ce:	0f 8e c8 04 00 00    	jle    40d89c <__gdtoa+0x160c>
  40d3d4:	83 7c 24 54 02       	cmp    DWORD PTR [rsp+0x54],0x2
  40d3d9:	0f 84 85 03 00 00    	je     40d764 <__gdtoa+0x14d4>
  40d3df:	48 89 74 24 20       	mov    QWORD PTR [rsp+0x20],rsi
  40d3e4:	4c 89 cf             	mov    rdi,r9
  40d3e7:	4c 89 f6             	mov    rsi,r14
  40d3ea:	4c 8b 74 24 40       	mov    r14,QWORD PTR [rsp+0x40]
  40d3ef:	eb 4f                	jmp    40d440 <__gdtoa+0x11b0>
  40d3f1:	0f 1f 80 00 00 00 00 	nop    DWORD PTR [rax+0x0]
  40d3f8:	88 5f ff             	mov    BYTE PTR [rdi-0x1],bl
  40d3fb:	45 31 c0             	xor    r8d,r8d
  40d3fe:	48 89 f1             	mov    rcx,rsi
  40d401:	ba 0a 00 00 00       	mov    edx,0xa
  40d406:	49 89 fe             	mov    r14,rdi
  40d409:	e8 32 09 00 00       	call   40dd40 <__multadd_D2A>
  40d40e:	49 39 f4             	cmp    r12,rsi
  40d411:	4c 89 f9             	mov    rcx,r15
  40d414:	ba 0a 00 00 00       	mov    edx,0xa
  40d419:	4c 0f 44 e0          	cmove  r12,rax
  40d41d:	45 31 c0             	xor    r8d,r8d
  40d420:	48 89 c5             	mov    rbp,rax
  40d423:	48 83 c7 01          	add    rdi,0x1
  40d427:	e8 14 09 00 00       	call   40dd40 <__multadd_D2A>
  40d42c:	4c 89 ea             	mov    rdx,r13
  40d42f:	48 89 ee             	mov    rsi,rbp
  40d432:	48 89 c1             	mov    rcx,rax
  40d435:	49 89 c7             	mov    r15,rax
  40d438:	e8 d3 ec ff ff       	call   40c110 <__quorem_D2A>
  40d43d:	8d 58 30             	lea    ebx,[rax+0x30]
  40d440:	48 89 f2             	mov    rdx,rsi
  40d443:	4c 89 e9             	mov    rcx,r13
  40d446:	48 89 fd             	mov    rbp,rdi
  40d449:	e8 d2 0e 00 00       	call   40e320 <__cmp_D2A>
  40d44e:	85 c0                	test   eax,eax
  40d450:	7f a6                	jg     40d3f8 <__gdtoa+0x1168>
  40d452:	4c 89 74 24 40       	mov    QWORD PTR [rsp+0x40],r14
  40d457:	49 89 f6             	mov    r14,rsi
  40d45a:	48 8b 74 24 20       	mov    rsi,QWORD PTR [rsp+0x20]
  40d45f:	83 fb 39             	cmp    ebx,0x39
  40d462:	0f 84 0f 03 00 00    	je     40d777 <__gdtoa+0x14e7>
  40d468:	c7 44 24 48 20 00 00 	mov    DWORD PTR [rsp+0x48],0x20
  40d46f:	00 
  40d470:	4c 89 e7             	mov    rdi,r12
  40d473:	83 c3 01             	add    ebx,0x1
  40d476:	4d 89 f4             	mov    r12,r14
  40d479:	48 8b 44 24 40       	mov    rax,QWORD PTR [rsp+0x40]
  40d47e:	88 18                	mov    BYTE PTR [rax],bl
  40d480:	e9 6b fb ff ff       	jmp    40cff0 <__gdtoa+0xd60>
  40d485:	8b 7c 24 54          	mov    edi,DWORD PTR [rsp+0x54]
  40d489:	85 ff                	test   edi,edi
  40d48b:	0f 84 2a 03 00 00    	je     40d7bb <__gdtoa+0x152b>
  40d491:	83 ff 01             	cmp    edi,0x1
  40d494:	0f 84 f1 03 00 00    	je     40d88b <__gdtoa+0x15fb>
  40d49a:	48 8b 5c 24 58       	mov    rbx,QWORD PTR [rsp+0x58]
  40d49f:	48 89 44 24 58       	mov    QWORD PTR [rsp+0x58],rax
  40d4a4:	c7 44 24 48 10 00 00 	mov    DWORD PTR [rsp+0x48],0x10
  40d4ab:	00 
  40d4ac:	e9 36 f7 ff ff       	jmp    40cbe7 <__gdtoa+0x957>
  40d4b1:	f2 0f 59 e2          	mulsd  xmm4,xmm2
  40d4b5:	48 8b 44 24 58       	mov    rax,QWORD PTR [rsp+0x58]
  40d4ba:	66 0f 10 c8          	movupd xmm1,xmm0
  40d4be:	45 31 c0             	xor    r8d,r8d
  40d4c1:	c7 84 24 9c 00 00 00 	mov    DWORD PTR [rsp+0x9c],0x1
  40d4c8:	01 00 00 00 
  40d4cc:	f2 0f 10 15 04 44 00 	movsd  xmm2,QWORD PTR [rip+0x4404]        # 4118d8 <.rdata+0x48>
  40d4d3:	00 
  40d4d4:	eb 1b                	jmp    40d4f1 <__gdtoa+0x1261>
  40d4d6:	66 2e 0f 1f 84 00 00 	cs nop WORD PTR [rax+rax*1+0x0]
  40d4dd:	00 00 00 
  40d4e0:	f2 0f 59 ca          	mulsd  xmm1,xmm2
  40d4e4:	83 c1 01             	add    ecx,0x1
  40d4e7:	45 89 c8             	mov    r8d,r9d
  40d4ea:	89 8c 24 9c 00 00 00 	mov    DWORD PTR [rsp+0x9c],ecx
  40d4f1:	f2 0f 2c d1          	cvttsd2si edx,xmm1
  40d4f5:	85 d2                	test   edx,edx
  40d4f7:	74 0f                	je     40d508 <__gdtoa+0x1278>
  40d4f9:	66 0f ef db          	pxor   xmm3,xmm3
  40d4fd:	45 89 c8             	mov    r8d,r9d
  40d500:	f2 0f 2a da          	cvtsi2sd xmm3,edx
  40d504:	f2 0f 5c cb          	subsd  xmm1,xmm3
  40d508:	48 83 c0 01          	add    rax,0x1
  40d50c:	83 c2 30             	add    edx,0x30
  40d50f:	88 50 ff             	mov    BYTE PTR [rax-0x1],dl
  40d512:	8b 8c 24 9c 00 00 00 	mov    ecx,DWORD PTR [rsp+0x9c]
  40d519:	44 39 d9             	cmp    ecx,r11d
  40d51c:	75 c2                	jne    40d4e0 <__gdtoa+0x1250>
  40d51e:	45 84 c0             	test   r8b,r8b
  40d521:	0f 84 0f 03 00 00    	je     40d836 <__gdtoa+0x15a6>
  40d527:	f2 0f 10 05 e1 43 00 	movsd  xmm0,QWORD PTR [rip+0x43e1]        # 411910 <.rdata+0x80>
  40d52e:	00 
  40d52f:	66 0f 10 d4          	movupd xmm2,xmm4
  40d533:	f2 0f 58 d0          	addsd  xmm2,xmm0
  40d537:	66 0f 2f ca          	comisd xmm1,xmm2
  40d53b:	0f 87 e1 02 00 00    	ja     40d822 <__gdtoa+0x1592>
  40d541:	f2 0f 5c c4          	subsd  xmm0,xmm4
  40d545:	66 0f 2f c1          	comisd xmm0,xmm1
  40d549:	0f 86 a9 f7 ff ff    	jbe    40ccf8 <__gdtoa+0xa68>
  40d54f:	66 0f 2e ce          	ucomisd xmm1,xmm6
  40d553:	48 8b 5c 24 58       	mov    rbx,QWORD PTR [rsp+0x58]
  40d558:	7a 0a                	jp     40d564 <__gdtoa+0x12d4>
  40d55a:	66 0f 2f ce          	comisd xmm1,xmm6
  40d55e:	0f 84 a4 03 00 00    	je     40d908 <__gdtoa+0x1678>
  40d564:	c7 44 24 48 10 00 00 	mov    DWORD PTR [rsp+0x48],0x10
  40d56b:	00 
  40d56c:	44 8d 45 01          	lea    r8d,[rbp+0x1]
  40d570:	48 89 c2             	mov    rdx,rax
  40d573:	48 8d 40 ff          	lea    rax,[rax-0x1]
  40d577:	80 7a ff 30          	cmp    BYTE PTR [rdx-0x1],0x30
  40d57b:	74 f3                	je     40d570 <__gdtoa+0x12e0>
  40d57d:	48 89 54 24 58       	mov    QWORD PTR [rsp+0x58],rdx
  40d582:	44 89 44 24 50       	mov    DWORD PTR [rsp+0x50],r8d
  40d587:	e9 5b f6 ff ff       	jmp    40cbe7 <__gdtoa+0x957>
  40d58c:	c7 84 24 9c 00 00 00 	mov    DWORD PTR [rsp+0x9c],0x0
  40d593:	00 00 00 00 
  40d597:	8b 6c 24 60          	mov    ebp,DWORD PTR [rsp+0x60]
  40d59b:	2b 6c 24 4c          	sub    ebp,DWORD PTR [rsp+0x4c]
  40d59f:	e9 70 f4 ff ff       	jmp    40ca14 <__gdtoa+0x784>
  40d5a4:	8b 4c 24 4c          	mov    ecx,DWORD PTR [rsp+0x4c]
  40d5a8:	85 c9                	test   ecx,ecx
  40d5aa:	0f 84 f2 f6 ff ff    	je     40cca2 <__gdtoa+0xa12>
  40d5b0:	44 8b 9c 24 8c 00 00 	mov    r11d,DWORD PTR [rsp+0x8c]
  40d5b7:	00 
  40d5b8:	45 85 db             	test   r11d,r11d
  40d5bb:	0f 8e 37 f7 ff ff    	jle    40ccf8 <__gdtoa+0xa68>
  40d5c1:	f2 0f 59 05 0f 43 00 	mulsd  xmm0,QWORD PTR [rip+0x430f]        # 4118d8 <.rdata+0x48>
  40d5c8:	00 
  40d5c9:	f2 0f 10 0d 0f 43 00 	movsd  xmm1,QWORD PTR [rip+0x430f]        # 4118e0 <.rdata+0x50>
  40d5d0:	00 
  40d5d1:	bd ff ff ff ff       	mov    ebp,0xffffffff
  40d5d6:	f2 0f 59 c8          	mulsd  xmm1,xmm0
  40d5da:	f2 0f 58 0d 06 43 00 	addsd  xmm1,QWORD PTR [rip+0x4306]        # 4118e8 <.rdata+0x58>
  40d5e1:	00 
  40d5e2:	66 48 0f 7e ca       	movq   rdx,xmm1
  40d5e7:	66 48 0f 7e c8       	movq   rax,xmm1
  40d5ec:	48 c1 ea 20          	shr    rdx,0x20
  40d5f0:	89 c0                	mov    eax,eax
  40d5f2:	81 ea 00 00 40 03    	sub    edx,0x3400000
  40d5f8:	48 c1 e2 20          	shl    rdx,0x20
  40d5fc:	48 09 d0             	or     rax,rdx
  40d5ff:	e9 c4 f1 ff ff       	jmp    40c7c8 <__gdtoa+0x538>
  40d604:	41 8b 4c 24 08       	mov    ecx,DWORD PTR [r12+0x8]
  40d609:	e8 c2 05 00 00       	call   40dbd0 <__Balloc_D2A>
  40d60e:	49 8d 54 24 10       	lea    rdx,[r12+0x10]
  40d613:	49 89 c6             	mov    r14,rax
  40d616:	48 8d 48 10          	lea    rcx,[rax+0x10]
  40d61a:	49 63 44 24 14       	movsxd rax,DWORD PTR [r12+0x14]
  40d61f:	4c 8d 04 85 08 00 00 	lea    r8,[rax*4+0x8]
  40d626:	00 
  40d627:	e8 0c 12 00 00       	call   40e838 <memcpy>
  40d62c:	4c 89 f1             	mov    rcx,r14
  40d62f:	ba 01 00 00 00       	mov    edx,0x1
  40d634:	e8 d7 0b 00 00       	call   40e210 <__lshift_D2A>
  40d639:	49 89 c6             	mov    r14,rax
  40d63c:	e9 27 f8 ff ff       	jmp    40ce68 <__gdtoa+0xbd8>
  40d641:	8b 47 04             	mov    eax,DWORD PTR [rdi+0x4]
  40d644:	83 c0 01             	add    eax,0x1
  40d647:	3b 44 24 40          	cmp    eax,DWORD PTR [rsp+0x40]
  40d64b:	0f 8d ad f4 ff ff    	jge    40cafe <__gdtoa+0x86e>
  40d651:	83 44 24 60 01       	add    DWORD PTR [rsp+0x60],0x1
  40d656:	83 44 24 50 01       	add    DWORD PTR [rsp+0x50],0x1
  40d65b:	c7 44 24 74 01 00 00 	mov    DWORD PTR [rsp+0x74],0x1
  40d662:	00 
  40d663:	e9 96 f4 ff ff       	jmp    40cafe <__gdtoa+0x86e>
  40d668:	c7 44 24 50 02 00 00 	mov    DWORD PTR [rsp+0x50],0x2
  40d66f:	00 
  40d670:	48 8b 5c 24 58       	mov    rbx,QWORD PTR [rsp+0x58]
  40d675:	45 31 ed             	xor    r13d,r13d
  40d678:	45 31 e4             	xor    r12d,r12d
  40d67b:	e9 41 f5 ff ff       	jmp    40cbc1 <__gdtoa+0x931>
  40d680:	48 8b 74 24 68       	mov    rsi,QWORD PTR [rsp+0x68]
  40d685:	83 fb 39             	cmp    ebx,0x39
  40d688:	0f 84 e9 00 00 00    	je     40d777 <__gdtoa+0x14e7>
  40d68e:	48 8b 44 24 40       	mov    rax,QWORD PTR [rsp+0x40]
  40d693:	83 c3 01             	add    ebx,0x1
  40d696:	4c 89 e7             	mov    rdi,r12
  40d699:	c7 44 24 48 20 00 00 	mov    DWORD PTR [rsp+0x48],0x20
  40d6a0:	00 
  40d6a1:	4d 89 f4             	mov    r12,r14
  40d6a4:	88 18                	mov    BYTE PTR [rax],bl
  40d6a6:	e9 45 f9 ff ff       	jmp    40cff0 <__gdtoa+0xd60>
  40d6ab:	4c 89 e7             	mov    rdi,r12
  40d6ae:	48 8b 74 24 68       	mov    rsi,QWORD PTR [rsp+0x68]
  40d6b3:	4d 89 f4             	mov    r12,r14
  40d6b6:	e9 b0 fa ff ff       	jmp    40d16b <__gdtoa+0xedb>
  40d6bb:	8b 47 04             	mov    eax,DWORD PTR [rdi+0x4]
  40d6be:	83 c0 01             	add    eax,0x1
  40d6c1:	39 44 24 40          	cmp    DWORD PTR [rsp+0x40],eax
  40d6c5:	7f 8a                	jg     40d651 <__gdtoa+0x13c1>
  40d6c7:	e9 3f f7 ff ff       	jmp    40ce0b <__gdtoa+0xb7b>
  40d6cc:	41 29 dc             	sub    r12d,ebx
  40d6cf:	44 89 e9             	mov    ecx,r13d
  40d6d2:	8b 57 04             	mov    edx,DWORD PTR [rdi+0x4]
  40d6d5:	45 31 f6             	xor    r14d,r14d
  40d6d8:	41 8d 44 24 01       	lea    eax,[r12+0x1]
  40d6dd:	44 29 e1             	sub    ecx,r12d
  40d6e0:	c7 84 24 8c 00 00 00 	mov    DWORD PTR [rsp+0x8c],0xffffffff
  40d6e7:	ff ff ff ff 
  40d6eb:	89 84 24 9c 00 00 00 	mov    DWORD PTR [rsp+0x9c],eax
  40d6f2:	c7 44 24 4c ff ff ff 	mov    DWORD PTR [rsp+0x4c],0xffffffff
  40d6f9:	ff 
  40d6fa:	39 d1                	cmp    ecx,edx
  40d6fc:	0f 8c be f2 ff ff    	jl     40c9c0 <__gdtoa+0x730>
  40d702:	e9 f8 f2 ff ff       	jmp    40c9ff <__gdtoa+0x76f>
  40d707:	83 44 24 50 01       	add    DWORD PTR [rsp+0x50],0x1
  40d70c:	ba 31 00 00 00       	mov    edx,0x31
  40d711:	48 89 4c 24 58       	mov    QWORD PTR [rsp+0x58],rcx
  40d716:	c6 03 30             	mov    BYTE PTR [rbx],0x30
  40d719:	e9 ab f1 ff ff       	jmp    40c8c9 <__gdtoa+0x639>
  40d71e:	85 c0                	test   eax,eax
  40d720:	7e 37                	jle    40d759 <__gdtoa+0x14c9>
  40d722:	4c 89 f9             	mov    rcx,r15
  40d725:	ba 01 00 00 00       	mov    edx,0x1
  40d72a:	e8 e1 0a 00 00       	call   40e210 <__lshift_D2A>
  40d72f:	4c 89 ea             	mov    rdx,r13
  40d732:	48 89 c1             	mov    rcx,rax
  40d735:	49 89 c7             	mov    r15,rax
  40d738:	e8 e3 0b 00 00       	call   40e320 <__cmp_D2A>
  40d73d:	85 c0                	test   eax,eax
  40d73f:	0f 8e ab 01 00 00    	jle    40d8f0 <__gdtoa+0x1660>
  40d745:	83 fb 39             	cmp    ebx,0x39
  40d748:	74 2d                	je     40d777 <__gdtoa+0x14e7>
  40d74a:	8b 5c 24 20          	mov    ebx,DWORD PTR [rsp+0x20]
  40d74e:	c7 44 24 54 20 00 00 	mov    DWORD PTR [rsp+0x54],0x20
  40d755:	00 
  40d756:	83 c3 31             	add    ebx,0x31
  40d759:	41 83 7f 14 01       	cmp    DWORD PTR [r15+0x14],0x1
  40d75e:	0f 8e 65 01 00 00    	jle    40d8c9 <__gdtoa+0x1639>
  40d764:	4c 89 e7             	mov    rdi,r12
  40d767:	c7 44 24 48 10 00 00 	mov    DWORD PTR [rsp+0x48],0x10
  40d76e:	00 
  40d76f:	4d 89 f4             	mov    r12,r14
  40d772:	e9 02 fd ff ff       	jmp    40d479 <__gdtoa+0x11e9>
  40d777:	48 8b 44 24 40       	mov    rax,QWORD PTR [rsp+0x40]
  40d77c:	4c 89 e7             	mov    rdi,r12
  40d77f:	48 8b 4c 24 58       	mov    rcx,QWORD PTR [rsp+0x58]
  40d784:	4d 89 f4             	mov    r12,r14
  40d787:	ba 39 00 00 00       	mov    edx,0x39
  40d78c:	c6 00 39             	mov    BYTE PTR [rax],0x39
  40d78f:	e9 1c fa ff ff       	jmp    40d1b0 <__gdtoa+0xf20>
  40d794:	8b 44 24 40          	mov    eax,DWORD PTR [rsp+0x40]
  40d798:	89 44 24 70          	mov    DWORD PTR [rsp+0x70],eax
  40d79c:	8b 84 24 8c 00 00 00 	mov    eax,DWORD PTR [rsp+0x8c]
  40d7a3:	89 44 24 4c          	mov    DWORD PTR [rsp+0x4c],eax
  40d7a7:	e9 d3 f3 ff ff       	jmp    40cb7f <__gdtoa+0x8ef>
  40d7ac:	48 8b 5c 24 58       	mov    rbx,QWORD PTR [rsp+0x58]
  40d7b1:	48 89 6c 24 58       	mov    QWORD PTR [rsp+0x58],rbp
  40d7b6:	e9 24 f4 ff ff       	jmp    40cbdf <__gdtoa+0x94f>
  40d7bb:	f2 0f 58 c0          	addsd  xmm0,xmm0
  40d7bf:	0f b6 50 ff          	movzx  edx,BYTE PTR [rax-0x1]
  40d7c3:	66 0f 2f c2          	comisd xmm0,xmm2
  40d7c7:	0f 87 ef 00 00 00    	ja     40d8bc <__gdtoa+0x162c>
  40d7cd:	66 0f 2e c2          	ucomisd xmm0,xmm2
  40d7d1:	48 8b 5c 24 58       	mov    rbx,QWORD PTR [rsp+0x58]
  40d7d6:	7a 0b                	jp     40d7e3 <__gdtoa+0x1553>
  40d7d8:	75 09                	jne    40d7e3 <__gdtoa+0x1553>
  40d7da:	80 e1 01             	and    cl,0x1
  40d7dd:	0f 85 d2 f0 ff ff    	jne    40c8b5 <__gdtoa+0x625>
  40d7e3:	c7 44 24 48 10 00 00 	mov    DWORD PTR [rsp+0x48],0x10
  40d7ea:	00 
  40d7eb:	e9 80 fd ff ff       	jmp    40d570 <__gdtoa+0x12e0>
  40d7f0:	66 0f 2e c6          	ucomisd xmm0,xmm6
  40d7f4:	8d 7d 01             	lea    edi,[rbp+0x1]
  40d7f7:	48 8b 5c 24 58       	mov    rbx,QWORD PTR [rsp+0x58]
  40d7fc:	48 89 44 24 58       	mov    QWORD PTR [rsp+0x58],rax
  40d801:	89 7c 24 50          	mov    DWORD PTR [rsp+0x50],edi
  40d805:	0f 8a 99 fc ff ff    	jp     40d4a4 <__gdtoa+0x1214>
  40d80b:	66 0f 2f c6          	comisd xmm0,xmm6
  40d80f:	0f 85 8f fc ff ff    	jne    40d4a4 <__gdtoa+0x1214>
  40d815:	c7 44 24 48 00 00 00 	mov    DWORD PTR [rsp+0x48],0x0
  40d81c:	00 
  40d81d:	e9 c5 f3 ff ff       	jmp    40cbe7 <__gdtoa+0x957>
  40d822:	8d 7d 01             	lea    edi,[rbp+0x1]
  40d825:	48 8b 5c 24 58       	mov    rbx,QWORD PTR [rsp+0x58]
  40d82a:	48 89 c1             	mov    rcx,rax
  40d82d:	89 7c 24 50          	mov    DWORD PTR [rsp+0x50],edi
  40d831:	e9 82 f0 ff ff       	jmp    40c8b8 <__gdtoa+0x628>
  40d836:	66 0f 10 c8          	movupd xmm1,xmm0
  40d83a:	e9 e8 fc ff ff       	jmp    40d527 <__gdtoa+0x1297>
  40d83f:	4c 89 e1             	mov    rcx,r12
  40d842:	45 31 c0             	xor    r8d,r8d
  40d845:	ba 0a 00 00 00       	mov    edx,0xa
  40d84a:	e8 f1 04 00 00       	call   40dd40 <__multadd_D2A>
  40d84f:	49 89 c4             	mov    r12,rax
  40d852:	84 db                	test   bl,bl
  40d854:	0f 85 3a ff ff ff    	jne    40d794 <__gdtoa+0x1504>
  40d85a:	8b 44 24 70          	mov    eax,DWORD PTR [rsp+0x70]
  40d85e:	89 44 24 50          	mov    DWORD PTR [rsp+0x50],eax
  40d862:	8b 84 24 8c 00 00 00 	mov    eax,DWORD PTR [rsp+0x8c]
  40d869:	89 44 24 4c          	mov    DWORD PTR [rsp+0x4c],eax
  40d86d:	e9 d5 f5 ff ff       	jmp    40ce47 <__gdtoa+0xbb7>
  40d872:	41 8b 4f 18          	mov    ecx,DWORD PTR [r15+0x18]
  40d876:	b8 10 00 00 00       	mov    eax,0x10
  40d87b:	85 c9                	test   ecx,ecx
  40d87d:	0f 44 44 24 48       	cmove  eax,DWORD PTR [rsp+0x48]
  40d882:	89 44 24 48          	mov    DWORD PTR [rsp+0x48],eax
  40d886:	e9 4c f9 ff ff       	jmp    40d1d7 <__gdtoa+0xf47>
  40d88b:	0f b6 50 ff          	movzx  edx,BYTE PTR [rax-0x1]
  40d88f:	48 8b 5c 24 58       	mov    rbx,QWORD PTR [rsp+0x58]
  40d894:	48 89 c1             	mov    rcx,rax
  40d897:	e9 1c f0 ff ff       	jmp    40c8b8 <__gdtoa+0x628>
  40d89c:	45 8b 57 18          	mov    r10d,DWORD PTR [r15+0x18]
  40d8a0:	45 85 d2             	test   r10d,r10d
  40d8a3:	0f 85 2b fb ff ff    	jne    40d3d4 <__gdtoa+0x1144>
  40d8a9:	85 c0                	test   eax,eax
  40d8ab:	0f 8f 71 fe ff ff    	jg     40d722 <__gdtoa+0x1492>
  40d8b1:	4c 89 e7             	mov    rdi,r12
  40d8b4:	4d 89 f4             	mov    r12,r14
  40d8b7:	e9 bd fb ff ff       	jmp    40d479 <__gdtoa+0x11e9>
  40d8bc:	48 8b 5c 24 58       	mov    rbx,QWORD PTR [rsp+0x58]
  40d8c1:	48 89 c1             	mov    rcx,rax
  40d8c4:	e9 ef ef ff ff       	jmp    40c8b8 <__gdtoa+0x628>
  40d8c9:	45 8b 4f 18          	mov    r9d,DWORD PTR [r15+0x18]
  40d8cd:	4c 89 e7             	mov    rdi,r12
  40d8d0:	4d 89 f4             	mov    r12,r14
  40d8d3:	45 85 c9             	test   r9d,r9d
  40d8d6:	74 41                	je     40d919 <__gdtoa+0x1689>
  40d8d8:	c7 44 24 48 10 00 00 	mov    DWORD PTR [rsp+0x48],0x10
  40d8df:	00 
  40d8e0:	e9 94 fb ff ff       	jmp    40d479 <__gdtoa+0x11e9>
  40d8e5:	0f 84 ea f9 ff ff    	je     40d2d5 <__gdtoa+0x1045>
  40d8eb:	e9 89 f9 ff ff       	jmp    40d279 <__gdtoa+0xfe9>
  40d8f0:	75 09                	jne    40d8fb <__gdtoa+0x166b>
  40d8f2:	f6 c3 01             	test   bl,0x1
  40d8f5:	0f 85 4a fe ff ff    	jne    40d745 <__gdtoa+0x14b5>
  40d8fb:	c7 44 24 54 20 00 00 	mov    DWORD PTR [rsp+0x54],0x20
  40d902:	00 
  40d903:	e9 51 fe ff ff       	jmp    40d759 <__gdtoa+0x14c9>
  40d908:	c7 44 24 48 00 00 00 	mov    DWORD PTR [rsp+0x48],0x0
  40d90f:	00 
  40d910:	44 8d 45 01          	lea    r8d,[rbp+0x1]
  40d914:	e9 57 fc ff ff       	jmp    40d570 <__gdtoa+0x12e0>
  40d919:	8b 44 24 54          	mov    eax,DWORD PTR [rsp+0x54]
  40d91d:	89 44 24 48          	mov    DWORD PTR [rsp+0x48],eax
  40d921:	e9 53 fb ff ff       	jmp    40d479 <__gdtoa+0x11e9>
  40d926:	41 83 7f 14 01       	cmp    DWORD PTR [r15+0x14],0x1
  40d92b:	7e 0a                	jle    40d937 <__gdtoa+0x16a7>
  40d92d:	b8 10 00 00 00       	mov    eax,0x10
  40d932:	e9 a2 f6 ff ff       	jmp    40cfd9 <__gdtoa+0xd49>
  40d937:	41 83 7f 18 00       	cmp    DWORD PTR [r15+0x18],0x0
  40d93c:	ba 10 00 00 00       	mov    edx,0x10
  40d941:	0f 45 c2             	cmovne eax,edx
  40d944:	e9 90 f6 ff ff       	jmp    40cfd9 <__gdtoa+0xd49>
  40d949:	89 e8                	mov    eax,ebp
  40d94b:	e9 4d f5 ff ff       	jmp    40ce9d <__gdtoa+0xc0d>

000000000040d950 <__rshift_D2A>:
  40d950:	41 54                	push   r12
  40d952:	55                   	push   rbp
  40d953:	57                   	push   rdi
  40d954:	56                   	push   rsi
  40d955:	53                   	push   rbx
  40d956:	48 63 59 14          	movsxd rbx,DWORD PTR [rcx+0x14]
  40d95a:	89 d5                	mov    ebp,edx
  40d95c:	49 89 ca             	mov    r10,rcx
  40d95f:	41 89 d1             	mov    r9d,edx
  40d962:	c1 fd 05             	sar    ebp,0x5
  40d965:	39 eb                	cmp    ebx,ebp
  40d967:	7e 7f                	jle    40d9e8 <__rshift_D2A+0x98>
  40d969:	4c 8d 61 18          	lea    r12,[rcx+0x18]
  40d96d:	48 63 ed             	movsxd rbp,ebp
  40d970:	4d 8d 1c 9c          	lea    r11,[r12+rbx*4]
  40d974:	49 8d 34 ac          	lea    rsi,[r12+rbp*4]
  40d978:	41 83 e1 1f          	and    r9d,0x1f
  40d97c:	0f 84 7e 00 00 00    	je     40da00 <__rshift_D2A+0xb0>
  40d982:	8b 06                	mov    eax,DWORD PTR [rsi]
  40d984:	44 89 c9             	mov    ecx,r9d
  40d987:	bf 20 00 00 00       	mov    edi,0x20
  40d98c:	48 8d 56 04          	lea    rdx,[rsi+0x4]
  40d990:	44 29 cf             	sub    edi,r9d
  40d993:	d3 e8                	shr    eax,cl
  40d995:	41 89 c0             	mov    r8d,eax
  40d998:	49 39 d3             	cmp    r11,rdx
  40d99b:	0f 86 97 00 00 00    	jbe    40da38 <__rshift_D2A+0xe8>
  40d9a1:	4c 89 e6             	mov    rsi,r12
  40d9a4:	0f 1f 40 00          	nop    DWORD PTR [rax+0x0]
  40d9a8:	8b 02                	mov    eax,DWORD PTR [rdx]
  40d9aa:	89 f9                	mov    ecx,edi
  40d9ac:	48 83 c6 04          	add    rsi,0x4
  40d9b0:	48 83 c2 04          	add    rdx,0x4
  40d9b4:	d3 e0                	shl    eax,cl
  40d9b6:	44 89 c9             	mov    ecx,r9d
  40d9b9:	44 09 c0             	or     eax,r8d
  40d9bc:	89 46 fc             	mov    DWORD PTR [rsi-0x4],eax
  40d9bf:	44 8b 42 fc          	mov    r8d,DWORD PTR [rdx-0x4]
  40d9c3:	41 d3 e8             	shr    r8d,cl
  40d9c6:	49 39 d3             	cmp    r11,rdx
  40d9c9:	77 dd                	ja     40d9a8 <__rshift_D2A+0x58>
  40d9cb:	48 29 eb             	sub    rbx,rbp
  40d9ce:	49 8d 44 9c fc       	lea    rax,[r12+rbx*4-0x4]
  40d9d3:	44 89 00             	mov    DWORD PTR [rax],r8d
  40d9d6:	45 85 c0             	test   r8d,r8d
  40d9d9:	74 42                	je     40da1d <__rshift_D2A+0xcd>
  40d9db:	48 83 c0 04          	add    rax,0x4
  40d9df:	eb 3c                	jmp    40da1d <__rshift_D2A+0xcd>
  40d9e1:	0f 1f 80 00 00 00 00 	nop    DWORD PTR [rax+0x0]
  40d9e8:	41 c7 42 14 00 00 00 	mov    DWORD PTR [r10+0x14],0x0
  40d9ef:	00 
  40d9f0:	41 c7 42 18 00 00 00 	mov    DWORD PTR [r10+0x18],0x0
  40d9f7:	00 
  40d9f8:	5b                   	pop    rbx
  40d9f9:	5e                   	pop    rsi
  40d9fa:	5f                   	pop    rdi
  40d9fb:	5d                   	pop    rbp
  40d9fc:	41 5c                	pop    r12
  40d9fe:	c3                   	ret
  40d9ff:	90                   	nop
  40da00:	4c 89 e7             	mov    rdi,r12
  40da03:	49 39 f3             	cmp    r11,rsi
  40da06:	76 e0                	jbe    40d9e8 <__rshift_D2A+0x98>
  40da08:	0f 1f 84 00 00 00 00 	nop    DWORD PTR [rax+rax*1+0x0]
  40da0f:	00 
  40da10:	a5                   	movs   DWORD PTR es:[rdi],DWORD PTR ds:[rsi]
  40da11:	49 39 f3             	cmp    r11,rsi
  40da14:	77 fa                	ja     40da10 <__rshift_D2A+0xc0>
  40da16:	48 29 eb             	sub    rbx,rbp
  40da19:	49 8d 04 9c          	lea    rax,[r12+rbx*4]
  40da1d:	4c 29 e0             	sub    rax,r12
  40da20:	48 c1 f8 02          	sar    rax,0x2
  40da24:	41 89 42 14          	mov    DWORD PTR [r10+0x14],eax
  40da28:	85 c0                	test   eax,eax
  40da2a:	74 c4                	je     40d9f0 <__rshift_D2A+0xa0>
  40da2c:	5b                   	pop    rbx
  40da2d:	5e                   	pop    rsi
  40da2e:	5f                   	pop    rdi
  40da2f:	5d                   	pop    rbp
  40da30:	41 5c                	pop    r12
  40da32:	c3                   	ret
  40da33:	0f 1f 44 00 00       	nop    DWORD PTR [rax+rax*1+0x0]
  40da38:	41 89 42 18          	mov    DWORD PTR [r10+0x18],eax
  40da3c:	85 c0                	test   eax,eax
  40da3e:	74 a8                	je     40d9e8 <__rshift_D2A+0x98>
  40da40:	4c 89 e0             	mov    rax,r12
  40da43:	eb 96                	jmp    40d9db <__rshift_D2A+0x8b>
  40da45:	66 66 2e 0f 1f 84 00 	data16 cs nop WORD PTR [rax+rax*1+0x0]
  40da4c:	00 00 00 00 

000000000040da50 <__trailz_D2A>:
  40da50:	45 31 c0             	xor    r8d,r8d
  40da53:	48 63 51 14          	movsxd rdx,DWORD PTR [rcx+0x14]
  40da57:	48 8d 41 18          	lea    rax,[rcx+0x18]
  40da5b:	48 8d 0c 90          	lea    rcx,[rax+rdx*4]
  40da5f:	48 39 c8             	cmp    rax,rcx
  40da62:	72 19                	jb     40da7d <__trailz_D2A+0x2d>
  40da64:	eb 29                	jmp    40da8f <__trailz_D2A+0x3f>
  40da66:	66 2e 0f 1f 84 00 00 	cs nop WORD PTR [rax+rax*1+0x0]
  40da6d:	00 00 00 
  40da70:	48 83 c0 04          	add    rax,0x4
  40da74:	41 83 c0 20          	add    r8d,0x20
  40da78:	48 39 c1             	cmp    rcx,rax
  40da7b:	76 12                	jbe    40da8f <__trailz_D2A+0x3f>
  40da7d:	8b 10                	mov    edx,DWORD PTR [rax]
  40da7f:	85 d2                	test   edx,edx
  40da81:	74 ed                	je     40da70 <__trailz_D2A+0x20>
  40da83:	48 39 c1             	cmp    rcx,rax
  40da86:	76 07                	jbe    40da8f <__trailz_D2A+0x3f>
  40da88:	f3 0f bc d2          	tzcnt  edx,edx
  40da8c:	41 01 d0             	add    r8d,edx
  40da8f:	44 89 c0             	mov    eax,r8d
  40da92:	c3                   	ret
  40da93:	90                   	nop
  40da94:	90                   	nop
  40da95:	90                   	nop
  40da96:	90                   	nop
  40da97:	90                   	nop
  40da98:	90                   	nop
  40da99:	90                   	nop
  40da9a:	90                   	nop
  40da9b:	90                   	nop
  40da9c:	90                   	nop
  40da9d:	90                   	nop
  40da9e:	90                   	nop
  40da9f:	90                   	nop

000000000040daa0 <dtoa_lock>:
  40daa0:	56                   	push   rsi
  40daa1:	53                   	push   rbx
  40daa2:	48 83 ec 28          	sub    rsp,0x28
  40daa6:	8b 05 64 80 00 00    	mov    eax,DWORD PTR [rip+0x8064]        # 415b10 <dtoa_CS_init>
  40daac:	89 ce                	mov    esi,ecx
  40daae:	83 f8 02             	cmp    eax,0x2
  40dab1:	74 7b                	je     40db2e <dtoa_lock+0x8e>
  40dab3:	85 c0                	test   eax,eax
  40dab5:	74 39                	je     40daf0 <dtoa_lock+0x50>
  40dab7:	83 f8 01             	cmp    eax,0x1
  40daba:	75 23                	jne    40dadf <dtoa_lock+0x3f>
  40dabc:	48 8b 1d f1 87 00 00 	mov    rbx,QWORD PTR [rip+0x87f1]        # 4162b4 <__imp_Sleep>
  40dac3:	0f 1f 44 00 00       	nop    DWORD PTR [rax+rax*1+0x0]
  40dac8:	b9 01 00 00 00       	mov    ecx,0x1
  40dacd:	ff d3                	call   rbx
  40dacf:	8b 05 3b 80 00 00    	mov    eax,DWORD PTR [rip+0x803b]        # 415b10 <dtoa_CS_init>
  40dad5:	83 f8 01             	cmp    eax,0x1
  40dad8:	74 ee                	je     40dac8 <dtoa_lock+0x28>
  40dada:	83 f8 02             	cmp    eax,0x2
  40dadd:	74 4f                	je     40db2e <dtoa_lock+0x8e>
  40dadf:	48 83 c4 28          	add    rsp,0x28
  40dae3:	5b                   	pop    rbx
  40dae4:	5e                   	pop    rsi
  40dae5:	c3                   	ret
  40dae6:	66 2e 0f 1f 84 00 00 	cs nop WORD PTR [rax+rax*1+0x0]
  40daed:	00 00 00 
  40daf0:	b8 01 00 00 00       	mov    eax,0x1
  40daf5:	87 05 15 80 00 00    	xchg   DWORD PTR [rip+0x8015],eax        # 415b10 <dtoa_CS_init>
  40dafb:	85 c0                	test   eax,eax
  40dafd:	75 51                	jne    40db50 <dtoa_lock+0xb0>
  40daff:	48 8b 1d 6e 87 00 00 	mov    rbx,QWORD PTR [rip+0x876e]        # 416274 <__imp_InitializeCriticalSection>
  40db06:	48 8d 0d 13 80 00 00 	lea    rcx,[rip+0x8013]        # 415b20 <dtoa_CritSec>
  40db0d:	ff d3                	call   rbx
  40db0f:	48 8d 0d 32 80 00 00 	lea    rcx,[rip+0x8032]        # 415b48 <dtoa_CritSec+0x28>
  40db16:	ff d3                	call   rbx
  40db18:	48 8d 0d 61 00 00 00 	lea    rcx,[rip+0x61]        # 40db80 <dtoa_lock_cleanup>
  40db1f:	e8 dc 39 ff ff       	call   401500 <atexit>
  40db24:	c7 05 e2 7f 00 00 02 	mov    DWORD PTR [rip+0x7fe2],0x2        # 415b10 <dtoa_CS_init>
  40db2b:	00 00 00 
  40db2e:	48 63 ce             	movsxd rcx,esi
  40db31:	48 8d 05 e8 7f 00 00 	lea    rax,[rip+0x7fe8]        # 415b20 <dtoa_CritSec>
  40db38:	48 8d 14 89          	lea    rdx,[rcx+rcx*4]
  40db3c:	48 8d 0c d0          	lea    rcx,[rax+rdx*8]
  40db40:	48 83 c4 28          	add    rsp,0x28
  40db44:	5b                   	pop    rbx
  40db45:	5e                   	pop    rsi
  40db46:	48 ff 25 ff 86 00 00 	rex.W jmp QWORD PTR [rip+0x86ff]        # 41624c <__imp_EnterCriticalSection>
  40db4d:	0f 1f 00             	nop    DWORD PTR [rax]
  40db50:	83 f8 02             	cmp    eax,0x2
  40db53:	74 1b                	je     40db70 <dtoa_lock+0xd0>
  40db55:	8b 05 b5 7f 00 00    	mov    eax,DWORD PTR [rip+0x7fb5]        # 415b10 <dtoa_CS_init>
  40db5b:	83 f8 01             	cmp    eax,0x1
  40db5e:	0f 84 58 ff ff ff    	je     40dabc <dtoa_lock+0x1c>
  40db64:	e9 71 ff ff ff       	jmp    40dada <dtoa_lock+0x3a>
  40db69:	0f 1f 80 00 00 00 00 	nop    DWORD PTR [rax+0x0]
  40db70:	c7 05 96 7f 00 00 02 	mov    DWORD PTR [rip+0x7f96],0x2        # 415b10 <dtoa_CS_init>
  40db77:	00 00 00 
  40db7a:	eb b2                	jmp    40db2e <dtoa_lock+0x8e>
  40db7c:	0f 1f 40 00          	nop    DWORD PTR [rax+0x0]

000000000040db80 <dtoa_lock_cleanup>:
  40db80:	53                   	push   rbx
  40db81:	48 83 ec 20          	sub    rsp,0x20
  40db85:	b8 03 00 00 00       	mov    eax,0x3
  40db8a:	87 05 80 7f 00 00    	xchg   DWORD PTR [rip+0x7f80],eax        # 415b10 <dtoa_CS_init>
  40db90:	83 f8 02             	cmp    eax,0x2
  40db93:	74 0b                	je     40dba0 <dtoa_lock_cleanup+0x20>
  40db95:	48 83 c4 20          	add    rsp,0x20
  40db99:	5b                   	pop    rbx
  40db9a:	c3                   	ret
  40db9b:	0f 1f 44 00 00       	nop    DWORD PTR [rax+rax*1+0x0]
  40dba0:	48 8b 1d 9d 86 00 00 	mov    rbx,QWORD PTR [rip+0x869d]        # 416244 <__imp_DeleteCriticalSection>
  40dba7:	48 8d 0d 72 7f 00 00 	lea    rcx,[rip+0x7f72]        # 415b20 <dtoa_CritSec>
  40dbae:	ff d3                	call   rbx
  40dbb0:	48 8d 0d 91 7f 00 00 	lea    rcx,[rip+0x7f91]        # 415b48 <dtoa_CritSec+0x28>
  40dbb7:	48 89 d8             	mov    rax,rbx
  40dbba:	48 83 c4 20          	add    rsp,0x20
  40dbbe:	5b                   	pop    rbx
  40dbbf:	48 ff e0             	rex.W jmp rax
  40dbc2:	66 66 2e 0f 1f 84 00 	data16 cs nop WORD PTR [rax+rax*1+0x0]
  40dbc9:	00 00 00 00 
  40dbcd:	0f 1f 00             	nop    DWORD PTR [rax]

000000000040dbd0 <__Balloc_D2A>:
  40dbd0:	56                   	push   rsi
  40dbd1:	53                   	push   rbx
  40dbd2:	48 83 ec 38          	sub    rsp,0x38
  40dbd6:	89 cb                	mov    ebx,ecx
  40dbd8:	31 c9                	xor    ecx,ecx
  40dbda:	e8 c1 fe ff ff       	call   40daa0 <dtoa_lock>
  40dbdf:	83 fb 09             	cmp    ebx,0x9
  40dbe2:	7e 4c                	jle    40dc30 <__Balloc_D2A+0x60>
  40dbe4:	89 d9                	mov    ecx,ebx
  40dbe6:	be 01 00 00 00       	mov    esi,0x1
  40dbeb:	d3 e6                	shl    esi,cl
  40dbed:	48 63 c6             	movsxd rax,esi
  40dbf0:	48 8d 0c 85 23 00 00 	lea    rcx,[rax*4+0x23]
  40dbf7:	00 
  40dbf8:	48 b8 f8 ff ff ff 07 	movabs rax,0x7fffffff8
  40dbff:	00 00 00 
  40dc02:	48 21 c1             	and    rcx,rax
  40dc05:	e8 36 0c 00 00       	call   40e840 <malloc>
  40dc0a:	48 85 c0             	test   rax,rax
  40dc0d:	74 17                	je     40dc26 <__Balloc_D2A+0x56>
  40dc0f:	83 3d fa 7e 00 00 02 	cmp    DWORD PTR [rip+0x7efa],0x2        # 415b10 <dtoa_CS_init>
  40dc16:	89 58 08             	mov    DWORD PTR [rax+0x8],ebx
  40dc19:	89 70 0c             	mov    DWORD PTR [rax+0xc],esi
  40dc1c:	74 35                	je     40dc53 <__Balloc_D2A+0x83>
  40dc1e:	48 c7 40 10 00 00 00 	mov    QWORD PTR [rax+0x10],0x0
  40dc25:	00 
  40dc26:	48 83 c4 38          	add    rsp,0x38
  40dc2a:	5b                   	pop    rbx
  40dc2b:	5e                   	pop    rsi
  40dc2c:	c3                   	ret
  40dc2d:	0f 1f 00             	nop    DWORD PTR [rax]
  40dc30:	48 8d 15 89 7e 00 00 	lea    rdx,[rip+0x7e89]        # 415ac0 <freelist>
  40dc37:	48 63 cb             	movsxd rcx,ebx
  40dc3a:	48 8b 04 ca          	mov    rax,QWORD PTR [rdx+rcx*8]
  40dc3e:	48 85 c0             	test   rax,rax
  40dc41:	74 2d                	je     40dc70 <__Balloc_D2A+0xa0>
  40dc43:	4c 8b 00             	mov    r8,QWORD PTR [rax]
  40dc46:	83 3d c3 7e 00 00 02 	cmp    DWORD PTR [rip+0x7ec3],0x2        # 415b10 <dtoa_CS_init>
  40dc4d:	4c 89 04 ca          	mov    QWORD PTR [rdx+rcx*8],r8
  40dc51:	75 cb                	jne    40dc1e <__Balloc_D2A+0x4e>
  40dc53:	48 89 44 24 28       	mov    QWORD PTR [rsp+0x28],rax
  40dc58:	48 8d 0d c1 7e 00 00 	lea    rcx,[rip+0x7ec1]        # 415b20 <dtoa_CritSec>
  40dc5f:	ff 15 1f 86 00 00    	call   QWORD PTR [rip+0x861f]        # 416284 <__imp_LeaveCriticalSection>
  40dc65:	48 8b 44 24 28       	mov    rax,QWORD PTR [rsp+0x28]
  40dc6a:	eb b2                	jmp    40dc1e <__Balloc_D2A+0x4e>
  40dc6c:	0f 1f 40 00          	nop    DWORD PTR [rax+0x0]
  40dc70:	89 d9                	mov    ecx,ebx
  40dc72:	be 01 00 00 00       	mov    esi,0x1
  40dc77:	48 8b 05 02 24 00 00 	mov    rax,QWORD PTR [rip+0x2402]        # 410080 <pmem_next>
  40dc7e:	4c 8d 05 3b 75 00 00 	lea    r8,[rip+0x753b]        # 4151c0 <private_mem>
  40dc85:	d3 e6                	shl    esi,cl
  40dc87:	48 63 d6             	movsxd rdx,esi
  40dc8a:	48 89 c1             	mov    rcx,rax
  40dc8d:	48 8d 14 95 23 00 00 	lea    rdx,[rdx*4+0x23]
  40dc94:	00 
  40dc95:	4c 29 c1             	sub    rcx,r8
  40dc98:	48 c1 ea 03          	shr    rdx,0x3
  40dc9c:	48 c1 f9 03          	sar    rcx,0x3
  40dca0:	89 d2                	mov    edx,edx
  40dca2:	48 01 d1             	add    rcx,rdx
  40dca5:	48 81 f9 20 01 00 00 	cmp    rcx,0x120
  40dcac:	0f 87 32 ff ff ff    	ja     40dbe4 <__Balloc_D2A+0x14>
  40dcb2:	48 8d 14 d0          	lea    rdx,[rax+rdx*8]
  40dcb6:	48 89 15 c3 23 00 00 	mov    QWORD PTR [rip+0x23c3],rdx        # 410080 <pmem_next>
  40dcbd:	e9 4d ff ff ff       	jmp    40dc0f <__Balloc_D2A+0x3f>
  40dcc2:	66 66 2e 0f 1f 84 00 	data16 cs nop WORD PTR [rax+rax*1+0x0]
  40dcc9:	00 00 00 00 
  40dccd:	0f 1f 00             	nop    DWORD PTR [rax]

000000000040dcd0 <__Bfree_D2A>:
  40dcd0:	41 54                	push   r12
  40dcd2:	48 83 ec 20          	sub    rsp,0x20
  40dcd6:	49 89 cc             	mov    r12,rcx
  40dcd9:	48 85 c9             	test   rcx,rcx
  40dcdc:	74 3a                	je     40dd18 <__Bfree_D2A+0x48>
  40dcde:	83 79 08 09          	cmp    DWORD PTR [rcx+0x8],0x9
  40dce2:	7e 0c                	jle    40dcf0 <__Bfree_D2A+0x20>
  40dce4:	48 83 c4 20          	add    rsp,0x20
  40dce8:	41 5c                	pop    r12
  40dcea:	e9 69 0b 00 00       	jmp    40e858 <free>
  40dcef:	90                   	nop
  40dcf0:	31 c9                	xor    ecx,ecx
  40dcf2:	e8 a9 fd ff ff       	call   40daa0 <dtoa_lock>
  40dcf7:	49 63 54 24 08       	movsxd rdx,DWORD PTR [r12+0x8]
  40dcfc:	48 8d 05 bd 7d 00 00 	lea    rax,[rip+0x7dbd]        # 415ac0 <freelist>
  40dd03:	83 3d 06 7e 00 00 02 	cmp    DWORD PTR [rip+0x7e06],0x2        # 415b10 <dtoa_CS_init>
  40dd0a:	48 8b 0c d0          	mov    rcx,QWORD PTR [rax+rdx*8]
  40dd0e:	4c 89 24 d0          	mov    QWORD PTR [rax+rdx*8],r12
  40dd12:	49 89 0c 24          	mov    QWORD PTR [r12],rcx
  40dd16:	74 08                	je     40dd20 <__Bfree_D2A+0x50>
  40dd18:	48 83 c4 20          	add    rsp,0x20
  40dd1c:	41 5c                	pop    r12
  40dd1e:	c3                   	ret
  40dd1f:	90                   	nop
  40dd20:	48 8d 0d f9 7d 00 00 	lea    rcx,[rip+0x7df9]        # 415b20 <dtoa_CritSec>
  40dd27:	48 83 c4 20          	add    rsp,0x20
  40dd2b:	41 5c                	pop    r12
  40dd2d:	48 ff 25 50 85 00 00 	rex.W jmp QWORD PTR [rip+0x8550]        # 416284 <__imp_LeaveCriticalSection>
  40dd34:	66 66 2e 0f 1f 84 00 	data16 cs nop WORD PTR [rax+rax*1+0x0]
  40dd3b:	00 00 00 00 
  40dd3f:	90                   	nop

000000000040dd40 <__multadd_D2A>:
  40dd40:	41 55                	push   r13
  40dd42:	41 54                	push   r12
  40dd44:	56                   	push   rsi
  40dd45:	53                   	push   rbx
  40dd46:	48 83 ec 28          	sub    rsp,0x28
  40dd4a:	8b 71 14             	mov    esi,DWORD PTR [rcx+0x14]
  40dd4d:	49 89 cc             	mov    r12,rcx
  40dd50:	49 63 d8             	movsxd rbx,r8d
  40dd53:	48 63 ca             	movsxd rcx,edx
  40dd56:	31 d2                	xor    edx,edx
  40dd58:	0f 1f 84 00 00 00 00 	nop    DWORD PTR [rax+rax*1+0x0]
  40dd5f:	00 
  40dd60:	41 8b 44 94 18       	mov    eax,DWORD PTR [r12+rdx*4+0x18]
  40dd65:	48 0f af c1          	imul   rax,rcx
  40dd69:	48 01 d8             	add    rax,rbx
  40dd6c:	41 89 44 94 18       	mov    DWORD PTR [r12+rdx*4+0x18],eax
  40dd71:	48 89 c3             	mov    rbx,rax
  40dd74:	48 83 c2 01          	add    rdx,0x1
  40dd78:	48 c1 eb 20          	shr    rbx,0x20
  40dd7c:	39 d6                	cmp    esi,edx
  40dd7e:	7f e0                	jg     40dd60 <__multadd_D2A+0x20>
  40dd80:	4d 89 e5             	mov    r13,r12
  40dd83:	48 85 db             	test   rbx,rbx
  40dd86:	74 1a                	je     40dda2 <__multadd_D2A+0x62>
  40dd88:	41 39 74 24 0c       	cmp    DWORD PTR [r12+0xc],esi
  40dd8d:	7e 21                	jle    40ddb0 <__multadd_D2A+0x70>
  40dd8f:	48 63 c6             	movsxd rax,esi
  40dd92:	83 c6 01             	add    esi,0x1
  40dd95:	4d 89 e5             	mov    r13,r12
  40dd98:	41 89 5c 84 18       	mov    DWORD PTR [r12+rax*4+0x18],ebx
  40dd9d:	41 89 74 24 14       	mov    DWORD PTR [r12+0x14],esi
  40dda2:	4c 89 e8             	mov    rax,r13
  40dda5:	48 83 c4 28          	add    rsp,0x28
  40dda9:	5b                   	pop    rbx
  40ddaa:	5e                   	pop    rsi
  40ddab:	41 5c                	pop    r12
  40ddad:	41 5d                	pop    r13
  40ddaf:	c3                   	ret
  40ddb0:	41 8b 44 24 08       	mov    eax,DWORD PTR [r12+0x8]
  40ddb5:	8d 48 01             	lea    ecx,[rax+0x1]
  40ddb8:	e8 13 fe ff ff       	call   40dbd0 <__Balloc_D2A>
  40ddbd:	49 89 c5             	mov    r13,rax
  40ddc0:	48 85 c0             	test   rax,rax
  40ddc3:	74 dd                	je     40dda2 <__multadd_D2A+0x62>
  40ddc5:	48 8d 48 10          	lea    rcx,[rax+0x10]
  40ddc9:	49 63 44 24 14       	movsxd rax,DWORD PTR [r12+0x14]
  40ddce:	49 8d 54 24 10       	lea    rdx,[r12+0x10]
  40ddd3:	4c 8d 04 85 08 00 00 	lea    r8,[rax*4+0x8]
  40ddda:	00 
  40dddb:	e8 58 0a 00 00       	call   40e838 <memcpy>
  40dde0:	4c 89 e1             	mov    rcx,r12
  40dde3:	4d 89 ec             	mov    r12,r13
  40dde6:	e8 e5 fe ff ff       	call   40dcd0 <__Bfree_D2A>
  40ddeb:	eb a2                	jmp    40dd8f <__multadd_D2A+0x4f>
  40dded:	0f 1f 00             	nop    DWORD PTR [rax]

000000000040ddf0 <__i2b_D2A>:
  40ddf0:	53                   	push   rbx
  40ddf1:	48 83 ec 30          	sub    rsp,0x30
  40ddf5:	89 cb                	mov    ebx,ecx
  40ddf7:	31 c9                	xor    ecx,ecx
  40ddf9:	e8 a2 fc ff ff       	call   40daa0 <dtoa_lock>
  40ddfe:	48 8b 05 c3 7c 00 00 	mov    rax,QWORD PTR [rip+0x7cc3]        # 415ac8 <freelist+0x8>
  40de05:	48 85 c0             	test   rax,rax
  40de08:	74 2e                	je     40de38 <__i2b_D2A+0x48>
  40de0a:	48 8b 10             	mov    rdx,QWORD PTR [rax]
  40de0d:	83 3d fc 7c 00 00 02 	cmp    DWORD PTR [rip+0x7cfc],0x2        # 415b10 <dtoa_CS_init>
  40de14:	48 89 15 ad 7c 00 00 	mov    QWORD PTR [rip+0x7cad],rdx        # 415ac8 <freelist+0x8>
  40de1b:	74 66                	je     40de83 <__i2b_D2A+0x93>
  40de1d:	89 58 18             	mov    DWORD PTR [rax+0x18],ebx
  40de20:	48 bb 00 00 00 00 01 	movabs rbx,0x100000000
  40de27:	00 00 00 
  40de2a:	48 89 58 10          	mov    QWORD PTR [rax+0x10],rbx
  40de2e:	48 83 c4 30          	add    rsp,0x30
  40de32:	5b                   	pop    rbx
  40de33:	c3                   	ret
  40de34:	0f 1f 40 00          	nop    DWORD PTR [rax+0x0]
  40de38:	48 8b 05 41 22 00 00 	mov    rax,QWORD PTR [rip+0x2241]        # 410080 <pmem_next>
  40de3f:	48 8d 0d 7a 73 00 00 	lea    rcx,[rip+0x737a]        # 4151c0 <private_mem>
  40de46:	48 89 c2             	mov    rdx,rax
  40de49:	48 29 ca             	sub    rdx,rcx
  40de4c:	48 c1 fa 03          	sar    rdx,0x3
  40de50:	48 83 c2 05          	add    rdx,0x5
  40de54:	48 81 fa 20 01 00 00 	cmp    rdx,0x120
  40de5b:	76 43                	jbe    40dea0 <__i2b_D2A+0xb0>
  40de5d:	b9 28 00 00 00       	mov    ecx,0x28
  40de62:	e8 d9 09 00 00       	call   40e840 <malloc>
  40de67:	48 85 c0             	test   rax,rax
  40de6a:	74 c2                	je     40de2e <__i2b_D2A+0x3e>
  40de6c:	48 ba 01 00 00 00 02 	movabs rdx,0x200000001
  40de73:	00 00 00 
  40de76:	83 3d 93 7c 00 00 02 	cmp    DWORD PTR [rip+0x7c93],0x2        # 415b10 <dtoa_CS_init>
  40de7d:	48 89 50 08          	mov    QWORD PTR [rax+0x8],rdx
  40de81:	75 9a                	jne    40de1d <__i2b_D2A+0x2d>
  40de83:	48 89 44 24 28       	mov    QWORD PTR [rsp+0x28],rax
  40de88:	48 8d 0d 91 7c 00 00 	lea    rcx,[rip+0x7c91]        # 415b20 <dtoa_CritSec>
  40de8f:	ff 15 ef 83 00 00    	call   QWORD PTR [rip+0x83ef]        # 416284 <__imp_LeaveCriticalSection>
  40de95:	48 8b 44 24 28       	mov    rax,QWORD PTR [rsp+0x28]
  40de9a:	eb 81                	jmp    40de1d <__i2b_D2A+0x2d>
  40de9c:	0f 1f 40 00          	nop    DWORD PTR [rax+0x0]
  40dea0:	48 8d 50 28          	lea    rdx,[rax+0x28]
  40dea4:	48 89 15 d5 21 00 00 	mov    QWORD PTR [rip+0x21d5],rdx        # 410080 <pmem_next>
  40deab:	eb bf                	jmp    40de6c <__i2b_D2A+0x7c>
  40dead:	0f 1f 00             	nop    DWORD PTR [rax]

000000000040deb0 <__mult_D2A>:
  40deb0:	41 57                	push   r15
  40deb2:	41 56                	push   r14
  40deb4:	41 55                	push   r13
  40deb6:	41 54                	push   r12
  40deb8:	55                   	push   rbp
  40deb9:	57                   	push   rdi
  40deba:	56                   	push   rsi
  40debb:	53                   	push   rbx
  40debc:	48 83 ec 28          	sub    rsp,0x28
  40dec0:	48 63 69 14          	movsxd rbp,DWORD PTR [rcx+0x14]
  40dec4:	48 63 7a 14          	movsxd rdi,DWORD PTR [rdx+0x14]
  40dec8:	49 89 cd             	mov    r13,rcx
  40decb:	49 89 d7             	mov    r15,rdx
  40dece:	39 fd                	cmp    ebp,edi
  40ded0:	7c 0e                	jl     40dee0 <__mult_D2A+0x30>
  40ded2:	89 f8                	mov    eax,edi
  40ded4:	49 89 cf             	mov    r15,rcx
  40ded7:	48 63 fd             	movsxd rdi,ebp
  40deda:	49 89 d5             	mov    r13,rdx
  40dedd:	48 63 e8             	movsxd rbp,eax
  40dee0:	31 c9                	xor    ecx,ecx
  40dee2:	8d 1c 2f             	lea    ebx,[rdi+rbp*1]
  40dee5:	41 39 5f 0c          	cmp    DWORD PTR [r15+0xc],ebx
  40dee9:	0f 9c c1             	setl   cl
  40deec:	41 03 4f 08          	add    ecx,DWORD PTR [r15+0x8]
  40def0:	e8 db fc ff ff       	call   40dbd0 <__Balloc_D2A>
  40def5:	49 89 c4             	mov    r12,rax
  40def8:	48 85 c0             	test   rax,rax
  40defb:	0f 84 f4 00 00 00    	je     40dff5 <__mult_D2A+0x145>
  40df01:	4c 8d 58 18          	lea    r11,[rax+0x18]
  40df05:	48 63 c3             	movsxd rax,ebx
  40df08:	49 8d 34 83          	lea    rsi,[r11+rax*4]
  40df0c:	49 39 f3             	cmp    r11,rsi
  40df0f:	73 23                	jae    40df34 <__mult_D2A+0x84>
  40df11:	48 89 f0             	mov    rax,rsi
  40df14:	4c 89 d9             	mov    rcx,r11
  40df17:	31 d2                	xor    edx,edx
  40df19:	4c 29 e0             	sub    rax,r12
  40df1c:	48 83 e8 19          	sub    rax,0x19
  40df20:	48 c1 e8 02          	shr    rax,0x2
  40df24:	4c 8d 04 85 04 00 00 	lea    r8,[rax*4+0x4]
  40df2b:	00 
  40df2c:	e8 ff 08 00 00       	call   40e830 <memset>
  40df31:	49 89 c3             	mov    r11,rax
  40df34:	4d 8d 4d 18          	lea    r9,[r13+0x18]
  40df38:	4d 8d 77 18          	lea    r14,[r15+0x18]
  40df3c:	49 8d 2c a9          	lea    rbp,[r9+rbp*4]
  40df40:	49 8d 3c be          	lea    rdi,[r14+rdi*4]
  40df44:	49 39 e9             	cmp    r9,rbp
  40df47:	0f 83 86 00 00 00    	jae    40dfd3 <__mult_D2A+0x123>
  40df4d:	48 89 f8             	mov    rax,rdi
  40df50:	4c 29 f8             	sub    rax,r15
  40df53:	49 83 c7 19          	add    r15,0x19
  40df57:	48 83 e8 19          	sub    rax,0x19
  40df5b:	48 c1 e8 02          	shr    rax,0x2
  40df5f:	4c 39 ff             	cmp    rdi,r15
  40df62:	4c 8d 2c 85 04 00 00 	lea    r13,[rax*4+0x4]
  40df69:	00 
  40df6a:	b8 04 00 00 00       	mov    eax,0x4
  40df6f:	4c 0f 42 e8          	cmovb  r13,rax
  40df73:	eb 0c                	jmp    40df81 <__mult_D2A+0xd1>
  40df75:	0f 1f 00             	nop    DWORD PTR [rax]
  40df78:	49 83 c3 04          	add    r11,0x4
  40df7c:	4c 39 cd             	cmp    rbp,r9
  40df7f:	76 52                	jbe    40dfd3 <__mult_D2A+0x123>
  40df81:	45 8b 11             	mov    r10d,DWORD PTR [r9]
  40df84:	49 83 c1 04          	add    r9,0x4
  40df88:	45 85 d2             	test   r10d,r10d
  40df8b:	74 eb                	je     40df78 <__mult_D2A+0xc8>
  40df8d:	4c 89 d9             	mov    rcx,r11
  40df90:	4c 89 f2             	mov    rdx,r14
  40df93:	45 31 c0             	xor    r8d,r8d
  40df96:	66 2e 0f 1f 84 00 00 	cs nop WORD PTR [rax+rax*1+0x0]
  40df9d:	00 00 00 
  40dfa0:	8b 02                	mov    eax,DWORD PTR [rdx]
  40dfa2:	44 8b 39             	mov    r15d,DWORD PTR [rcx]
  40dfa5:	48 83 c2 04          	add    rdx,0x4
  40dfa9:	48 83 c1 04          	add    rcx,0x4
  40dfad:	49 0f af c2          	imul   rax,r10
  40dfb1:	4c 01 f8             	add    rax,r15
  40dfb4:	4c 01 c0             	add    rax,r8
  40dfb7:	49 89 c0             	mov    r8,rax
  40dfba:	89 41 fc             	mov    DWORD PTR [rcx-0x4],eax
  40dfbd:	49 c1 e8 20          	shr    r8,0x20
  40dfc1:	48 39 d7             	cmp    rdi,rdx
  40dfc4:	77 da                	ja     40dfa0 <__mult_D2A+0xf0>
  40dfc6:	47 89 04 2b          	mov    DWORD PTR [r11+r13*1],r8d
  40dfca:	49 83 c3 04          	add    r11,0x4
  40dfce:	4c 39 cd             	cmp    rbp,r9
  40dfd1:	77 ae                	ja     40df81 <__mult_D2A+0xd1>
  40dfd3:	85 db                	test   ebx,ebx
  40dfd5:	7f 0e                	jg     40dfe5 <__mult_D2A+0x135>
  40dfd7:	eb 17                	jmp    40dff0 <__mult_D2A+0x140>
  40dfd9:	0f 1f 80 00 00 00 00 	nop    DWORD PTR [rax+0x0]
  40dfe0:	83 eb 01             	sub    ebx,0x1
  40dfe3:	74 0b                	je     40dff0 <__mult_D2A+0x140>
  40dfe5:	8b 46 fc             	mov    eax,DWORD PTR [rsi-0x4]
  40dfe8:	48 83 ee 04          	sub    rsi,0x4
  40dfec:	85 c0                	test   eax,eax
  40dfee:	74 f0                	je     40dfe0 <__mult_D2A+0x130>
  40dff0:	41 89 5c 24 14       	mov    DWORD PTR [r12+0x14],ebx
  40dff5:	4c 89 e0             	mov    rax,r12
  40dff8:	48 83 c4 28          	add    rsp,0x28
  40dffc:	5b                   	pop    rbx
  40dffd:	5e                   	pop    rsi
  40dffe:	5f                   	pop    rdi
  40dfff:	5d                   	pop    rbp
  40e000:	41 5c                	pop    r12
  40e002:	41 5d                	pop    r13
  40e004:	41 5e                	pop    r14
  40e006:	41 5f                	pop    r15
  40e008:	c3                   	ret
  40e009:	0f 1f 80 00 00 00 00 	nop    DWORD PTR [rax+0x0]

000000000040e010 <__pow5mult_D2A>:
  40e010:	41 56                	push   r14
  40e012:	41 55                	push   r13
  40e014:	41 54                	push   r12
  40e016:	55                   	push   rbp
  40e017:	57                   	push   rdi
  40e018:	56                   	push   rsi
  40e019:	53                   	push   rbx
  40e01a:	48 83 ec 20          	sub    rsp,0x20
  40e01e:	89 d0                	mov    eax,edx
  40e020:	49 89 cd             	mov    r13,rcx
  40e023:	89 d3                	mov    ebx,edx
  40e025:	83 e0 03             	and    eax,0x3
  40e028:	0f 85 3a 01 00 00    	jne    40e168 <__pow5mult_D2A+0x158>
  40e02e:	c1 fb 02             	sar    ebx,0x2
  40e031:	4d 89 ec             	mov    r12,r13
  40e034:	74 75                	je     40e0ab <__pow5mult_D2A+0x9b>
  40e036:	48 8b 3d 63 71 00 00 	mov    rdi,QWORD PTR [rip+0x7163]        # 4151a0 <p5s>
  40e03d:	48 85 ff             	test   rdi,rdi
  40e040:	0f 84 52 01 00 00    	je     40e198 <__pow5mult_D2A+0x188>
  40e046:	4d 89 ec             	mov    r12,r13
  40e049:	4c 8b 2d 34 82 00 00 	mov    r13,QWORD PTR [rip+0x8234]        # 416284 <__imp_LeaveCriticalSection>
  40e050:	48 8d 2d 69 7a 00 00 	lea    rbp,[rip+0x7a69]        # 415ac0 <freelist>
  40e057:	4d 89 ee             	mov    r14,r13
  40e05a:	eb 13                	jmp    40e06f <__pow5mult_D2A+0x5f>
  40e05c:	0f 1f 40 00          	nop    DWORD PTR [rax+0x0]
  40e060:	d1 fb                	sar    ebx,1
  40e062:	74 47                	je     40e0ab <__pow5mult_D2A+0x9b>
  40e064:	48 8b 37             	mov    rsi,QWORD PTR [rdi]
  40e067:	48 85 f6             	test   rsi,rsi
  40e06a:	74 54                	je     40e0c0 <__pow5mult_D2A+0xb0>
  40e06c:	48 89 f7             	mov    rdi,rsi
  40e06f:	f6 c3 01             	test   bl,0x1
  40e072:	74 ec                	je     40e060 <__pow5mult_D2A+0x50>
  40e074:	48 89 fa             	mov    rdx,rdi
  40e077:	4c 89 e1             	mov    rcx,r12
  40e07a:	e8 31 fe ff ff       	call   40deb0 <__mult_D2A>
  40e07f:	48 89 c6             	mov    rsi,rax
  40e082:	48 85 c0             	test   rax,rax
  40e085:	0f 84 05 01 00 00    	je     40e190 <__pow5mult_D2A+0x180>
  40e08b:	4d 85 e4             	test   r12,r12
  40e08e:	0f 84 9c 00 00 00    	je     40e130 <__pow5mult_D2A+0x120>
  40e094:	41 83 7c 24 08 09    	cmp    DWORD PTR [r12+0x8],0x9
  40e09a:	7e 54                	jle    40e0f0 <__pow5mult_D2A+0xe0>
  40e09c:	4c 89 e1             	mov    rcx,r12
  40e09f:	49 89 f4             	mov    r12,rsi
  40e0a2:	e8 b1 07 00 00       	call   40e858 <free>
  40e0a7:	d1 fb                	sar    ebx,1
  40e0a9:	75 b9                	jne    40e064 <__pow5mult_D2A+0x54>
  40e0ab:	4c 89 e0             	mov    rax,r12
  40e0ae:	48 83 c4 20          	add    rsp,0x20
  40e0b2:	5b                   	pop    rbx
  40e0b3:	5e                   	pop    rsi
  40e0b4:	5f                   	pop    rdi
  40e0b5:	5d                   	pop    rbp
  40e0b6:	41 5c                	pop    r12
  40e0b8:	41 5d                	pop    r13
  40e0ba:	41 5e                	pop    r14
  40e0bc:	c3                   	ret
  40e0bd:	0f 1f 00             	nop    DWORD PTR [rax]
  40e0c0:	b9 01 00 00 00       	mov    ecx,0x1
  40e0c5:	e8 d6 f9 ff ff       	call   40daa0 <dtoa_lock>
  40e0ca:	48 8b 37             	mov    rsi,QWORD PTR [rdi]
  40e0cd:	48 85 f6             	test   rsi,rsi
  40e0d0:	74 6e                	je     40e140 <__pow5mult_D2A+0x130>
  40e0d2:	83 3d 37 7a 00 00 02 	cmp    DWORD PTR [rip+0x7a37],0x2        # 415b10 <dtoa_CS_init>
  40e0d9:	75 91                	jne    40e06c <__pow5mult_D2A+0x5c>
  40e0db:	48 8d 0d 66 7a 00 00 	lea    rcx,[rip+0x7a66]        # 415b48 <dtoa_CritSec+0x28>
  40e0e2:	41 ff d6             	call   r14
  40e0e5:	eb 85                	jmp    40e06c <__pow5mult_D2A+0x5c>
  40e0e7:	66 0f 1f 84 00 00 00 	nop    WORD PTR [rax+rax*1+0x0]
  40e0ee:	00 00 
  40e0f0:	31 c9                	xor    ecx,ecx
  40e0f2:	e8 a9 f9 ff ff       	call   40daa0 <dtoa_lock>
  40e0f7:	49 63 44 24 08       	movsxd rax,DWORD PTR [r12+0x8]
  40e0fc:	83 3d 0d 7a 00 00 02 	cmp    DWORD PTR [rip+0x7a0d],0x2        # 415b10 <dtoa_CS_init>
  40e103:	48 8b 54 c5 00       	mov    rdx,QWORD PTR [rbp+rax*8+0x0]
  40e108:	4c 89 64 c5 00       	mov    QWORD PTR [rbp+rax*8+0x0],r12
  40e10d:	49 89 14 24          	mov    QWORD PTR [r12],rdx
  40e111:	49 89 f4             	mov    r12,rsi
  40e114:	0f 85 46 ff ff ff    	jne    40e060 <__pow5mult_D2A+0x50>
  40e11a:	48 8d 0d ff 79 00 00 	lea    rcx,[rip+0x79ff]        # 415b20 <dtoa_CritSec>
  40e121:	41 ff d5             	call   r13
  40e124:	e9 37 ff ff ff       	jmp    40e060 <__pow5mult_D2A+0x50>
  40e129:	0f 1f 80 00 00 00 00 	nop    DWORD PTR [rax+0x0]
  40e130:	49 89 c4             	mov    r12,rax
  40e133:	e9 28 ff ff ff       	jmp    40e060 <__pow5mult_D2A+0x50>
  40e138:	0f 1f 84 00 00 00 00 	nop    DWORD PTR [rax+rax*1+0x0]
  40e13f:	00 
  40e140:	48 89 fa             	mov    rdx,rdi
  40e143:	48 89 f9             	mov    rcx,rdi
  40e146:	e8 65 fd ff ff       	call   40deb0 <__mult_D2A>
  40e14b:	48 89 07             	mov    QWORD PTR [rdi],rax
  40e14e:	48 89 c6             	mov    rsi,rax
  40e151:	48 85 c0             	test   rax,rax
  40e154:	74 3a                	je     40e190 <__pow5mult_D2A+0x180>
  40e156:	48 c7 00 00 00 00 00 	mov    QWORD PTR [rax],0x0
  40e15d:	e9 70 ff ff ff       	jmp    40e0d2 <__pow5mult_D2A+0xc2>
  40e162:	66 0f 1f 44 00 00    	nop    WORD PTR [rax+rax*1+0x0]
  40e168:	83 e8 01             	sub    eax,0x1
  40e16b:	48 8d 15 ae 37 00 00 	lea    rdx,[rip+0x37ae]        # 411920 <p05.0>
  40e172:	45 31 c0             	xor    r8d,r8d
  40e175:	48 98                	cdqe
  40e177:	8b 14 82             	mov    edx,DWORD PTR [rdx+rax*4]
  40e17a:	e8 c1 fb ff ff       	call   40dd40 <__multadd_D2A>
  40e17f:	49 89 c5             	mov    r13,rax
  40e182:	48 85 c0             	test   rax,rax
  40e185:	0f 85 a3 fe ff ff    	jne    40e02e <__pow5mult_D2A+0x1e>
  40e18b:	0f 1f 44 00 00       	nop    DWORD PTR [rax+rax*1+0x0]
  40e190:	45 31 e4             	xor    r12d,r12d
  40e193:	e9 13 ff ff ff       	jmp    40e0ab <__pow5mult_D2A+0x9b>
  40e198:	b9 01 00 00 00       	mov    ecx,0x1
  40e19d:	e8 fe f8 ff ff       	call   40daa0 <dtoa_lock>
  40e1a2:	48 8b 3d f7 6f 00 00 	mov    rdi,QWORD PTR [rip+0x6ff7]        # 4151a0 <p5s>
  40e1a9:	48 85 ff             	test   rdi,rdi
  40e1ac:	74 1f                	je     40e1cd <__pow5mult_D2A+0x1bd>
  40e1ae:	83 3d 5b 79 00 00 02 	cmp    DWORD PTR [rip+0x795b],0x2        # 415b10 <dtoa_CS_init>
  40e1b5:	0f 85 8b fe ff ff    	jne    40e046 <__pow5mult_D2A+0x36>
  40e1bb:	48 8d 0d 86 79 00 00 	lea    rcx,[rip+0x7986]        # 415b48 <dtoa_CritSec+0x28>
  40e1c2:	ff 15 bc 80 00 00    	call   QWORD PTR [rip+0x80bc]        # 416284 <__imp_LeaveCriticalSection>
  40e1c8:	e9 79 fe ff ff       	jmp    40e046 <__pow5mult_D2A+0x36>
  40e1cd:	b9 01 00 00 00       	mov    ecx,0x1
  40e1d2:	e8 f9 f9 ff ff       	call   40dbd0 <__Balloc_D2A>
  40e1d7:	48 89 c7             	mov    rdi,rax
  40e1da:	48 85 c0             	test   rax,rax
  40e1dd:	74 1e                	je     40e1fd <__pow5mult_D2A+0x1ed>
  40e1df:	48 b8 01 00 00 00 71 	movabs rax,0x27100000001
  40e1e6:	02 00 00 
  40e1e9:	48 89 3d b0 6f 00 00 	mov    QWORD PTR [rip+0x6fb0],rdi        # 4151a0 <p5s>
  40e1f0:	48 89 47 14          	mov    QWORD PTR [rdi+0x14],rax
  40e1f4:	48 c7 07 00 00 00 00 	mov    QWORD PTR [rdi],0x0
  40e1fb:	eb b1                	jmp    40e1ae <__pow5mult_D2A+0x19e>
  40e1fd:	48 c7 05 98 6f 00 00 	mov    QWORD PTR [rip+0x6f98],0x0        # 4151a0 <p5s>
  40e204:	00 00 00 00 
  40e208:	45 31 e4             	xor    r12d,r12d
  40e20b:	e9 9b fe ff ff       	jmp    40e0ab <__pow5mult_D2A+0x9b>

000000000040e210 <__lshift_D2A>:
  40e210:	41 56                	push   r14
  40e212:	41 55                	push   r13
  40e214:	41 54                	push   r12
  40e216:	55                   	push   rbp
  40e217:	57                   	push   rdi
  40e218:	56                   	push   rsi
  40e219:	53                   	push   rbx
  40e21a:	48 83 ec 20          	sub    rsp,0x20
  40e21e:	49 89 cc             	mov    r12,rcx
  40e221:	89 d6                	mov    esi,edx
  40e223:	8b 49 08             	mov    ecx,DWORD PTR [rcx+0x8]
  40e226:	89 d3                	mov    ebx,edx
  40e228:	41 8b 6c 24 14       	mov    ebp,DWORD PTR [r12+0x14]
  40e22d:	c1 fe 05             	sar    esi,0x5
  40e230:	41 8b 44 24 0c       	mov    eax,DWORD PTR [r12+0xc]
  40e235:	01 f5                	add    ebp,esi
  40e237:	44 8d 6d 01          	lea    r13d,[rbp+0x1]
  40e23b:	41 39 c5             	cmp    r13d,eax
  40e23e:	7e 0a                	jle    40e24a <__lshift_D2A+0x3a>
  40e240:	01 c0                	add    eax,eax
  40e242:	83 c1 01             	add    ecx,0x1
  40e245:	41 39 c5             	cmp    r13d,eax
  40e248:	7f f6                	jg     40e240 <__lshift_D2A+0x30>
  40e24a:	e8 81 f9 ff ff       	call   40dbd0 <__Balloc_D2A>
  40e24f:	49 89 c6             	mov    r14,rax
  40e252:	48 85 c0             	test   rax,rax
  40e255:	0f 84 a2 00 00 00    	je     40e2fd <__lshift_D2A+0xed>
  40e25b:	48 8d 78 18          	lea    rdi,[rax+0x18]
  40e25f:	85 f6                	test   esi,esi
  40e261:	7e 17                	jle    40e27a <__lshift_D2A+0x6a>
  40e263:	48 63 f6             	movsxd rsi,esi
  40e266:	48 89 f9             	mov    rcx,rdi
  40e269:	31 d2                	xor    edx,edx
  40e26b:	48 c1 e6 02          	shl    rsi,0x2
  40e26f:	49 89 f0             	mov    r8,rsi
  40e272:	48 01 f7             	add    rdi,rsi
  40e275:	e8 b6 05 00 00       	call   40e830 <memset>
  40e27a:	49 63 44 24 14       	movsxd rax,DWORD PTR [r12+0x14]
  40e27f:	49 8d 74 24 18       	lea    rsi,[r12+0x18]
  40e284:	4c 8d 0c 86          	lea    r9,[rsi+rax*4]
  40e288:	83 e3 1f             	and    ebx,0x1f
  40e28b:	0f 84 7f 00 00 00    	je     40e310 <__lshift_D2A+0x100>
  40e291:	41 ba 20 00 00 00    	mov    r10d,0x20
  40e297:	49 89 f8             	mov    r8,rdi
  40e29a:	31 d2                	xor    edx,edx
  40e29c:	41 29 da             	sub    r10d,ebx
  40e29f:	90                   	nop
  40e2a0:	8b 06                	mov    eax,DWORD PTR [rsi]
  40e2a2:	89 d9                	mov    ecx,ebx
  40e2a4:	49 83 c0 04          	add    r8,0x4
  40e2a8:	48 83 c6 04          	add    rsi,0x4
  40e2ac:	d3 e0                	shl    eax,cl
  40e2ae:	44 89 d1             	mov    ecx,r10d
  40e2b1:	09 d0                	or     eax,edx
  40e2b3:	41 89 40 fc          	mov    DWORD PTR [r8-0x4],eax
  40e2b7:	8b 56 fc             	mov    edx,DWORD PTR [rsi-0x4]
  40e2ba:	d3 ea                	shr    edx,cl
  40e2bc:	49 39 f1             	cmp    r9,rsi
  40e2bf:	77 df                	ja     40e2a0 <__lshift_D2A+0x90>
  40e2c1:	4c 89 c8             	mov    rax,r9
  40e2c4:	49 8d 4c 24 19       	lea    rcx,[r12+0x19]
  40e2c9:	4c 29 e0             	sub    rax,r12
  40e2cc:	48 83 e8 19          	sub    rax,0x19
  40e2d0:	48 c1 e8 02          	shr    rax,0x2
  40e2d4:	49 39 c9             	cmp    r9,rcx
  40e2d7:	b9 04 00 00 00       	mov    ecx,0x4
  40e2dc:	48 8d 04 85 04 00 00 	lea    rax,[rax*4+0x4]
  40e2e3:	00 
  40e2e4:	48 0f 42 c1          	cmovb  rax,rcx
  40e2e8:	85 d2                	test   edx,edx
  40e2ea:	41 0f 45 ed          	cmovne ebp,r13d
  40e2ee:	89 14 07             	mov    DWORD PTR [rdi+rax*1],edx
  40e2f1:	41 89 6e 14          	mov    DWORD PTR [r14+0x14],ebp
  40e2f5:	4c 89 e1             	mov    rcx,r12
  40e2f8:	e8 d3 f9 ff ff       	call   40dcd0 <__Bfree_D2A>
  40e2fd:	4c 89 f0             	mov    rax,r14
  40e300:	48 83 c4 20          	add    rsp,0x20
  40e304:	5b                   	pop    rbx
  40e305:	5e                   	pop    rsi
  40e306:	5f                   	pop    rdi
  40e307:	5d                   	pop    rbp
  40e308:	41 5c                	pop    r12
  40e30a:	41 5d                	pop    r13
  40e30c:	41 5e                	pop    r14
  40e30e:	c3                   	ret
  40e30f:	90                   	nop
  40e310:	a5                   	movs   DWORD PTR es:[rdi],DWORD PTR ds:[rsi]
  40e311:	49 39 f1             	cmp    r9,rsi
  40e314:	76 db                	jbe    40e2f1 <__lshift_D2A+0xe1>
  40e316:	a5                   	movs   DWORD PTR es:[rdi],DWORD PTR ds:[rsi]
  40e317:	49 39 f1             	cmp    r9,rsi
  40e31a:	77 f4                	ja     40e310 <__lshift_D2A+0x100>
  40e31c:	eb d3                	jmp    40e2f1 <__lshift_D2A+0xe1>
  40e31e:	66 90                	xchg   ax,ax

000000000040e320 <__cmp_D2A>:
  40e320:	48 63 42 14          	movsxd rax,DWORD PTR [rdx+0x14]
  40e324:	44 8b 41 14          	mov    r8d,DWORD PTR [rcx+0x14]
  40e328:	49 89 d1             	mov    r9,rdx
  40e32b:	41 29 c0             	sub    r8d,eax
  40e32e:	75 3c                	jne    40e36c <__cmp_D2A+0x4c>
  40e330:	48 8d 14 85 00 00 00 	lea    rdx,[rax*4+0x0]
  40e337:	00 
  40e338:	48 83 c1 18          	add    rcx,0x18
  40e33c:	48 8d 04 11          	lea    rax,[rcx+rdx*1]
  40e340:	49 8d 54 11 18       	lea    rdx,[r9+rdx*1+0x18]
  40e345:	eb 0e                	jmp    40e355 <__cmp_D2A+0x35>
  40e347:	66 0f 1f 84 00 00 00 	nop    WORD PTR [rax+rax*1+0x0]
  40e34e:	00 00 
  40e350:	48 39 c1             	cmp    rcx,rax
  40e353:	73 17                	jae    40e36c <__cmp_D2A+0x4c>
  40e355:	48 83 e8 04          	sub    rax,0x4
  40e359:	48 83 ea 04          	sub    rdx,0x4
  40e35d:	44 8b 12             	mov    r10d,DWORD PTR [rdx]
  40e360:	44 39 10             	cmp    DWORD PTR [rax],r10d
  40e363:	74 eb                	je     40e350 <__cmp_D2A+0x30>
  40e365:	45 19 c0             	sbb    r8d,r8d
  40e368:	41 83 c8 01          	or     r8d,0x1
  40e36c:	44 89 c0             	mov    eax,r8d
  40e36f:	c3                   	ret

000000000040e370 <__diff_D2A>:
  40e370:	41 54                	push   r12
  40e372:	55                   	push   rbp
  40e373:	57                   	push   rdi
  40e374:	56                   	push   rsi
  40e375:	53                   	push   rbx
  40e376:	48 83 ec 20          	sub    rsp,0x20
  40e37a:	48 63 42 14          	movsxd rax,DWORD PTR [rdx+0x14]
  40e37e:	8b 79 14             	mov    edi,DWORD PTR [rcx+0x14]
  40e381:	48 89 ce             	mov    rsi,rcx
  40e384:	48 89 d3             	mov    rbx,rdx
  40e387:	29 c7                	sub    edi,eax
  40e389:	0f 85 61 01 00 00    	jne    40e4f0 <__diff_D2A+0x180>
  40e38f:	48 8d 14 85 00 00 00 	lea    rdx,[rax*4+0x0]
  40e396:	00 
  40e397:	48 8d 49 18          	lea    rcx,[rcx+0x18]
  40e39b:	48 8d 04 11          	lea    rax,[rcx+rdx*1]
  40e39f:	48 8d 54 13 18       	lea    rdx,[rbx+rdx*1+0x18]
  40e3a4:	eb 13                	jmp    40e3b9 <__diff_D2A+0x49>
  40e3a6:	66 2e 0f 1f 84 00 00 	cs nop WORD PTR [rax+rax*1+0x0]
  40e3ad:	00 00 00 
  40e3b0:	48 39 c1             	cmp    rcx,rax
  40e3b3:	0f 83 57 01 00 00    	jae    40e510 <__diff_D2A+0x1a0>
  40e3b9:	48 83 e8 04          	sub    rax,0x4
  40e3bd:	48 83 ea 04          	sub    rdx,0x4
  40e3c1:	44 8b 1a             	mov    r11d,DWORD PTR [rdx]
  40e3c4:	44 39 18             	cmp    DWORD PTR [rax],r11d
  40e3c7:	74 e7                	je     40e3b0 <__diff_D2A+0x40>
  40e3c9:	0f 82 2c 01 00 00    	jb     40e4fb <__diff_D2A+0x18b>
  40e3cf:	8b 4e 08             	mov    ecx,DWORD PTR [rsi+0x8]
  40e3d2:	e8 f9 f7 ff ff       	call   40dbd0 <__Balloc_D2A>
  40e3d7:	49 89 c0             	mov    r8,rax
  40e3da:	48 85 c0             	test   rax,rax
  40e3dd:	0f 84 f8 00 00 00    	je     40e4db <__diff_D2A+0x16b>
  40e3e3:	89 78 10             	mov    DWORD PTR [rax+0x10],edi
  40e3e6:	48 63 46 14          	movsxd rax,DWORD PTR [rsi+0x14]
  40e3ea:	48 8d 6e 18          	lea    rbp,[rsi+0x18]
  40e3ee:	4d 8d 60 18          	lea    r12,[r8+0x18]
  40e3f2:	b9 18 00 00 00       	mov    ecx,0x18
  40e3f7:	31 d2                	xor    edx,edx
  40e3f9:	49 89 c1             	mov    r9,rax
  40e3fc:	4c 8d 5c 85 00       	lea    r11,[rbp+rax*4+0x0]
  40e401:	48 63 43 14          	movsxd rax,DWORD PTR [rbx+0x14]
  40e405:	48 8d 7c 83 18       	lea    rdi,[rbx+rax*4+0x18]
  40e40a:	66 0f 1f 44 00 00    	nop    WORD PTR [rax+rax*1+0x0]
  40e410:	8b 04 0e             	mov    eax,DWORD PTR [rsi+rcx*1]
  40e413:	48 29 d0             	sub    rax,rdx
  40e416:	8b 14 0b             	mov    edx,DWORD PTR [rbx+rcx*1]
  40e419:	48 29 d0             	sub    rax,rdx
  40e41c:	41 89 04 08          	mov    DWORD PTR [r8+rcx*1],eax
  40e420:	48 89 c2             	mov    rdx,rax
  40e423:	48 83 c1 04          	add    rcx,0x4
  40e427:	41 89 c2             	mov    r10d,eax
  40e42a:	48 c1 ea 20          	shr    rdx,0x20
  40e42e:	48 8d 04 19          	lea    rax,[rcx+rbx*1]
  40e432:	83 e2 01             	and    edx,0x1
  40e435:	48 39 c7             	cmp    rdi,rax
  40e438:	77 d6                	ja     40e410 <__diff_D2A+0xa0>
  40e43a:	48 89 f8             	mov    rax,rdi
  40e43d:	48 8d 73 19          	lea    rsi,[rbx+0x19]
  40e441:	48 29 d8             	sub    rax,rbx
  40e444:	bb 00 00 00 00       	mov    ebx,0x0
  40e449:	48 83 e8 19          	sub    rax,0x19
  40e44d:	48 89 c1             	mov    rcx,rax
  40e450:	48 83 e0 fc          	and    rax,0xfffffffffffffffc
  40e454:	48 c1 e9 02          	shr    rcx,0x2
  40e458:	48 39 f7             	cmp    rdi,rsi
  40e45b:	48 0f 42 c3          	cmovb  rax,rbx
  40e45f:	48 8d 0c 8d 04 00 00 	lea    rcx,[rcx*4+0x4]
  40e466:	00 
  40e467:	bb 04 00 00 00       	mov    ebx,0x4
  40e46c:	4c 01 e0             	add    rax,r12
  40e46f:	48 39 f7             	cmp    rdi,rsi
  40e472:	48 0f 42 cb          	cmovb  rcx,rbx
  40e476:	48 01 cd             	add    rbp,rcx
  40e479:	49 01 cc             	add    r12,rcx
  40e47c:	49 39 eb             	cmp    r11,rbp
  40e47f:	76 3f                	jbe    40e4c0 <__diff_D2A+0x150>
  40e481:	4c 89 e3             	mov    rbx,r12
  40e484:	48 89 e9             	mov    rcx,rbp
  40e487:	66 0f 1f 84 00 00 00 	nop    WORD PTR [rax+rax*1+0x0]
  40e48e:	00 00 
  40e490:	8b 01                	mov    eax,DWORD PTR [rcx]
  40e492:	48 83 c1 04          	add    rcx,0x4
  40e496:	48 83 c3 04          	add    rbx,0x4
  40e49a:	48 29 d0             	sub    rax,rdx
  40e49d:	48 89 c2             	mov    rdx,rax
  40e4a0:	89 43 fc             	mov    DWORD PTR [rbx-0x4],eax
  40e4a3:	41 89 c2             	mov    r10d,eax
  40e4a6:	48 c1 ea 20          	shr    rdx,0x20
  40e4aa:	83 e2 01             	and    edx,0x1
  40e4ad:	49 39 cb             	cmp    r11,rcx
  40e4b0:	77 de                	ja     40e490 <__diff_D2A+0x120>
  40e4b2:	49 8d 43 ff          	lea    rax,[r11-0x1]
  40e4b6:	48 29 e8             	sub    rax,rbp
  40e4b9:	48 83 e0 fc          	and    rax,0xfffffffffffffffc
  40e4bd:	4c 01 e0             	add    rax,r12
  40e4c0:	45 85 d2             	test   r10d,r10d
  40e4c3:	75 12                	jne    40e4d7 <__diff_D2A+0x167>
  40e4c5:	0f 1f 00             	nop    DWORD PTR [rax]
  40e4c8:	8b 50 fc             	mov    edx,DWORD PTR [rax-0x4]
  40e4cb:	48 83 e8 04          	sub    rax,0x4
  40e4cf:	41 83 e9 01          	sub    r9d,0x1
  40e4d3:	85 d2                	test   edx,edx
  40e4d5:	74 f1                	je     40e4c8 <__diff_D2A+0x158>
  40e4d7:	45 89 48 14          	mov    DWORD PTR [r8+0x14],r9d
  40e4db:	4c 89 c0             	mov    rax,r8
  40e4de:	48 83 c4 20          	add    rsp,0x20
  40e4e2:	5b                   	pop    rbx
  40e4e3:	5e                   	pop    rsi
  40e4e4:	5f                   	pop    rdi
  40e4e5:	5d                   	pop    rbp
  40e4e6:	41 5c                	pop    r12
  40e4e8:	c3                   	ret
  40e4e9:	0f 1f 80 00 00 00 00 	nop    DWORD PTR [rax+0x0]
  40e4f0:	bf 00 00 00 00       	mov    edi,0x0
  40e4f5:	0f 89 d4 fe ff ff    	jns    40e3cf <__diff_D2A+0x5f>
  40e4fb:	48 89 f0             	mov    rax,rsi
  40e4fe:	bf 01 00 00 00       	mov    edi,0x1
  40e503:	48 89 de             	mov    rsi,rbx
  40e506:	48 89 c3             	mov    rbx,rax
  40e509:	e9 c1 fe ff ff       	jmp    40e3cf <__diff_D2A+0x5f>
  40e50e:	66 90                	xchg   ax,ax
  40e510:	31 c9                	xor    ecx,ecx
  40e512:	e8 b9 f6 ff ff       	call   40dbd0 <__Balloc_D2A>
  40e517:	49 89 c0             	mov    r8,rax
  40e51a:	48 85 c0             	test   rax,rax
  40e51d:	74 bc                	je     40e4db <__diff_D2A+0x16b>
  40e51f:	4c 89 c0             	mov    rax,r8
  40e522:	49 c7 40 14 01 00 00 	mov    QWORD PTR [r8+0x14],0x1
  40e529:	00 
  40e52a:	48 83 c4 20          	add    rsp,0x20
  40e52e:	5b                   	pop    rbx
  40e52f:	5e                   	pop    rsi
  40e530:	5f                   	pop    rdi
  40e531:	5d                   	pop    rbp
  40e532:	41 5c                	pop    r12
  40e534:	c3                   	ret
  40e535:	66 66 2e 0f 1f 84 00 	data16 cs nop WORD PTR [rax+rax*1+0x0]
  40e53c:	00 00 00 00 

000000000040e540 <__b2d_D2A>:
  40e540:	41 54                	push   r12
  40e542:	53                   	push   rbx
  40e543:	48 63 41 14          	movsxd rax,DWORD PTR [rcx+0x14]
  40e547:	4c 8d 59 18          	lea    r11,[rcx+0x18]
  40e54b:	49 89 d4             	mov    r12,rdx
  40e54e:	b9 20 00 00 00       	mov    ecx,0x20
  40e553:	4d 8d 0c 83          	lea    r9,[r11+rax*4]
  40e557:	89 c8                	mov    eax,ecx
  40e559:	45 8b 41 fc          	mov    r8d,DWORD PTR [r9-0x4]
  40e55d:	4d 8d 51 fc          	lea    r10,[r9-0x4]
  40e561:	41 0f bd d0          	bsr    edx,r8d
  40e565:	83 f2 1f             	xor    edx,0x1f
  40e568:	29 d0                	sub    eax,edx
  40e56a:	41 89 04 24          	mov    DWORD PTR [r12],eax
  40e56e:	83 fa 0a             	cmp    edx,0xa
  40e571:	0f 8e 89 00 00 00    	jle    40e600 <__b2d_D2A+0xc0>
  40e577:	83 ea 0b             	sub    edx,0xb
  40e57a:	4d 39 d3             	cmp    r11,r10
  40e57d:	73 61                	jae    40e5e0 <__b2d_D2A+0xa0>
  40e57f:	45 8b 51 f8          	mov    r10d,DWORD PTR [r9-0x8]
  40e583:	85 d2                	test   edx,edx
  40e585:	74 60                	je     40e5e7 <__b2d_D2A+0xa7>
  40e587:	89 cb                	mov    ebx,ecx
  40e589:	44 89 c0             	mov    eax,r8d
  40e58c:	89 d1                	mov    ecx,edx
  40e58e:	45 89 d0             	mov    r8d,r10d
  40e591:	29 d3                	sub    ebx,edx
  40e593:	d3 e0                	shl    eax,cl
  40e595:	89 d9                	mov    ecx,ebx
  40e597:	41 d3 e8             	shr    r8d,cl
  40e59a:	89 d1                	mov    ecx,edx
  40e59c:	49 8d 51 f8          	lea    rdx,[r9-0x8]
  40e5a0:	44 09 c0             	or     eax,r8d
  40e5a3:	41 d3 e2             	shl    r10d,cl
  40e5a6:	0d 00 00 f0 3f       	or     eax,0x3ff00000
  40e5ab:	48 c1 e0 20          	shl    rax,0x20
  40e5af:	49 39 d3             	cmp    r11,rdx
  40e5b2:	73 0b                	jae    40e5bf <__b2d_D2A+0x7f>
  40e5b4:	41 8b 51 f4          	mov    edx,DWORD PTR [r9-0xc]
  40e5b8:	89 d9                	mov    ecx,ebx
  40e5ba:	d3 ea                	shr    edx,cl
  40e5bc:	41 09 d2             	or     r10d,edx
  40e5bf:	48 ba 00 00 00 00 ff 	movabs rdx,0xffffffff00000000
  40e5c6:	ff ff ff 
  40e5c9:	48 21 d0             	and    rax,rdx
  40e5cc:	4c 09 d0             	or     rax,r10
  40e5cf:	66 48 0f 6e c0       	movq   xmm0,rax
  40e5d4:	5b                   	pop    rbx
  40e5d5:	41 5c                	pop    r12
  40e5d7:	c3                   	ret
  40e5d8:	0f 1f 84 00 00 00 00 	nop    DWORD PTR [rax+rax*1+0x0]
  40e5df:	00 
  40e5e0:	45 31 d2             	xor    r10d,r10d
  40e5e3:	85 d2                	test   edx,edx
  40e5e5:	75 59                	jne    40e640 <__b2d_D2A+0x100>
  40e5e7:	44 89 c0             	mov    eax,r8d
  40e5ea:	0d 00 00 f0 3f       	or     eax,0x3ff00000
  40e5ef:	48 c1 e0 20          	shl    rax,0x20
  40e5f3:	4c 09 d0             	or     rax,r10
  40e5f6:	66 48 0f 6e c0       	movq   xmm0,rax
  40e5fb:	5b                   	pop    rbx
  40e5fc:	41 5c                	pop    r12
  40e5fe:	c3                   	ret
  40e5ff:	90                   	nop
  40e600:	b9 0b 00 00 00       	mov    ecx,0xb
  40e605:	44 89 c0             	mov    eax,r8d
  40e608:	31 db                	xor    ebx,ebx
  40e60a:	29 d1                	sub    ecx,edx
  40e60c:	d3 e8                	shr    eax,cl
  40e60e:	0d 00 00 f0 3f       	or     eax,0x3ff00000
  40e613:	48 c1 e0 20          	shl    rax,0x20
  40e617:	4d 39 d3             	cmp    r11,r10
  40e61a:	73 06                	jae    40e622 <__b2d_D2A+0xe2>
  40e61c:	41 8b 59 f8          	mov    ebx,DWORD PTR [r9-0x8]
  40e620:	d3 eb                	shr    ebx,cl
  40e622:	8d 4a 15             	lea    ecx,[rdx+0x15]
  40e625:	41 d3 e0             	shl    r8d,cl
  40e628:	41 09 d8             	or     r8d,ebx
  40e62b:	4c 09 c0             	or     rax,r8
  40e62e:	66 48 0f 6e c0       	movq   xmm0,rax
  40e633:	5b                   	pop    rbx
  40e634:	41 5c                	pop    r12
  40e636:	c3                   	ret
  40e637:	66 0f 1f 84 00 00 00 	nop    WORD PTR [rax+rax*1+0x0]
  40e63e:	00 00 
  40e640:	44 89 c0             	mov    eax,r8d
  40e643:	89 d1                	mov    ecx,edx
  40e645:	45 31 d2             	xor    r10d,r10d
  40e648:	d3 e0                	shl    eax,cl
  40e64a:	0d 00 00 f0 3f       	or     eax,0x3ff00000
  40e64f:	48 c1 e0 20          	shl    rax,0x20
  40e653:	e9 67 ff ff ff       	jmp    40e5bf <__b2d_D2A+0x7f>
  40e658:	0f 1f 84 00 00 00 00 	nop    DWORD PTR [rax+rax*1+0x0]
  40e65f:	00 

000000000040e660 <__d2b_D2A>:
  40e660:	57                   	push   rdi
  40e661:	56                   	push   rsi
  40e662:	53                   	push   rbx
  40e663:	48 83 ec 20          	sub    rsp,0x20
  40e667:	b9 01 00 00 00       	mov    ecx,0x1
  40e66c:	66 48 0f 7e c3       	movq   rbx,xmm0
  40e671:	48 89 d7             	mov    rdi,rdx
  40e674:	4c 89 c6             	mov    rsi,r8
  40e677:	e8 54 f5 ff ff       	call   40dbd0 <__Balloc_D2A>
  40e67c:	49 89 c2             	mov    r10,rax
  40e67f:	48 85 c0             	test   rax,rax
  40e682:	0f 84 8e 00 00 00    	je     40e716 <__d2b_D2A+0xb6>
  40e688:	48 89 d9             	mov    rcx,rbx
  40e68b:	48 89 d8             	mov    rax,rbx
  40e68e:	48 c1 e9 20          	shr    rcx,0x20
  40e692:	89 ca                	mov    edx,ecx
  40e694:	c1 e9 14             	shr    ecx,0x14
  40e697:	81 e2 ff ff 0f 00    	and    edx,0xfffff
  40e69d:	41 89 d1             	mov    r9d,edx
  40e6a0:	41 81 c9 00 00 10 00 	or     r9d,0x100000
  40e6a7:	81 e1 ff 07 00 00    	and    ecx,0x7ff
  40e6ad:	41 0f 45 d1          	cmovne edx,r9d
  40e6b1:	41 89 c8             	mov    r8d,ecx
  40e6b4:	85 db                	test   ebx,ebx
  40e6b6:	74 70                	je     40e728 <__d2b_D2A+0xc8>
  40e6b8:	45 31 c9             	xor    r9d,r9d
  40e6bb:	f3 44 0f bc cb       	tzcnt  r9d,ebx
  40e6c0:	44 89 c9             	mov    ecx,r9d
  40e6c3:	d3 e8                	shr    eax,cl
  40e6c5:	45 85 c9             	test   r9d,r9d
  40e6c8:	74 13                	je     40e6dd <__d2b_D2A+0x7d>
  40e6ca:	b9 20 00 00 00       	mov    ecx,0x20
  40e6cf:	89 d3                	mov    ebx,edx
  40e6d1:	44 29 c9             	sub    ecx,r9d
  40e6d4:	d3 e3                	shl    ebx,cl
  40e6d6:	44 89 c9             	mov    ecx,r9d
  40e6d9:	09 d8                	or     eax,ebx
  40e6db:	d3 ea                	shr    edx,cl
  40e6dd:	41 89 42 18          	mov    DWORD PTR [r10+0x18],eax
  40e6e1:	83 fa 01             	cmp    edx,0x1
  40e6e4:	b8 01 00 00 00       	mov    eax,0x1
  40e6e9:	83 d8 ff             	sbb    eax,0xffffffff
  40e6ec:	41 89 52 1c          	mov    DWORD PTR [r10+0x1c],edx
  40e6f0:	41 89 42 14          	mov    DWORD PTR [r10+0x14],eax
  40e6f4:	45 85 c0             	test   r8d,r8d
  40e6f7:	75 51                	jne    40e74a <__d2b_D2A+0xea>
  40e6f9:	48 63 d0             	movsxd rdx,eax
  40e6fc:	c1 e0 05             	shl    eax,0x5
  40e6ff:	41 81 e9 32 04 00 00 	sub    r9d,0x432
  40e706:	41 0f bd 54 92 14    	bsr    edx,DWORD PTR [r10+rdx*4+0x14]
  40e70c:	44 89 0f             	mov    DWORD PTR [rdi],r9d
  40e70f:	83 f2 1f             	xor    edx,0x1f
  40e712:	29 d0                	sub    eax,edx
  40e714:	89 06                	mov    DWORD PTR [rsi],eax
  40e716:	4c 89 d0             	mov    rax,r10
  40e719:	48 83 c4 20          	add    rsp,0x20
  40e71d:	5b                   	pop    rbx
  40e71e:	5e                   	pop    rsi
  40e71f:	5f                   	pop    rdi
  40e720:	c3                   	ret
  40e721:	0f 1f 80 00 00 00 00 	nop    DWORD PTR [rax+0x0]
  40e728:	31 c9                	xor    ecx,ecx
  40e72a:	41 c7 42 14 01 00 00 	mov    DWORD PTR [r10+0x14],0x1
  40e731:	00 
  40e732:	b8 01 00 00 00       	mov    eax,0x1
  40e737:	f3 0f bc ca          	tzcnt  ecx,edx
  40e73b:	d3 ea                	shr    edx,cl
  40e73d:	44 8d 49 20          	lea    r9d,[rcx+0x20]
  40e741:	41 89 52 18          	mov    DWORD PTR [r10+0x18],edx
  40e745:	45 85 c0             	test   r8d,r8d
  40e748:	74 af                	je     40e6f9 <__d2b_D2A+0x99>
  40e74a:	43 8d 84 08 cd fb ff 	lea    eax,[r8+r9*1-0x433]
  40e751:	ff 
  40e752:	89 07                	mov    DWORD PTR [rdi],eax
  40e754:	b8 35 00 00 00       	mov    eax,0x35
  40e759:	44 29 c8             	sub    eax,r9d
  40e75c:	89 06                	mov    DWORD PTR [rsi],eax
  40e75e:	4c 89 d0             	mov    rax,r10
  40e761:	48 83 c4 20          	add    rsp,0x20
  40e765:	5b                   	pop    rbx
  40e766:	5e                   	pop    rsi
  40e767:	5f                   	pop    rdi
  40e768:	c3                   	ret
  40e769:	0f 1f 80 00 00 00 00 	nop    DWORD PTR [rax+0x0]

000000000040e770 <__strcp_D2A>:
  40e770:	48 89 c8             	mov    rax,rcx
  40e773:	48 89 d1             	mov    rcx,rdx
  40e776:	48 8d 52 01          	lea    rdx,[rdx+0x1]
  40e77a:	0f b6 09             	movzx  ecx,BYTE PTR [rcx]
  40e77d:	88 08                	mov    BYTE PTR [rax],cl
  40e77f:	84 c9                	test   cl,cl
  40e781:	74 16                	je     40e799 <__strcp_D2A+0x29>
  40e783:	0f 1f 44 00 00       	nop    DWORD PTR [rax+rax*1+0x0]
  40e788:	0f b6 0a             	movzx  ecx,BYTE PTR [rdx]
  40e78b:	48 83 c0 01          	add    rax,0x1
  40e78f:	48 83 c2 01          	add    rdx,0x1
  40e793:	88 08                	mov    BYTE PTR [rax],cl
  40e795:	84 c9                	test   cl,cl
  40e797:	75 ef                	jne    40e788 <__strcp_D2A+0x18>
  40e799:	c3                   	ret
  40e79a:	90                   	nop
  40e79b:	90                   	nop
  40e79c:	90                   	nop
  40e79d:	90                   	nop
  40e79e:	90                   	nop
  40e79f:	90                   	nop

000000000040e7a0 <strnlen>:
  40e7a0:	45 31 c0             	xor    r8d,r8d
  40e7a3:	48 89 c8             	mov    rax,rcx
  40e7a6:	48 85 d2             	test   rdx,rdx
  40e7a9:	75 14                	jne    40e7bf <strnlen+0x1f>
  40e7ab:	eb 17                	jmp    40e7c4 <strnlen+0x24>
  40e7ad:	0f 1f 00             	nop    DWORD PTR [rax]
  40e7b0:	48 83 c0 01          	add    rax,0x1
  40e7b4:	49 89 c0             	mov    r8,rax
  40e7b7:	49 29 c8             	sub    r8,rcx
  40e7ba:	49 39 d0             	cmp    r8,rdx
  40e7bd:	73 05                	jae    40e7c4 <strnlen+0x24>
  40e7bf:	80 38 00             	cmp    BYTE PTR [rax],0x0
  40e7c2:	75 ec                	jne    40e7b0 <strnlen+0x10>
  40e7c4:	4c 89 c0             	mov    rax,r8
  40e7c7:	c3                   	ret
  40e7c8:	90                   	nop
  40e7c9:	90                   	nop
  40e7ca:	90                   	nop
  40e7cb:	90                   	nop
  40e7cc:	90                   	nop
  40e7cd:	90                   	nop
  40e7ce:	90                   	nop
  40e7cf:	90                   	nop

000000000040e7d0 <wcsnlen>:
  40e7d0:	31 c0                	xor    eax,eax
  40e7d2:	49 89 d0             	mov    r8,rdx
  40e7d5:	48 85 d2             	test   rdx,rdx
  40e7d8:	75 0f                	jne    40e7e9 <wcsnlen+0x19>
  40e7da:	eb 17                	jmp    40e7f3 <wcsnlen+0x23>
  40e7dc:	0f 1f 40 00          	nop    DWORD PTR [rax+0x0]
  40e7e0:	48 83 c0 01          	add    rax,0x1
  40e7e4:	49 39 c0             	cmp    r8,rax
  40e7e7:	74 0a                	je     40e7f3 <wcsnlen+0x23>
  40e7e9:	66 83 3c 41 00       	cmp    WORD PTR [rcx+rax*2],0x0
  40e7ee:	75 f0                	jne    40e7e0 <wcsnlen+0x10>
  40e7f0:	49 89 c0             	mov    r8,rax
  40e7f3:	4c 89 c0             	mov    rax,r8
  40e7f6:	c3                   	ret
  40e7f7:	90                   	nop
  40e7f8:	90                   	nop
  40e7f9:	90                   	nop
  40e7fa:	90                   	nop
  40e7fb:	90                   	nop
  40e7fc:	90                   	nop
  40e7fd:	90                   	nop
  40e7fe:	90                   	nop
  40e7ff:	90                   	nop

000000000040e800 <wcslen>:
  40e800:	ff 25 16 7c 00 00    	jmp    QWORD PTR [rip+0x7c16]        # 41641c <__imp_wcslen>
  40e806:	90                   	nop
  40e807:	90                   	nop

000000000040e808 <vfprintf>:
  40e808:	ff 25 06 7c 00 00    	jmp    QWORD PTR [rip+0x7c06]        # 416414 <__imp_vfprintf>
  40e80e:	90                   	nop
  40e80f:	90                   	nop

000000000040e810 <strncmp>:
  40e810:	ff 25 f6 7b 00 00    	jmp    QWORD PTR [rip+0x7bf6]        # 41640c <__imp_strncmp>
  40e816:	90                   	nop
  40e817:	90                   	nop

000000000040e818 <strlen>:
  40e818:	ff 25 e6 7b 00 00    	jmp    QWORD PTR [rip+0x7be6]        # 416404 <__imp_strlen>
  40e81e:	90                   	nop
  40e81f:	90                   	nop

000000000040e820 <strerror>:
  40e820:	ff 25 d6 7b 00 00    	jmp    QWORD PTR [rip+0x7bd6]        # 4163fc <__imp_strerror>
  40e826:	90                   	nop
  40e827:	90                   	nop

000000000040e828 <signal>:
  40e828:	ff 25 c6 7b 00 00    	jmp    QWORD PTR [rip+0x7bc6]        # 4163f4 <__imp_signal>
  40e82e:	90                   	nop
  40e82f:	90                   	nop

000000000040e830 <memset>:
  40e830:	ff 25 b6 7b 00 00    	jmp    QWORD PTR [rip+0x7bb6]        # 4163ec <__imp_memset>
  40e836:	90                   	nop
  40e837:	90                   	nop

000000000040e838 <memcpy>:
  40e838:	ff 25 a6 7b 00 00    	jmp    QWORD PTR [rip+0x7ba6]        # 4163e4 <__imp_memcpy>
  40e83e:	90                   	nop
  40e83f:	90                   	nop

000000000040e840 <malloc>:
  40e840:	ff 25 96 7b 00 00    	jmp    QWORD PTR [rip+0x7b96]        # 4163dc <__imp_malloc>
  40e846:	90                   	nop
  40e847:	90                   	nop

000000000040e848 <localeconv>:
  40e848:	ff 25 86 7b 00 00    	jmp    QWORD PTR [rip+0x7b86]        # 4163d4 <__imp_localeconv>
  40e84e:	90                   	nop
  40e84f:	90                   	nop

000000000040e850 <fwrite>:
  40e850:	ff 25 76 7b 00 00    	jmp    QWORD PTR [rip+0x7b76]        # 4163cc <__imp_fwrite>
  40e856:	90                   	nop
  40e857:	90                   	nop

000000000040e858 <free>:
  40e858:	ff 25 66 7b 00 00    	jmp    QWORD PTR [rip+0x7b66]        # 4163c4 <__imp_free>
  40e85e:	90                   	nop
  40e85f:	90                   	nop

000000000040e860 <fread>:
  40e860:	ff 25 56 7b 00 00    	jmp    QWORD PTR [rip+0x7b56]        # 4163bc <__imp_fread>
  40e866:	90                   	nop
  40e867:	90                   	nop

000000000040e868 <fputc>:
  40e868:	ff 25 46 7b 00 00    	jmp    QWORD PTR [rip+0x7b46]        # 4163b4 <__imp_fputc>
  40e86e:	90                   	nop
  40e86f:	90                   	nop

000000000040e870 <fprintf>:
  40e870:	ff 25 36 7b 00 00    	jmp    QWORD PTR [rip+0x7b36]        # 4163ac <__imp_fprintf>
  40e876:	90                   	nop
  40e877:	90                   	nop

000000000040e878 <fopen>:
  40e878:	ff 25 26 7b 00 00    	jmp    QWORD PTR [rip+0x7b26]        # 4163a4 <__imp_fopen>
  40e87e:	90                   	nop
  40e87f:	90                   	nop

000000000040e880 <fclose>:
  40e880:	ff 25 16 7b 00 00    	jmp    QWORD PTR [rip+0x7b16]        # 41639c <__imp_fclose>
  40e886:	90                   	nop
  40e887:	90                   	nop

000000000040e888 <exit>:
  40e888:	ff 25 06 7b 00 00    	jmp    QWORD PTR [rip+0x7b06]        # 416394 <__imp_exit>
  40e88e:	90                   	nop
  40e88f:	90                   	nop

000000000040e890 <calloc>:
  40e890:	ff 25 f6 7a 00 00    	jmp    QWORD PTR [rip+0x7af6]        # 41638c <__imp_calloc>
  40e896:	90                   	nop
  40e897:	90                   	nop

000000000040e898 <abort>:
  40e898:	ff 25 e6 7a 00 00    	jmp    QWORD PTR [rip+0x7ae6]        # 416384 <__imp_abort>
  40e89e:	90                   	nop
  40e89f:	90                   	nop

000000000040e8a0 <_onexit>:
  40e8a0:	ff 25 ce 7a 00 00    	jmp    QWORD PTR [rip+0x7ace]        # 416374 <__imp__onexit>
  40e8a6:	90                   	nop
  40e8a7:	90                   	nop

000000000040e8a8 <_initterm>:
  40e8a8:	ff 25 b6 7a 00 00    	jmp    QWORD PTR [rip+0x7ab6]        # 416364 <__imp__initterm>
  40e8ae:	90                   	nop
  40e8af:	90                   	nop

000000000040e8b0 <_errno>:
  40e8b0:	ff 25 9e 7a 00 00    	jmp    QWORD PTR [rip+0x7a9e]        # 416354 <__imp__errno>
  40e8b6:	90                   	nop
  40e8b7:	90                   	nop

000000000040e8b8 <_cexit>:
  40e8b8:	ff 25 86 7a 00 00    	jmp    QWORD PTR [rip+0x7a86]        # 416344 <__imp__cexit>
  40e8be:	90                   	nop
  40e8bf:	90                   	nop

000000000040e8c0 <_amsg_exit>:
  40e8c0:	ff 25 76 7a 00 00    	jmp    QWORD PTR [rip+0x7a76]        # 41633c <__imp__amsg_exit>
  40e8c6:	90                   	nop
  40e8c7:	90                   	nop

000000000040e8c8 <__setusermatherr>:
  40e8c8:	ff 25 5e 7a 00 00    	jmp    QWORD PTR [rip+0x7a5e]        # 41632c <__imp___setusermatherr>
  40e8ce:	90                   	nop
  40e8cf:	90                   	nop

000000000040e8d0 <__set_app_type>:
  40e8d0:	ff 25 4e 7a 00 00    	jmp    QWORD PTR [rip+0x7a4e]        # 416324 <__imp___set_app_type>
  40e8d6:	90                   	nop
  40e8d7:	90                   	nop

000000000040e8d8 <__lconv_init>:
  40e8d8:	ff 25 3e 7a 00 00    	jmp    QWORD PTR [rip+0x7a3e]        # 41631c <__imp___lconv_init>
  40e8de:	90                   	nop
  40e8df:	90                   	nop

000000000040e8e0 <__getmainargs>:
  40e8e0:	ff 25 1e 7a 00 00    	jmp    QWORD PTR [rip+0x7a1e]        # 416304 <__imp___getmainargs>
  40e8e6:	90                   	nop
  40e8e7:	90                   	nop

000000000040e8e8 <__C_specific_handler>:
  40e8e8:	ff 25 fe 79 00 00    	jmp    QWORD PTR [rip+0x79fe]        # 4162ec <__imp___C_specific_handler>
  40e8ee:	90                   	nop
  40e8ef:	90                   	nop

000000000040e8f0 <__mbrtowc_cp>:
  40e8f0:	57                   	push   rdi
  40e8f1:	53                   	push   rbx
  40e8f2:	48 83 ec 48          	sub    rsp,0x48
  40e8f6:	48 89 cf             	mov    rdi,rcx
  40e8f9:	48 89 d3             	mov    rbx,rdx
  40e8fc:	48 85 d2             	test   rdx,rdx
  40e8ff:	0f 84 33 01 00 00    	je     40ea38 <__mbrtowc_cp+0x148>
  40e905:	4d 85 c0             	test   r8,r8
  40e908:	0f 84 33 01 00 00    	je     40ea41 <__mbrtowc_cp+0x151>
  40e90e:	41 8b 01             	mov    eax,DWORD PTR [r9]
  40e911:	0f b6 12             	movzx  edx,BYTE PTR [rdx]
  40e914:	41 c7 01 00 00 00 00 	mov    DWORD PTR [r9],0x0
  40e91b:	89 44 24 3c          	mov    DWORD PTR [rsp+0x3c],eax
  40e91f:	84 d2                	test   dl,dl
  40e921:	0f 84 a1 00 00 00    	je     40e9c8 <__mbrtowc_cp+0xd8>
  40e927:	83 bc 24 88 00 00 00 	cmp    DWORD PTR [rsp+0x88],0x1
  40e92e:	01 
  40e92f:	76 77                	jbe    40e9a8 <__mbrtowc_cp+0xb8>
  40e931:	84 c0                	test   al,al
  40e933:	0f 85 a7 00 00 00    	jne    40e9e0 <__mbrtowc_cp+0xf0>
  40e939:	4c 89 4c 24 78       	mov    QWORD PTR [rsp+0x78],r9
  40e93e:	8b 8c 24 80 00 00 00 	mov    ecx,DWORD PTR [rsp+0x80]
  40e945:	4c 89 44 24 70       	mov    QWORD PTR [rsp+0x70],r8
  40e94a:	ff 15 2c 79 00 00    	call   QWORD PTR [rip+0x792c]        # 41627c <__imp_IsDBCSLeadByteEx>
  40e950:	85 c0                	test   eax,eax
  40e952:	74 54                	je     40e9a8 <__mbrtowc_cp+0xb8>
  40e954:	4c 8b 44 24 70       	mov    r8,QWORD PTR [rsp+0x70]
  40e959:	4c 8b 4c 24 78       	mov    r9,QWORD PTR [rsp+0x78]
  40e95e:	49 83 f8 01          	cmp    r8,0x1
  40e962:	0f 84 f5 00 00 00    	je     40ea5d <__mbrtowc_cp+0x16d>
  40e968:	48 89 7c 24 20       	mov    QWORD PTR [rsp+0x20],rdi
  40e96d:	41 b9 02 00 00 00    	mov    r9d,0x2
  40e973:	49 89 d8             	mov    r8,rbx
  40e976:	c7 44 24 28 01 00 00 	mov    DWORD PTR [rsp+0x28],0x1
  40e97d:	00 
  40e97e:	8b 8c 24 80 00 00 00 	mov    ecx,DWORD PTR [rsp+0x80]
  40e985:	ba 08 00 00 00       	mov    edx,0x8
  40e98a:	ff 15 fc 78 00 00    	call   QWORD PTR [rip+0x78fc]        # 41628c <__imp_MultiByteToWideChar>
  40e990:	85 c0                	test   eax,eax
  40e992:	0f 84 b0 00 00 00    	je     40ea48 <__mbrtowc_cp+0x158>
  40e998:	b8 02 00 00 00       	mov    eax,0x2
  40e99d:	48 83 c4 48          	add    rsp,0x48
  40e9a1:	5b                   	pop    rbx
  40e9a2:	5f                   	pop    rdi
  40e9a3:	c3                   	ret
  40e9a4:	0f 1f 40 00          	nop    DWORD PTR [rax+0x0]
  40e9a8:	8b 84 24 80 00 00 00 	mov    eax,DWORD PTR [rsp+0x80]
  40e9af:	85 c0                	test   eax,eax
  40e9b1:	75 4d                	jne    40ea00 <__mbrtowc_cp+0x110>
  40e9b3:	0f b6 03             	movzx  eax,BYTE PTR [rbx]
  40e9b6:	66 89 07             	mov    WORD PTR [rdi],ax
  40e9b9:	b8 01 00 00 00       	mov    eax,0x1
  40e9be:	48 83 c4 48          	add    rsp,0x48
  40e9c2:	5b                   	pop    rbx
  40e9c3:	5f                   	pop    rdi
  40e9c4:	c3                   	ret
  40e9c5:	0f 1f 00             	nop    DWORD PTR [rax]
  40e9c8:	31 d2                	xor    edx,edx
  40e9ca:	31 c0                	xor    eax,eax
  40e9cc:	66 89 11             	mov    WORD PTR [rcx],dx
  40e9cf:	48 83 c4 48          	add    rsp,0x48
  40e9d3:	5b                   	pop    rbx
  40e9d4:	5f                   	pop    rdi
  40e9d5:	c3                   	ret
  40e9d6:	66 2e 0f 1f 84 00 00 	cs nop WORD PTR [rax+rax*1+0x0]
  40e9dd:	00 00 00 
  40e9e0:	88 54 24 3d          	mov    BYTE PTR [rsp+0x3d],dl
  40e9e4:	41 b9 02 00 00 00    	mov    r9d,0x2
  40e9ea:	4c 8d 44 24 3c       	lea    r8,[rsp+0x3c]
  40e9ef:	c7 44 24 28 01 00 00 	mov    DWORD PTR [rsp+0x28],0x1
  40e9f6:	00 
  40e9f7:	48 89 4c 24 20       	mov    QWORD PTR [rsp+0x20],rcx
  40e9fc:	eb 80                	jmp    40e97e <__mbrtowc_cp+0x8e>
  40e9fe:	66 90                	xchg   ax,ax
  40ea00:	c7 44 24 28 01 00 00 	mov    DWORD PTR [rsp+0x28],0x1
  40ea07:	00 
  40ea08:	8b 8c 24 80 00 00 00 	mov    ecx,DWORD PTR [rsp+0x80]
  40ea0f:	49 89 d8             	mov    r8,rbx
  40ea12:	41 b9 01 00 00 00    	mov    r9d,0x1
  40ea18:	48 89 7c 24 20       	mov    QWORD PTR [rsp+0x20],rdi
  40ea1d:	ba 08 00 00 00       	mov    edx,0x8
  40ea22:	ff 15 64 78 00 00    	call   QWORD PTR [rip+0x7864]        # 41628c <__imp_MultiByteToWideChar>
  40ea28:	85 c0                	test   eax,eax
  40ea2a:	74 1c                	je     40ea48 <__mbrtowc_cp+0x158>
  40ea2c:	b8 01 00 00 00       	mov    eax,0x1
  40ea31:	eb 9c                	jmp    40e9cf <__mbrtowc_cp+0xdf>
  40ea33:	0f 1f 44 00 00       	nop    DWORD PTR [rax+rax*1+0x0]
  40ea38:	31 c0                	xor    eax,eax
  40ea3a:	48 83 c4 48          	add    rsp,0x48
  40ea3e:	5b                   	pop    rbx
  40ea3f:	5f                   	pop    rdi
  40ea40:	c3                   	ret
  40ea41:	b8 fe ff ff ff       	mov    eax,0xfffffffe
  40ea46:	eb 87                	jmp    40e9cf <__mbrtowc_cp+0xdf>
  40ea48:	e8 63 fe ff ff       	call   40e8b0 <_errno>
  40ea4d:	c7 00 2a 00 00 00    	mov    DWORD PTR [rax],0x2a
  40ea53:	b8 ff ff ff ff       	mov    eax,0xffffffff
  40ea58:	e9 72 ff ff ff       	jmp    40e9cf <__mbrtowc_cp+0xdf>
  40ea5d:	0f b6 03             	movzx  eax,BYTE PTR [rbx]
  40ea60:	41 88 01             	mov    BYTE PTR [r9],al
  40ea63:	b8 fe ff ff ff       	mov    eax,0xfffffffe
  40ea68:	e9 62 ff ff ff       	jmp    40e9cf <__mbrtowc_cp+0xdf>
  40ea6d:	0f 1f 00             	nop    DWORD PTR [rax]

000000000040ea70 <mbrtowc>:
  40ea70:	41 55                	push   r13
  40ea72:	41 54                	push   r12
  40ea74:	57                   	push   rdi
  40ea75:	56                   	push   rsi
  40ea76:	53                   	push   rbx
  40ea77:	48 83 ec 40          	sub    rsp,0x40
  40ea7b:	31 c0                	xor    eax,eax
  40ea7d:	49 89 cc             	mov    r12,rcx
  40ea80:	48 85 c9             	test   rcx,rcx
  40ea83:	66 89 44 24 3e       	mov    WORD PTR [rsp+0x3e],ax
  40ea88:	48 8d 44 24 3e       	lea    rax,[rsp+0x3e]
  40ea8d:	4c 89 cb             	mov    rbx,r9
  40ea90:	4c 0f 44 e0          	cmove  r12,rax
  40ea94:	49 89 d5             	mov    r13,rdx
  40ea97:	4c 89 c6             	mov    rsi,r8
  40ea9a:	e8 e9 04 00 00       	call   40ef88 <___mb_cur_max_func>
  40ea9f:	89 c7                	mov    edi,eax
  40eaa1:	e8 ea 04 00 00       	call   40ef90 <___lc_codepage_func>
  40eaa6:	48 85 db             	test   rbx,rbx
  40eaa9:	89 7c 24 28          	mov    DWORD PTR [rsp+0x28],edi
  40eaad:	49 89 f0             	mov    r8,rsi
  40eab0:	89 44 24 20          	mov    DWORD PTR [rsp+0x20],eax
  40eab4:	4c 8d 0d cd 70 00 00 	lea    r9,[rip+0x70cd]        # 415b88 <internal_mbstate.2>
  40eabb:	4c 89 ea             	mov    rdx,r13
  40eabe:	4c 89 e1             	mov    rcx,r12
  40eac1:	4c 0f 45 cb          	cmovne r9,rbx
  40eac5:	e8 26 fe ff ff       	call   40e8f0 <__mbrtowc_cp>
  40eaca:	48 98                	cdqe
  40eacc:	48 83 c4 40          	add    rsp,0x40
  40ead0:	5b                   	pop    rbx
  40ead1:	5e                   	pop    rsi
  40ead2:	5f                   	pop    rdi
  40ead3:	41 5c                	pop    r12
  40ead5:	41 5d                	pop    r13
  40ead7:	c3                   	ret
  40ead8:	0f 1f 84 00 00 00 00 	nop    DWORD PTR [rax+rax*1+0x0]
  40eadf:	00 

000000000040eae0 <mbsrtowcs>:
  40eae0:	41 56                	push   r14
  40eae2:	41 55                	push   r13
  40eae4:	41 54                	push   r12
  40eae6:	55                   	push   rbp
  40eae7:	57                   	push   rdi
  40eae8:	56                   	push   rsi
  40eae9:	53                   	push   rbx
  40eaea:	48 83 ec 40          	sub    rsp,0x40
  40eaee:	48 8d 05 8f 70 00 00 	lea    rax,[rip+0x708f]        # 415b84 <internal_mbstate.1>
  40eaf5:	4d 89 cd             	mov    r13,r9
  40eaf8:	4d 85 c9             	test   r9,r9
  40eafb:	49 89 ce             	mov    r14,rcx
  40eafe:	48 89 d3             	mov    rbx,rdx
  40eb01:	4c 0f 44 e8          	cmove  r13,rax
  40eb05:	4c 89 c6             	mov    rsi,r8
  40eb08:	e8 83 04 00 00       	call   40ef90 <___lc_codepage_func>
  40eb0d:	89 c5                	mov    ebp,eax
  40eb0f:	e8 74 04 00 00       	call   40ef88 <___mb_cur_max_func>
  40eb14:	89 c7                	mov    edi,eax
  40eb16:	48 85 db             	test   rbx,rbx
  40eb19:	0f 84 c1 00 00 00    	je     40ebe0 <mbsrtowcs+0x100>
  40eb1f:	48 8b 13             	mov    rdx,QWORD PTR [rbx]
  40eb22:	48 85 d2             	test   rdx,rdx
  40eb25:	0f 84 b5 00 00 00    	je     40ebe0 <mbsrtowcs+0x100>
  40eb2b:	4d 85 f6             	test   r14,r14
  40eb2e:	74 70                	je     40eba0 <mbsrtowcs+0xc0>
  40eb30:	45 31 e4             	xor    r12d,r12d
  40eb33:	48 85 f6             	test   rsi,rsi
  40eb36:	75 1f                	jne    40eb57 <mbsrtowcs+0x77>
  40eb38:	eb 4a                	jmp    40eb84 <mbsrtowcs+0xa4>
  40eb3a:	66 0f 1f 44 00 00    	nop    WORD PTR [rax+rax*1+0x0]
  40eb40:	48 8b 13             	mov    rdx,QWORD PTR [rbx]
  40eb43:	48 98                	cdqe
  40eb45:	49 83 c6 02          	add    r14,0x2
  40eb49:	49 01 c4             	add    r12,rax
  40eb4c:	48 01 c2             	add    rdx,rax
  40eb4f:	48 89 13             	mov    QWORD PTR [rbx],rdx
  40eb52:	4c 39 e6             	cmp    rsi,r12
  40eb55:	76 2d                	jbe    40eb84 <mbsrtowcs+0xa4>
  40eb57:	89 7c 24 28          	mov    DWORD PTR [rsp+0x28],edi
  40eb5b:	49 89 f0             	mov    r8,rsi
  40eb5e:	4d 89 e9             	mov    r9,r13
  40eb61:	4c 89 f1             	mov    rcx,r14
  40eb64:	89 6c 24 20          	mov    DWORD PTR [rsp+0x20],ebp
  40eb68:	4d 29 e0             	sub    r8,r12
  40eb6b:	e8 80 fd ff ff       	call   40e8f0 <__mbrtowc_cp>
  40eb70:	85 c0                	test   eax,eax
  40eb72:	7f cc                	jg     40eb40 <mbsrtowcs+0x60>
  40eb74:	4c 39 e6             	cmp    rsi,r12
  40eb77:	76 0b                	jbe    40eb84 <mbsrtowcs+0xa4>
  40eb79:	85 c0                	test   eax,eax
  40eb7b:	75 07                	jne    40eb84 <mbsrtowcs+0xa4>
  40eb7d:	48 c7 03 00 00 00 00 	mov    QWORD PTR [rbx],0x0
  40eb84:	4c 89 e0             	mov    rax,r12
  40eb87:	48 83 c4 40          	add    rsp,0x40
  40eb8b:	5b                   	pop    rbx
  40eb8c:	5e                   	pop    rsi
  40eb8d:	5f                   	pop    rdi
  40eb8e:	5d                   	pop    rbp
  40eb8f:	41 5c                	pop    r12
  40eb91:	41 5d                	pop    r13
  40eb93:	41 5e                	pop    r14
  40eb95:	c3                   	ret
  40eb96:	66 2e 0f 1f 84 00 00 	cs nop WORD PTR [rax+rax*1+0x0]
  40eb9d:	00 00 00 
  40eba0:	31 c0                	xor    eax,eax
  40eba2:	41 89 fe             	mov    r14d,edi
  40eba5:	48 8d 74 24 3e       	lea    rsi,[rsp+0x3e]
  40ebaa:	45 31 e4             	xor    r12d,r12d
  40ebad:	66 89 44 24 3e       	mov    WORD PTR [rsp+0x3e],ax
  40ebb2:	eb 0c                	jmp    40ebc0 <mbsrtowcs+0xe0>
  40ebb4:	0f 1f 40 00          	nop    DWORD PTR [rax+0x0]
  40ebb8:	48 98                	cdqe
  40ebba:	48 8b 13             	mov    rdx,QWORD PTR [rbx]
  40ebbd:	49 01 c4             	add    r12,rax
  40ebc0:	89 7c 24 28          	mov    DWORD PTR [rsp+0x28],edi
  40ebc4:	4c 01 e2             	add    rdx,r12
  40ebc7:	4d 89 e9             	mov    r9,r13
  40ebca:	4d 89 f0             	mov    r8,r14
  40ebcd:	89 6c 24 20          	mov    DWORD PTR [rsp+0x20],ebp
  40ebd1:	48 89 f1             	mov    rcx,rsi
  40ebd4:	e8 17 fd ff ff       	call   40e8f0 <__mbrtowc_cp>
  40ebd9:	85 c0                	test   eax,eax
  40ebdb:	7f db                	jg     40ebb8 <mbsrtowcs+0xd8>
  40ebdd:	eb a5                	jmp    40eb84 <mbsrtowcs+0xa4>
  40ebdf:	90                   	nop
  40ebe0:	45 31 e4             	xor    r12d,r12d
  40ebe3:	eb 9f                	jmp    40eb84 <mbsrtowcs+0xa4>
  40ebe5:	66 66 2e 0f 1f 84 00 	data16 cs nop WORD PTR [rax+rax*1+0x0]
  40ebec:	00 00 00 00 

000000000040ebf0 <mbrlen>:
  40ebf0:	41 54                	push   r12
  40ebf2:	57                   	push   rdi
  40ebf3:	56                   	push   rsi
  40ebf4:	53                   	push   rbx
  40ebf5:	48 83 ec 48          	sub    rsp,0x48
  40ebf9:	31 c0                	xor    eax,eax
  40ebfb:	49 89 cc             	mov    r12,rcx
  40ebfe:	48 89 d6             	mov    rsi,rdx
  40ec01:	4c 89 c3             	mov    rbx,r8
  40ec04:	66 89 44 24 3e       	mov    WORD PTR [rsp+0x3e],ax
  40ec09:	e8 7a 03 00 00       	call   40ef88 <___mb_cur_max_func>
  40ec0e:	89 c7                	mov    edi,eax
  40ec10:	e8 7b 03 00 00       	call   40ef90 <___lc_codepage_func>
  40ec15:	48 85 db             	test   rbx,rbx
  40ec18:	89 7c 24 28          	mov    DWORD PTR [rsp+0x28],edi
  40ec1c:	49 89 f0             	mov    r8,rsi
  40ec1f:	48 8d 15 5a 6f 00 00 	lea    rdx,[rip+0x6f5a]        # 415b80 <s_mbstate.0>
  40ec26:	89 44 24 20          	mov    DWORD PTR [rsp+0x20],eax
  40ec2a:	48 8d 4c 24 3e       	lea    rcx,[rsp+0x3e]
  40ec2f:	48 0f 44 da          	cmove  rbx,rdx
  40ec33:	4c 89 e2             	mov    rdx,r12
  40ec36:	49 89 d9             	mov    r9,rbx
  40ec39:	e8 b2 fc ff ff       	call   40e8f0 <__mbrtowc_cp>
  40ec3e:	48 98                	cdqe
  40ec40:	48 83 c4 48          	add    rsp,0x48
  40ec44:	5b                   	pop    rbx
  40ec45:	5e                   	pop    rsi
  40ec46:	5f                   	pop    rdi
  40ec47:	41 5c                	pop    r12
  40ec49:	c3                   	ret
  40ec4a:	90                   	nop
  40ec4b:	90                   	nop
  40ec4c:	90                   	nop
  40ec4d:	90                   	nop
  40ec4e:	90                   	nop
  40ec4f:	90                   	nop

000000000040ec50 <__wcrtomb_cp>:
  40ec50:	48 83 ec 58          	sub    rsp,0x58
  40ec54:	48 89 c8             	mov    rax,rcx
  40ec57:	66 89 54 24 68       	mov    WORD PTR [rsp+0x68],dx
  40ec5c:	44 89 c1             	mov    ecx,r8d
  40ec5f:	45 85 c0             	test   r8d,r8d
  40ec62:	75 1c                	jne    40ec80 <__wcrtomb_cp+0x30>
  40ec64:	66 81 fa ff 00       	cmp    dx,0xff
  40ec69:	77 59                	ja     40ecc4 <__wcrtomb_cp+0x74>
  40ec6b:	88 10                	mov    BYTE PTR [rax],dl
  40ec6d:	b8 01 00 00 00       	mov    eax,0x1
  40ec72:	48 83 c4 58          	add    rsp,0x58
  40ec76:	c3                   	ret
  40ec77:	66 0f 1f 84 00 00 00 	nop    WORD PTR [rax+rax*1+0x0]
  40ec7e:	00 00 
  40ec80:	48 8d 54 24 4c       	lea    rdx,[rsp+0x4c]
  40ec85:	44 89 4c 24 28       	mov    DWORD PTR [rsp+0x28],r9d
  40ec8a:	4c 8d 44 24 68       	lea    r8,[rsp+0x68]
  40ec8f:	41 b9 01 00 00 00    	mov    r9d,0x1
  40ec95:	48 89 54 24 38       	mov    QWORD PTR [rsp+0x38],rdx
  40ec9a:	31 d2                	xor    edx,edx
  40ec9c:	c7 44 24 4c 00 00 00 	mov    DWORD PTR [rsp+0x4c],0x0
  40eca3:	00 
  40eca4:	48 c7 44 24 30 00 00 	mov    QWORD PTR [rsp+0x30],0x0
  40ecab:	00 00 
  40ecad:	48 89 44 24 20       	mov    QWORD PTR [rsp+0x20],rax
  40ecb2:	ff 15 1c 76 00 00    	call   QWORD PTR [rip+0x761c]        # 4162d4 <__imp_WideCharToMultiByte>
  40ecb8:	85 c0                	test   eax,eax
  40ecba:	74 08                	je     40ecc4 <__wcrtomb_cp+0x74>
  40ecbc:	8b 54 24 4c          	mov    edx,DWORD PTR [rsp+0x4c]
  40ecc0:	85 d2                	test   edx,edx
  40ecc2:	74 ae                	je     40ec72 <__wcrtomb_cp+0x22>
  40ecc4:	e8 e7 fb ff ff       	call   40e8b0 <_errno>
  40ecc9:	c7 00 2a 00 00 00    	mov    DWORD PTR [rax],0x2a
  40eccf:	b8 ff ff ff ff       	mov    eax,0xffffffff
  40ecd4:	48 83 c4 58          	add    rsp,0x58
  40ecd8:	c3                   	ret
  40ecd9:	0f 1f 80 00 00 00 00 	nop    DWORD PTR [rax+0x0]

000000000040ece0 <wcrtomb>:
  40ece0:	41 54                	push   r12
  40ece2:	56                   	push   rsi
  40ece3:	53                   	push   rbx
  40ece4:	48 83 ec 30          	sub    rsp,0x30
  40ece8:	48 85 c9             	test   rcx,rcx
  40eceb:	49 89 cc             	mov    r12,rcx
  40ecee:	48 8d 44 24 2b       	lea    rax,[rsp+0x2b]
  40ecf3:	89 d3                	mov    ebx,edx
  40ecf5:	4c 0f 44 e0          	cmove  r12,rax
  40ecf9:	e8 8a 02 00 00       	call   40ef88 <___mb_cur_max_func>
  40ecfe:	89 c6                	mov    esi,eax
  40ed00:	e8 8b 02 00 00       	call   40ef90 <___lc_codepage_func>
  40ed05:	0f b7 d3             	movzx  edx,bx
  40ed08:	41 89 f1             	mov    r9d,esi
  40ed0b:	4c 89 e1             	mov    rcx,r12
  40ed0e:	41 89 c0             	mov    r8d,eax
  40ed11:	e8 3a ff ff ff       	call   40ec50 <__wcrtomb_cp>
  40ed16:	48 98                	cdqe
  40ed18:	48 83 c4 30          	add    rsp,0x30
  40ed1c:	5b                   	pop    rbx
  40ed1d:	5e                   	pop    rsi
  40ed1e:	41 5c                	pop    r12
  40ed20:	c3                   	ret
  40ed21:	66 66 2e 0f 1f 84 00 	data16 cs nop WORD PTR [rax+rax*1+0x0]
  40ed28:	00 00 00 00 
  40ed2c:	0f 1f 40 00          	nop    DWORD PTR [rax+0x0]

000000000040ed30 <wcsrtombs>:
  40ed30:	41 56                	push   r14
  40ed32:	41 55                	push   r13
  40ed34:	41 54                	push   r12
  40ed36:	55                   	push   rbp
  40ed37:	57                   	push   rdi
  40ed38:	56                   	push   rsi
  40ed39:	53                   	push   rbx
  40ed3a:	48 83 ec 30          	sub    rsp,0x30
  40ed3e:	45 31 f6             	xor    r14d,r14d
  40ed41:	49 89 d4             	mov    r12,rdx
  40ed44:	48 89 cb             	mov    rbx,rcx
  40ed47:	4c 89 c5             	mov    rbp,r8
  40ed4a:	e8 41 02 00 00       	call   40ef90 <___lc_codepage_func>
  40ed4f:	89 c7                	mov    edi,eax
  40ed51:	e8 32 02 00 00       	call   40ef88 <___mb_cur_max_func>
  40ed56:	49 8b 34 24          	mov    rsi,QWORD PTR [r12]
  40ed5a:	41 89 c5             	mov    r13d,eax
  40ed5d:	48 85 f6             	test   rsi,rsi
  40ed60:	74 4d                	je     40edaf <wcsrtombs+0x7f>
  40ed62:	48 85 db             	test   rbx,rbx
  40ed65:	74 61                	je     40edc8 <wcsrtombs+0x98>
  40ed67:	48 85 ed             	test   rbp,rbp
  40ed6a:	75 27                	jne    40ed93 <wcsrtombs+0x63>
  40ed6c:	e9 8f 00 00 00       	jmp    40ee00 <wcsrtombs+0xd0>
  40ed71:	0f 1f 80 00 00 00 00 	nop    DWORD PTR [rax+0x0]
  40ed78:	48 98                	cdqe
  40ed7a:	48 01 c3             	add    rbx,rax
  40ed7d:	49 01 c6             	add    r14,rax
  40ed80:	80 7b ff 00          	cmp    BYTE PTR [rbx-0x1],0x0
  40ed84:	0f 84 86 00 00 00    	je     40ee10 <wcsrtombs+0xe0>
  40ed8a:	48 83 c6 02          	add    rsi,0x2
  40ed8e:	4c 39 f5             	cmp    rbp,r14
  40ed91:	76 6d                	jbe    40ee00 <wcsrtombs+0xd0>
  40ed93:	0f b7 16             	movzx  edx,WORD PTR [rsi]
  40ed96:	45 89 e9             	mov    r9d,r13d
  40ed99:	41 89 f8             	mov    r8d,edi
  40ed9c:	48 89 d9             	mov    rcx,rbx
  40ed9f:	e8 ac fe ff ff       	call   40ec50 <__wcrtomb_cp>
  40eda4:	85 c0                	test   eax,eax
  40eda6:	7f d0                	jg     40ed78 <wcsrtombs+0x48>
  40eda8:	49 c7 c6 ff ff ff ff 	mov    r14,0xffffffffffffffff
  40edaf:	4c 89 f0             	mov    rax,r14
  40edb2:	48 83 c4 30          	add    rsp,0x30
  40edb6:	5b                   	pop    rbx
  40edb7:	5e                   	pop    rsi
  40edb8:	5f                   	pop    rdi
  40edb9:	5d                   	pop    rbp
  40edba:	41 5c                	pop    r12
  40edbc:	41 5d                	pop    r13
  40edbe:	41 5e                	pop    r14
  40edc0:	c3                   	ret
  40edc1:	0f 1f 80 00 00 00 00 	nop    DWORD PTR [rax+0x0]
  40edc8:	48 8d 6c 24 2b       	lea    rbp,[rsp+0x2b]
  40edcd:	eb 17                	jmp    40ede6 <wcsrtombs+0xb6>
  40edcf:	90                   	nop
  40edd0:	48 63 d0             	movsxd rdx,eax
  40edd3:	83 e8 01             	sub    eax,0x1
  40edd6:	48 98                	cdqe
  40edd8:	49 01 d6             	add    r14,rdx
  40eddb:	80 7c 04 2b 00       	cmp    BYTE PTR [rsp+rax*1+0x2b],0x0
  40ede0:	74 3e                	je     40ee20 <wcsrtombs+0xf0>
  40ede2:	48 83 c6 02          	add    rsi,0x2
  40ede6:	0f b7 16             	movzx  edx,WORD PTR [rsi]
  40ede9:	45 89 e9             	mov    r9d,r13d
  40edec:	41 89 f8             	mov    r8d,edi
  40edef:	48 89 e9             	mov    rcx,rbp
  40edf2:	e8 59 fe ff ff       	call   40ec50 <__wcrtomb_cp>
  40edf7:	85 c0                	test   eax,eax
  40edf9:	7f d5                	jg     40edd0 <wcsrtombs+0xa0>
  40edfb:	eb ab                	jmp    40eda8 <wcsrtombs+0x78>
  40edfd:	0f 1f 00             	nop    DWORD PTR [rax]
  40ee00:	49 89 34 24          	mov    QWORD PTR [r12],rsi
  40ee04:	eb a9                	jmp    40edaf <wcsrtombs+0x7f>
  40ee06:	66 2e 0f 1f 84 00 00 	cs nop WORD PTR [rax+rax*1+0x0]
  40ee0d:	00 00 00 
  40ee10:	49 c7 04 24 00 00 00 	mov    QWORD PTR [r12],0x0
  40ee17:	00 
  40ee18:	49 83 ee 01          	sub    r14,0x1
  40ee1c:	eb 91                	jmp    40edaf <wcsrtombs+0x7f>
  40ee1e:	66 90                	xchg   ax,ax
  40ee20:	49 83 ee 01          	sub    r14,0x1
  40ee24:	eb 89                	jmp    40edaf <wcsrtombs+0x7f>
  40ee26:	90                   	nop
  40ee27:	90                   	nop
  40ee28:	90                   	nop
  40ee29:	90                   	nop
  40ee2a:	90                   	nop
  40ee2b:	90                   	nop
  40ee2c:	90                   	nop
  40ee2d:	90                   	nop
  40ee2e:	90                   	nop
  40ee2f:	90                   	nop

000000000040ee30 <__acrt_iob_func>:
  40ee30:	53                   	push   rbx
  40ee31:	48 83 ec 20          	sub    rsp,0x20
  40ee35:	89 cb                	mov    ebx,ecx
  40ee37:	e8 44 01 00 00       	call   40ef80 <__iob_func>
  40ee3c:	89 d9                	mov    ecx,ebx
  40ee3e:	48 8d 14 49          	lea    rdx,[rcx+rcx*2]
  40ee42:	48 c1 e2 04          	shl    rdx,0x4
  40ee46:	48 01 d0             	add    rax,rdx
  40ee49:	48 83 c4 20          	add    rsp,0x20
  40ee4d:	5b                   	pop    rbx
  40ee4e:	c3                   	ret
  40ee4f:	90                   	nop

000000000040ee50 <_get_invalid_parameter_handler>:
  40ee50:	48 8b 05 39 6d 00 00 	mov    rax,QWORD PTR [rip+0x6d39]        # 415b90 <handler>
  40ee57:	c3                   	ret
  40ee58:	0f 1f 84 00 00 00 00 	nop    DWORD PTR [rax+rax*1+0x0]
  40ee5f:	00 

000000000040ee60 <_set_invalid_parameter_handler>:
  40ee60:	48 89 c8             	mov    rax,rcx
  40ee63:	48 87 05 26 6d 00 00 	xchg   QWORD PTR [rip+0x6d26],rax        # 415b90 <handler>
  40ee6a:	c3                   	ret
  40ee6b:	90                   	nop
  40ee6c:	90                   	nop
  40ee6d:	90                   	nop
  40ee6e:	90                   	nop
  40ee6f:	90                   	nop

000000000040ee70 <_lock_file>:
  40ee70:	53                   	push   rbx
  40ee71:	48 83 ec 20          	sub    rsp,0x20
  40ee75:	48 89 cb             	mov    rbx,rcx
  40ee78:	31 c9                	xor    ecx,ecx
  40ee7a:	e8 b1 ff ff ff       	call   40ee30 <__acrt_iob_func>
  40ee7f:	48 39 c3             	cmp    rbx,rax
  40ee82:	72 0f                	jb     40ee93 <_lock_file+0x23>
  40ee84:	b9 13 00 00 00       	mov    ecx,0x13
  40ee89:	e8 a2 ff ff ff       	call   40ee30 <__acrt_iob_func>
  40ee8e:	48 39 c3             	cmp    rbx,rax
  40ee91:	76 15                	jbe    40eea8 <_lock_file+0x38>
  40ee93:	48 8d 4b 30          	lea    rcx,[rbx+0x30]
  40ee97:	48 83 c4 20          	add    rsp,0x20
  40ee9b:	5b                   	pop    rbx
  40ee9c:	48 ff 25 a9 73 00 00 	rex.W jmp QWORD PTR [rip+0x73a9]        # 41624c <__imp_EnterCriticalSection>
  40eea3:	0f 1f 44 00 00       	nop    DWORD PTR [rax+rax*1+0x0]
  40eea8:	31 c9                	xor    ecx,ecx
  40eeaa:	e8 81 ff ff ff       	call   40ee30 <__acrt_iob_func>
  40eeaf:	49 89 c0             	mov    r8,rax
  40eeb2:	48 89 d8             	mov    rax,rbx
  40eeb5:	4c 29 c0             	sub    rax,r8
  40eeb8:	48 c1 f8 04          	sar    rax,0x4
  40eebc:	69 c0 ab aa aa aa    	imul   eax,eax,0xaaaaaaab
  40eec2:	8d 48 10             	lea    ecx,[rax+0x10]
  40eec5:	e8 ae 00 00 00       	call   40ef78 <_lock>
  40eeca:	81 4b 18 00 80 00 00 	or     DWORD PTR [rbx+0x18],0x8000
  40eed1:	48 83 c4 20          	add    rsp,0x20
  40eed5:	5b                   	pop    rbx
  40eed6:	c3                   	ret
  40eed7:	66 0f 1f 84 00 00 00 	nop    WORD PTR [rax+rax*1+0x0]
  40eede:	00 00 

000000000040eee0 <_unlock_file>:
  40eee0:	53                   	push   rbx
  40eee1:	48 83 ec 20          	sub    rsp,0x20
  40eee5:	48 89 cb             	mov    rbx,rcx
  40eee8:	31 c9                	xor    ecx,ecx
  40eeea:	e8 41 ff ff ff       	call   40ee30 <__acrt_iob_func>
  40eeef:	48 39 c3             	cmp    rbx,rax
  40eef2:	72 0f                	jb     40ef03 <_unlock_file+0x23>
  40eef4:	b9 13 00 00 00       	mov    ecx,0x13
  40eef9:	e8 32 ff ff ff       	call   40ee30 <__acrt_iob_func>
  40eefe:	48 39 c3             	cmp    rbx,rax
  40ef01:	76 15                	jbe    40ef18 <_unlock_file+0x38>
  40ef03:	48 8d 4b 30          	lea    rcx,[rbx+0x30]
  40ef07:	48 83 c4 20          	add    rsp,0x20
  40ef0b:	5b                   	pop    rbx
  40ef0c:	48 ff 25 71 73 00 00 	rex.W jmp QWORD PTR [rip+0x7371]        # 416284 <__imp_LeaveCriticalSection>
  40ef13:	0f 1f 44 00 00       	nop    DWORD PTR [rax+rax*1+0x0]
  40ef18:	81 63 18 ff 7f ff ff 	and    DWORD PTR [rbx+0x18],0xffff7fff
  40ef1f:	31 c9                	xor    ecx,ecx
  40ef21:	e8 0a ff ff ff       	call   40ee30 <__acrt_iob_func>
  40ef26:	48 29 c3             	sub    rbx,rax
  40ef29:	48 c1 fb 04          	sar    rbx,0x4
  40ef2d:	69 db ab aa aa aa    	imul   ebx,ebx,0xaaaaaaab
  40ef33:	8d 4b 10             	lea    ecx,[rbx+0x10]
  40ef36:	48 83 c4 20          	add    rsp,0x20
  40ef3a:	5b                   	pop    rbx
  40ef3b:	e9 30 00 00 00       	jmp    40ef70 <_unlock>

000000000040ef40 <__p__acmdln>:
  40ef40:	48 8b 05 b9 2b 00 00 	mov    rax,QWORD PTR [rip+0x2bb9]        # 411b00 <.refptr.__imp__acmdln>
  40ef47:	48 8b 00             	mov    rax,QWORD PTR [rax]
  40ef4a:	c3                   	ret
  40ef4b:	90                   	nop
  40ef4c:	90                   	nop
  40ef4d:	90                   	nop
  40ef4e:	90                   	nop
  40ef4f:	90                   	nop

000000000040ef50 <__p__commode>:
  40ef50:	48 8b 05 b9 2b 00 00 	mov    rax,QWORD PTR [rip+0x2bb9]        # 411b10 <.refptr.__imp__commode>
  40ef57:	48 8b 00             	mov    rax,QWORD PTR [rax]
  40ef5a:	c3                   	ret
  40ef5b:	90                   	nop
  40ef5c:	90                   	nop
  40ef5d:	90                   	nop
  40ef5e:	90                   	nop
  40ef5f:	90                   	nop

000000000040ef60 <__p__fmode>:
  40ef60:	48 8b 05 b9 2b 00 00 	mov    rax,QWORD PTR [rip+0x2bb9]        # 411b20 <.refptr.__imp__fmode>
  40ef67:	48 8b 00             	mov    rax,QWORD PTR [rax]
  40ef6a:	c3                   	ret
  40ef6b:	90                   	nop
  40ef6c:	90                   	nop
  40ef6d:	90                   	nop
  40ef6e:	90                   	nop
  40ef6f:	90                   	nop

000000000040ef70 <_unlock>:
  40ef70:	ff 25 06 74 00 00    	jmp    QWORD PTR [rip+0x7406]        # 41637c <__imp__unlock>
  40ef76:	90                   	nop
  40ef77:	90                   	nop

000000000040ef78 <_lock>:
  40ef78:	ff 25 ee 73 00 00    	jmp    QWORD PTR [rip+0x73ee]        # 41636c <__imp__lock>
  40ef7e:	90                   	nop
  40ef7f:	90                   	nop

000000000040ef80 <__iob_func>:
  40ef80:	ff 25 8e 73 00 00    	jmp    QWORD PTR [rip+0x738e]        # 416314 <__imp___iob_func>
  40ef86:	90                   	nop
  40ef87:	90                   	nop

000000000040ef88 <___mb_cur_max_func>:
  40ef88:	ff 25 6e 73 00 00    	jmp    QWORD PTR [rip+0x736e]        # 4162fc <__imp____mb_cur_max_func>
  40ef8e:	90                   	nop
  40ef8f:	90                   	nop

000000000040ef90 <___lc_codepage_func>:
  40ef90:	ff 25 5e 73 00 00    	jmp    QWORD PTR [rip+0x735e]        # 4162f4 <__imp____lc_codepage_func>
  40ef96:	90                   	nop
  40ef97:	90                   	nop
  40ef98:	0f 1f 84 00 00 00 00 	nop    DWORD PTR [rax+rax*1+0x0]
  40ef9f:	00 

000000000040efa0 <WriteFile>:
  40efa0:	ff 25 36 73 00 00    	jmp    QWORD PTR [rip+0x7336]        # 4162dc <__imp_WriteFile>
  40efa6:	90                   	nop
  40efa7:	90                   	nop

000000000040efa8 <WideCharToMultiByte>:
  40efa8:	ff 25 26 73 00 00    	jmp    QWORD PTR [rip+0x7326]        # 4162d4 <__imp_WideCharToMultiByte>
  40efae:	90                   	nop
  40efaf:	90                   	nop

000000000040efb0 <VirtualQuery>:
  40efb0:	ff 25 16 73 00 00    	jmp    QWORD PTR [rip+0x7316]        # 4162cc <__imp_VirtualQuery>
  40efb6:	90                   	nop
  40efb7:	90                   	nop

000000000040efb8 <VirtualProtect>:
  40efb8:	ff 25 06 73 00 00    	jmp    QWORD PTR [rip+0x7306]        # 4162c4 <__imp_VirtualProtect>
  40efbe:	90                   	nop
  40efbf:	90                   	nop

000000000040efc0 <TlsGetValue>:
  40efc0:	ff 25 f6 72 00 00    	jmp    QWORD PTR [rip+0x72f6]        # 4162bc <__imp_TlsGetValue>
  40efc6:	90                   	nop
  40efc7:	90                   	nop

000000000040efc8 <Sleep>:
  40efc8:	ff 25 e6 72 00 00    	jmp    QWORD PTR [rip+0x72e6]        # 4162b4 <__imp_Sleep>
  40efce:	90                   	nop
  40efcf:	90                   	nop

000000000040efd0 <SetUnhandledExceptionFilter>:
  40efd0:	ff 25 d6 72 00 00    	jmp    QWORD PTR [rip+0x72d6]        # 4162ac <__imp_SetUnhandledExceptionFilter>
  40efd6:	90                   	nop
  40efd7:	90                   	nop

000000000040efd8 <SetConsoleTextAttribute>:
  40efd8:	ff 25 c6 72 00 00    	jmp    QWORD PTR [rip+0x72c6]        # 4162a4 <__imp_SetConsoleTextAttribute>
  40efde:	90                   	nop
  40efdf:	90                   	nop

000000000040efe0 <SetCommState>:
  40efe0:	ff 25 b6 72 00 00    	jmp    QWORD PTR [rip+0x72b6]        # 41629c <__imp_SetCommState>
  40efe6:	90                   	nop
  40efe7:	90                   	nop

000000000040efe8 <ReadFile>:
  40efe8:	ff 25 a6 72 00 00    	jmp    QWORD PTR [rip+0x72a6]        # 416294 <__imp_ReadFile>
  40efee:	90                   	nop
  40efef:	90                   	nop

000000000040eff0 <MultiByteToWideChar>:
  40eff0:	ff 25 96 72 00 00    	jmp    QWORD PTR [rip+0x7296]        # 41628c <__imp_MultiByteToWideChar>
  40eff6:	90                   	nop
  40eff7:	90                   	nop

000000000040eff8 <LeaveCriticalSection>:
  40eff8:	ff 25 86 72 00 00    	jmp    QWORD PTR [rip+0x7286]        # 416284 <__imp_LeaveCriticalSection>
  40effe:	90                   	nop
  40efff:	90                   	nop

000000000040f000 <IsDBCSLeadByteEx>:
  40f000:	ff 25 76 72 00 00    	jmp    QWORD PTR [rip+0x7276]        # 41627c <__imp_IsDBCSLeadByteEx>
  40f006:	90                   	nop
  40f007:	90                   	nop

000000000040f008 <InitializeCriticalSection>:
  40f008:	ff 25 66 72 00 00    	jmp    QWORD PTR [rip+0x7266]        # 416274 <__imp_InitializeCriticalSection>
  40f00e:	90                   	nop
  40f00f:	90                   	nop

000000000040f010 <GetStdHandle>:
  40f010:	ff 25 56 72 00 00    	jmp    QWORD PTR [rip+0x7256]        # 41626c <__imp_GetStdHandle>
  40f016:	90                   	nop
  40f017:	90                   	nop

000000000040f018 <GetStartupInfoA>:
  40f018:	ff 25 46 72 00 00    	jmp    QWORD PTR [rip+0x7246]        # 416264 <__imp_GetStartupInfoA>
  40f01e:	90                   	nop
  40f01f:	90                   	nop

000000000040f020 <GetLastError>:
  40f020:	ff 25 36 72 00 00    	jmp    QWORD PTR [rip+0x7236]        # 41625c <__imp_GetLastError>
  40f026:	90                   	nop
  40f027:	90                   	nop

000000000040f028 <GetCommState>:
  40f028:	ff 25 26 72 00 00    	jmp    QWORD PTR [rip+0x7226]        # 416254 <__imp_GetCommState>
  40f02e:	90                   	nop
  40f02f:	90                   	nop

000000000040f030 <EnterCriticalSection>:
  40f030:	ff 25 16 72 00 00    	jmp    QWORD PTR [rip+0x7216]        # 41624c <__imp_EnterCriticalSection>
  40f036:	90                   	nop
  40f037:	90                   	nop

000000000040f038 <DeleteCriticalSection>:
  40f038:	ff 25 06 72 00 00    	jmp    QWORD PTR [rip+0x7206]        # 416244 <__imp_DeleteCriticalSection>
  40f03e:	90                   	nop
  40f03f:	90                   	nop

000000000040f040 <CreateFileA>:
  40f040:	ff 25 f6 71 00 00    	jmp    QWORD PTR [rip+0x71f6]        # 41623c <__imp_CreateFileA>
  40f046:	90                   	nop
  40f047:	90                   	nop

000000000040f048 <CloseHandle>:
  40f048:	ff 25 e6 71 00 00    	jmp    QWORD PTR [rip+0x71e6]        # 416234 <__IAT_start__>
  40f04e:	90                   	nop
  40f04f:	90                   	nop

000000000040f050 <RtlSecureZeroMemory>:
  40f050:	57                   	push   rdi
  40f051:	31 c0                	xor    eax,eax
  40f053:	49 89 c8             	mov    r8,rcx
  40f056:	48 89 cf             	mov    rdi,rcx
  40f059:	48 89 d1             	mov    rcx,rdx
  40f05c:	f3 aa                	rep stos BYTE PTR es:[rdi],al
  40f05e:	4c 89 c0             	mov    rax,r8
  40f061:	5f                   	pop    rdi
  40f062:	c3                   	ret
  40f063:	90                   	nop
  40f064:	90                   	nop
  40f065:	90                   	nop
  40f066:	90                   	nop
  40f067:	90                   	nop
  40f068:	90                   	nop
  40f069:	90                   	nop
  40f06a:	90                   	nop
  40f06b:	90                   	nop
  40f06c:	90                   	nop
  40f06d:	90                   	nop
  40f06e:	90                   	nop
  40f06f:	90                   	nop

000000000040f070 <register_frame_ctor>:
  40f070:	e9 ab 24 ff ff       	jmp    401520 <__gcc_register_frame>
  40f075:	90                   	nop
  40f076:	90                   	nop
  40f077:	90                   	nop
  40f078:	90                   	nop
  40f079:	90                   	nop
  40f07a:	90                   	nop
  40f07b:	90                   	nop
  40f07c:	90                   	nop
  40f07d:	90                   	nop
  40f07e:	90                   	nop
  40f07f:	90                   	nop

000000000040f080 <__CTOR_LIST__>:
  40f080:	ff                   	(bad)
  40f081:	ff                   	(bad)
  40f082:	ff                   	(bad)
  40f083:	ff                   	(bad)
  40f084:	ff                   	(bad)
  40f085:	ff                   	(bad)
  40f086:	ff                   	(bad)
  40f087:	ff                   	.byte 0xff

000000000040f088 <.ctors.65535>:
  40f088:	70 f0                	jo     40f07a <register_frame_ctor+0xa>
  40f08a:	40 00 00             	rex add BYTE PTR [rax],al
	...

000000000040f098 <__DTOR_LIST__>:
  40f098:	ff                   	(bad)
  40f099:	ff                   	(bad)
  40f09a:	ff                   	(bad)
  40f09b:	ff                   	(bad)
  40f09c:	ff                   	(bad)
  40f09d:	ff                   	(bad)
  40f09e:	ff                   	(bad)
  40f09f:	ff 00                	inc    DWORD PTR [rax]
  40f0a1:	00 00                	add    BYTE PTR [rax],al
  40f0a3:	00 00                	add    BYTE PTR [rax],al
  40f0a5:	00 00                	add    BYTE PTR [rax],al
	...
