
uploader_x64:     file format elf64-x86-64


Disassembly of section .init:

0000000000001000 <_init>:
    1000:	48 83 ec 08          	sub    rsp,0x8
    1004:	48 8b 05 dd 0f 01 00 	mov    rax,QWORD PTR [rip+0x10fdd]        # 11fe8 <__gmon_start__>
    100b:	48 85 c0             	test   rax,rax
    100e:	74 02                	je     1012 <_init+0x12>
    1010:	ff d0                	call   rax
    1012:	48 83 c4 08          	add    rsp,0x8
    1016:	c3                   	ret

Disassembly of section .plt:

0000000000001020 <.plt>:
    1020:	ff 35 e2 0f 01 00    	push   QWORD PTR [rip+0x10fe2]        # 12008 <_GLOBAL_OFFSET_TABLE_+0x8>
    1026:	ff 25 e4 0f 01 00    	jmp    QWORD PTR [rip+0x10fe4]        # 12010 <_GLOBAL_OFFSET_TABLE_+0x10>
    102c:	0f 1f 40 00          	nop    DWORD PTR [rax+0x0]

0000000000001030 <putchar@plt>:
    1030:	ff 25 e2 0f 01 00    	jmp    QWORD PTR [rip+0x10fe2]        # 12018 <putchar@GLIBC_2.2.5>
    1036:	68 00 00 00 00       	push   0x0
    103b:	e9 e0 ff ff ff       	jmp    1020 <.plt>

0000000000001040 <__errno_location@plt>:
    1040:	ff 25 da 0f 01 00    	jmp    QWORD PTR [rip+0x10fda]        # 12020 <__errno_location@GLIBC_2.2.5>
    1046:	68 01 00 00 00       	push   0x1
    104b:	e9 d0 ff ff ff       	jmp    1020 <.plt>

0000000000001050 <puts@plt>:
    1050:	ff 25 d2 0f 01 00    	jmp    QWORD PTR [rip+0x10fd2]        # 12028 <puts@GLIBC_2.2.5>
    1056:	68 02 00 00 00       	push   0x2
    105b:	e9 c0 ff ff ff       	jmp    1020 <.plt>

0000000000001060 <fread@plt>:
    1060:	ff 25 ca 0f 01 00    	jmp    QWORD PTR [rip+0x10fca]        # 12030 <fread@GLIBC_2.2.5>
    1066:	68 03 00 00 00       	push   0x3
    106b:	e9 b0 ff ff ff       	jmp    1020 <.plt>

0000000000001070 <write@plt>:
    1070:	ff 25 c2 0f 01 00    	jmp    QWORD PTR [rip+0x10fc2]        # 12038 <write@GLIBC_2.2.5>
    1076:	68 04 00 00 00       	push   0x4
    107b:	e9 a0 ff ff ff       	jmp    1020 <.plt>

0000000000001080 <fclose@plt>:
    1080:	ff 25 ba 0f 01 00    	jmp    QWORD PTR [rip+0x10fba]        # 12040 <fclose@GLIBC_2.2.5>
    1086:	68 05 00 00 00       	push   0x5
    108b:	e9 90 ff ff ff       	jmp    1020 <.plt>

0000000000001090 <cfsetospeed@plt>:
    1090:	ff 25 b2 0f 01 00    	jmp    QWORD PTR [rip+0x10fb2]        # 12048 <cfsetospeed@GLIBC_2.2.5>
    1096:	68 06 00 00 00       	push   0x6
    109b:	e9 80 ff ff ff       	jmp    1020 <.plt>

00000000000010a0 <printf@plt>:
    10a0:	ff 25 aa 0f 01 00    	jmp    QWORD PTR [rip+0x10faa]        # 12050 <printf@GLIBC_2.2.5>
    10a6:	68 07 00 00 00       	push   0x7
    10ab:	e9 70 ff ff ff       	jmp    1020 <.plt>

00000000000010b0 <ioctl@plt>:
    10b0:	ff 25 a2 0f 01 00    	jmp    QWORD PTR [rip+0x10fa2]        # 12058 <ioctl@GLIBC_2.2.5>
    10b6:	68 08 00 00 00       	push   0x8
    10bb:	e9 60 ff ff ff       	jmp    1020 <.plt>

00000000000010c0 <strncat@plt>:
    10c0:	ff 25 9a 0f 01 00    	jmp    QWORD PTR [rip+0x10f9a]        # 12060 <strncat@GLIBC_2.2.5>
    10c6:	68 09 00 00 00       	push   0x9
    10cb:	e9 50 ff ff ff       	jmp    1020 <.plt>

00000000000010d0 <close@plt>:
    10d0:	ff 25 92 0f 01 00    	jmp    QWORD PTR [rip+0x10f92]        # 12068 <close@GLIBC_2.2.5>
    10d6:	68 0a 00 00 00       	push   0xa
    10db:	e9 40 ff ff ff       	jmp    1020 <.plt>

00000000000010e0 <read@plt>:
    10e0:	ff 25 8a 0f 01 00    	jmp    QWORD PTR [rip+0x10f8a]        # 12070 <read@GLIBC_2.2.5>
    10e6:	68 0b 00 00 00       	push   0xb
    10eb:	e9 30 ff ff ff       	jmp    1020 <.plt>

00000000000010f0 <tcgetattr@plt>:
    10f0:	ff 25 82 0f 01 00    	jmp    QWORD PTR [rip+0x10f82]        # 12078 <tcgetattr@GLIBC_2.2.5>
    10f6:	68 0c 00 00 00       	push   0xc
    10fb:	e9 20 ff ff ff       	jmp    1020 <.plt>

0000000000001100 <tcsetattr@plt>:
    1100:	ff 25 7a 0f 01 00    	jmp    QWORD PTR [rip+0x10f7a]        # 12080 <tcsetattr@GLIBC_2.2.5>
    1106:	68 0d 00 00 00       	push   0xd
    110b:	e9 10 ff ff ff       	jmp    1020 <.plt>

0000000000001110 <open@plt>:
    1110:	ff 25 72 0f 01 00    	jmp    QWORD PTR [rip+0x10f72]        # 12088 <open@GLIBC_2.2.5>
    1116:	68 0e 00 00 00       	push   0xe
    111b:	e9 00 ff ff ff       	jmp    1020 <.plt>

0000000000001120 <fopen@plt>:
    1120:	ff 25 6a 0f 01 00    	jmp    QWORD PTR [rip+0x10f6a]        # 12090 <fopen@GLIBC_2.2.5>
    1126:	68 0f 00 00 00       	push   0xf
    112b:	e9 f0 fe ff ff       	jmp    1020 <.plt>

0000000000001130 <cfsetispeed@plt>:
    1130:	ff 25 62 0f 01 00    	jmp    QWORD PTR [rip+0x10f62]        # 12098 <cfsetispeed@GLIBC_2.2.5>
    1136:	68 10 00 00 00       	push   0x10
    113b:	e9 e0 fe ff ff       	jmp    1020 <.plt>

0000000000001140 <strerror@plt>:
    1140:	ff 25 5a 0f 01 00    	jmp    QWORD PTR [rip+0x10f5a]        # 120a0 <strerror@GLIBC_2.2.5>
    1146:	68 11 00 00 00       	push   0x11
    114b:	e9 d0 fe ff ff       	jmp    1020 <.plt>

0000000000001150 <usleep@plt>:
    1150:	ff 25 52 0f 01 00    	jmp    QWORD PTR [rip+0x10f52]        # 120a8 <usleep@GLIBC_2.2.5>
    1156:	68 12 00 00 00       	push   0x12
    115b:	e9 c0 fe ff ff       	jmp    1020 <.plt>

Disassembly of section .plt.got:

0000000000001160 <__cxa_finalize@plt>:
    1160:	ff 25 92 0e 01 00    	jmp    QWORD PTR [rip+0x10e92]        # 11ff8 <__cxa_finalize@GLIBC_2.2.5>
    1166:	66 90                	xchg   ax,ax

Disassembly of section .text:

0000000000001170 <_start>:
    1170:	31 ed                	xor    ebp,ebp
    1172:	49 89 d1             	mov    r9,rdx
    1175:	5e                   	pop    rsi
    1176:	48 89 e2             	mov    rdx,rsp
    1179:	48 83 e4 f0          	and    rsp,0xfffffffffffffff0
    117d:	50                   	push   rax
    117e:	54                   	push   rsp
    117f:	4c 8d 05 9a e5 00 00 	lea    r8,[rip+0xe59a]        # f720 <__libc_csu_fini>
    1186:	48 8d 0d 33 e5 00 00 	lea    rcx,[rip+0xe533]        # f6c0 <__libc_csu_init>
    118d:	48 8d 3d 05 02 00 00 	lea    rdi,[rip+0x205]        # 1399 <main>
    1194:	ff 15 46 0e 01 00    	call   QWORD PTR [rip+0x10e46]        # 11fe0 <__libc_start_main@GLIBC_2.2.5>
    119a:	f4                   	hlt
    119b:	0f 1f 44 00 00       	nop    DWORD PTR [rax+rax*1+0x0]

00000000000011a0 <deregister_tm_clones>:
    11a0:	48 8d 3d 29 0f 01 00 	lea    rdi,[rip+0x10f29]        # 120d0 <__TMC_END__>
    11a7:	48 8d 05 22 0f 01 00 	lea    rax,[rip+0x10f22]        # 120d0 <__TMC_END__>
    11ae:	48 39 f8             	cmp    rax,rdi
    11b1:	74 15                	je     11c8 <deregister_tm_clones+0x28>
    11b3:	48 8b 05 1e 0e 01 00 	mov    rax,QWORD PTR [rip+0x10e1e]        # 11fd8 <_ITM_deregisterTMCloneTable>
    11ba:	48 85 c0             	test   rax,rax
    11bd:	74 09                	je     11c8 <deregister_tm_clones+0x28>
    11bf:	ff e0                	jmp    rax
    11c1:	0f 1f 80 00 00 00 00 	nop    DWORD PTR [rax+0x0]
    11c8:	c3                   	ret
    11c9:	0f 1f 80 00 00 00 00 	nop    DWORD PTR [rax+0x0]

00000000000011d0 <register_tm_clones>:
    11d0:	48 8d 3d f9 0e 01 00 	lea    rdi,[rip+0x10ef9]        # 120d0 <__TMC_END__>
    11d7:	48 8d 35 f2 0e 01 00 	lea    rsi,[rip+0x10ef2]        # 120d0 <__TMC_END__>
    11de:	48 29 fe             	sub    rsi,rdi
    11e1:	48 c1 fe 03          	sar    rsi,0x3
    11e5:	48 89 f0             	mov    rax,rsi
    11e8:	48 c1 e8 3f          	shr    rax,0x3f
    11ec:	48 01 c6             	add    rsi,rax
    11ef:	48 d1 fe             	sar    rsi,1
    11f2:	74 14                	je     1208 <register_tm_clones+0x38>
    11f4:	48 8b 05 f5 0d 01 00 	mov    rax,QWORD PTR [rip+0x10df5]        # 11ff0 <_ITM_registerTMCloneTable>
    11fb:	48 85 c0             	test   rax,rax
    11fe:	74 08                	je     1208 <register_tm_clones+0x38>
    1200:	ff e0                	jmp    rax
    1202:	66 0f 1f 44 00 00    	nop    WORD PTR [rax+rax*1+0x0]
    1208:	c3                   	ret
    1209:	0f 1f 80 00 00 00 00 	nop    DWORD PTR [rax+0x0]

0000000000001210 <__do_global_dtors_aux>:
    1210:	80 3d b9 0e 01 00 00 	cmp    BYTE PTR [rip+0x10eb9],0x0        # 120d0 <__TMC_END__>
    1217:	75 2f                	jne    1248 <__do_global_dtors_aux+0x38>
    1219:	55                   	push   rbp
    121a:	48 83 3d d6 0d 01 00 	cmp    QWORD PTR [rip+0x10dd6],0x0        # 11ff8 <__cxa_finalize@GLIBC_2.2.5>
    1221:	00 
    1222:	48 89 e5             	mov    rbp,rsp
    1225:	74 0c                	je     1233 <__do_global_dtors_aux+0x23>
    1227:	48 8b 3d 8a 0e 01 00 	mov    rdi,QWORD PTR [rip+0x10e8a]        # 120b8 <__dso_handle>
    122e:	e8 2d ff ff ff       	call   1160 <__cxa_finalize@plt>
    1233:	e8 68 ff ff ff       	call   11a0 <deregister_tm_clones>
    1238:	c6 05 91 0e 01 00 01 	mov    BYTE PTR [rip+0x10e91],0x1        # 120d0 <__TMC_END__>
    123f:	5d                   	pop    rbp
    1240:	c3                   	ret
    1241:	0f 1f 80 00 00 00 00 	nop    DWORD PTR [rax+0x0]
    1248:	c3                   	ret
    1249:	0f 1f 80 00 00 00 00 	nop    DWORD PTR [rax+0x0]

0000000000001250 <frame_dummy>:
    1250:	e9 7b ff ff ff       	jmp    11d0 <register_tm_clones>

0000000000001255 <reset_card>:
    1255:	55                   	push   rbp
    1256:	48 89 e5             	mov    rbp,rsp
    1259:	8b 05 a1 0e 01 00    	mov    eax,DWORD PTR [rip+0x10ea1]        # 12100 <fd>
    125f:	48 8d 15 9e 0e 01 00 	lea    rdx,[rip+0x10e9e]        # 12104 <status>
    1266:	be 15 54 00 00       	mov    esi,0x5415
    126b:	89 c7                	mov    edi,eax
    126d:	b8 00 00 00 00       	mov    eax,0x0
    1272:	e8 39 fe ff ff       	call   10b0 <ioctl@plt>
    1277:	8b 05 87 0e 01 00    	mov    eax,DWORD PTR [rip+0x10e87]        # 12104 <status>
    127d:	83 c8 04             	or     eax,0x4
    1280:	89 05 7e 0e 01 00    	mov    DWORD PTR [rip+0x10e7e],eax        # 12104 <status>
    1286:	8b 05 74 0e 01 00    	mov    eax,DWORD PTR [rip+0x10e74]        # 12100 <fd>
    128c:	48 8d 15 71 0e 01 00 	lea    rdx,[rip+0x10e71]        # 12104 <status>
    1293:	be 18 54 00 00       	mov    esi,0x5418
    1298:	89 c7                	mov    edi,eax
    129a:	b8 00 00 00 00       	mov    eax,0x0
    129f:	e8 0c fe ff ff       	call   10b0 <ioctl@plt>
    12a4:	bf 50 c3 00 00       	mov    edi,0xc350
    12a9:	e8 a2 fe ff ff       	call   1150 <usleep@plt>
    12ae:	8b 05 4c 0e 01 00    	mov    eax,DWORD PTR [rip+0x10e4c]        # 12100 <fd>
    12b4:	48 8d 15 49 0e 01 00 	lea    rdx,[rip+0x10e49]        # 12104 <status>
    12bb:	be 15 54 00 00       	mov    esi,0x5415
    12c0:	89 c7                	mov    edi,eax
    12c2:	b8 00 00 00 00       	mov    eax,0x0
    12c7:	e8 e4 fd ff ff       	call   10b0 <ioctl@plt>
    12cc:	8b 05 32 0e 01 00    	mov    eax,DWORD PTR [rip+0x10e32]        # 12104 <status>
    12d2:	83 e0 fb             	and    eax,0xfffffffb
    12d5:	89 05 29 0e 01 00    	mov    DWORD PTR [rip+0x10e29],eax        # 12104 <status>
    12db:	8b 05 1f 0e 01 00    	mov    eax,DWORD PTR [rip+0x10e1f]        # 12100 <fd>
    12e1:	48 8d 15 1c 0e 01 00 	lea    rdx,[rip+0x10e1c]        # 12104 <status>
    12e8:	be 18 54 00 00       	mov    esi,0x5418
    12ed:	89 c7                	mov    edi,eax
    12ef:	b8 00 00 00 00       	mov    eax,0x0
    12f4:	e8 b7 fd ff ff       	call   10b0 <ioctl@plt>
    12f9:	bf 64 00 00 00       	mov    edi,0x64
    12fe:	e8 4d fe ff ff       	call   1150 <usleep@plt>
    1303:	90                   	nop
    1304:	5d                   	pop    rbp
    1305:	c3                   	ret

0000000000001306 <ReadData>:
    1306:	55                   	push   rbp
    1307:	48 89 e5             	mov    rbp,rsp
    130a:	48 83 ec 30          	sub    rsp,0x30
    130e:	89 7d dc             	mov    DWORD PTR [rbp-0x24],edi
    1311:	c6 45 ef 00          	mov    BYTE PTR [rbp-0x11],0x0
    1315:	c6 05 c8 0d 01 00 00 	mov    BYTE PTR [rip+0x10dc8],0x0        # 120e4 <i>
    131c:	eb 46                	jmp    1364 <ReadData+0x5e>
    131e:	8b 05 dc 0d 01 00    	mov    eax,DWORD PTR [rip+0x10ddc]        # 12100 <fd>
    1324:	48 8d 4d ef          	lea    rcx,[rbp-0x11]
    1328:	ba 01 00 00 00       	mov    edx,0x1
    132d:	48 89 ce             	mov    rsi,rcx
    1330:	89 c7                	mov    edi,eax
    1332:	e8 a9 fd ff ff       	call   10e0 <read@plt>
    1337:	89 45 fc             	mov    DWORD PTR [rbp-0x4],eax
    133a:	0f b6 05 a3 0d 01 00 	movzx  eax,BYTE PTR [rip+0x10da3]        # 120e4 <i>
    1341:	0f b6 c0             	movzx  eax,al
    1344:	0f b6 55 ef          	movzx  edx,BYTE PTR [rbp-0x11]
    1348:	48 98                	cdqe
    134a:	48 8d 0d 9f 0d 01 00 	lea    rcx,[rip+0x10d9f]        # 120f0 <rx>
    1351:	88 14 08             	mov    BYTE PTR [rax+rcx*1],dl
    1354:	0f b6 05 89 0d 01 00 	movzx  eax,BYTE PTR [rip+0x10d89]        # 120e4 <i>
    135b:	83 c0 01             	add    eax,0x1
    135e:	88 05 80 0d 01 00    	mov    BYTE PTR [rip+0x10d80],al        # 120e4 <i>
    1364:	0f b6 05 79 0d 01 00 	movzx  eax,BYTE PTR [rip+0x10d79]        # 120e4 <i>
    136b:	0f b6 c0             	movzx  eax,al
    136e:	39 45 dc             	cmp    DWORD PTR [rbp-0x24],eax
    1371:	7f ab                	jg     131e <ReadData+0x18>
    1373:	83 7d fc ff          	cmp    DWORD PTR [rbp-0x4],0xffffffff
    1377:	75 1e                	jne    1397 <ReadData+0x91>
    1379:	e8 c2 fc ff ff       	call   1040 <__errno_location@plt>
    137e:	8b 00                	mov    eax,DWORD PTR [rax]
    1380:	89 c7                	mov    edi,eax
    1382:	e8 b9 fd ff ff       	call   1140 <strerror@plt>
    1387:	48 89 45 f0          	mov    QWORD PTR [rbp-0x10],rax
    138b:	48 8b 45 f0          	mov    rax,QWORD PTR [rbp-0x10]
    138f:	48 89 c7             	mov    rdi,rax
    1392:	e8 b9 fc ff ff       	call   1050 <puts@plt>
    1397:	c9                   	leave
    1398:	c3                   	ret

0000000000001399 <main>:
    1399:	55                   	push   rbp
    139a:	48 89 e5             	mov    rbp,rsp
    139d:	48 81 ec 50 4c 00 00 	sub    rsp,0x4c50
    13a4:	89 bd bc b3 ff ff    	mov    DWORD PTR [rbp-0x4c44],edi
    13aa:	48 89 b5 b0 b3 ff ff 	mov    QWORD PTR [rbp-0x4c50],rsi
    13b1:	c6 85 7c ff ff ff 1a 	mov    BYTE PTR [rbp-0x84],0x1a
    13b8:	c6 85 7d ff ff ff 03 	mov    BYTE PTR [rbp-0x83],0x3
    13bf:	c6 85 7e ff ff ff 00 	mov    BYTE PTR [rbp-0x82],0x0
    13c6:	c6 85 7f ff ff ff 09 	mov    BYTE PTR [rbp-0x81],0x9
    13cd:	48 c7 45 f8 00 00 00 	mov    QWORD PTR [rbp-0x8],0x0
    13d4:	00 
    13d5:	48 c7 85 72 ff ff ff 	mov    QWORD PTR [rbp-0x8e],0x0
    13dc:	00 00 00 00 
    13e0:	66 c7 85 7a ff ff ff 	mov    WORD PTR [rbp-0x86],0x0
    13e7:	00 00 
    13e9:	c6 85 72 ff ff ff ff 	mov    BYTE PTR [rbp-0x8e],0xff
    13f0:	c6 85 73 ff ff ff 10 	mov    BYTE PTR [rbp-0x8d],0x10
    13f7:	c6 85 74 ff ff ff 96 	mov    BYTE PTR [rbp-0x8c],0x96
    13fe:	c6 85 75 ff ff ff 79 	mov    BYTE PTR [rbp-0x8b],0x79
    1405:	83 bd bc b3 ff ff 03 	cmp    DWORD PTR [rbp-0x4c44],0x3
    140c:	0f 84 86 00 00 00    	je     1498 <main+0xff>
    1412:	83 bd bc b3 ff ff 02 	cmp    DWORD PTR [rbp-0x4c44],0x2
    1419:	74 7d                	je     1498 <main+0xff>
    141b:	48 8d 3d e6 eb 00 00 	lea    rdi,[rip+0xebe6]        # 10008 <_IO_stdin_used+0x8>
    1422:	e8 29 fc ff ff       	call   1050 <puts@plt>
    1427:	48 8d 3d 22 ec 00 00 	lea    rdi,[rip+0xec22]        # 10050 <_IO_stdin_used+0x50>
    142e:	e8 1d fc ff ff       	call   1050 <puts@plt>
    1433:	48 8d 3d 5e ec 00 00 	lea    rdi,[rip+0xec5e]        # 10098 <_IO_stdin_used+0x98>
    143a:	e8 11 fc ff ff       	call   1050 <puts@plt>
    143f:	48 8d 3d 9a ec 00 00 	lea    rdi,[rip+0xec9a]        # 100e0 <_IO_stdin_used+0xe0>
    1446:	e8 05 fc ff ff       	call   1050 <puts@plt>
    144b:	48 8d 3d b6 eb 00 00 	lea    rdi,[rip+0xebb6]        # 10008 <_IO_stdin_used+0x8>
    1452:	e8 f9 fb ff ff       	call   1050 <puts@plt>
    1457:	48 8d 3d c3 ec 00 00 	lea    rdi,[rip+0xecc3]        # 10121 <_IO_stdin_used+0x121>
    145e:	e8 ed fb ff ff       	call   1050 <puts@plt>
    1463:	48 8d 3d be ec 00 00 	lea    rdi,[rip+0xecbe]        # 10128 <_IO_stdin_used+0x128>
    146a:	e8 e1 fb ff ff       	call   1050 <puts@plt>
    146f:	48 8d 3d e3 ec 00 00 	lea    rdi,[rip+0xece3]        # 10159 <_IO_stdin_used+0x159>
    1476:	e8 d5 fb ff ff       	call   1050 <puts@plt>
    147b:	48 8d 3d e6 ec 00 00 	lea    rdi,[rip+0xece6]        # 10168 <_IO_stdin_used+0x168>
    1482:	e8 c9 fb ff ff       	call   1050 <puts@plt>
    1487:	48 8d 3d 22 ed 00 00 	lea    rdi,[rip+0xed22]        # 101b0 <_IO_stdin_used+0x1b0>
    148e:	e8 bd fb ff ff       	call   1050 <puts@plt>
    1493:	e9 25 e2 00 00       	jmp    f6bd <main+0xe324>
    1498:	83 bd bc b3 ff ff 03 	cmp    DWORD PTR [rbp-0x4c44],0x3
    149f:	75 7b                	jne    151c <main+0x183>
    14a1:	48 8b 85 b0 b3 ff ff 	mov    rax,QWORD PTR [rbp-0x4c50]
    14a8:	48 83 c0 10          	add    rax,0x10
    14ac:	48 8b 00             	mov    rax,QWORD PTR [rax]
    14af:	48 8d 35 41 ed 00 00 	lea    rsi,[rip+0xed41]        # 101f7 <_IO_stdin_used+0x1f7>
    14b6:	48 89 c7             	mov    rdi,rax
    14b9:	e8 62 fc ff ff       	call   1120 <fopen@plt>
    14be:	48 89 45 f0          	mov    QWORD PTR [rbp-0x10],rax
    14c2:	48 83 7d f0 00       	cmp    QWORD PTR [rbp-0x10],0x0
    14c7:	75 11                	jne    14da <main+0x141>
    14c9:	48 8d 3d 2a ed 00 00 	lea    rdi,[rip+0xed2a]        # 101fa <_IO_stdin_used+0x1fa>
    14d0:	e8 7b fb ff ff       	call   1050 <puts@plt>
    14d5:	e9 e3 e1 00 00       	jmp    f6bd <main+0xe324>
    14da:	48 8b 55 f0          	mov    rdx,QWORD PTR [rbp-0x10]
    14de:	48 8d 45 80          	lea    rax,[rbp-0x80]
    14e2:	48 89 d1             	mov    rcx,rdx
    14e5:	ba 5a 00 00 00       	mov    edx,0x5a
    14ea:	be 04 00 00 00       	mov    esi,0x4
    14ef:	48 89 c7             	mov    rdi,rax
    14f2:	e8 69 fb ff ff       	call   1060 <fread@plt>
    14f7:	0f b6 45 80          	movzx  eax,BYTE PTR [rbp-0x80]
    14fb:	3c 7d                	cmp    al,0x7d
    14fd:	74 11                	je     1510 <main+0x177>
    14ff:	48 8d 3d 04 ed 00 00 	lea    rdi,[rip+0xed04]        # 1020a <_IO_stdin_used+0x20a>
    1506:	e8 45 fb ff ff       	call   1050 <puts@plt>
    150b:	e9 ad e1 00 00       	jmp    f6bd <main+0xe324>
    1510:	48 8b 45 f0          	mov    rax,QWORD PTR [rbp-0x10]
    1514:	48 89 c7             	mov    rdi,rax
    1517:	e8 64 fb ff ff       	call   1080 <fclose@plt>
    151c:	48 8d 95 60 fe ff ff 	lea    rdx,[rbp-0x1a0]
    1523:	b8 00 00 00 00       	mov    eax,0x0
    1528:	b9 21 00 00 00       	mov    ecx,0x21
    152d:	48 89 d7             	mov    rdi,rdx
    1530:	f3 48 ab             	rep stos QWORD PTR es:[rdi],rax
    1533:	48 89 fa             	mov    rdx,rdi
    1536:	89 02                	mov    DWORD PTR [rdx],eax
    1538:	48 83 c2 04          	add    rdx,0x4
    153c:	66 89 02             	mov    WORD PTR [rdx],ax
    153f:	48 83 c2 02          	add    rdx,0x2
    1543:	c6 85 61 fe ff ff 50 	mov    BYTE PTR [rbp-0x19f],0x50
    154a:	c6 85 63 fe ff ff 06 	mov    BYTE PTR [rbp-0x19d],0x6
    1551:	48 8d 95 50 fd ff ff 	lea    rdx,[rbp-0x2b0]
    1558:	b8 00 00 00 00       	mov    eax,0x0
    155d:	b9 21 00 00 00       	mov    ecx,0x21
    1562:	48 89 d7             	mov    rdi,rdx
    1565:	f3 48 ab             	rep stos QWORD PTR es:[rdi],rax
    1568:	48 89 fa             	mov    rdx,rdi
    156b:	89 02                	mov    DWORD PTR [rdx],eax
    156d:	48 83 c2 04          	add    rdx,0x4
    1571:	66 89 02             	mov    WORD PTR [rdx],ax
    1574:	48 83 c2 02          	add    rdx,0x2
    1578:	c6 85 51 fd ff ff 3e 	mov    BYTE PTR [rbp-0x2af],0x3e
    157f:	c6 85 52 fd ff ff 82 	mov    BYTE PTR [rbp-0x2ae],0x82
    1586:	c6 85 54 fd ff ff 02 	mov    BYTE PTR [rbp-0x2ac],0x2
    158d:	48 8d 95 40 fc ff ff 	lea    rdx,[rbp-0x3c0]
    1594:	b8 00 00 00 00       	mov    eax,0x0
    1599:	b9 21 00 00 00       	mov    ecx,0x21
    159e:	48 89 d7             	mov    rdi,rdx
    15a1:	f3 48 ab             	rep stos QWORD PTR es:[rdi],rax
    15a4:	48 89 fa             	mov    rdx,rdi
    15a7:	89 02                	mov    DWORD PTR [rdx],eax
    15a9:	48 83 c2 04          	add    rdx,0x4
    15ad:	66 89 02             	mov    WORD PTR [rdx],ax
    15b0:	48 83 c2 02          	add    rdx,0x2
    15b4:	c6 85 41 fc ff ff 0e 	mov    BYTE PTR [rbp-0x3bf],0xe
    15bb:	48 8d 95 30 fb ff ff 	lea    rdx,[rbp-0x4d0]
    15c2:	b8 00 00 00 00       	mov    eax,0x0
    15c7:	b9 21 00 00 00       	mov    ecx,0x21
    15cc:	48 89 d7             	mov    rdi,rdx
    15cf:	f3 48 ab             	rep stos QWORD PTR es:[rdi],rax
    15d2:	48 89 fa             	mov    rdx,rdi
    15d5:	89 02                	mov    DWORD PTR [rdx],eax
    15d7:	48 83 c2 04          	add    rdx,0x4
    15db:	66 89 02             	mov    WORD PTR [rdx],ax
    15de:	48 83 c2 02          	add    rdx,0x2
    15e2:	c6 85 31 fb ff ff 50 	mov    BYTE PTR [rbp-0x4cf],0x50
    15e9:	c6 85 33 fb ff ff 06 	mov    BYTE PTR [rbp-0x4cd],0x6
    15f0:	48 8d 95 20 fa ff ff 	lea    rdx,[rbp-0x5e0]
    15f7:	b8 00 00 00 00       	mov    eax,0x0
    15fc:	b9 21 00 00 00       	mov    ecx,0x21
    1601:	48 89 d7             	mov    rdi,rdx
    1604:	f3 48 ab             	rep stos QWORD PTR es:[rdi],rax
    1607:	48 89 fa             	mov    rdx,rdi
    160a:	89 02                	mov    DWORD PTR [rdx],eax
    160c:	48 83 c2 04          	add    rdx,0x4
    1610:	66 89 02             	mov    WORD PTR [rdx],ax
    1613:	48 83 c2 02          	add    rdx,0x2
    1617:	c6 85 21 fa ff ff 58 	mov    BYTE PTR [rbp-0x5df],0x58
    161e:	c6 85 22 fa ff ff 82 	mov    BYTE PTR [rbp-0x5de],0x82
    1625:	c6 85 24 fa ff ff ff 	mov    BYTE PTR [rbp-0x5dc],0xff
    162c:	48 8d 95 10 f9 ff ff 	lea    rdx,[rbp-0x6f0]
    1633:	b8 00 00 00 00       	mov    eax,0x0
    1638:	b9 21 00 00 00       	mov    ecx,0x21
    163d:	48 89 d7             	mov    rdi,rdx
    1640:	f3 48 ab             	rep stos QWORD PTR es:[rdi],rax
    1643:	48 89 fa             	mov    rdx,rdi
    1646:	89 02                	mov    DWORD PTR [rdx],eax
    1648:	48 83 c2 04          	add    rdx,0x4
    164c:	66 89 02             	mov    WORD PTR [rdx],ax
    164f:	48 83 c2 02          	add    rdx,0x2
    1653:	c6 85 10 f9 ff ff e4 	mov    BYTE PTR [rbp-0x6f0],0xe4
    165a:	c6 85 11 f9 ff ff 90 	mov    BYTE PTR [rbp-0x6ef],0x90
    1661:	c6 85 12 f9 ff ff 06 	mov    BYTE PTR [rbp-0x6ee],0x6
    1668:	c6 85 13 f9 ff ff a8 	mov    BYTE PTR [rbp-0x6ed],0xa8
    166f:	c6 85 14 f9 ff ff f0 	mov    BYTE PTR [rbp-0x6ec],0xf0
    1676:	c6 85 15 f9 ff ff 12 	mov    BYTE PTR [rbp-0x6eb],0x12
    167d:	c6 85 16 f9 ff ff 18 	mov    BYTE PTR [rbp-0x6ea],0x18
    1684:	c6 85 17 f9 ff ff e8 	mov    BYTE PTR [rbp-0x6e9],0xe8
    168b:	c6 85 18 f9 ff ff d2 	mov    BYTE PTR [rbp-0x6e8],0xd2
    1692:	c6 85 19 f9 ff ff af 	mov    BYTE PTR [rbp-0x6e7],0xaf
    1699:	c6 85 1a f9 ff ff f5 	mov    BYTE PTR [rbp-0x6e6],0xf5
    16a0:	c6 85 1b f9 ff ff b8 	mov    BYTE PTR [rbp-0x6e5],0xb8
    16a7:	c6 85 1c f9 ff ff 75 	mov    BYTE PTR [rbp-0x6e4],0x75
    16ae:	c6 85 1d f9 ff ff de 	mov    BYTE PTR [rbp-0x6e3],0xde
    16b5:	c6 85 1e f9 ff ff 03 	mov    BYTE PTR [rbp-0x6e2],0x3
    16bc:	c6 85 1f f9 ff ff 75 	mov    BYTE PTR [rbp-0x6e1],0x75
    16c3:	c6 85 20 f9 ff ff e1 	mov    BYTE PTR [rbp-0x6e0],0xe1
    16ca:	c6 85 21 f9 ff ff 01 	mov    BYTE PTR [rbp-0x6df],0x1
    16d1:	c6 85 22 f9 ff ff 75 	mov    BYTE PTR [rbp-0x6de],0x75
    16d8:	c6 85 23 f9 ff ff da 	mov    BYTE PTR [rbp-0x6dd],0xda
    16df:	c6 85 24 f9 ff ff 11 	mov    BYTE PTR [rbp-0x6dc],0x11
    16e6:	c6 85 25 f9 ff ff 7f 	mov    BYTE PTR [rbp-0x6db],0x7f
    16ed:	c6 85 26 f9 ff ff 3b 	mov    BYTE PTR [rbp-0x6da],0x3b
    16f4:	c6 85 27 f9 ff ff 12 	mov    BYTE PTR [rbp-0x6d9],0x12
    16fb:	c6 85 28 f9 ff ff 1d 	mov    BYTE PTR [rbp-0x6d8],0x1d
    1702:	c6 85 29 f9 ff ff d3 	mov    BYTE PTR [rbp-0x6d7],0xd3
    1709:	c6 85 2a f9 ff ff 7f 	mov    BYTE PTR [rbp-0x6d6],0x7f
    1710:	c6 85 2b f9 ff ff 24 	mov    BYTE PTR [rbp-0x6d5],0x24
    1717:	c6 85 2c f9 ff ff 12 	mov    BYTE PTR [rbp-0x6d4],0x12
    171e:	c6 85 2d f9 ff ff 1d 	mov    BYTE PTR [rbp-0x6d3],0x1d
    1725:	c6 85 2e f9 ff ff d3 	mov    BYTE PTR [rbp-0x6d2],0xd3
    172c:	c6 85 2f f9 ff ff e4 	mov    BYTE PTR [rbp-0x6d1],0xe4
    1733:	c6 85 30 f9 ff ff ff 	mov    BYTE PTR [rbp-0x6d0],0xff
    173a:	c6 85 31 f9 ff ff 12 	mov    BYTE PTR [rbp-0x6cf],0x12
    1741:	c6 85 32 f9 ff ff 0d 	mov    BYTE PTR [rbp-0x6ce],0xd
    1748:	c6 85 33 f9 ff ff 4c 	mov    BYTE PTR [rbp-0x6cd],0x4c
    174f:	c6 85 34 f9 ff ff 7f 	mov    BYTE PTR [rbp-0x6cc],0x7f
    1756:	c6 85 35 f9 ff ff 42 	mov    BYTE PTR [rbp-0x6cb],0x42
    175d:	c6 85 36 f9 ff ff 12 	mov    BYTE PTR [rbp-0x6ca],0x12
    1764:	c6 85 37 f9 ff ff 0d 	mov    BYTE PTR [rbp-0x6c9],0xd
    176b:	c6 85 38 f9 ff ff 4c 	mov    BYTE PTR [rbp-0x6c8],0x4c
    1772:	c6 85 39 f9 ff ff 7f 	mov    BYTE PTR [rbp-0x6c7],0x7f
    1779:	c6 85 3a f9 ff ff 30 	mov    BYTE PTR [rbp-0x6c6],0x30
    1780:	c6 85 3b f9 ff ff 12 	mov    BYTE PTR [rbp-0x6c5],0x12
    1787:	c6 85 3c f9 ff ff 1d 	mov    BYTE PTR [rbp-0x6c4],0x1d
    178e:	c6 85 3d f9 ff ff d3 	mov    BYTE PTR [rbp-0x6c3],0xd3
    1795:	c6 85 3e f9 ff ff 12 	mov    BYTE PTR [rbp-0x6c2],0x12
    179c:	c6 85 3f f9 ff ff 1b 	mov    BYTE PTR [rbp-0x6c1],0x1b
    17a3:	c6 85 40 f9 ff ff 98 	mov    BYTE PTR [rbp-0x6c0],0x98
    17aa:	c6 85 41 f9 ff ff 12 	mov    BYTE PTR [rbp-0x6bf],0x12
    17b1:	c6 85 42 f9 ff ff 1d 	mov    BYTE PTR [rbp-0x6be],0x1d
    17b8:	c6 85 43 f9 ff ff df 	mov    BYTE PTR [rbp-0x6bd],0xdf
    17bf:	c6 85 44 f9 ff ff 90 	mov    BYTE PTR [rbp-0x6bc],0x90
    17c6:	c6 85 46 f9 ff ff 0d 	mov    BYTE PTR [rbp-0x6ba],0xd
    17cd:	c6 85 47 f9 ff ff ef 	mov    BYTE PTR [rbp-0x6b9],0xef
    17d4:	c6 85 48 f9 ff ff f0 	mov    BYTE PTR [rbp-0x6b8],0xf0
    17db:	c6 85 49 f9 ff ff 12 	mov    BYTE PTR [rbp-0x6b7],0x12
    17e2:	c6 85 4a f9 ff ff 1d 	mov    BYTE PTR [rbp-0x6b6],0x1d
    17e9:	c6 85 4b f9 ff ff df 	mov    BYTE PTR [rbp-0x6b5],0xdf
    17f0:	c6 85 4c f9 ff ff 90 	mov    BYTE PTR [rbp-0x6b4],0x90
    17f7:	c6 85 4e f9 ff ff 0e 	mov    BYTE PTR [rbp-0x6b2],0xe
    17fe:	c6 85 4f f9 ff ff ef 	mov    BYTE PTR [rbp-0x6b1],0xef
    1805:	c6 85 50 f9 ff ff f0 	mov    BYTE PTR [rbp-0x6b0],0xf0
    180c:	c6 85 51 f9 ff ff 90 	mov    BYTE PTR [rbp-0x6af],0x90
    1813:	c6 85 53 f9 ff ff 0d 	mov    BYTE PTR [rbp-0x6ad],0xd
    181a:	c6 85 54 f9 ff ff e0 	mov    BYTE PTR [rbp-0x6ac],0xe0
    1821:	c6 85 55 f9 ff ff 64 	mov    BYTE PTR [rbp-0x6ab],0x64
    1828:	c6 85 56 f9 ff ff 66 	mov    BYTE PTR [rbp-0x6aa],0x66
    182f:	c6 85 57 f9 ff ff 60 	mov    BYTE PTR [rbp-0x6a9],0x60
    1836:	c6 85 58 f9 ff ff 08 	mov    BYTE PTR [rbp-0x6a8],0x8
    183d:	c6 85 59 f9 ff ff 12 	mov    BYTE PTR [rbp-0x6a7],0x12
    1844:	c6 85 5a f9 ff ff 1d 	mov    BYTE PTR [rbp-0x6a6],0x1d
    184b:	c6 85 5b f9 ff ff df 	mov    BYTE PTR [rbp-0x6a5],0xdf
    1852:	c6 85 5c f9 ff ff 90 	mov    BYTE PTR [rbp-0x6a4],0x90
    1859:	c6 85 5e f9 ff ff 0f 	mov    BYTE PTR [rbp-0x6a2],0xf
    1860:	c6 85 5f f9 ff ff ef 	mov    BYTE PTR [rbp-0x6a1],0xef
    1867:	c6 85 60 f9 ff ff f0 	mov    BYTE PTR [rbp-0x6a0],0xf0
    186e:	c6 85 61 f9 ff ff 90 	mov    BYTE PTR [rbp-0x69f],0x90
    1875:	c6 85 63 f9 ff ff 0d 	mov    BYTE PTR [rbp-0x69d],0xd
    187c:	c6 85 64 f9 ff ff e0 	mov    BYTE PTR [rbp-0x69c],0xe0
    1883:	c6 85 65 f9 ff ff 12 	mov    BYTE PTR [rbp-0x69b],0x12
    188a:	c6 85 66 f9 ff ff 14 	mov    BYTE PTR [rbp-0x69a],0x14
    1891:	c6 85 67 f9 ff ff 91 	mov    BYTE PTR [rbp-0x699],0x91
    1898:	c6 85 68 f9 ff ff 05 	mov    BYTE PTR [rbp-0x698],0x5
    189f:	c6 85 69 f9 ff ff 87 	mov    BYTE PTR [rbp-0x697],0x87
    18a6:	c6 85 6a f9 ff ff 10 	mov    BYTE PTR [rbp-0x696],0x10
    18ad:	c6 85 6b f9 ff ff 05 	mov    BYTE PTR [rbp-0x695],0x5
    18b4:	c6 85 6c f9 ff ff c8 	mov    BYTE PTR [rbp-0x694],0xc8
    18bb:	c6 85 6d f9 ff ff 11 	mov    BYTE PTR [rbp-0x693],0x11
    18c2:	c6 85 6e f9 ff ff 0a 	mov    BYTE PTR [rbp-0x692],0xa
    18c9:	c6 85 6f f9 ff ff eb 	mov    BYTE PTR [rbp-0x691],0xeb
    18d0:	c6 85 70 f9 ff ff 12 	mov    BYTE PTR [rbp-0x690],0x12
    18d7:	c6 85 71 f9 ff ff 08 	mov    BYTE PTR [rbp-0x68f],0x8
    18de:	c6 85 72 f9 ff ff 17 	mov    BYTE PTR [rbp-0x68e],0x17
    18e5:	c6 85 73 f9 ff ff 14 	mov    BYTE PTR [rbp-0x68d],0x14
    18ec:	c6 85 74 f9 ff ff 02 	mov    BYTE PTR [rbp-0x68c],0x2
    18f3:	c6 85 75 f9 ff ff 7a 	mov    BYTE PTR [rbp-0x68b],0x7a
    18fa:	c6 85 76 f9 ff ff 1a 	mov    BYTE PTR [rbp-0x68a],0x1a
    1901:	c6 85 77 f9 ff ff 06 	mov    BYTE PTR [rbp-0x689],0x6
    1908:	c6 85 78 f9 ff ff 92 	mov    BYTE PTR [rbp-0x688],0x92
    190f:	c6 85 79 f9 ff ff 1c 	mov    BYTE PTR [rbp-0x687],0x1c
    1916:	c6 85 7a f9 ff ff 04 	mov    BYTE PTR [rbp-0x686],0x4
    191d:	c6 85 7b f9 ff ff 62 	mov    BYTE PTR [rbp-0x685],0x62
    1924:	c6 85 7c f9 ff ff 1e 	mov    BYTE PTR [rbp-0x684],0x1e
    192b:	c6 85 7d f9 ff ff 04 	mov    BYTE PTR [rbp-0x683],0x4
    1932:	c6 85 7e f9 ff ff 34 	mov    BYTE PTR [rbp-0x682],0x34
    1939:	c6 85 7f f9 ff ff 1f 	mov    BYTE PTR [rbp-0x681],0x1f
    1940:	c6 85 80 f9 ff ff 0c 	mov    BYTE PTR [rbp-0x680],0xc
    1947:	c6 85 81 f9 ff ff b0 	mov    BYTE PTR [rbp-0x67f],0xb0
    194e:	c6 85 82 f9 ff ff 66 	mov    BYTE PTR [rbp-0x67e],0x66
    1955:	c6 85 83 f9 ff ff 04 	mov    BYTE PTR [rbp-0x67d],0x4
    195c:	c6 85 84 f9 ff ff b1 	mov    BYTE PTR [rbp-0x67c],0xb1
    1963:	c6 85 85 f9 ff ff dd 	mov    BYTE PTR [rbp-0x67b],0xdd
    196a:	c6 85 88 f9 ff ff 0c 	mov    BYTE PTR [rbp-0x678],0xc
    1971:	c6 85 89 f9 ff ff e5 	mov    BYTE PTR [rbp-0x677],0xe5
    1978:	c6 85 8a f9 ff ff 12 	mov    BYTE PTR [rbp-0x676],0x12
    197f:	c6 85 8b f9 ff ff 0d 	mov    BYTE PTR [rbp-0x675],0xd
    1986:	c6 85 8c f9 ff ff 21 	mov    BYTE PTR [rbp-0x674],0x21
    198d:	c6 85 8d f9 ff ff 90 	mov    BYTE PTR [rbp-0x673],0x90
    1994:	c6 85 8e f9 ff ff 02 	mov    BYTE PTR [rbp-0x672],0x2
    199b:	c6 85 8f f9 ff ff 14 	mov    BYTE PTR [rbp-0x671],0x14
    19a2:	c6 85 90 f9 ff ff e0 	mov    BYTE PTR [rbp-0x670],0xe0
    19a9:	c6 85 91 f9 ff ff 04 	mov    BYTE PTR [rbp-0x66f],0x4
    19b0:	c6 85 92 f9 ff ff f0 	mov    BYTE PTR [rbp-0x66e],0xf0
    19b7:	c6 85 93 f9 ff ff 90 	mov    BYTE PTR [rbp-0x66d],0x90
    19be:	c6 85 95 f9 ff ff 0e 	mov    BYTE PTR [rbp-0x66b],0xe
    19c5:	c6 85 96 f9 ff ff e0 	mov    BYTE PTR [rbp-0x66a],0xe0
    19cc:	c6 85 97 f9 ff ff 14 	mov    BYTE PTR [rbp-0x669],0x14
    19d3:	c6 85 98 f9 ff ff 70 	mov    BYTE PTR [rbp-0x668],0x70
    19da:	c6 85 99 f9 ff ff 03 	mov    BYTE PTR [rbp-0x667],0x3
    19e1:	c6 85 9a f9 ff ff 02 	mov    BYTE PTR [rbp-0x666],0x2
    19e8:	c6 85 9b f9 ff ff 03 	mov    BYTE PTR [rbp-0x665],0x3
    19ef:	c6 85 9c f9 ff ff 66 	mov    BYTE PTR [rbp-0x664],0x66
    19f6:	c6 85 9d f9 ff ff 14 	mov    BYTE PTR [rbp-0x663],0x14
    19fd:	c6 85 9e f9 ff ff 70 	mov    BYTE PTR [rbp-0x662],0x70
    1a04:	c6 85 9f f9 ff ff 03 	mov    BYTE PTR [rbp-0x661],0x3
    1a0b:	c6 85 a0 f9 ff ff 02 	mov    BYTE PTR [rbp-0x660],0x2
    1a12:	c6 85 a1 f9 ff ff 03 	mov    BYTE PTR [rbp-0x65f],0x3
    1a19:	c6 85 a2 f9 ff ff 94 	mov    BYTE PTR [rbp-0x65e],0x94
    1a20:	c6 85 a3 f9 ff ff 14 	mov    BYTE PTR [rbp-0x65d],0x14
    1a27:	c6 85 a4 f9 ff ff 70 	mov    BYTE PTR [rbp-0x65c],0x70
    1a2e:	c6 85 a5 f9 ff ff 03 	mov    BYTE PTR [rbp-0x65b],0x3
    1a35:	c6 85 a6 f9 ff ff 02 	mov    BYTE PTR [rbp-0x65a],0x2
    1a3c:	c6 85 a7 f9 ff ff 03 	mov    BYTE PTR [rbp-0x659],0x3
    1a43:	c6 85 a8 f9 ff ff bd 	mov    BYTE PTR [rbp-0x658],0xbd
    1a4a:	c6 85 a9 f9 ff ff 24 	mov    BYTE PTR [rbp-0x657],0x24
    1a51:	c6 85 aa f9 ff ff 03 	mov    BYTE PTR [rbp-0x656],0x3
    1a58:	c6 85 ab f9 ff ff 60 	mov    BYTE PTR [rbp-0x655],0x60
    1a5f:	c6 85 ac f9 ff ff 03 	mov    BYTE PTR [rbp-0x654],0x3
    1a66:	c6 85 ad f9 ff ff 02 	mov    BYTE PTR [rbp-0x653],0x2
    1a6d:	c6 85 ae f9 ff ff 04 	mov    BYTE PTR [rbp-0x652],0x4
    1a74:	c6 85 af f9 ff ff 32 	mov    BYTE PTR [rbp-0x651],0x32
    1a7b:	c6 85 b0 f9 ff ff 90 	mov    BYTE PTR [rbp-0x650],0x90
    1a82:	c6 85 b2 f9 ff ff 0f 	mov    BYTE PTR [rbp-0x64e],0xf
    1a89:	c6 85 b3 f9 ff ff e0 	mov    BYTE PTR [rbp-0x64d],0xe0
    1a90:	c6 85 b4 f9 ff ff f4 	mov    BYTE PTR [rbp-0x64c],0xf4
    1a97:	c6 85 b5 f9 ff ff 70 	mov    BYTE PTR [rbp-0x64b],0x70
    1a9e:	c6 85 b6 f9 ff ff 8a 	mov    BYTE PTR [rbp-0x64a],0x8a
    1aa5:	c6 85 b7 f9 ff ff 90 	mov    BYTE PTR [rbp-0x649],0x90
    1aac:	c6 85 b8 f9 ff ff 02 	mov    BYTE PTR [rbp-0x648],0x2
    1ab3:	c6 85 b9 f9 ff ff 14 	mov    BYTE PTR [rbp-0x647],0x14
    1aba:	c6 85 ba f9 ff ff e0 	mov    BYTE PTR [rbp-0x646],0xe0
    1ac1:	c6 85 bb f9 ff ff 64 	mov    BYTE PTR [rbp-0x645],0x64
    1ac8:	c6 85 bc f9 ff ff 01 	mov    BYTE PTR [rbp-0x644],0x1
    1acf:	c6 85 bd f9 ff ff 70 	mov    BYTE PTR [rbp-0x643],0x70
    1ad6:	c6 85 be f9 ff ff 82 	mov    BYTE PTR [rbp-0x642],0x82
    1add:	c6 85 bf f9 ff ff 7b 	mov    BYTE PTR [rbp-0x641],0x7b
    1ae4:	c6 85 c0 f9 ff ff 01 	mov    BYTE PTR [rbp-0x640],0x1
    1aeb:	c6 85 c1 f9 ff ff 7a 	mov    BYTE PTR [rbp-0x63f],0x7a
    1af2:	c6 85 c3 f9 ff ff 79 	mov    BYTE PTR [rbp-0x63d],0x79
    1af9:	c6 85 c4 f9 ff ff 12 	mov    BYTE PTR [rbp-0x63c],0x12
    1b00:	c6 85 c5 f9 ff ff fd 	mov    BYTE PTR [rbp-0x63b],0xfd
    1b07:	c6 85 c6 f9 ff ff fc 	mov    BYTE PTR [rbp-0x63a],0xfc
    1b0e:	c6 85 c7 f9 ff ff 12 	mov    BYTE PTR [rbp-0x639],0x12
    1b15:	c6 85 c8 f9 ff ff 1d 	mov    BYTE PTR [rbp-0x638],0x1d
    1b1c:	c6 85 c9 f9 ff ff 15 	mov    BYTE PTR [rbp-0x637],0x15
    1b23:	c6 85 ca f9 ff ff 12 	mov    BYTE PTR [rbp-0x636],0x12
    1b2a:	c6 85 cb f9 ff ff 1c 	mov    BYTE PTR [rbp-0x635],0x1c
    1b31:	c6 85 cc f9 ff ff 79 	mov    BYTE PTR [rbp-0x634],0x79
    1b38:	c6 85 cd f9 ff ff 7f 	mov    BYTE PTR [rbp-0x633],0x7f
    1b3f:	c6 85 ce f9 ff ff a1 	mov    BYTE PTR [rbp-0x632],0xa1
    1b46:	c6 85 cf f9 ff ff 12 	mov    BYTE PTR [rbp-0x631],0x12
    1b4d:	c6 85 d0 f9 ff ff 1d 	mov    BYTE PTR [rbp-0x630],0x1d
    1b54:	c6 85 d1 f9 ff ff d3 	mov    BYTE PTR [rbp-0x62f],0xd3
    1b5b:	c6 85 d2 f9 ff ff 12 	mov    BYTE PTR [rbp-0x62e],0x12
    1b62:	c6 85 d3 f9 ff ff 19 	mov    BYTE PTR [rbp-0x62d],0x19
    1b69:	c6 85 d4 f9 ff ff 33 	mov    BYTE PTR [rbp-0x62c],0x33
    1b70:	c6 85 d5 f9 ff ff 90 	mov    BYTE PTR [rbp-0x62b],0x90
    1b77:	c6 85 d6 f9 ff ff 06 	mov    BYTE PTR [rbp-0x62a],0x6
    1b7e:	c6 85 d7 f9 ff ff a8 	mov    BYTE PTR [rbp-0x629],0xa8
    1b85:	c6 85 d8 f9 ff ff e0 	mov    BYTE PTR [rbp-0x628],0xe0
    1b8c:	c6 85 d9 f9 ff ff fe 	mov    BYTE PTR [rbp-0x627],0xfe
    1b93:	c6 85 da f9 ff ff a3 	mov    BYTE PTR [rbp-0x626],0xa3
    1b9a:	c6 85 db f9 ff ff e0 	mov    BYTE PTR [rbp-0x625],0xe0
    1ba1:	c6 85 dc f9 ff ff ff 	mov    BYTE PTR [rbp-0x624],0xff
    1ba8:	c6 85 dd f9 ff ff c3 	mov    BYTE PTR [rbp-0x623],0xc3
    1baf:	c6 85 de f9 ff ff 94 	mov    BYTE PTR [rbp-0x622],0x94
    1bb6:	c6 85 df f9 ff ff ff 	mov    BYTE PTR [rbp-0x621],0xff
    1bbd:	c6 85 e0 f9 ff ff ee 	mov    BYTE PTR [rbp-0x620],0xee
    1bc4:	c6 85 e1 f9 ff ff 64 	mov    BYTE PTR [rbp-0x61f],0x64
    1bcb:	c6 85 e2 f9 ff ff 80 	mov    BYTE PTR [rbp-0x61e],0x80
    1bd2:	c6 85 e3 f9 ff ff 94 	mov    BYTE PTR [rbp-0x61d],0x94
    1bd9:	c6 85 e4 f9 ff ff 80 	mov    BYTE PTR [rbp-0x61c],0x80
    1be0:	c6 85 e5 f9 ff ff 40 	mov    BYTE PTR [rbp-0x61b],0x40
    1be7:	c6 85 e6 f9 ff ff 03 	mov    BYTE PTR [rbp-0x61a],0x3
    1bee:	c6 85 e7 f9 ff ff 02 	mov    BYTE PTR [rbp-0x619],0x2
    1bf5:	c6 85 e8 f9 ff ff 03 	mov    BYTE PTR [rbp-0x618],0x3
    1bfc:	c6 85 e9 f9 ff ff 58 	mov    BYTE PTR [rbp-0x617],0x58
    1c03:	c6 85 ea f9 ff ff ef 	mov    BYTE PTR [rbp-0x616],0xef
    1c0a:	c6 85 eb f9 ff ff 64 	mov    BYTE PTR [rbp-0x615],0x64
    1c11:	c6 85 ec f9 ff ff 87 	mov    BYTE PTR [rbp-0x614],0x87
    1c18:	c6 85 ed f9 ff ff 4e 	mov    BYTE PTR [rbp-0x613],0x4e
    1c1f:	c6 85 ee f9 ff ff 60 	mov    BYTE PTR [rbp-0x612],0x60
    1c26:	c6 85 ef f9 ff ff 06 	mov    BYTE PTR [rbp-0x611],0x6
    1c2d:	c6 85 f0 f9 ff ff ef 	mov    BYTE PTR [rbp-0x610],0xef
    1c34:	c6 85 f1 f9 ff ff 64 	mov    BYTE PTR [rbp-0x60f],0x64
    1c3b:	c6 85 f2 f9 ff ff da 	mov    BYTE PTR [rbp-0x60e],0xda
    1c42:	c6 85 f3 f9 ff ff 4e 	mov    BYTE PTR [rbp-0x60d],0x4e
    1c49:	c6 85 f4 f9 ff ff 70 	mov    BYTE PTR [rbp-0x60c],0x70
    1c50:	c6 85 f5 f9 ff ff 0d 	mov    BYTE PTR [rbp-0x60b],0xd
    1c57:	c6 85 f6 f9 ff ff 74 	mov    BYTE PTR [rbp-0x60a],0x74
    1c5e:	c6 85 f7 f9 ff ff 12 	mov    BYTE PTR [rbp-0x609],0x12
    1c65:	c6 85 f8 f9 ff ff 2f 	mov    BYTE PTR [rbp-0x608],0x2f
    1c6c:	c6 85 f9 f9 ff ff 12 	mov    BYTE PTR [rbp-0x607],0x12
    1c73:	c6 85 fa f9 ff ff 18 	mov    BYTE PTR [rbp-0x606],0x18
    1c7a:	c6 85 fb f9 ff ff d5 	mov    BYTE PTR [rbp-0x605],0xd5
    1c81:	c6 85 fc f9 ff ff ff 	mov    BYTE PTR [rbp-0x604],0xff
    1c88:	c6 85 fd f9 ff ff 90 	mov    BYTE PTR [rbp-0x603],0x90
    1c8f:	c6 85 fe f9 ff ff 06 	mov    BYTE PTR [rbp-0x602],0x6
    1c96:	c6 85 ff f9 ff ff f4 	mov    BYTE PTR [rbp-0x601],0xf4
    1c9d:	c6 85 00 fa ff ff e0 	mov    BYTE PTR [rbp-0x600],0xe0
    1ca4:	c6 85 01 fa ff ff 2f 	mov    BYTE PTR [rbp-0x5ff],0x2f
    1cab:	c6 85 02 fa ff ff f0 	mov    BYTE PTR [rbp-0x5fe],0xf0
    1cb2:	c6 85 03 fa ff ff 12 	mov    BYTE PTR [rbp-0x5fd],0x12
    1cb9:	c6 85 04 fa ff ff 18 	mov    BYTE PTR [rbp-0x5fc],0x18
    1cc0:	c6 85 05 fa ff ff cc 	mov    BYTE PTR [rbp-0x5fb],0xcc
    1cc7:	c6 85 06 fa ff ff ff 	mov    BYTE PTR [rbp-0x5fa],0xff
    1cce:	c6 85 07 fa ff ff 12 	mov    BYTE PTR [rbp-0x5f9],0x12
    1cd5:	c6 85 08 fa ff ff 1d 	mov    BYTE PTR [rbp-0x5f8],0x1d
    1cdc:	c6 85 09 fa ff ff d3 	mov    BYTE PTR [rbp-0x5f7],0xd3
    1ce3:	c6 85 0a fa ff ff 90 	mov    BYTE PTR [rbp-0x5f6],0x90
    1cea:	c6 85 0b fa ff ff 06 	mov    BYTE PTR [rbp-0x5f5],0x6
    1cf1:	c6 85 0c fa ff ff a8 	mov    BYTE PTR [rbp-0x5f4],0xa8
    1cf8:	c6 85 0d fa ff ff e0 	mov    BYTE PTR [rbp-0x5f3],0xe0
    1cff:	c6 85 0e fa ff ff fa 	mov    BYTE PTR [rbp-0x5f2],0xfa
    1d06:	48 8d 95 00 f8 ff ff 	lea    rdx,[rbp-0x800]
    1d0d:	b8 00 00 00 00       	mov    eax,0x0
    1d12:	b9 21 00 00 00       	mov    ecx,0x21
    1d17:	48 89 d7             	mov    rdi,rdx
    1d1a:	f3 48 ab             	rep stos QWORD PTR es:[rdi],rax
    1d1d:	48 89 fa             	mov    rdx,rdi
    1d20:	89 02                	mov    DWORD PTR [rdx],eax
    1d22:	48 83 c2 04          	add    rdx,0x4
    1d26:	66 89 02             	mov    WORD PTR [rdx],ax
    1d29:	48 83 c2 02          	add    rdx,0x2
    1d2d:	c6 85 01 f8 ff ff 58 	mov    BYTE PTR [rbp-0x7ff],0x58
    1d34:	c6 85 02 f8 ff ff 82 	mov    BYTE PTR [rbp-0x7fe],0x82
    1d3b:	c6 85 03 f8 ff ff ff 	mov    BYTE PTR [rbp-0x7fd],0xff
    1d42:	c6 85 04 f8 ff ff ff 	mov    BYTE PTR [rbp-0x7fc],0xff
    1d49:	48 8d 95 f0 f6 ff ff 	lea    rdx,[rbp-0x910]
    1d50:	b8 00 00 00 00       	mov    eax,0x0
    1d55:	b9 21 00 00 00       	mov    ecx,0x21
    1d5a:	48 89 d7             	mov    rdi,rdx
    1d5d:	f3 48 ab             	rep stos QWORD PTR es:[rdi],rax
    1d60:	48 89 fa             	mov    rdx,rdi
    1d63:	89 02                	mov    DWORD PTR [rdx],eax
    1d65:	48 83 c2 04          	add    rdx,0x4
    1d69:	66 89 02             	mov    WORD PTR [rdx],ax
    1d6c:	48 83 c2 02          	add    rdx,0x2
    1d70:	c6 85 f0 f6 ff ff a3 	mov    BYTE PTR [rbp-0x910],0xa3
    1d77:	c6 85 f1 f6 ff ff e0 	mov    BYTE PTR [rbp-0x90f],0xe0
    1d7e:	c6 85 f2 f6 ff ff fb 	mov    BYTE PTR [rbp-0x90e],0xfb
    1d85:	c6 85 f3 f6 ff ff 7c 	mov    BYTE PTR [rbp-0x90d],0x7c
    1d8c:	c6 85 f5 f6 ff ff 7d 	mov    BYTE PTR [rbp-0x90b],0x7d
    1d93:	c6 85 f6 f6 ff ff 02 	mov    BYTE PTR [rbp-0x90a],0x2
    1d9a:	c6 85 f7 f6 ff ff ff 	mov    BYTE PTR [rbp-0x909],0xff
    1da1:	c6 85 f8 f6 ff ff ae 	mov    BYTE PTR [rbp-0x908],0xae
    1da8:	c6 85 f9 f6 ff ff 02 	mov    BYTE PTR [rbp-0x907],0x2
    1daf:	c6 85 fa f6 ff ff 12 	mov    BYTE PTR [rbp-0x906],0x12
    1db6:	c6 85 fb f6 ff ff 13 	mov    BYTE PTR [rbp-0x905],0x13
    1dbd:	c6 85 fc f6 ff ff e6 	mov    BYTE PTR [rbp-0x904],0xe6
    1dc4:	c6 85 fd f6 ff ff ed 	mov    BYTE PTR [rbp-0x903],0xed
    1dcb:	c6 85 fe f6 ff ff 64 	mov    BYTE PTR [rbp-0x902],0x64
    1dd2:	c6 85 ff f6 ff ff 01 	mov    BYTE PTR [rbp-0x901],0x1
    1dd9:	c6 85 00 f7 ff ff 4c 	mov    BYTE PTR [rbp-0x900],0x4c
    1de0:	c6 85 01 f7 ff ff 70 	mov    BYTE PTR [rbp-0x8ff],0x70
    1de7:	c6 85 02 f7 ff ff 13 	mov    BYTE PTR [rbp-0x8fe],0x13
    1dee:	c6 85 03 f7 ff ff 74 	mov    BYTE PTR [rbp-0x8fd],0x74
    1df5:	c6 85 04 f7 ff ff 12 	mov    BYTE PTR [rbp-0x8fc],0x12
    1dfc:	c6 85 05 f7 ff ff 2b 	mov    BYTE PTR [rbp-0x8fb],0x2b
    1e03:	c6 85 06 f7 ff ff f5 	mov    BYTE PTR [rbp-0x8fa],0xf5
    1e0a:	c6 85 07 f7 ff ff 82 	mov    BYTE PTR [rbp-0x8f9],0x82
    1e11:	c6 85 08 f7 ff ff 74 	mov    BYTE PTR [rbp-0x8f8],0x74
    1e18:	c6 85 0a f7 ff ff 3a 	mov    BYTE PTR [rbp-0x8f6],0x3a
    1e1f:	c6 85 0b f7 ff ff f5 	mov    BYTE PTR [rbp-0x8f5],0xf5
    1e26:	c6 85 0c f7 ff ff 83 	mov    BYTE PTR [rbp-0x8f4],0x83
    1e2d:	c6 85 0d f7 ff ff e0 	mov    BYTE PTR [rbp-0x8f3],0xe0
    1e34:	c6 85 0e f7 ff ff 13 	mov    BYTE PTR [rbp-0x8f2],0x13
    1e3b:	c6 85 0f f7 ff ff 13 	mov    BYTE PTR [rbp-0x8f1],0x13
    1e42:	c6 85 10 f7 ff ff 13 	mov    BYTE PTR [rbp-0x8f0],0x13
    1e49:	c6 85 11 f7 ff ff 54 	mov    BYTE PTR [rbp-0x8ef],0x54
    1e50:	c6 85 12 f7 ff ff 1f 	mov    BYTE PTR [rbp-0x8ee],0x1f
    1e57:	c6 85 13 f7 ff ff f0 	mov    BYTE PTR [rbp-0x8ed],0xf0
    1e5e:	c6 85 14 f7 ff ff 80 	mov    BYTE PTR [rbp-0x8ec],0x80
    1e65:	c6 85 15 f7 ff ff 08 	mov    BYTE PTR [rbp-0x8eb],0x8
    1e6c:	c6 85 16 f7 ff ff 12 	mov    BYTE PTR [rbp-0x8ea],0x12
    1e73:	c6 85 17 f7 ff ff 18 	mov    BYTE PTR [rbp-0x8e9],0x18
    1e7a:	c6 85 18 f7 ff ff cc 	mov    BYTE PTR [rbp-0x8e8],0xcc
    1e81:	c6 85 19 f7 ff ff c4 	mov    BYTE PTR [rbp-0x8e7],0xc4
    1e88:	c6 85 1a f7 ff ff 13 	mov    BYTE PTR [rbp-0x8e6],0x13
    1e8f:	c6 85 1b f7 ff ff 54 	mov    BYTE PTR [rbp-0x8e5],0x54
    1e96:	c6 85 1c f7 ff ff 07 	mov    BYTE PTR [rbp-0x8e4],0x7
    1e9d:	c6 85 1d f7 ff ff f0 	mov    BYTE PTR [rbp-0x8e3],0xf0
    1ea4:	c6 85 1e f7 ff ff 90 	mov    BYTE PTR [rbp-0x8e2],0x90
    1eab:	c6 85 1f f7 ff ff 06 	mov    BYTE PTR [rbp-0x8e1],0x6
    1eb2:	c6 85 20 f7 ff ff a8 	mov    BYTE PTR [rbp-0x8e0],0xa8
    1eb9:	c6 85 21 f7 ff ff e0 	mov    BYTE PTR [rbp-0x8df],0xe0
    1ec0:	c6 85 22 f7 ff ff fe 	mov    BYTE PTR [rbp-0x8de],0xfe
    1ec7:	c6 85 23 f7 ff ff a3 	mov    BYTE PTR [rbp-0x8dd],0xa3
    1ece:	c6 85 24 f7 ff ff e0 	mov    BYTE PTR [rbp-0x8dc],0xe0
    1ed5:	c6 85 25 f7 ff ff ff 	mov    BYTE PTR [rbp-0x8db],0xff
    1edc:	c6 85 26 f7 ff ff 12 	mov    BYTE PTR [rbp-0x8da],0x12
    1ee3:	c6 85 27 f7 ff ff 18 	mov    BYTE PTR [rbp-0x8d9],0x18
    1eea:	c6 85 28 f7 ff ff d3 	mov    BYTE PTR [rbp-0x8d8],0xd3
    1ef1:	c6 85 29 f7 ff ff fd 	mov    BYTE PTR [rbp-0x8d7],0xfd
    1ef8:	c6 85 2a f7 ff ff 90 	mov    BYTE PTR [rbp-0x8d6],0x90
    1eff:	c6 85 2b f7 ff ff 02 	mov    BYTE PTR [rbp-0x8d5],0x2
    1f06:	c6 85 2c f7 ff ff 12 	mov    BYTE PTR [rbp-0x8d4],0x12
    1f0d:	c6 85 2d f7 ff ff e0 	mov    BYTE PTR [rbp-0x8d3],0xe0
    1f14:	c6 85 2e f7 ff ff 2d 	mov    BYTE PTR [rbp-0x8d2],0x2d
    1f1b:	c6 85 2f f7 ff ff f0 	mov    BYTE PTR [rbp-0x8d1],0xf0
    1f22:	c6 85 30 f7 ff ff 90 	mov    BYTE PTR [rbp-0x8d0],0x90
    1f29:	c6 85 31 f7 ff ff 02 	mov    BYTE PTR [rbp-0x8cf],0x2
    1f30:	c6 85 32 f7 ff ff 15 	mov    BYTE PTR [rbp-0x8ce],0x15
    1f37:	c6 85 33 f7 ff ff e0 	mov    BYTE PTR [rbp-0x8cd],0xe0
    1f3e:	c6 85 34 f7 ff ff fd 	mov    BYTE PTR [rbp-0x8cc],0xfd
    1f45:	c6 85 35 f7 ff ff 74 	mov    BYTE PTR [rbp-0x8cb],0x74
    1f4c:	c6 85 36 f7 ff ff 12 	mov    BYTE PTR [rbp-0x8ca],0x12
    1f53:	c6 85 37 f7 ff ff 2f 	mov    BYTE PTR [rbp-0x8c9],0x2f
    1f5a:	c6 85 38 f7 ff ff 12 	mov    BYTE PTR [rbp-0x8c8],0x12
    1f61:	c6 85 39 f7 ff ff 18 	mov    BYTE PTR [rbp-0x8c7],0x18
    1f68:	c6 85 3a f7 ff ff d5 	mov    BYTE PTR [rbp-0x8c6],0xd5
    1f6f:	c6 85 3b f7 ff ff ff 	mov    BYTE PTR [rbp-0x8c5],0xff
    1f76:	c6 85 3c f7 ff ff c3 	mov    BYTE PTR [rbp-0x8c4],0xc3
    1f7d:	c6 85 3d f7 ff ff ed 	mov    BYTE PTR [rbp-0x8c3],0xed
    1f84:	c6 85 3e f7 ff ff 9f 	mov    BYTE PTR [rbp-0x8c2],0x9f
    1f8b:	c6 85 3f f7 ff ff 90 	mov    BYTE PTR [rbp-0x8c1],0x90
    1f92:	c6 85 40 f7 ff ff 02 	mov    BYTE PTR [rbp-0x8c0],0x2
    1f99:	c6 85 41 f7 ff ff 15 	mov    BYTE PTR [rbp-0x8bf],0x15
    1fa0:	c6 85 42 f7 ff ff f0 	mov    BYTE PTR [rbp-0x8be],0xf0
    1fa7:	c6 85 43 f7 ff ff 12 	mov    BYTE PTR [rbp-0x8bd],0x12
    1fae:	c6 85 44 f7 ff ff 19 	mov    BYTE PTR [rbp-0x8bc],0x19
    1fb5:	c6 85 45 f7 ff ff 29 	mov    BYTE PTR [rbp-0x8bb],0x29
    1fbc:	c6 85 46 f7 ff ff 02 	mov    BYTE PTR [rbp-0x8ba],0x2
    1fc3:	c6 85 47 f7 ff ff 02 	mov    BYTE PTR [rbp-0x8b9],0x2
    1fca:	c6 85 48 f7 ff ff c5 	mov    BYTE PTR [rbp-0x8b8],0xc5
    1fd1:	c6 85 49 f7 ff ff 90 	mov    BYTE PTR [rbp-0x8b7],0x90
    1fd8:	c6 85 4a f7 ff ff 02 	mov    BYTE PTR [rbp-0x8b6],0x2
    1fdf:	c6 85 4b f7 ff ff 13 	mov    BYTE PTR [rbp-0x8b5],0x13
    1fe6:	c6 85 4c f7 ff ff 74 	mov    BYTE PTR [rbp-0x8b4],0x74
    1fed:	c6 85 4d f7 ff ff 01 	mov    BYTE PTR [rbp-0x8b3],0x1
    1ff4:	c6 85 4e f7 ff ff f0 	mov    BYTE PTR [rbp-0x8b2],0xf0
    1ffb:	c6 85 4f f7 ff ff 90 	mov    BYTE PTR [rbp-0x8b1],0x90
    2002:	c6 85 50 f7 ff ff 06 	mov    BYTE PTR [rbp-0x8b0],0x6
    2009:	c6 85 51 f7 ff ff f4 	mov    BYTE PTR [rbp-0x8af],0xf4
    2010:	c6 85 52 f7 ff ff e0 	mov    BYTE PTR [rbp-0x8ae],0xe0
    2017:	c6 85 53 f7 ff ff ff 	mov    BYTE PTR [rbp-0x8ad],0xff
    201e:	c6 85 54 f7 ff ff 02 	mov    BYTE PTR [rbp-0x8ac],0x2
    2025:	c6 85 55 f7 ff ff 04 	mov    BYTE PTR [rbp-0x8ab],0x4
    202c:	c6 85 56 f7 ff ff ab 	mov    BYTE PTR [rbp-0x8aa],0xab
    2033:	c6 85 57 f7 ff ff 12 	mov    BYTE PTR [rbp-0x8a9],0x12
    203a:	c6 85 58 f7 ff ff 0d 	mov    BYTE PTR [rbp-0x8a8],0xd
    2041:	c6 85 59 f7 ff ff 43 	mov    BYTE PTR [rbp-0x8a7],0x43
    2048:	c6 85 5a f7 ff ff 12 	mov    BYTE PTR [rbp-0x8a6],0x12
    204f:	c6 85 5b f7 ff ff 0d 	mov    BYTE PTR [rbp-0x8a5],0xd
    2056:	c6 85 5c f7 ff ff 70 	mov    BYTE PTR [rbp-0x8a4],0x70
    205d:	c6 85 5d f7 ff ff 60 	mov    BYTE PTR [rbp-0x8a3],0x60
    2064:	c6 85 5e f7 ff ff 24 	mov    BYTE PTR [rbp-0x8a2],0x24
    206b:	c6 85 5f f7 ff ff 12 	mov    BYTE PTR [rbp-0x8a1],0x12
    2072:	c6 85 60 f7 ff ff 19 	mov    BYTE PTR [rbp-0x8a0],0x19
    2079:	c6 85 61 f7 ff ff 66 	mov    BYTE PTR [rbp-0x89f],0x66
    2080:	c6 85 62 f7 ff ff 70 	mov    BYTE PTR [rbp-0x89e],0x70
    2087:	c6 85 63 f7 ff ff 1f 	mov    BYTE PTR [rbp-0x89d],0x1f
    208e:	c6 85 64 f7 ff ff 12 	mov    BYTE PTR [rbp-0x89c],0x12
    2095:	c6 85 65 f7 ff ff 19 	mov    BYTE PTR [rbp-0x89b],0x19
    209c:	c6 85 66 f7 ff ff 7c 	mov    BYTE PTR [rbp-0x89a],0x7c
    20a3:	c6 85 67 f7 ff ff 6f 	mov    BYTE PTR [rbp-0x899],0x6f
    20aa:	c6 85 68 f7 ff ff 70 	mov    BYTE PTR [rbp-0x898],0x70
    20b1:	c6 85 69 f7 ff ff 19 	mov    BYTE PTR [rbp-0x897],0x19
    20b8:	c6 85 6a f7 ff ff 90 	mov    BYTE PTR [rbp-0x896],0x90
    20bf:	c6 85 6b f7 ff ff 02 	mov    BYTE PTR [rbp-0x895],0x2
    20c6:	c6 85 6c f7 ff ff 13 	mov    BYTE PTR [rbp-0x894],0x13
    20cd:	c6 85 6d f7 ff ff e0 	mov    BYTE PTR [rbp-0x893],0xe0
    20d4:	c6 85 6e f7 ff ff 64 	mov    BYTE PTR [rbp-0x892],0x64
    20db:	c6 85 6f f7 ff ff 01 	mov    BYTE PTR [rbp-0x891],0x1
    20e2:	c6 85 70 f7 ff ff 70 	mov    BYTE PTR [rbp-0x890],0x70
    20e9:	c6 85 71 f7 ff ff 11 	mov    BYTE PTR [rbp-0x88f],0x11
    20f0:	c6 85 72 f7 ff ff a3 	mov    BYTE PTR [rbp-0x88e],0xa3
    20f7:	c6 85 73 f7 ff ff e0 	mov    BYTE PTR [rbp-0x88d],0xe0
    20fe:	c6 85 74 f7 ff ff 64 	mov    BYTE PTR [rbp-0x88c],0x64
    2105:	c6 85 75 f7 ff ff 02 	mov    BYTE PTR [rbp-0x88b],0x2
    210c:	c6 85 76 f7 ff ff 70 	mov    BYTE PTR [rbp-0x88a],0x70
    2113:	c6 85 77 f7 ff ff 0b 	mov    BYTE PTR [rbp-0x889],0xb
    211a:	c6 85 78 f7 ff ff 90 	mov    BYTE PTR [rbp-0x888],0x90
    2121:	c6 85 79 f7 ff ff 04 	mov    BYTE PTR [rbp-0x887],0x4
    2128:	c6 85 7a f7 ff ff 63 	mov    BYTE PTR [rbp-0x886],0x63
    212f:	c6 85 7b f7 ff ff 74 	mov    BYTE PTR [rbp-0x885],0x74
    2136:	c6 85 7c f7 ff ff ca 	mov    BYTE PTR [rbp-0x884],0xca
    213d:	c6 85 7d f7 ff ff 12 	mov    BYTE PTR [rbp-0x883],0x12
    2144:	c6 85 7e f7 ff ff 0c 	mov    BYTE PTR [rbp-0x882],0xc
    214b:	c6 85 7f f7 ff ff ff 	mov    BYTE PTR [rbp-0x881],0xff
    2152:	c6 85 80 f7 ff ff 02 	mov    BYTE PTR [rbp-0x880],0x2
    2159:	c6 85 81 f7 ff ff 02 	mov    BYTE PTR [rbp-0x87f],0x2
    2160:	c6 85 82 f7 ff ff 31 	mov    BYTE PTR [rbp-0x87e],0x31
    2167:	c6 85 83 f7 ff ff 80 	mov    BYTE PTR [rbp-0x87d],0x80
    216e:	c6 85 84 f7 ff ff fe 	mov    BYTE PTR [rbp-0x87c],0xfe
    2175:	c6 85 85 f7 ff ff 12 	mov    BYTE PTR [rbp-0x87b],0x12
    217c:	c6 85 86 f7 ff ff 0d 	mov    BYTE PTR [rbp-0x87a],0xd
    2183:	c6 85 87 f7 ff ff 43 	mov    BYTE PTR [rbp-0x879],0x43
    218a:	c6 85 88 f7 ff ff 12 	mov    BYTE PTR [rbp-0x878],0x12
    2191:	c6 85 89 f7 ff ff 0d 	mov    BYTE PTR [rbp-0x877],0xd
    2198:	c6 85 8a f7 ff ff 70 	mov    BYTE PTR [rbp-0x876],0x70
    219f:	c6 85 8b f7 ff ff 60 	mov    BYTE PTR [rbp-0x875],0x60
    21a6:	c6 85 8c f7 ff ff 1f 	mov    BYTE PTR [rbp-0x874],0x1f
    21ad:	c6 85 8d f7 ff ff 12 	mov    BYTE PTR [rbp-0x873],0x12
    21b4:	c6 85 8e f7 ff ff 19 	mov    BYTE PTR [rbp-0x872],0x19
    21bb:	c6 85 8f f7 ff ff 66 	mov    BYTE PTR [rbp-0x871],0x66
    21c2:	c6 85 90 f7 ff ff 70 	mov    BYTE PTR [rbp-0x870],0x70
    21c9:	c6 85 91 f7 ff ff 1a 	mov    BYTE PTR [rbp-0x86f],0x1a
    21d0:	c6 85 92 f7 ff ff 12 	mov    BYTE PTR [rbp-0x86e],0x12
    21d7:	c6 85 93 f7 ff ff 19 	mov    BYTE PTR [rbp-0x86d],0x19
    21de:	c6 85 94 f7 ff ff 7c 	mov    BYTE PTR [rbp-0x86c],0x7c
    21e5:	c6 85 95 f7 ff ff b5 	mov    BYTE PTR [rbp-0x86b],0xb5
    21ec:	c6 85 96 f7 ff ff 07 	mov    BYTE PTR [rbp-0x86a],0x7
    21f3:	c6 85 97 f7 ff ff 14 	mov    BYTE PTR [rbp-0x869],0x14
    21fa:	c6 85 98 f7 ff ff 90 	mov    BYTE PTR [rbp-0x868],0x90
    2201:	c6 85 99 f7 ff ff 02 	mov    BYTE PTR [rbp-0x867],0x2
    2208:	c6 85 9a f7 ff ff 13 	mov    BYTE PTR [rbp-0x866],0x13
    220f:	c6 85 9b f7 ff ff e0 	mov    BYTE PTR [rbp-0x865],0xe0
    2216:	c6 85 9c f7 ff ff 64 	mov    BYTE PTR [rbp-0x864],0x64
    221d:	c6 85 9d f7 ff ff 01 	mov    BYTE PTR [rbp-0x863],0x1
    2224:	c6 85 9e f7 ff ff 70 	mov    BYTE PTR [rbp-0x862],0x70
    222b:	c6 85 9f f7 ff ff 0c 	mov    BYTE PTR [rbp-0x861],0xc
    2232:	c6 85 a0 f7 ff ff a3 	mov    BYTE PTR [rbp-0x860],0xa3
    2239:	c6 85 a1 f7 ff ff e0 	mov    BYTE PTR [rbp-0x85f],0xe0
    2240:	c6 85 a2 f7 ff ff 64 	mov    BYTE PTR [rbp-0x85e],0x64
    2247:	c6 85 a3 f7 ff ff 03 	mov    BYTE PTR [rbp-0x85d],0x3
    224e:	c6 85 a4 f7 ff ff 70 	mov    BYTE PTR [rbp-0x85c],0x70
    2255:	c6 85 a5 f7 ff ff 06 	mov    BYTE PTR [rbp-0x85b],0x6
    225c:	c6 85 a6 f7 ff ff 12 	mov    BYTE PTR [rbp-0x85a],0x12
    2263:	c6 85 a7 f7 ff ff 1c 	mov    BYTE PTR [rbp-0x859],0x1c
    226a:	c6 85 a8 f7 ff ff d0 	mov    BYTE PTR [rbp-0x858],0xd0
    2271:	c6 85 a9 f7 ff ff 02 	mov    BYTE PTR [rbp-0x857],0x2
    2278:	c6 85 aa f7 ff ff 02 	mov    BYTE PTR [rbp-0x856],0x2
    227f:	c6 85 ab f7 ff ff 31 	mov    BYTE PTR [rbp-0x855],0x31
    2286:	c6 85 ac f7 ff ff 80 	mov    BYTE PTR [rbp-0x854],0x80
    228d:	c6 85 ad f7 ff ff fe 	mov    BYTE PTR [rbp-0x853],0xfe
    2294:	c6 85 ae f7 ff ff 12 	mov    BYTE PTR [rbp-0x852],0x12
    229b:	c6 85 af f7 ff ff 0d 	mov    BYTE PTR [rbp-0x851],0xd
    22a2:	c6 85 b0 f7 ff ff 7a 	mov    BYTE PTR [rbp-0x850],0x7a
    22a9:	c6 85 b1 f7 ff ff ef 	mov    BYTE PTR [rbp-0x84f],0xef
    22b0:	c6 85 b2 f7 ff ff f0 	mov    BYTE PTR [rbp-0x84e],0xf0
    22b7:	c6 85 b3 f7 ff ff 12 	mov    BYTE PTR [rbp-0x84d],0x12
    22be:	c6 85 b4 f7 ff ff 19 	mov    BYTE PTR [rbp-0x84c],0x19
    22c5:	c6 85 b5 f7 ff ff 33 	mov    BYTE PTR [rbp-0x84b],0x33
    22cc:	c6 85 b7 f7 ff ff 12 	mov    BYTE PTR [rbp-0x849],0x12
    22d3:	c6 85 b8 f7 ff ff 19 	mov    BYTE PTR [rbp-0x848],0x19
    22da:	c6 85 b9 f7 ff ff 29 	mov    BYTE PTR [rbp-0x847],0x29
    22e1:	c6 85 ba f7 ff ff 90 	mov    BYTE PTR [rbp-0x846],0x90
    22e8:	c6 85 bb f7 ff ff 06 	mov    BYTE PTR [rbp-0x845],0x6
    22ef:	c6 85 bc f7 ff ff a8 	mov    BYTE PTR [rbp-0x844],0xa8
    22f6:	c6 85 bd f7 ff ff e0 	mov    BYTE PTR [rbp-0x843],0xe0
    22fd:	c6 85 be f7 ff ff 70 	mov    BYTE PTR [rbp-0x842],0x70
    2304:	c6 85 bf f7 ff ff 04 	mov    BYTE PTR [rbp-0x841],0x4
    230b:	c6 85 c0 f7 ff ff a3 	mov    BYTE PTR [rbp-0x840],0xa3
    2312:	c6 85 c1 f7 ff ff e0 	mov    BYTE PTR [rbp-0x83f],0xe0
    2319:	c6 85 c2 f7 ff ff 64 	mov    BYTE PTR [rbp-0x83e],0x64
    2320:	c6 85 c3 f7 ff ff 64 	mov    BYTE PTR [rbp-0x83d],0x64
    2327:	c6 85 c4 f7 ff ff 70 	mov    BYTE PTR [rbp-0x83c],0x70
    232e:	c6 85 c5 f7 ff ff f0 	mov    BYTE PTR [rbp-0x83b],0xf0
    2335:	c6 85 c6 f7 ff ff 12 	mov    BYTE PTR [rbp-0x83a],0x12
    233c:	c6 85 c7 f7 ff ff 1c 	mov    BYTE PTR [rbp-0x839],0x1c
    2343:	c6 85 c8 f7 ff ff 79 	mov    BYTE PTR [rbp-0x838],0x79
    234a:	c6 85 c9 f7 ff ff 90 	mov    BYTE PTR [rbp-0x837],0x90
    2351:	c6 85 cb f7 ff ff 10 	mov    BYTE PTR [rbp-0x835],0x10
    2358:	c6 85 cc f7 ff ff e0 	mov    BYTE PTR [rbp-0x834],0xe0
    235f:	c6 85 cd f7 ff ff 64 	mov    BYTE PTR [rbp-0x833],0x64
    2366:	c6 85 ce f7 ff ff 09 	mov    BYTE PTR [rbp-0x832],0x9
    236d:	c6 85 cf f7 ff ff 70 	mov    BYTE PTR [rbp-0x831],0x70
    2374:	c6 85 d0 f7 ff ff 50 	mov    BYTE PTR [rbp-0x830],0x50
    237b:	c6 85 d1 f7 ff ff 90 	mov    BYTE PTR [rbp-0x82f],0x90
    2382:	c6 85 d2 f7 ff ff 02 	mov    BYTE PTR [rbp-0x82e],0x2
    2389:	c6 85 d3 f7 ff ff 14 	mov    BYTE PTR [rbp-0x82d],0x14
    2390:	c6 85 d4 f7 ff ff e0 	mov    BYTE PTR [rbp-0x82c],0xe0
    2397:	c6 85 d5 f7 ff ff 64 	mov    BYTE PTR [rbp-0x82b],0x64
    239e:	c6 85 d6 f7 ff ff 01 	mov    BYTE PTR [rbp-0x82a],0x1
    23a5:	c6 85 d7 f7 ff ff 70 	mov    BYTE PTR [rbp-0x829],0x70
    23ac:	c6 85 d8 f7 ff ff 48 	mov    BYTE PTR [rbp-0x828],0x48
    23b3:	c6 85 d9 f7 ff ff 90 	mov    BYTE PTR [rbp-0x827],0x90
    23ba:	c6 85 da f7 ff ff 06 	mov    BYTE PTR [rbp-0x826],0x6
    23c1:	c6 85 db f7 ff ff f0 	mov    BYTE PTR [rbp-0x825],0xf0
    23c8:	c6 85 dc f7 ff ff e0 	mov    BYTE PTR [rbp-0x824],0xe0
    23cf:	c6 85 dd f7 ff ff ff 	mov    BYTE PTR [rbp-0x823],0xff
    23d6:	c6 85 de f7 ff ff 12 	mov    BYTE PTR [rbp-0x822],0x12
    23dd:	c6 85 df f7 ff ff 1d 	mov    BYTE PTR [rbp-0x821],0x1d
    23e4:	c6 85 e0 f7 ff ff d3 	mov    BYTE PTR [rbp-0x820],0xd3
    23eb:	c6 85 e1 f7 ff ff 90 	mov    BYTE PTR [rbp-0x81f],0x90
    23f2:	c6 85 e2 f7 ff ff 06 	mov    BYTE PTR [rbp-0x81e],0x6
    23f9:	c6 85 e3 f7 ff ff f1 	mov    BYTE PTR [rbp-0x81d],0xf1
    2400:	c6 85 e4 f7 ff ff e0 	mov    BYTE PTR [rbp-0x81c],0xe0
    2407:	c6 85 e5 f7 ff ff ff 	mov    BYTE PTR [rbp-0x81b],0xff
    240e:	c6 85 e6 f7 ff ff 12 	mov    BYTE PTR [rbp-0x81a],0x12
    2415:	c6 85 e7 f7 ff ff 1d 	mov    BYTE PTR [rbp-0x819],0x1d
    241c:	c6 85 e8 f7 ff ff d3 	mov    BYTE PTR [rbp-0x818],0xd3
    2423:	c6 85 e9 f7 ff ff 90 	mov    BYTE PTR [rbp-0x817],0x90
    242a:	c6 85 ea f7 ff ff 06 	mov    BYTE PTR [rbp-0x816],0x6
    2431:	c6 85 eb f7 ff ff f2 	mov    BYTE PTR [rbp-0x815],0xf2
    2438:	c6 85 ec f7 ff ff e0 	mov    BYTE PTR [rbp-0x814],0xe0
    243f:	c6 85 ed f7 ff ff ff 	mov    BYTE PTR [rbp-0x813],0xff
    2446:	c6 85 ee f7 ff ff 12 	mov    BYTE PTR [rbp-0x812],0x12
    244d:	48 8d 95 e0 f5 ff ff 	lea    rdx,[rbp-0xa20]
    2454:	b8 00 00 00 00       	mov    eax,0x0
    2459:	b9 21 00 00 00       	mov    ecx,0x21
    245e:	48 89 d7             	mov    rdi,rdx
    2461:	f3 48 ab             	rep stos QWORD PTR es:[rdi],rax
    2464:	48 89 fa             	mov    rdx,rdi
    2467:	89 02                	mov    DWORD PTR [rdx],eax
    2469:	48 83 c2 04          	add    rdx,0x4
    246d:	66 89 02             	mov    WORD PTR [rdx],ax
    2470:	48 83 c2 02          	add    rdx,0x2
    2474:	c6 85 e1 f5 ff ff 58 	mov    BYTE PTR [rbp-0xa1f],0x58
    247b:	c6 85 e2 f5 ff ff 83 	mov    BYTE PTR [rbp-0xa1e],0x83
    2482:	c6 85 e3 f5 ff ff fe 	mov    BYTE PTR [rbp-0xa1d],0xfe
    2489:	c6 85 e4 f5 ff ff ff 	mov    BYTE PTR [rbp-0xa1c],0xff
    2490:	48 8d 95 d0 f4 ff ff 	lea    rdx,[rbp-0xb30]
    2497:	b8 00 00 00 00       	mov    eax,0x0
    249c:	b9 21 00 00 00       	mov    ecx,0x21
    24a1:	48 89 d7             	mov    rdi,rdx
    24a4:	f3 48 ab             	rep stos QWORD PTR es:[rdi],rax
    24a7:	48 89 fa             	mov    rdx,rdi
    24aa:	89 02                	mov    DWORD PTR [rdx],eax
    24ac:	48 83 c2 04          	add    rdx,0x4
    24b0:	66 89 02             	mov    WORD PTR [rdx],ax
    24b3:	48 83 c2 02          	add    rdx,0x2
    24b7:	c6 85 d0 f4 ff ff 1d 	mov    BYTE PTR [rbp-0xb30],0x1d
    24be:	c6 85 d1 f4 ff ff d3 	mov    BYTE PTR [rbp-0xb2f],0xd3
    24c5:	c6 85 d2 f4 ff ff 90 	mov    BYTE PTR [rbp-0xb2e],0x90
    24cc:	c6 85 d3 f4 ff ff 06 	mov    BYTE PTR [rbp-0xb2d],0x6
    24d3:	c6 85 d4 f4 ff ff f3 	mov    BYTE PTR [rbp-0xb2c],0xf3
    24da:	c6 85 d5 f4 ff ff e0 	mov    BYTE PTR [rbp-0xb2b],0xe0
    24e1:	c6 85 d6 f4 ff ff ff 	mov    BYTE PTR [rbp-0xb2a],0xff
    24e8:	c6 85 d7 f4 ff ff 12 	mov    BYTE PTR [rbp-0xb29],0x12
    24ef:	c6 85 d8 f4 ff ff 1d 	mov    BYTE PTR [rbp-0xb28],0x1d
    24f6:	c6 85 d9 f4 ff ff d3 	mov    BYTE PTR [rbp-0xb27],0xd3
    24fd:	c6 85 da f4 ff ff 90 	mov    BYTE PTR [rbp-0xb26],0x90
    2504:	c6 85 db f4 ff ff 06 	mov    BYTE PTR [rbp-0xb25],0x6
    250b:	c6 85 dc f4 ff ff dd 	mov    BYTE PTR [rbp-0xb24],0xdd
    2512:	c6 85 dd f4 ff ff e0 	mov    BYTE PTR [rbp-0xb23],0xe0
    2519:	c6 85 de f4 ff ff ff 	mov    BYTE PTR [rbp-0xb22],0xff
    2520:	c6 85 df f4 ff ff 12 	mov    BYTE PTR [rbp-0xb21],0x12
    2527:	c6 85 e0 f4 ff ff 1d 	mov    BYTE PTR [rbp-0xb20],0x1d
    252e:	c6 85 e1 f4 ff ff d3 	mov    BYTE PTR [rbp-0xb1f],0xd3
    2535:	c6 85 e2 f4 ff ff 90 	mov    BYTE PTR [rbp-0xb1e],0x90
    253c:	c6 85 e3 f4 ff ff 06 	mov    BYTE PTR [rbp-0xb1d],0x6
    2543:	c6 85 e4 f4 ff ff de 	mov    BYTE PTR [rbp-0xb1c],0xde
    254a:	c6 85 e5 f4 ff ff e0 	mov    BYTE PTR [rbp-0xb1b],0xe0
    2551:	c6 85 e6 f4 ff ff ff 	mov    BYTE PTR [rbp-0xb1a],0xff
    2558:	c6 85 e7 f4 ff ff 12 	mov    BYTE PTR [rbp-0xb19],0x12
    255f:	c6 85 e8 f4 ff ff 1d 	mov    BYTE PTR [rbp-0xb18],0x1d
    2566:	c6 85 e9 f4 ff ff d3 	mov    BYTE PTR [rbp-0xb17],0xd3
    256d:	c6 85 ea f4 ff ff 90 	mov    BYTE PTR [rbp-0xb16],0x90
    2574:	c6 85 eb f4 ff ff 06 	mov    BYTE PTR [rbp-0xb15],0x6
    257b:	c6 85 ec f4 ff ff df 	mov    BYTE PTR [rbp-0xb14],0xdf
    2582:	c6 85 ed f4 ff ff e0 	mov    BYTE PTR [rbp-0xb13],0xe0
    2589:	c6 85 ee f4 ff ff ff 	mov    BYTE PTR [rbp-0xb12],0xff
    2590:	c6 85 ef f4 ff ff 12 	mov    BYTE PTR [rbp-0xb11],0x12
    2597:	c6 85 f0 f4 ff ff 1d 	mov    BYTE PTR [rbp-0xb10],0x1d
    259e:	c6 85 f1 f4 ff ff d3 	mov    BYTE PTR [rbp-0xb0f],0xd3
    25a5:	c6 85 f2 f4 ff ff 90 	mov    BYTE PTR [rbp-0xb0e],0x90
    25ac:	c6 85 f3 f4 ff ff 06 	mov    BYTE PTR [rbp-0xb0d],0x6
    25b3:	c6 85 f4 f4 ff ff e0 	mov    BYTE PTR [rbp-0xb0c],0xe0
    25ba:	c6 85 f5 f4 ff ff e0 	mov    BYTE PTR [rbp-0xb0b],0xe0
    25c1:	c6 85 f6 f4 ff ff ff 	mov    BYTE PTR [rbp-0xb0a],0xff
    25c8:	c6 85 f7 f4 ff ff 12 	mov    BYTE PTR [rbp-0xb09],0x12
    25cf:	c6 85 f8 f4 ff ff 1d 	mov    BYTE PTR [rbp-0xb08],0x1d
    25d6:	c6 85 f9 f4 ff ff d3 	mov    BYTE PTR [rbp-0xb07],0xd3
    25dd:	c6 85 fa f4 ff ff 90 	mov    BYTE PTR [rbp-0xb06],0x90
    25e4:	c6 85 fb f4 ff ff 04 	mov    BYTE PTR [rbp-0xb05],0x4
    25eb:	c6 85 fc f4 ff ff 5d 	mov    BYTE PTR [rbp-0xb04],0x5d
    25f2:	c6 85 fd f4 ff ff e0 	mov    BYTE PTR [rbp-0xb03],0xe0
    25f9:	c6 85 fe f4 ff ff ff 	mov    BYTE PTR [rbp-0xb02],0xff
    2600:	c6 85 ff f4 ff ff 12 	mov    BYTE PTR [rbp-0xb01],0x12
    2607:	c6 85 00 f5 ff ff 1d 	mov    BYTE PTR [rbp-0xb00],0x1d
    260e:	c6 85 01 f5 ff ff d3 	mov    BYTE PTR [rbp-0xaff],0xd3
    2615:	c6 85 02 f5 ff ff 80 	mov    BYTE PTR [rbp-0xafe],0x80
    261c:	c6 85 03 f5 ff ff fe 	mov    BYTE PTR [rbp-0xafd],0xfe
    2623:	c6 85 04 f5 ff ff 80 	mov    BYTE PTR [rbp-0xafc],0x80
    262a:	c6 85 05 f5 ff ff fe 	mov    BYTE PTR [rbp-0xafb],0xfe
    2631:	c6 85 06 f5 ff ff 12 	mov    BYTE PTR [rbp-0xafa],0x12
    2638:	c6 85 07 f5 ff ff 0d 	mov    BYTE PTR [rbp-0xaf9],0xd
    263f:	c6 85 08 f5 ff ff 55 	mov    BYTE PTR [rbp-0xaf8],0x55
    2646:	c6 85 09 f5 ff ff 70 	mov    BYTE PTR [rbp-0xaf7],0x70
    264d:	c6 85 0a f5 ff ff 1d 	mov    BYTE PTR [rbp-0xaf6],0x1d
    2654:	c6 85 0b f5 ff ff 12 	mov    BYTE PTR [rbp-0xaf5],0x12
    265b:	c6 85 0c f5 ff ff 0d 	mov    BYTE PTR [rbp-0xaf4],0xd
    2662:	c6 85 0d f5 ff ff 81 	mov    BYTE PTR [rbp-0xaf3],0x81
    2669:	c6 85 0e f5 ff ff e0 	mov    BYTE PTR [rbp-0xaf2],0xe0
    2670:	c6 85 0f f5 ff ff 6f 	mov    BYTE PTR [rbp-0xaf1],0x6f
    2677:	c6 85 10 f5 ff ff 70 	mov    BYTE PTR [rbp-0xaf0],0x70
    267e:	c6 85 11 f5 ff ff 16 	mov    BYTE PTR [rbp-0xaef],0x16
    2685:	c6 85 12 f5 ff ff 12 	mov    BYTE PTR [rbp-0xaee],0x12
    268c:	c6 85 13 f5 ff ff 0d 	mov    BYTE PTR [rbp-0xaed],0xd
    2693:	c6 85 14 f5 ff ff 88 	mov    BYTE PTR [rbp-0xaec],0x88
    269a:	c6 85 15 f5 ff ff e0 	mov    BYTE PTR [rbp-0xaeb],0xe0
    26a1:	c6 85 16 f5 ff ff 6f 	mov    BYTE PTR [rbp-0xaea],0x6f
    26a8:	c6 85 17 f5 ff ff 70 	mov    BYTE PTR [rbp-0xae9],0x70
    26af:	c6 85 18 f5 ff ff 0f 	mov    BYTE PTR [rbp-0xae8],0xf
    26b6:	c6 85 19 f5 ff ff 12 	mov    BYTE PTR [rbp-0xae7],0x12
    26bd:	c6 85 1a f5 ff ff 0d 	mov    BYTE PTR [rbp-0xae6],0xd
    26c4:	c6 85 1b f5 ff ff 8f 	mov    BYTE PTR [rbp-0xae5],0x8f
    26cb:	c6 85 1c f5 ff ff e0 	mov    BYTE PTR [rbp-0xae4],0xe0
    26d2:	c6 85 1d f5 ff ff b5 	mov    BYTE PTR [rbp-0xae3],0xb5
    26d9:	c6 85 1e f5 ff ff 07 	mov    BYTE PTR [rbp-0xae2],0x7
    26e0:	c6 85 1f f5 ff ff 08 	mov    BYTE PTR [rbp-0xae1],0x8
    26e7:	c6 85 20 f5 ff ff 12 	mov    BYTE PTR [rbp-0xae0],0x12
    26ee:	c6 85 21 f5 ff ff 1d 	mov    BYTE PTR [rbp-0xadf],0x1d
    26f5:	c6 85 22 f5 ff ff df 	mov    BYTE PTR [rbp-0xade],0xdf
    26fc:	c6 85 23 f5 ff ff 90 	mov    BYTE PTR [rbp-0xadd],0x90
    2703:	c6 85 24 f5 ff ff 04 	mov    BYTE PTR [rbp-0xadc],0x4
    270a:	c6 85 25 f5 ff ff 98 	mov    BYTE PTR [rbp-0xadb],0x98
    2711:	c6 85 26 f5 ff ff 80 	mov    BYTE PTR [rbp-0xada],0x80
    2718:	c6 85 27 f5 ff ff 44 	mov    BYTE PTR [rbp-0xad9],0x44
    271f:	c6 85 28 f5 ff ff 12 	mov    BYTE PTR [rbp-0xad8],0x12
    2726:	c6 85 29 f5 ff ff 1d 	mov    BYTE PTR [rbp-0xad7],0x1d
    272d:	c6 85 2a f5 ff ff df 	mov    BYTE PTR [rbp-0xad6],0xdf
    2734:	c6 85 2b f5 ff ff 7f 	mov    BYTE PTR [rbp-0xad5],0x7f
    273b:	c6 85 2c f5 ff ff 90 	mov    BYTE PTR [rbp-0xad4],0x90
    2742:	c6 85 2d f5 ff ff 12 	mov    BYTE PTR [rbp-0xad3],0x12
    2749:	c6 85 2e f5 ff ff 1d 	mov    BYTE PTR [rbp-0xad2],0x1d
    2750:	c6 85 2f f5 ff ff d3 	mov    BYTE PTR [rbp-0xad1],0xd3
    2757:	c6 85 30 f5 ff ff 7f 	mov    BYTE PTR [rbp-0xad0],0x7f
    275e:	c6 85 31 f5 ff ff 17 	mov    BYTE PTR [rbp-0xacf],0x17
    2765:	c6 85 32 f5 ff ff 80 	mov    BYTE PTR [rbp-0xace],0x80
    276c:	c6 85 33 f5 ff ff 49 	mov    BYTE PTR [rbp-0xacd],0x49
    2773:	c6 85 34 f5 ff ff 12 	mov    BYTE PTR [rbp-0xacc],0x12
    277a:	c6 85 35 f5 ff ff 0d 	mov    BYTE PTR [rbp-0xacb],0xd
    2781:	c6 85 36 f5 ff ff 55 	mov    BYTE PTR [rbp-0xaca],0x55
    2788:	c6 85 37 f5 ff ff 70 	mov    BYTE PTR [rbp-0xac9],0x70
    278f:	c6 85 38 f5 ff ff 3a 	mov    BYTE PTR [rbp-0xac8],0x3a
    2796:	c6 85 39 f5 ff ff 12 	mov    BYTE PTR [rbp-0xac7],0x12
    279d:	c6 85 3a f5 ff ff 0d 	mov    BYTE PTR [rbp-0xac6],0xd
    27a4:	c6 85 3b f5 ff ff 81 	mov    BYTE PTR [rbp-0xac5],0x81
    27ab:	c6 85 3c f5 ff ff e0 	mov    BYTE PTR [rbp-0xac4],0xe0
    27b2:	c6 85 3d f5 ff ff 6f 	mov    BYTE PTR [rbp-0xac3],0x6f
    27b9:	c6 85 3e f5 ff ff 70 	mov    BYTE PTR [rbp-0xac2],0x70
    27c0:	c6 85 3f f5 ff ff 33 	mov    BYTE PTR [rbp-0xac1],0x33
    27c7:	c6 85 40 f5 ff ff 12 	mov    BYTE PTR [rbp-0xac0],0x12
    27ce:	c6 85 41 f5 ff ff 0d 	mov    BYTE PTR [rbp-0xabf],0xd
    27d5:	c6 85 42 f5 ff ff 88 	mov    BYTE PTR [rbp-0xabe],0x88
    27dc:	c6 85 43 f5 ff ff e0 	mov    BYTE PTR [rbp-0xabd],0xe0
    27e3:	c6 85 44 f5 ff ff 6f 	mov    BYTE PTR [rbp-0xabc],0x6f
    27ea:	c6 85 45 f5 ff ff 70 	mov    BYTE PTR [rbp-0xabb],0x70
    27f1:	c6 85 46 f5 ff ff 2c 	mov    BYTE PTR [rbp-0xaba],0x2c
    27f8:	c6 85 47 f5 ff ff 12 	mov    BYTE PTR [rbp-0xab9],0x12
    27ff:	c6 85 48 f5 ff ff 0d 	mov    BYTE PTR [rbp-0xab8],0xd
    2806:	c6 85 49 f5 ff ff 8f 	mov    BYTE PTR [rbp-0xab7],0x8f
    280d:	c6 85 4a f5 ff ff e0 	mov    BYTE PTR [rbp-0xab6],0xe0
    2814:	c6 85 4b f5 ff ff 6f 	mov    BYTE PTR [rbp-0xab5],0x6f
    281b:	c6 85 4c f5 ff ff 70 	mov    BYTE PTR [rbp-0xab4],0x70
    2822:	c6 85 4d f5 ff ff 25 	mov    BYTE PTR [rbp-0xab3],0x25
    2829:	c6 85 4e f5 ff ff 12 	mov    BYTE PTR [rbp-0xab2],0x12
    2830:	c6 85 4f f5 ff ff 1d 	mov    BYTE PTR [rbp-0xab1],0x1d
    2837:	c6 85 50 f5 ff ff df 	mov    BYTE PTR [rbp-0xab0],0xdf
    283e:	c6 85 51 f5 ff ff 90 	mov    BYTE PTR [rbp-0xaaf],0x90
    2845:	c6 85 52 f5 ff ff 04 	mov    BYTE PTR [rbp-0xaae],0x4
    284c:	c6 85 53 f5 ff ff 99 	mov    BYTE PTR [rbp-0xaad],0x99
    2853:	c6 85 54 f5 ff ff ef 	mov    BYTE PTR [rbp-0xaac],0xef
    285a:	c6 85 55 f5 ff ff f0 	mov    BYTE PTR [rbp-0xaab],0xf0
    2861:	c6 85 56 f5 ff ff 12 	mov    BYTE PTR [rbp-0xaaa],0x12
    2868:	c6 85 57 f5 ff ff 1d 	mov    BYTE PTR [rbp-0xaa9],0x1d
    286f:	c6 85 58 f5 ff ff df 	mov    BYTE PTR [rbp-0xaa8],0xdf
    2876:	c6 85 59 f5 ff ff 90 	mov    BYTE PTR [rbp-0xaa7],0x90
    287d:	c6 85 5a f5 ff ff 04 	mov    BYTE PTR [rbp-0xaa6],0x4
    2884:	c6 85 5b f5 ff ff 9a 	mov    BYTE PTR [rbp-0xaa5],0x9a
    288b:	c6 85 5c f5 ff ff ef 	mov    BYTE PTR [rbp-0xaa4],0xef
    2892:	c6 85 5d f5 ff ff f0 	mov    BYTE PTR [rbp-0xaa3],0xf0
    2899:	c6 85 5e f5 ff ff 12 	mov    BYTE PTR [rbp-0xaa2],0x12
    28a0:	c6 85 5f f5 ff ff 1d 	mov    BYTE PTR [rbp-0xaa1],0x1d
    28a7:	c6 85 60 f5 ff ff df 	mov    BYTE PTR [rbp-0xaa0],0xdf
    28ae:	c6 85 61 f5 ff ff 90 	mov    BYTE PTR [rbp-0xa9f],0x90
    28b5:	c6 85 62 f5 ff ff 04 	mov    BYTE PTR [rbp-0xa9e],0x4
    28bc:	c6 85 63 f5 ff ff 9b 	mov    BYTE PTR [rbp-0xa9d],0x9b
    28c3:	c6 85 64 f5 ff ff ef 	mov    BYTE PTR [rbp-0xa9c],0xef
    28ca:	c6 85 65 f5 ff ff f0 	mov    BYTE PTR [rbp-0xa9b],0xf0
    28d1:	c6 85 66 f5 ff ff 12 	mov    BYTE PTR [rbp-0xa9a],0x12
    28d8:	c6 85 67 f5 ff ff 1d 	mov    BYTE PTR [rbp-0xa99],0x1d
    28df:	c6 85 68 f5 ff ff df 	mov    BYTE PTR [rbp-0xa98],0xdf
    28e6:	c6 85 69 f5 ff ff 90 	mov    BYTE PTR [rbp-0xa97],0x90
    28ed:	c6 85 6a f5 ff ff 04 	mov    BYTE PTR [rbp-0xa96],0x4
    28f4:	c6 85 6b f5 ff ff 9c 	mov    BYTE PTR [rbp-0xa95],0x9c
    28fb:	c6 85 6c f5 ff ff ef 	mov    BYTE PTR [rbp-0xa94],0xef
    2902:	c6 85 6d f5 ff ff 12 	mov    BYTE PTR [rbp-0xa93],0x12
    2909:	c6 85 6e f5 ff ff 0c 	mov    BYTE PTR [rbp-0xa92],0xc
    2910:	c6 85 6f f5 ff ff ff 	mov    BYTE PTR [rbp-0xa91],0xff
    2917:	c6 85 70 f5 ff ff 02 	mov    BYTE PTR [rbp-0xa90],0x2
    291e:	c6 85 71 f5 ff ff 0c 	mov    BYTE PTR [rbp-0xa8f],0xc
    2925:	c6 85 72 f5 ff ff ac 	mov    BYTE PTR [rbp-0xa8e],0xac
    292c:	c6 85 73 f5 ff ff 12 	mov    BYTE PTR [rbp-0xa8d],0x12
    2933:	c6 85 74 f5 ff ff 0d 	mov    BYTE PTR [rbp-0xa8c],0xd
    293a:	c6 85 75 f5 ff ff 14 	mov    BYTE PTR [rbp-0xa8b],0x14
    2941:	c6 85 76 f5 ff ff 7f 	mov    BYTE PTR [rbp-0xa8a],0x7f
    2948:	c6 85 77 f5 ff ff 90 	mov    BYTE PTR [rbp-0xa89],0x90
    294f:	c6 85 78 f5 ff ff 12 	mov    BYTE PTR [rbp-0xa88],0x12
    2956:	c6 85 79 f5 ff ff 1d 	mov    BYTE PTR [rbp-0xa87],0x1d
    295d:	c6 85 7a f5 ff ff d3 	mov    BYTE PTR [rbp-0xa86],0xd3
    2964:	c6 85 7b f5 ff ff 7f 	mov    BYTE PTR [rbp-0xa85],0x7f
    296b:	c6 85 7c f5 ff ff 17 	mov    BYTE PTR [rbp-0xa84],0x17
    2972:	c6 85 7d f5 ff ff 12 	mov    BYTE PTR [rbp-0xa83],0x12
    2979:	c6 85 7e f5 ff ff 1d 	mov    BYTE PTR [rbp-0xa82],0x1d
    2980:	c6 85 7f f5 ff ff d3 	mov    BYTE PTR [rbp-0xa81],0xd3
    2987:	c6 85 80 f5 ff ff 02 	mov    BYTE PTR [rbp-0xa80],0x2
    298e:	c6 85 81 f5 ff ff 02 	mov    BYTE PTR [rbp-0xa7f],0x2
    2995:	c6 85 82 f5 ff ff 31 	mov    BYTE PTR [rbp-0xa7e],0x31
    299c:	c6 85 83 f5 ff ff 12 	mov    BYTE PTR [rbp-0xa7d],0x12
    29a3:	c6 85 84 f5 ff ff 0d 	mov    BYTE PTR [rbp-0xa7c],0xd
    29aa:	c6 85 85 f5 ff ff 7a 	mov    BYTE PTR [rbp-0xa7b],0x7a
    29b1:	c6 85 86 f5 ff ff ef 	mov    BYTE PTR [rbp-0xa7a],0xef
    29b8:	c6 85 87 f5 ff ff f0 	mov    BYTE PTR [rbp-0xa79],0xf0
    29bf:	c6 85 88 f5 ff ff 12 	mov    BYTE PTR [rbp-0xa78],0x12
    29c6:	c6 85 89 f5 ff ff 1d 	mov    BYTE PTR [rbp-0xa77],0x1d
    29cd:	c6 85 8a f5 ff ff df 	mov    BYTE PTR [rbp-0xa76],0xdf
    29d4:	c6 85 8b f5 ff ff 90 	mov    BYTE PTR [rbp-0xa75],0x90
    29db:	c6 85 8d f5 ff ff 11 	mov    BYTE PTR [rbp-0xa73],0x11
    29e2:	c6 85 8e f5 ff ff ef 	mov    BYTE PTR [rbp-0xa72],0xef
    29e9:	c6 85 8f f5 ff ff f0 	mov    BYTE PTR [rbp-0xa71],0xf0
    29f0:	c6 85 90 f5 ff ff 12 	mov    BYTE PTR [rbp-0xa70],0x12
    29f7:	c6 85 91 f5 ff ff 1c 	mov    BYTE PTR [rbp-0xa6f],0x1c
    29fe:	c6 85 92 f5 ff ff 79 	mov    BYTE PTR [rbp-0xa6e],0x79
    2a05:	c6 85 93 f5 ff ff 90 	mov    BYTE PTR [rbp-0xa6d],0x90
    2a0c:	c6 85 95 f5 ff ff 0e 	mov    BYTE PTR [rbp-0xa6b],0xe
    2a13:	c6 85 96 f5 ff ff e0 	mov    BYTE PTR [rbp-0xa6a],0xe0
    2a1a:	c6 85 97 f5 ff ff ff 	mov    BYTE PTR [rbp-0xa69],0xff
    2a21:	c6 85 98 f5 ff ff 12 	mov    BYTE PTR [rbp-0xa68],0x12
    2a28:	c6 85 99 f5 ff ff 1d 	mov    BYTE PTR [rbp-0xa67],0x1d
    2a2f:	c6 85 9a f5 ff ff d3 	mov    BYTE PTR [rbp-0xa66],0xd3
    2a36:	c6 85 9b f5 ff ff 90 	mov    BYTE PTR [rbp-0xa65],0x90
    2a3d:	c6 85 9d f5 ff ff 0e 	mov    BYTE PTR [rbp-0xa63],0xe
    2a44:	c6 85 9e f5 ff ff e0 	mov    BYTE PTR [rbp-0xa62],0xe0
    2a4b:	c6 85 9f f5 ff ff 24 	mov    BYTE PTR [rbp-0xa61],0x24
    2a52:	c6 85 a0 f5 ff ff ef 	mov    BYTE PTR [rbp-0xa60],0xef
    2a59:	c6 85 a1 f5 ff ff 60 	mov    BYTE PTR [rbp-0xa5f],0x60
    2a60:	c6 85 a2 f5 ff ff 40 	mov    BYTE PTR [rbp-0xa5e],0x40
    2a67:	c6 85 a3 f5 ff ff 24 	mov    BYTE PTR [rbp-0xa5d],0x24
    2a6e:	c6 85 a4 f5 ff ff 47 	mov    BYTE PTR [rbp-0xa5c],0x47
    2a75:	c6 85 a5 f5 ff ff 60 	mov    BYTE PTR [rbp-0xa5b],0x60
    2a7c:	c6 85 a6 f5 ff ff 0a 	mov    BYTE PTR [rbp-0xa5a],0xa
    2a83:	c6 85 a7 f5 ff ff 24 	mov    BYTE PTR [rbp-0xa59],0x24
    2a8a:	c6 85 a8 f5 ff ff 31 	mov    BYTE PTR [rbp-0xa58],0x31
    2a91:	c6 85 a9 f5 ff ff 60 	mov    BYTE PTR [rbp-0xa57],0x60
    2a98:	c6 85 aa f5 ff ff 03 	mov    BYTE PTR [rbp-0xa56],0x3
    2a9f:	c6 85 ab f5 ff ff 02 	mov    BYTE PTR [rbp-0xa55],0x2
    2aa6:	c6 85 ac f5 ff ff 02 	mov    BYTE PTR [rbp-0xa54],0x2
    2aad:	c6 85 ad f5 ff ff 31 	mov    BYTE PTR [rbp-0xa53],0x31
    2ab4:	c6 85 ae f5 ff ff 02 	mov    BYTE PTR [rbp-0xa52],0x2
    2abb:	c6 85 af f5 ff ff 0c 	mov    BYTE PTR [rbp-0xa51],0xc
    2ac2:	c6 85 b0 f5 ff ff ac 	mov    BYTE PTR [rbp-0xa50],0xac
    2ac9:	c6 85 b1 f5 ff ff 12 	mov    BYTE PTR [rbp-0xa4f],0x12
    2ad0:	c6 85 b2 f5 ff ff 19 	mov    BYTE PTR [rbp-0xa4e],0x19
    2ad7:	c6 85 b3 f5 ff ff 33 	mov    BYTE PTR [rbp-0xa4d],0x33
    2ade:	c6 85 b4 f5 ff ff 90 	mov    BYTE PTR [rbp-0xa4c],0x90
    2ae5:	c6 85 b6 f5 ff ff 11 	mov    BYTE PTR [rbp-0xa4a],0x11
    2aec:	c6 85 b7 f5 ff ff e0 	mov    BYTE PTR [rbp-0xa49],0xe0
    2af3:	c6 85 b8 f5 ff ff ff 	mov    BYTE PTR [rbp-0xa48],0xff
    2afa:	c6 85 b9 f5 ff ff 90 	mov    BYTE PTR [rbp-0xa47],0x90
    2b01:	c6 85 ba f5 ff ff 06 	mov    BYTE PTR [rbp-0xa46],0x6
    2b08:	c6 85 bb f5 ff ff a8 	mov    BYTE PTR [rbp-0xa45],0xa8
    2b0f:	c6 85 bc f5 ff ff e0 	mov    BYTE PTR [rbp-0xa44],0xe0
    2b16:	c6 85 bd f5 ff ff fc 	mov    BYTE PTR [rbp-0xa43],0xfc
    2b1d:	c6 85 be f5 ff ff a3 	mov    BYTE PTR [rbp-0xa42],0xa3
    2b24:	c6 85 bf f5 ff ff e0 	mov    BYTE PTR [rbp-0xa41],0xe0
    2b2b:	c6 85 c0 f5 ff ff fd 	mov    BYTE PTR [rbp-0xa40],0xfd
    2b32:	c6 85 c1 f5 ff ff c3 	mov    BYTE PTR [rbp-0xa3f],0xc3
    2b39:	c6 85 c2 f5 ff ff 9f 	mov    BYTE PTR [rbp-0xa3e],0x9f
    2b40:	c6 85 c3 f5 ff ff 74 	mov    BYTE PTR [rbp-0xa3d],0x74
    2b47:	c6 85 c4 f5 ff ff 80 	mov    BYTE PTR [rbp-0xa3c],0x80
    2b4e:	c6 85 c5 f5 ff ff f8 	mov    BYTE PTR [rbp-0xa3b],0xf8
    2b55:	c6 85 c6 f5 ff ff ec 	mov    BYTE PTR [rbp-0xa3a],0xec
    2b5c:	c6 85 c7 f5 ff ff 64 	mov    BYTE PTR [rbp-0xa39],0x64
    2b63:	c6 85 c8 f5 ff ff 80 	mov    BYTE PTR [rbp-0xa38],0x80
    2b6a:	c6 85 c9 f5 ff ff 98 	mov    BYTE PTR [rbp-0xa37],0x98
    2b71:	c6 85 ca f5 ff ff 50 	mov    BYTE PTR [rbp-0xa36],0x50
    2b78:	c6 85 cb f5 ff ff 14 	mov    BYTE PTR [rbp-0xa35],0x14
    2b7f:	c6 85 cc f5 ff ff 74 	mov    BYTE PTR [rbp-0xa34],0x74
    2b86:	c6 85 cd f5 ff ff 12 	mov    BYTE PTR [rbp-0xa33],0x12
    2b8d:	c6 85 ce f5 ff ff 2d 	mov    BYTE PTR [rbp-0xa32],0x2d
    2b94:	48 8d 95 c0 f3 ff ff 	lea    rdx,[rbp-0xc40]
    2b9b:	b8 00 00 00 00       	mov    eax,0x0
    2ba0:	b9 21 00 00 00       	mov    ecx,0x21
    2ba5:	48 89 d7             	mov    rdi,rdx
    2ba8:	f3 48 ab             	rep stos QWORD PTR es:[rdi],rax
    2bab:	48 89 fa             	mov    rdx,rdi
    2bae:	89 02                	mov    DWORD PTR [rdx],eax
    2bb0:	48 83 c2 04          	add    rdx,0x4
    2bb4:	66 89 02             	mov    WORD PTR [rdx],ax
    2bb7:	48 83 c2 02          	add    rdx,0x2
    2bbb:	c6 85 c1 f3 ff ff 58 	mov    BYTE PTR [rbp-0xc3f],0x58
    2bc2:	c6 85 c2 f3 ff ff 84 	mov    BYTE PTR [rbp-0xc3e],0x84
    2bc9:	c6 85 c3 f3 ff ff fd 	mov    BYTE PTR [rbp-0xc3d],0xfd
    2bd0:	c6 85 c4 f3 ff ff ff 	mov    BYTE PTR [rbp-0xc3c],0xff
    2bd7:	48 8d 95 b0 f2 ff ff 	lea    rdx,[rbp-0xd50]
    2bde:	b8 00 00 00 00       	mov    eax,0x0
    2be3:	b9 21 00 00 00       	mov    ecx,0x21
    2be8:	48 89 d7             	mov    rdi,rdx
    2beb:	f3 48 ab             	rep stos QWORD PTR es:[rdi],rax
    2bee:	48 89 fa             	mov    rdx,rdi
    2bf1:	89 02                	mov    DWORD PTR [rdx],eax
    2bf3:	48 83 c2 04          	add    rdx,0x4
    2bf7:	66 89 02             	mov    WORD PTR [rdx],ax
    2bfa:	48 83 c2 02          	add    rdx,0x2
    2bfe:	c6 85 b0 f2 ff ff f5 	mov    BYTE PTR [rbp-0xd50],0xf5
    2c05:	c6 85 b1 f2 ff ff 82 	mov    BYTE PTR [rbp-0xd4f],0x82
    2c0c:	c6 85 b2 f2 ff ff 74 	mov    BYTE PTR [rbp-0xd4e],0x74
    2c13:	c6 85 b4 f2 ff ff 3c 	mov    BYTE PTR [rbp-0xd4c],0x3c
    2c1a:	c6 85 b5 f2 ff ff f5 	mov    BYTE PTR [rbp-0xd4b],0xf5
    2c21:	c6 85 b6 f2 ff ff 83 	mov    BYTE PTR [rbp-0xd4a],0x83
    2c28:	c6 85 b7 f2 ff ff e0 	mov    BYTE PTR [rbp-0xd49],0xe0
    2c2f:	c6 85 b8 f2 ff ff ff 	mov    BYTE PTR [rbp-0xd48],0xff
    2c36:	c6 85 b9 f2 ff ff 12 	mov    BYTE PTR [rbp-0xd47],0x12
    2c3d:	c6 85 ba f2 ff ff 1d 	mov    BYTE PTR [rbp-0xd46],0x1d
    2c44:	c6 85 bb f2 ff ff d3 	mov    BYTE PTR [rbp-0xd45],0xd3
    2c4b:	c6 85 bc f2 ff ff 12 	mov    BYTE PTR [rbp-0xd44],0x12
    2c52:	c6 85 bd f2 ff ff 19 	mov    BYTE PTR [rbp-0xd43],0x19
    2c59:	c6 85 be f2 ff ff 29 	mov    BYTE PTR [rbp-0xd42],0x29
    2c60:	c6 85 bf f2 ff ff 80 	mov    BYTE PTR [rbp-0xd41],0x80
    2c67:	c6 85 c0 f2 ff ff d4 	mov    BYTE PTR [rbp-0xd40],0xd4
    2c6e:	c6 85 c1 f2 ff ff 02 	mov    BYTE PTR [rbp-0xd3f],0x2
    2c75:	c6 85 c2 f2 ff ff 0c 	mov    BYTE PTR [rbp-0xd3e],0xc
    2c7c:	c6 85 c3 f2 ff ff ac 	mov    BYTE PTR [rbp-0xd3d],0xac
    2c83:	c6 85 c4 f2 ff ff 90 	mov    BYTE PTR [rbp-0xd3c],0x90
    2c8a:	c6 85 c6 f2 ff ff 12 	mov    BYTE PTR [rbp-0xd3a],0x12
    2c91:	c6 85 c7 f2 ff ff 74 	mov    BYTE PTR [rbp-0xd39],0x74
    2c98:	c6 85 c8 f2 ff ff 7e 	mov    BYTE PTR [rbp-0xd38],0x7e
    2c9f:	c6 85 c9 f2 ff ff f0 	mov    BYTE PTR [rbp-0xd37],0xf0
    2ca6:	c6 85 ca f2 ff ff a3 	mov    BYTE PTR [rbp-0xd36],0xa3
    2cad:	c6 85 cb f2 ff ff 74 	mov    BYTE PTR [rbp-0xd35],0x74
    2cb4:	c6 85 cc f2 ff ff 33 	mov    BYTE PTR [rbp-0xd34],0x33
    2cbb:	c6 85 cd f2 ff ff f0 	mov    BYTE PTR [rbp-0xd33],0xf0
    2cc2:	c6 85 ce f2 ff ff a3 	mov    BYTE PTR [rbp-0xd32],0xa3
    2cc9:	c6 85 cf f2 ff ff 74 	mov    BYTE PTR [rbp-0xd31],0x74
    2cd0:	c6 85 d0 f2 ff ff a2 	mov    BYTE PTR [rbp-0xd30],0xa2
    2cd7:	c6 85 d1 f2 ff ff f0 	mov    BYTE PTR [rbp-0xd2f],0xf0
    2cde:	c6 85 d2 f2 ff ff a3 	mov    BYTE PTR [rbp-0xd2e],0xa3
    2ce5:	c6 85 d3 f2 ff ff 74 	mov    BYTE PTR [rbp-0xd2d],0x74
    2cec:	c6 85 d4 f2 ff ff 78 	mov    BYTE PTR [rbp-0xd2c],0x78
    2cf3:	c6 85 d5 f2 ff ff f0 	mov    BYTE PTR [rbp-0xd2b],0xf0
    2cfa:	c6 85 d6 f2 ff ff a3 	mov    BYTE PTR [rbp-0xd2a],0xa3
    2d01:	c6 85 d7 f2 ff ff 74 	mov    BYTE PTR [rbp-0xd29],0x74
    2d08:	c6 85 d8 f2 ff ff b3 	mov    BYTE PTR [rbp-0xd28],0xb3
    2d0f:	c6 85 d9 f2 ff ff f0 	mov    BYTE PTR [rbp-0xd27],0xf0
    2d16:	c6 85 da f2 ff ff a3 	mov    BYTE PTR [rbp-0xd26],0xa3
    2d1d:	c6 85 db f2 ff ff 74 	mov    BYTE PTR [rbp-0xd25],0x74
    2d24:	c6 85 dc f2 ff ff 61 	mov    BYTE PTR [rbp-0xd24],0x61
    2d2b:	c6 85 dd f2 ff ff f0 	mov    BYTE PTR [rbp-0xd23],0xf0
    2d32:	c6 85 de f2 ff ff a3 	mov    BYTE PTR [rbp-0xd22],0xa3
    2d39:	c6 85 df f2 ff ff 74 	mov    BYTE PTR [rbp-0xd21],0x74
    2d40:	c6 85 e0 f2 ff ff 7a 	mov    BYTE PTR [rbp-0xd20],0x7a
    2d47:	c6 85 e1 f2 ff ff f0 	mov    BYTE PTR [rbp-0xd1f],0xf0
    2d4e:	c6 85 e2 f2 ff ff a3 	mov    BYTE PTR [rbp-0xd1e],0xa3
    2d55:	c6 85 e3 f2 ff ff 74 	mov    BYTE PTR [rbp-0xd1d],0x74
    2d5c:	c6 85 e4 f2 ff ff 30 	mov    BYTE PTR [rbp-0xd1c],0x30
    2d63:	c6 85 e5 f2 ff ff f0 	mov    BYTE PTR [rbp-0xd1b],0xf0
    2d6a:	c6 85 e6 f2 ff ff a3 	mov    BYTE PTR [rbp-0xd1a],0xa3
    2d71:	c6 85 e7 f2 ff ff 74 	mov    BYTE PTR [rbp-0xd19],0x74
    2d78:	c6 85 e8 f2 ff ff 9b 	mov    BYTE PTR [rbp-0xd18],0x9b
    2d7f:	c6 85 e9 f2 ff ff f0 	mov    BYTE PTR [rbp-0xd17],0xf0
    2d86:	c6 85 ea f2 ff ff a3 	mov    BYTE PTR [rbp-0xd16],0xa3
    2d8d:	c6 85 eb f2 ff ff 74 	mov    BYTE PTR [rbp-0xd15],0x74
    2d94:	c6 85 ec f2 ff ff 18 	mov    BYTE PTR [rbp-0xd14],0x18
    2d9b:	c6 85 ed f2 ff ff f0 	mov    BYTE PTR [rbp-0xd13],0xf0
    2da2:	c6 85 ee f2 ff ff a3 	mov    BYTE PTR [rbp-0xd12],0xa3
    2da9:	c6 85 ef f2 ff ff 74 	mov    BYTE PTR [rbp-0xd11],0x74
    2db0:	c6 85 f0 f2 ff ff 22 	mov    BYTE PTR [rbp-0xd10],0x22
    2db7:	c6 85 f1 f2 ff ff 12 	mov    BYTE PTR [rbp-0xd0f],0x12
    2dbe:	c6 85 f2 f2 ff ff 19 	mov    BYTE PTR [rbp-0xd0e],0x19
    2dc5:	c6 85 f3 f2 ff ff 86 	mov    BYTE PTR [rbp-0xd0d],0x86
    2dcc:	c6 85 f4 f2 ff ff 74 	mov    BYTE PTR [rbp-0xd0c],0x74
    2dd3:	c6 85 f5 f2 ff ff 37 	mov    BYTE PTR [rbp-0xd0b],0x37
    2dda:	c6 85 f6 f2 ff ff f0 	mov    BYTE PTR [rbp-0xd0a],0xf0
    2de1:	c6 85 f7 f2 ff ff a3 	mov    BYTE PTR [rbp-0xd09],0xa3
    2de8:	c6 85 f8 f2 ff ff 74 	mov    BYTE PTR [rbp-0xd08],0x74
    2def:	c6 85 f9 f2 ff ff 2a 	mov    BYTE PTR [rbp-0xd07],0x2a
    2df6:	c6 85 fa f2 ff ff f0 	mov    BYTE PTR [rbp-0xd06],0xf0
    2dfd:	c6 85 fb f2 ff ff a3 	mov    BYTE PTR [rbp-0xd05],0xa3
    2e04:	c6 85 fc f2 ff ff 74 	mov    BYTE PTR [rbp-0xd04],0x74
    2e0b:	c6 85 fd f2 ff ff 23 	mov    BYTE PTR [rbp-0xd03],0x23
    2e12:	c6 85 fe f2 ff ff f0 	mov    BYTE PTR [rbp-0xd02],0xf0
    2e19:	c6 85 ff f2 ff ff a3 	mov    BYTE PTR [rbp-0xd01],0xa3
    2e20:	c6 85 00 f3 ff ff 74 	mov    BYTE PTR [rbp-0xd00],0x74
    2e27:	c6 85 01 f3 ff ff 19 	mov    BYTE PTR [rbp-0xcff],0x19
    2e2e:	c6 85 02 f3 ff ff f0 	mov    BYTE PTR [rbp-0xcfe],0xf0
    2e35:	c6 85 03 f3 ff ff a3 	mov    BYTE PTR [rbp-0xcfd],0xa3
    2e3c:	c6 85 04 f3 ff ff 74 	mov    BYTE PTR [rbp-0xcfc],0x74
    2e43:	c6 85 05 f3 ff ff 45 	mov    BYTE PTR [rbp-0xcfb],0x45
    2e4a:	c6 85 06 f3 ff ff f0 	mov    BYTE PTR [rbp-0xcfa],0xf0
    2e51:	c6 85 07 f3 ff ff a3 	mov    BYTE PTR [rbp-0xcf9],0xa3
    2e58:	c6 85 08 f3 ff ff 74 	mov    BYTE PTR [rbp-0xcf8],0x74
    2e5f:	c6 85 09 f3 ff ff 90 	mov    BYTE PTR [rbp-0xcf7],0x90
    2e66:	c6 85 0a f3 ff ff f0 	mov    BYTE PTR [rbp-0xcf6],0xf0
    2e6d:	c6 85 0b f3 ff ff a3 	mov    BYTE PTR [rbp-0xcf5],0xa3
    2e74:	c6 85 0c f3 ff ff 74 	mov    BYTE PTR [rbp-0xcf4],0x74
    2e7b:	c6 85 0d f3 ff ff 4c 	mov    BYTE PTR [rbp-0xcf3],0x4c
    2e82:	c6 85 0e f3 ff ff f0 	mov    BYTE PTR [rbp-0xcf2],0xf0
    2e89:	c6 85 0f f3 ff ff a3 	mov    BYTE PTR [rbp-0xcf1],0xa3
    2e90:	c6 85 10 f3 ff ff 74 	mov    BYTE PTR [rbp-0xcf0],0x74
    2e97:	c6 85 11 f3 ff ff 4a 	mov    BYTE PTR [rbp-0xcef],0x4a
    2e9e:	c6 85 12 f3 ff ff f0 	mov    BYTE PTR [rbp-0xcee],0xf0
    2ea5:	c6 85 13 f3 ff ff a3 	mov    BYTE PTR [rbp-0xced],0xa3
    2eac:	c6 85 14 f3 ff ff 74 	mov    BYTE PTR [rbp-0xcec],0x74
    2eb3:	c6 85 15 f3 ff ff d8 	mov    BYTE PTR [rbp-0xceb],0xd8
    2eba:	c6 85 16 f3 ff ff f0 	mov    BYTE PTR [rbp-0xcea],0xf0
    2ec1:	c6 85 17 f3 ff ff a3 	mov    BYTE PTR [rbp-0xce9],0xa3
    2ec8:	c6 85 18 f3 ff ff 74 	mov    BYTE PTR [rbp-0xce8],0x74
    2ecf:	c6 85 19 f3 ff ff 46 	mov    BYTE PTR [rbp-0xce7],0x46
    2ed6:	c6 85 1a f3 ff ff f0 	mov    BYTE PTR [rbp-0xce6],0xf0
    2edd:	c6 85 1b f3 ff ff a3 	mov    BYTE PTR [rbp-0xce5],0xa3
    2ee4:	c6 85 1c f3 ff ff 74 	mov    BYTE PTR [rbp-0xce4],0x74
    2eeb:	c6 85 1d f3 ff ff 54 	mov    BYTE PTR [rbp-0xce3],0x54
    2ef2:	c6 85 1e f3 ff ff f0 	mov    BYTE PTR [rbp-0xce2],0xf0
    2ef9:	c6 85 1f f3 ff ff a3 	mov    BYTE PTR [rbp-0xce1],0xa3
    2f00:	c6 85 20 f3 ff ff 74 	mov    BYTE PTR [rbp-0xce0],0x74
    2f07:	c6 85 21 f3 ff ff 99 	mov    BYTE PTR [rbp-0xcdf],0x99
    2f0e:	c6 85 22 f3 ff ff f0 	mov    BYTE PTR [rbp-0xcde],0xf0
    2f15:	c6 85 23 f3 ff ff 12 	mov    BYTE PTR [rbp-0xcdd],0x12
    2f1c:	c6 85 24 f3 ff ff 19 	mov    BYTE PTR [rbp-0xcdc],0x19
    2f23:	c6 85 25 f3 ff ff 3b 	mov    BYTE PTR [rbp-0xcdb],0x3b
    2f2a:	c6 85 26 f3 ff ff e4 	mov    BYTE PTR [rbp-0xcda],0xe4
    2f31:	c6 85 27 f3 ff ff fd 	mov    BYTE PTR [rbp-0xcd9],0xfd
    2f38:	c6 85 28 f3 ff ff 7f 	mov    BYTE PTR [rbp-0xcd8],0x7f
    2f3f:	c6 85 29 f3 ff ff 01 	mov    BYTE PTR [rbp-0xcd7],0x1
    2f46:	c6 85 2a f3 ff ff 12 	mov    BYTE PTR [rbp-0xcd6],0x12
    2f4d:	c6 85 2b f3 ff ff 11 	mov    BYTE PTR [rbp-0xcd5],0x11
    2f54:	c6 85 2c f3 ff ff e5 	mov    BYTE PTR [rbp-0xcd4],0xe5
    2f5b:	c6 85 2d f3 ff ff 12 	mov    BYTE PTR [rbp-0xcd3],0x12
    2f62:	c6 85 2e f3 ff ff 19 	mov    BYTE PTR [rbp-0xcd2],0x19
    2f69:	c6 85 2f f3 ff ff 3b 	mov    BYTE PTR [rbp-0xcd1],0x3b
    2f70:	c6 85 30 f3 ff ff 7d 	mov    BYTE PTR [rbp-0xcd0],0x7d
    2f77:	c6 85 31 f3 ff ff 10 	mov    BYTE PTR [rbp-0xccf],0x10
    2f7e:	c6 85 32 f3 ff ff 7f 	mov    BYTE PTR [rbp-0xcce],0x7f
    2f85:	c6 85 33 f3 ff ff 01 	mov    BYTE PTR [rbp-0xccd],0x1
    2f8c:	c6 85 34 f3 ff ff 12 	mov    BYTE PTR [rbp-0xccc],0x12
    2f93:	c6 85 35 f3 ff ff 11 	mov    BYTE PTR [rbp-0xccb],0x11
    2f9a:	c6 85 36 f3 ff ff e5 	mov    BYTE PTR [rbp-0xcca],0xe5
    2fa1:	c6 85 37 f3 ff ff 02 	mov    BYTE PTR [rbp-0xcc9],0x2
    2fa8:	c6 85 38 f3 ff ff 0c 	mov    BYTE PTR [rbp-0xcc8],0xc
    2faf:	c6 85 39 f3 ff ff ac 	mov    BYTE PTR [rbp-0xcc7],0xac
    2fb6:	c6 85 3a f3 ff ff 12 	mov    BYTE PTR [rbp-0xcc6],0x12
    2fbd:	c6 85 3b f3 ff ff 0d 	mov    BYTE PTR [rbp-0xcc5],0xd
    2fc4:	c6 85 3c f3 ff ff 96 	mov    BYTE PTR [rbp-0xcc4],0x96
    2fcb:	c6 85 3d f3 ff ff 74 	mov    BYTE PTR [rbp-0xcc3],0x74
    2fd2:	c6 85 3e f3 ff ff 20 	mov    BYTE PTR [rbp-0xcc2],0x20
    2fd9:	c6 85 3f f3 ff ff 12 	mov    BYTE PTR [rbp-0xcc1],0x12
    2fe0:	c6 85 40 f3 ff ff 19 	mov    BYTE PTR [rbp-0xcc0],0x19
    2fe7:	c6 85 41 f3 ff ff 8d 	mov    BYTE PTR [rbp-0xcbf],0x8d
    2fee:	c6 85 42 f3 ff ff 74 	mov    BYTE PTR [rbp-0xcbe],0x74
    2ff5:	c6 85 43 f3 ff ff 40 	mov    BYTE PTR [rbp-0xcbd],0x40
    2ffc:	c6 85 44 f3 ff ff f0 	mov    BYTE PTR [rbp-0xcbc],0xf0
    3003:	c6 85 45 f3 ff ff a3 	mov    BYTE PTR [rbp-0xcbb],0xa3
    300a:	c6 85 46 f3 ff ff 74 	mov    BYTE PTR [rbp-0xcba],0x74
    3011:	c6 85 47 f3 ff ff 28 	mov    BYTE PTR [rbp-0xcb9],0x28
    3018:	c6 85 48 f3 ff ff f0 	mov    BYTE PTR [rbp-0xcb8],0xf0
    301f:	c6 85 49 f3 ff ff 74 	mov    BYTE PTR [rbp-0xcb7],0x74
    3026:	c6 85 4a f3 ff ff 02 	mov    BYTE PTR [rbp-0xcb6],0x2
    302d:	c6 85 4b f3 ff ff 12 	mov    BYTE PTR [rbp-0xcb5],0x12
    3034:	c6 85 4c f3 ff ff 19 	mov    BYTE PTR [rbp-0xcb4],0x19
    303b:	c6 85 4d f3 ff ff 71 	mov    BYTE PTR [rbp-0xcb3],0x71
    3042:	c6 85 4e f3 ff ff 90 	mov    BYTE PTR [rbp-0xcb2],0x90
    3049:	c6 85 50 f3 ff ff 18 	mov    BYTE PTR [rbp-0xcb0],0x18
    3050:	c6 85 51 f3 ff ff 12 	mov    BYTE PTR [rbp-0xcaf],0x12
    3057:	c6 85 52 f3 ff ff 19 	mov    BYTE PTR [rbp-0xcae],0x19
    305e:	c6 85 53 f3 ff ff 86 	mov    BYTE PTR [rbp-0xcad],0x86
    3065:	c6 85 54 f3 ff ff 74 	mov    BYTE PTR [rbp-0xcac],0x74
    306c:	c6 85 55 f3 ff ff 02 	mov    BYTE PTR [rbp-0xcab],0x2
    3073:	c6 85 56 f3 ff ff f0 	mov    BYTE PTR [rbp-0xcaa],0xf0
    307a:	c6 85 57 f3 ff ff e4 	mov    BYTE PTR [rbp-0xca9],0xe4
    3081:	c6 85 58 f3 ff ff a3 	mov    BYTE PTR [rbp-0xca8],0xa3
    3088:	c6 85 59 f3 ff ff f0 	mov    BYTE PTR [rbp-0xca7],0xf0
    308f:	c6 85 5a f3 ff ff a3 	mov    BYTE PTR [rbp-0xca6],0xa3
    3096:	c6 85 5b f3 ff ff 74 	mov    BYTE PTR [rbp-0xca5],0x74
    309d:	c6 85 5c f3 ff ff 2c 	mov    BYTE PTR [rbp-0xca4],0x2c
    30a4:	c6 85 5d f3 ff ff f0 	mov    BYTE PTR [rbp-0xca3],0xf0
    30ab:	c6 85 5e f3 ff ff a3 	mov    BYTE PTR [rbp-0xca2],0xa3
    30b2:	c6 85 5f f3 ff ff 74 	mov    BYTE PTR [rbp-0xca1],0x74
    30b9:	c6 85 60 f3 ff ff 30 	mov    BYTE PTR [rbp-0xca0],0x30
    30c0:	c6 85 61 f3 ff ff f0 	mov    BYTE PTR [rbp-0xc9f],0xf0
    30c7:	c6 85 62 f3 ff ff a3 	mov    BYTE PTR [rbp-0xc9e],0xa3
    30ce:	c6 85 63 f3 ff ff 74 	mov    BYTE PTR [rbp-0xc9d],0x74
    30d5:	c6 85 64 f3 ff ff 01 	mov    BYTE PTR [rbp-0xc9c],0x1
    30dc:	c6 85 65 f3 ff ff f0 	mov    BYTE PTR [rbp-0xc9b],0xf0
    30e3:	c6 85 66 f3 ff ff 90 	mov    BYTE PTR [rbp-0xc9a],0x90
    30ea:	c6 85 67 f3 ff ff 04 	mov    BYTE PTR [rbp-0xc99],0x4
    30f1:	c6 85 68 f3 ff ff 98 	mov    BYTE PTR [rbp-0xc98],0x98
    30f8:	c6 85 69 f3 ff ff e0 	mov    BYTE PTR [rbp-0xc97],0xe0
    30ff:	c6 85 6a f3 ff ff 90 	mov    BYTE PTR [rbp-0xc96],0x90
    3106:	c6 85 6c f3 ff ff 1f 	mov    BYTE PTR [rbp-0xc94],0x1f
    310d:	c6 85 6d f3 ff ff f0 	mov    BYTE PTR [rbp-0xc93],0xf0
    3114:	c6 85 6e f3 ff ff a3 	mov    BYTE PTR [rbp-0xc92],0xa3
    311b:	c6 85 6f f3 ff ff 74 	mov    BYTE PTR [rbp-0xc91],0x74
    3122:	c6 85 70 f3 ff ff 23 	mov    BYTE PTR [rbp-0xc90],0x23
    3129:	c6 85 71 f3 ff ff 12 	mov    BYTE PTR [rbp-0xc8f],0x12
    3130:	c6 85 72 f3 ff ff 19 	mov    BYTE PTR [rbp-0xc8e],0x19
    3137:	c6 85 73 f3 ff ff 8d 	mov    BYTE PTR [rbp-0xc8d],0x8d
    313e:	c6 85 74 f3 ff ff 04 	mov    BYTE PTR [rbp-0xc8c],0x4
    3145:	c6 85 75 f3 ff ff f0 	mov    BYTE PTR [rbp-0xc8b],0xf0
    314c:	c6 85 76 f3 ff ff 7f 	mov    BYTE PTR [rbp-0xc8a],0x7f
    3153:	c6 85 77 f3 ff ff 11 	mov    BYTE PTR [rbp-0xc89],0x11
    315a:	c6 85 78 f3 ff ff 02 	mov    BYTE PTR [rbp-0xc88],0x2
    3161:	c6 85 79 f3 ff ff 0c 	mov    BYTE PTR [rbp-0xc87],0xc
    3168:	c6 85 7a f3 ff ff df 	mov    BYTE PTR [rbp-0xc86],0xdf
    316f:	c6 85 7b f3 ff ff 12 	mov    BYTE PTR [rbp-0xc85],0x12
    3176:	c6 85 7c f3 ff ff 19 	mov    BYTE PTR [rbp-0xc84],0x19
    317d:	c6 85 7d f3 ff ff 33 	mov    BYTE PTR [rbp-0xc83],0x33
    3184:	c6 85 7e f3 ff ff 12 	mov    BYTE PTR [rbp-0xc82],0x12
    318b:	c6 85 7f f3 ff ff 0d 	mov    BYTE PTR [rbp-0xc81],0xd
    3192:	c6 85 80 f3 ff ff 35 	mov    BYTE PTR [rbp-0xc80],0x35
    3199:	c6 85 81 f3 ff ff c3 	mov    BYTE PTR [rbp-0xc7f],0xc3
    31a0:	c6 85 82 f3 ff ff 90 	mov    BYTE PTR [rbp-0xc7e],0x90
    31a7:	c6 85 83 f3 ff ff 06 	mov    BYTE PTR [rbp-0xc7d],0x6
    31ae:	c6 85 84 f3 ff ff a9 	mov    BYTE PTR [rbp-0xc7c],0xa9
    31b5:	c6 85 85 f3 ff ff e0 	mov    BYTE PTR [rbp-0xc7b],0xe0
    31bc:	c6 85 86 f3 ff ff 94 	mov    BYTE PTR [rbp-0xc7a],0x94
    31c3:	c6 85 87 f3 ff ff 0b 	mov    BYTE PTR [rbp-0xc79],0xb
    31ca:	c6 85 88 f3 ff ff 90 	mov    BYTE PTR [rbp-0xc78],0x90
    31d1:	c6 85 89 f3 ff ff 06 	mov    BYTE PTR [rbp-0xc77],0x6
    31d8:	c6 85 8a f3 ff ff a8 	mov    BYTE PTR [rbp-0xc76],0xa8
    31df:	c6 85 8b f3 ff ff e0 	mov    BYTE PTR [rbp-0xc75],0xe0
    31e6:	c6 85 8c f3 ff ff 64 	mov    BYTE PTR [rbp-0xc74],0x64
    31ed:	c6 85 8d f3 ff ff 80 	mov    BYTE PTR [rbp-0xc73],0x80
    31f4:	c6 85 8e f3 ff ff 94 	mov    BYTE PTR [rbp-0xc72],0x94
    31fb:	c6 85 8f f3 ff ff 80 	mov    BYTE PTR [rbp-0xc71],0x80
    3202:	c6 85 90 f3 ff ff 40 	mov    BYTE PTR [rbp-0xc70],0x40
    3209:	c6 85 91 f3 ff ff ec 	mov    BYTE PTR [rbp-0xc6f],0xec
    3210:	c6 85 92 f3 ff ff 90 	mov    BYTE PTR [rbp-0xc6e],0x90
    3217:	c6 85 94 f3 ff ff 11 	mov    BYTE PTR [rbp-0xc6c],0x11
    321e:	c6 85 95 f3 ff ff e0 	mov    BYTE PTR [rbp-0xc6b],0xe0
    3225:	c6 85 96 f3 ff ff 64 	mov    BYTE PTR [rbp-0xc6a],0x64
    322c:	c6 85 97 f3 ff ff 0e 	mov    BYTE PTR [rbp-0xc69],0xe
    3233:	c6 85 98 f3 ff ff 70 	mov    BYTE PTR [rbp-0xc68],0x70
    323a:	c6 85 99 f3 ff ff 04 	mov    BYTE PTR [rbp-0xc67],0x4
    3241:	c6 85 9a f3 ff ff ff 	mov    BYTE PTR [rbp-0xc66],0xff
    3248:	c6 85 9b f3 ff ff 02 	mov    BYTE PTR [rbp-0xc65],0x2
    324f:	c6 85 9c f3 ff ff 0c 	mov    BYTE PTR [rbp-0xc64],0xc
    3256:	c6 85 9d f3 ff ff df 	mov    BYTE PTR [rbp-0xc63],0xdf
    325d:	c6 85 9e f3 ff ff 12 	mov    BYTE PTR [rbp-0xc62],0x12
    3264:	c6 85 9f f3 ff ff 1d 	mov    BYTE PTR [rbp-0xc61],0x1d
    326b:	c6 85 a0 f3 ff ff df 	mov    BYTE PTR [rbp-0xc60],0xdf
    3272:	c6 85 a1 f3 ff ff 90 	mov    BYTE PTR [rbp-0xc5f],0x90
    3279:	c6 85 a2 f3 ff ff 06 	mov    BYTE PTR [rbp-0xc5e],0x6
    3280:	c6 85 a3 f3 ff ff f4 	mov    BYTE PTR [rbp-0xc5d],0xf4
    3287:	c6 85 a4 f3 ff ff ef 	mov    BYTE PTR [rbp-0xc5c],0xef
    328e:	c6 85 a5 f3 ff ff f0 	mov    BYTE PTR [rbp-0xc5b],0xf0
    3295:	c6 85 a6 f3 ff ff 12 	mov    BYTE PTR [rbp-0xc5a],0x12
    329c:	c6 85 a7 f3 ff ff 1d 	mov    BYTE PTR [rbp-0xc59],0x1d
    32a3:	c6 85 a8 f3 ff ff df 	mov    BYTE PTR [rbp-0xc58],0xdf
    32aa:	c6 85 a9 f3 ff ff 90 	mov    BYTE PTR [rbp-0xc57],0x90
    32b1:	c6 85 aa f3 ff ff 06 	mov    BYTE PTR [rbp-0xc56],0x6
    32b8:	c6 85 ab f3 ff ff f5 	mov    BYTE PTR [rbp-0xc55],0xf5
    32bf:	c6 85 ac f3 ff ff ef 	mov    BYTE PTR [rbp-0xc54],0xef
    32c6:	c6 85 ad f3 ff ff f0 	mov    BYTE PTR [rbp-0xc53],0xf0
    32cd:	c6 85 ae f3 ff ff 12 	mov    BYTE PTR [rbp-0xc52],0x12
    32d4:	48 8d 95 a0 f1 ff ff 	lea    rdx,[rbp-0xe60]
    32db:	b8 00 00 00 00       	mov    eax,0x0
    32e0:	b9 21 00 00 00       	mov    ecx,0x21
    32e5:	48 89 d7             	mov    rdi,rdx
    32e8:	f3 48 ab             	rep stos QWORD PTR es:[rdi],rax
    32eb:	48 89 fa             	mov    rdx,rdi
    32ee:	89 02                	mov    DWORD PTR [rdx],eax
    32f0:	48 83 c2 04          	add    rdx,0x4
    32f4:	66 89 02             	mov    WORD PTR [rdx],ax
    32f7:	48 83 c2 02          	add    rdx,0x2
    32fb:	c6 85 a1 f1 ff ff 58 	mov    BYTE PTR [rbp-0xe5f],0x58
    3302:	c6 85 a2 f1 ff ff 85 	mov    BYTE PTR [rbp-0xe5e],0x85
    3309:	c6 85 a3 f1 ff ff fc 	mov    BYTE PTR [rbp-0xe5d],0xfc
    3310:	c6 85 a4 f1 ff ff ff 	mov    BYTE PTR [rbp-0xe5c],0xff
    3317:	48 8d 95 90 f0 ff ff 	lea    rdx,[rbp-0xf70]
    331e:	b8 00 00 00 00       	mov    eax,0x0
    3323:	b9 21 00 00 00       	mov    ecx,0x21
    3328:	48 89 d7             	mov    rdi,rdx
    332b:	f3 48 ab             	rep stos QWORD PTR es:[rdi],rax
    332e:	48 89 fa             	mov    rdx,rdi
    3331:	89 02                	mov    DWORD PTR [rdx],eax
    3333:	48 83 c2 04          	add    rdx,0x4
    3337:	66 89 02             	mov    WORD PTR [rdx],ax
    333a:	48 83 c2 02          	add    rdx,0x2
    333e:	c6 85 90 f0 ff ff 1d 	mov    BYTE PTR [rbp-0xf70],0x1d
    3345:	c6 85 91 f0 ff ff df 	mov    BYTE PTR [rbp-0xf6f],0xdf
    334c:	c6 85 92 f0 ff ff 90 	mov    BYTE PTR [rbp-0xf6e],0x90
    3353:	c6 85 93 f0 ff ff 06 	mov    BYTE PTR [rbp-0xf6d],0x6
    335a:	c6 85 94 f0 ff ff f6 	mov    BYTE PTR [rbp-0xf6c],0xf6
    3361:	c6 85 95 f0 ff ff ef 	mov    BYTE PTR [rbp-0xf6b],0xef
    3368:	c6 85 96 f0 ff ff f0 	mov    BYTE PTR [rbp-0xf6a],0xf0
    336f:	c6 85 97 f0 ff ff 90 	mov    BYTE PTR [rbp-0xf69],0x90
    3376:	c6 85 98 f0 ff ff 06 	mov    BYTE PTR [rbp-0xf68],0x6
    337d:	c6 85 99 f0 ff ff a8 	mov    BYTE PTR [rbp-0xf67],0xa8
    3384:	c6 85 9a f0 ff ff e4 	mov    BYTE PTR [rbp-0xf66],0xe4
    338b:	c6 85 9b f0 ff ff f0 	mov    BYTE PTR [rbp-0xf65],0xf0
    3392:	c6 85 9c f0 ff ff a3 	mov    BYTE PTR [rbp-0xf64],0xa3
    3399:	c6 85 9d f0 ff ff 74 	mov    BYTE PTR [rbp-0xf63],0x74
    33a0:	c6 85 9e f0 ff ff 11 	mov    BYTE PTR [rbp-0xf62],0x11
    33a7:	c6 85 9f f0 ff ff f0 	mov    BYTE PTR [rbp-0xf61],0xf0
    33ae:	c6 85 a0 f0 ff ff 90 	mov    BYTE PTR [rbp-0xf60],0x90
    33b5:	c6 85 a2 f0 ff ff 11 	mov    BYTE PTR [rbp-0xf5e],0x11
    33bc:	c6 85 a3 f0 ff ff e0 	mov    BYTE PTR [rbp-0xf5d],0xe0
    33c3:	c6 85 a4 f0 ff ff ff 	mov    BYTE PTR [rbp-0xf5c],0xff
    33ca:	c6 85 a5 f0 ff ff c3 	mov    BYTE PTR [rbp-0xf5b],0xc3
    33d1:	c6 85 a6 f0 ff ff 90 	mov    BYTE PTR [rbp-0xf5a],0x90
    33d8:	c6 85 a7 f0 ff ff 06 	mov    BYTE PTR [rbp-0xf59],0x6
    33df:	c6 85 a8 f0 ff ff a9 	mov    BYTE PTR [rbp-0xf58],0xa9
    33e6:	c6 85 a9 f0 ff ff e0 	mov    BYTE PTR [rbp-0xf57],0xe0
    33ed:	c6 85 aa f0 ff ff 9f 	mov    BYTE PTR [rbp-0xf56],0x9f
    33f4:	c6 85 ab f0 ff ff 74 	mov    BYTE PTR [rbp-0xf55],0x74
    33fb:	c6 85 ac f0 ff ff 80 	mov    BYTE PTR [rbp-0xf54],0x80
    3402:	c6 85 ad f0 ff ff f8 	mov    BYTE PTR [rbp-0xf53],0xf8
    3409:	c6 85 ae f0 ff ff 90 	mov    BYTE PTR [rbp-0xf52],0x90
    3410:	c6 85 af f0 ff ff 06 	mov    BYTE PTR [rbp-0xf51],0x6
    3417:	c6 85 b0 f0 ff ff a8 	mov    BYTE PTR [rbp-0xf50],0xa8
    341e:	c6 85 b1 f0 ff ff e0 	mov    BYTE PTR [rbp-0xf4f],0xe0
    3425:	c6 85 b2 f0 ff ff 64 	mov    BYTE PTR [rbp-0xf4e],0x64
    342c:	c6 85 b3 f0 ff ff 80 	mov    BYTE PTR [rbp-0xf4d],0x80
    3433:	c6 85 b4 f0 ff ff 98 	mov    BYTE PTR [rbp-0xf4c],0x98
    343a:	c6 85 b5 f0 ff ff 50 	mov    BYTE PTR [rbp-0xf4b],0x50
    3441:	c6 85 b6 f0 ff ff 05 	mov    BYTE PTR [rbp-0xf4a],0x5
    3448:	c6 85 b7 f0 ff ff 12 	mov    BYTE PTR [rbp-0xf49],0x12
    344f:	c6 85 b8 f0 ff ff 0d 	mov    BYTE PTR [rbp-0xf48],0xd
    3456:	c6 85 b9 f0 ff ff 35 	mov    BYTE PTR [rbp-0xf47],0x35
    345d:	c6 85 ba f0 ff ff 80 	mov    BYTE PTR [rbp-0xf46],0x80
    3464:	c6 85 bb f0 ff ff e4 	mov    BYTE PTR [rbp-0xf45],0xe4
    346b:	c6 85 bc f0 ff ff 12 	mov    BYTE PTR [rbp-0xf44],0x12
    3472:	c6 85 bd f0 ff ff 0d 	mov    BYTE PTR [rbp-0xf43],0xd
    3479:	c6 85 be f0 ff ff 96 	mov    BYTE PTR [rbp-0xf42],0x96
    3480:	c6 85 bf f0 ff ff 74 	mov    BYTE PTR [rbp-0xf41],0x74
    3487:	c6 85 c0 f0 ff ff 22 	mov    BYTE PTR [rbp-0xf40],0x22
    348e:	c6 85 c1 f0 ff ff f0 	mov    BYTE PTR [rbp-0xf3f],0xf0
    3495:	c6 85 c2 f0 ff ff a3 	mov    BYTE PTR [rbp-0xf3e],0xa3
    349c:	c6 85 c3 f0 ff ff 74 	mov    BYTE PTR [rbp-0xf3d],0x74
    34a3:	c6 85 c4 f0 ff ff 18 	mov    BYTE PTR [rbp-0xf3c],0x18
    34aa:	c6 85 c5 f0 ff ff f0 	mov    BYTE PTR [rbp-0xf3b],0xf0
    34b1:	c6 85 c6 f0 ff ff a3 	mov    BYTE PTR [rbp-0xf3a],0xa3
    34b8:	c6 85 c7 f0 ff ff 74 	mov    BYTE PTR [rbp-0xf39],0x74
    34bf:	c6 85 c8 f0 ff ff 09 	mov    BYTE PTR [rbp-0xf38],0x9
    34c6:	c6 85 c9 f0 ff ff f0 	mov    BYTE PTR [rbp-0xf37],0xf0
    34cd:	c6 85 ca f0 ff ff 74 	mov    BYTE PTR [rbp-0xf36],0x74
    34d4:	c6 85 cb f0 ff ff 04 	mov    BYTE PTR [rbp-0xf35],0x4
    34db:	c6 85 cc f0 ff ff 12 	mov    BYTE PTR [rbp-0xf34],0x12
    34e2:	c6 85 cd f0 ff ff 19 	mov    BYTE PTR [rbp-0xf33],0x19
    34e9:	c6 85 ce f0 ff ff 71 	mov    BYTE PTR [rbp-0xf32],0x71
    34f0:	c6 85 cf f0 ff ff 90 	mov    BYTE PTR [rbp-0xf31],0x90
    34f7:	c6 85 d1 f0 ff ff 17 	mov    BYTE PTR [rbp-0xf2f],0x17
    34fe:	c6 85 d2 f0 ff ff f0 	mov    BYTE PTR [rbp-0xf2e],0xf0
    3505:	c6 85 d3 f0 ff ff 90 	mov    BYTE PTR [rbp-0xf2d],0x90
    350c:	c6 85 d4 f0 ff ff 06 	mov    BYTE PTR [rbp-0xf2c],0x6
    3513:	c6 85 d5 f0 ff ff f4 	mov    BYTE PTR [rbp-0xf2b],0xf4
    351a:	c6 85 d6 f0 ff ff e0 	mov    BYTE PTR [rbp-0xf2a],0xe0
    3521:	c6 85 d7 f0 ff ff 90 	mov    BYTE PTR [rbp-0xf29],0x90
    3528:	c6 85 d9 f0 ff ff 18 	mov    BYTE PTR [rbp-0xf27],0x18
    352f:	c6 85 da f0 ff ff f0 	mov    BYTE PTR [rbp-0xf26],0xf0
    3536:	c6 85 db f0 ff ff 90 	mov    BYTE PTR [rbp-0xf25],0x90
    353d:	c6 85 dc f0 ff ff 06 	mov    BYTE PTR [rbp-0xf24],0x6
    3544:	c6 85 dd f0 ff ff f5 	mov    BYTE PTR [rbp-0xf23],0xf5
    354b:	c6 85 de f0 ff ff e0 	mov    BYTE PTR [rbp-0xf22],0xe0
    3552:	c6 85 df f0 ff ff 90 	mov    BYTE PTR [rbp-0xf21],0x90
    3559:	c6 85 e1 f0 ff ff 19 	mov    BYTE PTR [rbp-0xf1f],0x19
    3560:	c6 85 e2 f0 ff ff 12 	mov    BYTE PTR [rbp-0xf1e],0x12
    3567:	c6 85 e3 f0 ff ff 18 	mov    BYTE PTR [rbp-0xf1d],0x18
    356e:	c6 85 e4 f0 ff ff de 	mov    BYTE PTR [rbp-0xf1c],0xde
    3575:	c6 85 e5 f0 ff ff 90 	mov    BYTE PTR [rbp-0xf1b],0x90
    357c:	c6 85 e6 f0 ff ff 06 	mov    BYTE PTR [rbp-0xf1a],0x6
    3583:	c6 85 e7 f0 ff ff f0 	mov    BYTE PTR [rbp-0xf19],0xf0
    358a:	c6 85 e8 f0 ff ff e0 	mov    BYTE PTR [rbp-0xf18],0xe0
    3591:	c6 85 e9 f0 ff ff 90 	mov    BYTE PTR [rbp-0xf17],0x90
    3598:	c6 85 eb f0 ff ff 1f 	mov    BYTE PTR [rbp-0xf15],0x1f
    359f:	c6 85 ec f0 ff ff f0 	mov    BYTE PTR [rbp-0xf14],0xf0
    35a6:	c6 85 ed f0 ff ff 90 	mov    BYTE PTR [rbp-0xf13],0x90
    35ad:	c6 85 ee f0 ff ff 06 	mov    BYTE PTR [rbp-0xf12],0x6
    35b4:	c6 85 ef f0 ff ff f1 	mov    BYTE PTR [rbp-0xf11],0xf1
    35bb:	c6 85 f0 f0 ff ff e0 	mov    BYTE PTR [rbp-0xf10],0xe0
    35c2:	c6 85 f1 f0 ff ff 90 	mov    BYTE PTR [rbp-0xf0f],0x90
    35c9:	c6 85 f3 f0 ff ff 20 	mov    BYTE PTR [rbp-0xf0d],0x20
    35d0:	c6 85 f4 f0 ff ff f0 	mov    BYTE PTR [rbp-0xf0c],0xf0
    35d7:	c6 85 f5 f0 ff ff 90 	mov    BYTE PTR [rbp-0xf0b],0x90
    35de:	c6 85 f6 f0 ff ff 06 	mov    BYTE PTR [rbp-0xf0a],0x6
    35e5:	c6 85 f7 f0 ff ff f2 	mov    BYTE PTR [rbp-0xf09],0xf2
    35ec:	c6 85 f8 f0 ff ff e0 	mov    BYTE PTR [rbp-0xf08],0xe0
    35f3:	c6 85 f9 f0 ff ff 90 	mov    BYTE PTR [rbp-0xf07],0x90
    35fa:	c6 85 fb f0 ff ff 21 	mov    BYTE PTR [rbp-0xf05],0x21
    3601:	c6 85 fc f0 ff ff f0 	mov    BYTE PTR [rbp-0xf04],0xf0
    3608:	c6 85 fd f0 ff ff 90 	mov    BYTE PTR [rbp-0xf03],0x90
    360f:	c6 85 fe f0 ff ff 06 	mov    BYTE PTR [rbp-0xf02],0x6
    3616:	c6 85 ff f0 ff ff f3 	mov    BYTE PTR [rbp-0xf01],0xf3
    361d:	c6 85 00 f1 ff ff e0 	mov    BYTE PTR [rbp-0xf00],0xe0
    3624:	c6 85 01 f1 ff ff 90 	mov    BYTE PTR [rbp-0xeff],0x90
    362b:	c6 85 03 f1 ff ff 22 	mov    BYTE PTR [rbp-0xefd],0x22
    3632:	c6 85 04 f1 ff ff 12 	mov    BYTE PTR [rbp-0xefc],0x12
    3639:	c6 85 05 f1 ff ff 18 	mov    BYTE PTR [rbp-0xefb],0x18
    3640:	c6 85 06 f1 ff ff de 	mov    BYTE PTR [rbp-0xefa],0xde
    3647:	c6 85 07 f1 ff ff a3 	mov    BYTE PTR [rbp-0xef9],0xa3
    364e:	c6 85 08 f1 ff ff f0 	mov    BYTE PTR [rbp-0xef8],0xf0
    3655:	c6 85 09 f1 ff ff 90 	mov    BYTE PTR [rbp-0xef7],0x90
    365c:	c6 85 0a f1 ff ff 06 	mov    BYTE PTR [rbp-0xef6],0x6
    3663:	c6 85 0b f1 ff ff de 	mov    BYTE PTR [rbp-0xef5],0xde
    366a:	c6 85 0c f1 ff ff e0 	mov    BYTE PTR [rbp-0xef4],0xe0
    3671:	c6 85 0d f1 ff ff 90 	mov    BYTE PTR [rbp-0xef3],0x90
    3678:	c6 85 0f f1 ff ff 29 	mov    BYTE PTR [rbp-0xef1],0x29
    367f:	c6 85 10 f1 ff ff f0 	mov    BYTE PTR [rbp-0xef0],0xf0
    3686:	c6 85 11 f1 ff ff 90 	mov    BYTE PTR [rbp-0xeef],0x90
    368d:	c6 85 12 f1 ff ff 06 	mov    BYTE PTR [rbp-0xeee],0x6
    3694:	c6 85 13 f1 ff ff df 	mov    BYTE PTR [rbp-0xeed],0xdf
    369b:	c6 85 14 f1 ff ff e0 	mov    BYTE PTR [rbp-0xeec],0xe0
    36a2:	c6 85 15 f1 ff ff 90 	mov    BYTE PTR [rbp-0xeeb],0x90
    36a9:	c6 85 17 f1 ff ff 2a 	mov    BYTE PTR [rbp-0xee9],0x2a
    36b0:	c6 85 18 f1 ff ff f0 	mov    BYTE PTR [rbp-0xee8],0xf0
    36b7:	c6 85 19 f1 ff ff 90 	mov    BYTE PTR [rbp-0xee7],0x90
    36be:	c6 85 1a f1 ff ff 06 	mov    BYTE PTR [rbp-0xee6],0x6
    36c5:	c6 85 1b f1 ff ff e0 	mov    BYTE PTR [rbp-0xee5],0xe0
    36cc:	c6 85 1c f1 ff ff e0 	mov    BYTE PTR [rbp-0xee4],0xe0
    36d3:	c6 85 1d f1 ff ff 90 	mov    BYTE PTR [rbp-0xee3],0x90
    36da:	c6 85 1f f1 ff ff 2b 	mov    BYTE PTR [rbp-0xee1],0x2b
    36e1:	c6 85 20 f1 ff ff f0 	mov    BYTE PTR [rbp-0xee0],0xf0
    36e8:	c6 85 21 f1 ff ff 7f 	mov    BYTE PTR [rbp-0xedf],0x7f
    36ef:	c6 85 22 f1 ff ff 1a 	mov    BYTE PTR [rbp-0xede],0x1a
    36f6:	c6 85 23 f1 ff ff 02 	mov    BYTE PTR [rbp-0xedd],0x2
    36fd:	c6 85 24 f1 ff ff 0c 	mov    BYTE PTR [rbp-0xedc],0xc
    3704:	c6 85 25 f1 ff ff df 	mov    BYTE PTR [rbp-0xedb],0xdf
    370b:	c6 85 26 f1 ff ff 12 	mov    BYTE PTR [rbp-0xeda],0x12
    3712:	c6 85 27 f1 ff ff 1c 	mov    BYTE PTR [rbp-0xed9],0x1c
    3719:	c6 85 28 f1 ff ff 79 	mov    BYTE PTR [rbp-0xed8],0x79
    3720:	c6 85 29 f1 ff ff 90 	mov    BYTE PTR [rbp-0xed7],0x90
    3727:	c6 85 2b f1 ff ff 0f 	mov    BYTE PTR [rbp-0xed5],0xf
    372e:	c6 85 2c f1 ff ff e0 	mov    BYTE PTR [rbp-0xed4],0xe0
    3735:	c6 85 2d f1 ff ff 64 	mov    BYTE PTR [rbp-0xed3],0x64
    373c:	c6 85 2e f1 ff ff 01 	mov    BYTE PTR [rbp-0xed2],0x1
    3743:	c6 85 2f f1 ff ff 70 	mov    BYTE PTR [rbp-0xed1],0x70
    374a:	c6 85 30 f1 ff ff 04 	mov    BYTE PTR [rbp-0xed0],0x4
    3751:	c6 85 31 f1 ff ff ff 	mov    BYTE PTR [rbp-0xecf],0xff
    3758:	c6 85 32 f1 ff ff 02 	mov    BYTE PTR [rbp-0xece],0x2
    375f:	c6 85 33 f1 ff ff 0c 	mov    BYTE PTR [rbp-0xecd],0xc
    3766:	c6 85 34 f1 ff ff df 	mov    BYTE PTR [rbp-0xecc],0xdf
    376d:	c6 85 35 f1 ff ff 12 	mov    BYTE PTR [rbp-0xecb],0x12
    3774:	c6 85 36 f1 ff ff 0d 	mov    BYTE PTR [rbp-0xeca],0xd
    377b:	c6 85 37 f1 ff ff 21 	mov    BYTE PTR [rbp-0xec9],0x21
    3782:	c6 85 38 f1 ff ff 90 	mov    BYTE PTR [rbp-0xec8],0x90
    3789:	c6 85 3a f1 ff ff 12 	mov    BYTE PTR [rbp-0xec6],0x12
    3790:	c6 85 3b f1 ff ff 74 	mov    BYTE PTR [rbp-0xec5],0x74
    3797:	c6 85 3c f1 ff ff 32 	mov    BYTE PTR [rbp-0xec4],0x32
    379e:	c6 85 3d f1 ff ff 12 	mov    BYTE PTR [rbp-0xec3],0x12
    37a5:	c6 85 3e f1 ff ff 19 	mov    BYTE PTR [rbp-0xec2],0x19
    37ac:	c6 85 3f f1 ff ff 86 	mov    BYTE PTR [rbp-0xec1],0x86
    37b3:	c6 85 40 f1 ff ff 74 	mov    BYTE PTR [rbp-0xec0],0x74
    37ba:	c6 85 41 f1 ff ff 10 	mov    BYTE PTR [rbp-0xebf],0x10
    37c1:	c6 85 42 f1 ff ff f0 	mov    BYTE PTR [rbp-0xebe],0xf0
    37c8:	c6 85 43 f1 ff ff a3 	mov    BYTE PTR [rbp-0xebd],0xa3
    37cf:	c6 85 44 f1 ff ff 12 	mov    BYTE PTR [rbp-0xebc],0x12
    37d6:	c6 85 45 f1 ff ff 19 	mov    BYTE PTR [rbp-0xebb],0x19
    37dd:	c6 85 46 f1 ff ff 8d 	mov    BYTE PTR [rbp-0xeba],0x8d
    37e4:	c6 85 47 f1 ff ff 74 	mov    BYTE PTR [rbp-0xeb9],0x74
    37eb:	c6 85 48 f1 ff ff 0f 	mov    BYTE PTR [rbp-0xeb8],0xf
    37f2:	c6 85 49 f1 ff ff f0 	mov    BYTE PTR [rbp-0xeb7],0xf0
    37f9:	c6 85 4a f1 ff ff 90 	mov    BYTE PTR [rbp-0xeb6],0x90
    3800:	c6 85 4b f1 ff ff 04 	mov    BYTE PTR [rbp-0xeb5],0x4
    3807:	c6 85 4c f1 ff ff 63 	mov    BYTE PTR [rbp-0xeb4],0x63
    380e:	c6 85 4d f1 ff ff e0 	mov    BYTE PTR [rbp-0xeb3],0xe0
    3815:	c6 85 4e f1 ff ff 64 	mov    BYTE PTR [rbp-0xeb2],0x64
    381c:	c6 85 4f f1 ff ff 01 	mov    BYTE PTR [rbp-0xeb1],0x1
    3823:	c6 85 50 f1 ff ff 70 	mov    BYTE PTR [rbp-0xeb0],0x70
    382a:	c6 85 51 f1 ff ff 36 	mov    BYTE PTR [rbp-0xeaf],0x36
    3831:	c6 85 52 f1 ff ff 90 	mov    BYTE PTR [rbp-0xeae],0x90
    3838:	c6 85 54 f1 ff ff 18 	mov    BYTE PTR [rbp-0xeac],0x18
    383f:	c6 85 55 f1 ff ff 74 	mov    BYTE PTR [rbp-0xeab],0x74
    3846:	c6 85 56 f1 ff ff 43 	mov    BYTE PTR [rbp-0xeaa],0x43
    384d:	c6 85 57 f1 ff ff f0 	mov    BYTE PTR [rbp-0xea9],0xf0
    3854:	c6 85 58 f1 ff ff a3 	mov    BYTE PTR [rbp-0xea8],0xa3
    385b:	c6 85 59 f1 ff ff 74 	mov    BYTE PTR [rbp-0xea7],0x74
    3862:	c6 85 5a f1 ff ff 41 	mov    BYTE PTR [rbp-0xea6],0x41
    3869:	c6 85 5b f1 ff ff f0 	mov    BYTE PTR [rbp-0xea5],0xf0
    3870:	c6 85 5c f1 ff ff a3 	mov    BYTE PTR [rbp-0xea4],0xa3
    3877:	c6 85 5d f1 ff ff 74 	mov    BYTE PTR [rbp-0xea3],0x74
    387e:	c6 85 5e f1 ff ff 52 	mov    BYTE PTR [rbp-0xea2],0x52
    3885:	c6 85 5f f1 ff ff f0 	mov    BYTE PTR [rbp-0xea1],0xf0
    388c:	c6 85 60 f1 ff ff a3 	mov    BYTE PTR [rbp-0xea0],0xa3
    3893:	c6 85 61 f1 ff ff 74 	mov    BYTE PTR [rbp-0xe9f],0x74
    389a:	c6 85 62 f1 ff ff 44 	mov    BYTE PTR [rbp-0xe9e],0x44
    38a1:	c6 85 63 f1 ff ff 12 	mov    BYTE PTR [rbp-0xe9d],0x12
    38a8:	c6 85 64 f1 ff ff 19 	mov    BYTE PTR [rbp-0xe9c],0x19
    38af:	c6 85 65 f1 ff ff 53 	mov    BYTE PTR [rbp-0xe9b],0x53
    38b6:	c6 85 66 f1 ff ff 74 	mov    BYTE PTR [rbp-0xe9a],0x74
    38bd:	c6 85 67 f1 ff ff 42 	mov    BYTE PTR [rbp-0xe99],0x42
    38c4:	c6 85 68 f1 ff ff f0 	mov    BYTE PTR [rbp-0xe98],0xf0
    38cb:	c6 85 69 f1 ff ff a3 	mov    BYTE PTR [rbp-0xe97],0xa3
    38d2:	c6 85 6a f1 ff ff 74 	mov    BYTE PTR [rbp-0xe96],0x74
    38d9:	c6 85 6b f1 ff ff 4c 	mov    BYTE PTR [rbp-0xe95],0x4c
    38e0:	c6 85 6c f1 ff ff f0 	mov    BYTE PTR [rbp-0xe94],0xf0
    38e7:	c6 85 6d f1 ff ff a3 	mov    BYTE PTR [rbp-0xe93],0xa3
    38ee:	c6 85 6e f1 ff ff 74 	mov    BYTE PTR [rbp-0xe92],0x74
    38f5:	c6 85 6f f1 ff ff 4f 	mov    BYTE PTR [rbp-0xe91],0x4f
    38fc:	c6 85 70 f1 ff ff f0 	mov    BYTE PTR [rbp-0xe90],0xf0
    3903:	c6 85 71 f1 ff ff a3 	mov    BYTE PTR [rbp-0xe8f],0xa3
    390a:	c6 85 72 f1 ff ff 74 	mov    BYTE PTR [rbp-0xe8e],0x74
    3911:	c6 85 73 f1 ff ff 43 	mov    BYTE PTR [rbp-0xe8d],0x43
    3918:	c6 85 74 f1 ff ff f0 	mov    BYTE PTR [rbp-0xe8c],0xf0
    391f:	c6 85 75 f1 ff ff a3 	mov    BYTE PTR [rbp-0xe8b],0xa3
    3926:	c6 85 76 f1 ff ff 74 	mov    BYTE PTR [rbp-0xe8a],0x74
    392d:	c6 85 77 f1 ff ff 4b 	mov    BYTE PTR [rbp-0xe89],0x4b
    3934:	c6 85 78 f1 ff ff f0 	mov    BYTE PTR [rbp-0xe88],0xf0
    393b:	c6 85 79 f1 ff ff a3 	mov    BYTE PTR [rbp-0xe87],0xa3
    3942:	c6 85 7a f1 ff ff 74 	mov    BYTE PTR [rbp-0xe86],0x74
    3949:	c6 85 7b f1 ff ff 45 	mov    BYTE PTR [rbp-0xe85],0x45
    3950:	c6 85 7c f1 ff ff f0 	mov    BYTE PTR [rbp-0xe84],0xf0
    3957:	c6 85 7d f1 ff ff a3 	mov    BYTE PTR [rbp-0xe83],0xa3
    395e:	c6 85 7e f1 ff ff 14 	mov    BYTE PTR [rbp-0xe82],0x14
    3965:	c6 85 7f f1 ff ff 12 	mov    BYTE PTR [rbp-0xe81],0x12
    396c:	c6 85 80 f1 ff ff 19 	mov    BYTE PTR [rbp-0xe80],0x19
    3973:	c6 85 81 f1 ff ff 53 	mov    BYTE PTR [rbp-0xe7f],0x53
    397a:	c6 85 82 f1 ff ff f0 	mov    BYTE PTR [rbp-0xe7e],0xf0
    3981:	c6 85 83 f1 ff ff a3 	mov    BYTE PTR [rbp-0xe7d],0xa3
    3988:	c6 85 84 f1 ff ff f0 	mov    BYTE PTR [rbp-0xe7c],0xf0
    398f:	c6 85 85 f1 ff ff 02 	mov    BYTE PTR [rbp-0xe7b],0x2
    3996:	c6 85 86 f1 ff ff 07 	mov    BYTE PTR [rbp-0xe7a],0x7
    399d:	c6 85 87 f1 ff ff 7c 	mov    BYTE PTR [rbp-0xe79],0x7c
    39a4:	c6 85 88 f1 ff ff 90 	mov    BYTE PTR [rbp-0xe78],0x90
    39ab:	c6 85 89 f1 ff ff 06 	mov    BYTE PTR [rbp-0xe77],0x6
    39b2:	c6 85 8a f1 ff ff e1 	mov    BYTE PTR [rbp-0xe76],0xe1
    39b9:	c6 85 8b f1 ff ff e0 	mov    BYTE PTR [rbp-0xe75],0xe0
    39c0:	c6 85 8c f1 ff ff 90 	mov    BYTE PTR [rbp-0xe74],0x90
    39c7:	c6 85 8e f1 ff ff 18 	mov    BYTE PTR [rbp-0xe72],0x18
    39ce:	48 8d 95 80 ef ff ff 	lea    rdx,[rbp-0x1080]
    39d5:	b8 00 00 00 00       	mov    eax,0x0
    39da:	b9 21 00 00 00       	mov    ecx,0x21
    39df:	48 89 d7             	mov    rdi,rdx
    39e2:	f3 48 ab             	rep stos QWORD PTR es:[rdi],rax
    39e5:	48 89 fa             	mov    rdx,rdi
    39e8:	89 02                	mov    DWORD PTR [rdx],eax
    39ea:	48 83 c2 04          	add    rdx,0x4
    39ee:	66 89 02             	mov    WORD PTR [rdx],ax
    39f1:	48 83 c2 02          	add    rdx,0x2
    39f5:	c6 85 81 ef ff ff 58 	mov    BYTE PTR [rbp-0x107f],0x58
    39fc:	c6 85 82 ef ff ff 86 	mov    BYTE PTR [rbp-0x107e],0x86
    3a03:	c6 85 83 ef ff ff fb 	mov    BYTE PTR [rbp-0x107d],0xfb
    3a0a:	c6 85 84 ef ff ff ff 	mov    BYTE PTR [rbp-0x107c],0xff
    3a11:	48 8d 95 70 ee ff ff 	lea    rdx,[rbp-0x1190]
    3a18:	b8 00 00 00 00       	mov    eax,0x0
    3a1d:	b9 21 00 00 00       	mov    ecx,0x21
    3a22:	48 89 d7             	mov    rdi,rdx
    3a25:	f3 48 ab             	rep stos QWORD PTR es:[rdi],rax
    3a28:	48 89 fa             	mov    rdx,rdi
    3a2b:	89 02                	mov    DWORD PTR [rdx],eax
    3a2d:	48 83 c2 04          	add    rdx,0x4
    3a31:	66 89 02             	mov    WORD PTR [rdx],ax
    3a34:	48 83 c2 02          	add    rdx,0x2
    3a38:	c6 85 70 ee ff ff f0 	mov    BYTE PTR [rbp-0x1190],0xf0
    3a3f:	c6 85 71 ee ff ff 90 	mov    BYTE PTR [rbp-0x118f],0x90
    3a46:	c6 85 72 ee ff ff 06 	mov    BYTE PTR [rbp-0x118e],0x6
    3a4d:	c6 85 73 ee ff ff e2 	mov    BYTE PTR [rbp-0x118d],0xe2
    3a54:	c6 85 74 ee ff ff e0 	mov    BYTE PTR [rbp-0x118c],0xe0
    3a5b:	c6 85 75 ee ff ff 90 	mov    BYTE PTR [rbp-0x118b],0x90
    3a62:	c6 85 77 ee ff ff 19 	mov    BYTE PTR [rbp-0x1189],0x19
    3a69:	c6 85 78 ee ff ff f0 	mov    BYTE PTR [rbp-0x1188],0xf0
    3a70:	c6 85 79 ee ff ff 90 	mov    BYTE PTR [rbp-0x1187],0x90
    3a77:	c6 85 7a ee ff ff 06 	mov    BYTE PTR [rbp-0x1186],0x6
    3a7e:	c6 85 7b ee ff ff e3 	mov    BYTE PTR [rbp-0x1185],0xe3
    3a85:	c6 85 7c ee ff ff e0 	mov    BYTE PTR [rbp-0x1184],0xe0
    3a8c:	c6 85 7d ee ff ff 90 	mov    BYTE PTR [rbp-0x1183],0x90
    3a93:	c6 85 7f ee ff ff 1a 	mov    BYTE PTR [rbp-0x1181],0x1a
    3a9a:	c6 85 80 ee ff ff f0 	mov    BYTE PTR [rbp-0x1180],0xf0
    3aa1:	c6 85 81 ee ff ff 90 	mov    BYTE PTR [rbp-0x117f],0x90
    3aa8:	c6 85 82 ee ff ff 06 	mov    BYTE PTR [rbp-0x117e],0x6
    3aaf:	c6 85 83 ee ff ff e4 	mov    BYTE PTR [rbp-0x117d],0xe4
    3ab6:	c6 85 84 ee ff ff e0 	mov    BYTE PTR [rbp-0x117c],0xe0
    3abd:	c6 85 85 ee ff ff 90 	mov    BYTE PTR [rbp-0x117b],0x90
    3ac4:	c6 85 87 ee ff ff 1b 	mov    BYTE PTR [rbp-0x1179],0x1b
    3acb:	c6 85 88 ee ff ff f0 	mov    BYTE PTR [rbp-0x1178],0xf0
    3ad2:	c6 85 89 ee ff ff 90 	mov    BYTE PTR [rbp-0x1177],0x90
    3ad9:	c6 85 8a ee ff ff 06 	mov    BYTE PTR [rbp-0x1176],0x6
    3ae0:	c6 85 8b ee ff ff e5 	mov    BYTE PTR [rbp-0x1175],0xe5
    3ae7:	c6 85 8c ee ff ff e0 	mov    BYTE PTR [rbp-0x1174],0xe0
    3aee:	c6 85 8d ee ff ff 90 	mov    BYTE PTR [rbp-0x1173],0x90
    3af5:	c6 85 8f ee ff ff 1c 	mov    BYTE PTR [rbp-0x1171],0x1c
    3afc:	c6 85 90 ee ff ff f0 	mov    BYTE PTR [rbp-0x1170],0xf0
    3b03:	c6 85 91 ee ff ff 90 	mov    BYTE PTR [rbp-0x116f],0x90
    3b0a:	c6 85 92 ee ff ff 06 	mov    BYTE PTR [rbp-0x116e],0x6
    3b11:	c6 85 93 ee ff ff e6 	mov    BYTE PTR [rbp-0x116d],0xe6
    3b18:	c6 85 94 ee ff ff e0 	mov    BYTE PTR [rbp-0x116c],0xe0
    3b1f:	c6 85 95 ee ff ff 90 	mov    BYTE PTR [rbp-0x116b],0x90
    3b26:	c6 85 97 ee ff ff 1d 	mov    BYTE PTR [rbp-0x1169],0x1d
    3b2d:	c6 85 98 ee ff ff f0 	mov    BYTE PTR [rbp-0x1168],0xf0
    3b34:	c6 85 99 ee ff ff 90 	mov    BYTE PTR [rbp-0x1167],0x90
    3b3b:	c6 85 9a ee ff ff 06 	mov    BYTE PTR [rbp-0x1166],0x6
    3b42:	c6 85 9b ee ff ff e7 	mov    BYTE PTR [rbp-0x1165],0xe7
    3b49:	c6 85 9c ee ff ff e0 	mov    BYTE PTR [rbp-0x1164],0xe0
    3b50:	c6 85 9d ee ff ff 90 	mov    BYTE PTR [rbp-0x1163],0x90
    3b57:	c6 85 9f ee ff ff 1e 	mov    BYTE PTR [rbp-0x1161],0x1e
    3b5e:	c6 85 a0 ee ff ff f0 	mov    BYTE PTR [rbp-0x1160],0xf0
    3b65:	c6 85 a1 ee ff ff 90 	mov    BYTE PTR [rbp-0x115f],0x90
    3b6c:	c6 85 a2 ee ff ff 06 	mov    BYTE PTR [rbp-0x115e],0x6
    3b73:	c6 85 a3 ee ff ff e8 	mov    BYTE PTR [rbp-0x115d],0xe8
    3b7a:	c6 85 a4 ee ff ff e0 	mov    BYTE PTR [rbp-0x115c],0xe0
    3b81:	c6 85 a5 ee ff ff 90 	mov    BYTE PTR [rbp-0x115b],0x90
    3b88:	c6 85 a7 ee ff ff 1f 	mov    BYTE PTR [rbp-0x1159],0x1f
    3b8f:	c6 85 a8 ee ff ff f0 	mov    BYTE PTR [rbp-0x1158],0xf0
    3b96:	c6 85 a9 ee ff ff 90 	mov    BYTE PTR [rbp-0x1157],0x90
    3b9d:	c6 85 aa ee ff ff 06 	mov    BYTE PTR [rbp-0x1156],0x6
    3ba4:	c6 85 ab ee ff ff e9 	mov    BYTE PTR [rbp-0x1155],0xe9
    3bab:	c6 85 ac ee ff ff e0 	mov    BYTE PTR [rbp-0x1154],0xe0
    3bb2:	c6 85 ad ee ff ff 90 	mov    BYTE PTR [rbp-0x1153],0x90
    3bb9:	c6 85 af ee ff ff 20 	mov    BYTE PTR [rbp-0x1151],0x20
    3bc0:	c6 85 b0 ee ff ff f0 	mov    BYTE PTR [rbp-0x1150],0xf0
    3bc7:	c6 85 b1 ee ff ff 90 	mov    BYTE PTR [rbp-0x114f],0x90
    3bce:	c6 85 b2 ee ff ff 06 	mov    BYTE PTR [rbp-0x114e],0x6
    3bd5:	c6 85 b3 ee ff ff ea 	mov    BYTE PTR [rbp-0x114d],0xea
    3bdc:	c6 85 b4 ee ff ff e0 	mov    BYTE PTR [rbp-0x114c],0xe0
    3be3:	c6 85 b5 ee ff ff 90 	mov    BYTE PTR [rbp-0x114b],0x90
    3bea:	c6 85 b7 ee ff ff 21 	mov    BYTE PTR [rbp-0x1149],0x21
    3bf1:	c6 85 b8 ee ff ff f0 	mov    BYTE PTR [rbp-0x1148],0xf0
    3bf8:	c6 85 b9 ee ff ff 90 	mov    BYTE PTR [rbp-0x1147],0x90
    3bff:	c6 85 ba ee ff ff 06 	mov    BYTE PTR [rbp-0x1146],0x6
    3c06:	c6 85 bb ee ff ff eb 	mov    BYTE PTR [rbp-0x1145],0xeb
    3c0d:	c6 85 bc ee ff ff e0 	mov    BYTE PTR [rbp-0x1144],0xe0
    3c14:	c6 85 bd ee ff ff 90 	mov    BYTE PTR [rbp-0x1143],0x90
    3c1b:	c6 85 bf ee ff ff 22 	mov    BYTE PTR [rbp-0x1141],0x22
    3c22:	c6 85 c0 ee ff ff f0 	mov    BYTE PTR [rbp-0x1140],0xf0
    3c29:	c6 85 c1 ee ff ff 90 	mov    BYTE PTR [rbp-0x113f],0x90
    3c30:	c6 85 c2 ee ff ff 06 	mov    BYTE PTR [rbp-0x113e],0x6
    3c37:	c6 85 c3 ee ff ff ec 	mov    BYTE PTR [rbp-0x113d],0xec
    3c3e:	c6 85 c4 ee ff ff e0 	mov    BYTE PTR [rbp-0x113c],0xe0
    3c45:	c6 85 c5 ee ff ff 90 	mov    BYTE PTR [rbp-0x113b],0x90
    3c4c:	c6 85 c7 ee ff ff 23 	mov    BYTE PTR [rbp-0x1139],0x23
    3c53:	c6 85 c8 ee ff ff f0 	mov    BYTE PTR [rbp-0x1138],0xf0
    3c5a:	c6 85 c9 ee ff ff 90 	mov    BYTE PTR [rbp-0x1137],0x90
    3c61:	c6 85 ca ee ff ff 06 	mov    BYTE PTR [rbp-0x1136],0x6
    3c68:	c6 85 cb ee ff ff ed 	mov    BYTE PTR [rbp-0x1135],0xed
    3c6f:	c6 85 cc ee ff ff e0 	mov    BYTE PTR [rbp-0x1134],0xe0
    3c76:	c6 85 cd ee ff ff 90 	mov    BYTE PTR [rbp-0x1133],0x90
    3c7d:	c6 85 cf ee ff ff 24 	mov    BYTE PTR [rbp-0x1131],0x24
    3c84:	c6 85 d0 ee ff ff f0 	mov    BYTE PTR [rbp-0x1130],0xf0
    3c8b:	c6 85 d1 ee ff ff 90 	mov    BYTE PTR [rbp-0x112f],0x90
    3c92:	c6 85 d2 ee ff ff 06 	mov    BYTE PTR [rbp-0x112e],0x6
    3c99:	c6 85 d3 ee ff ff ee 	mov    BYTE PTR [rbp-0x112d],0xee
    3ca0:	c6 85 d4 ee ff ff e0 	mov    BYTE PTR [rbp-0x112c],0xe0
    3ca7:	c6 85 d5 ee ff ff 90 	mov    BYTE PTR [rbp-0x112b],0x90
    3cae:	c6 85 d7 ee ff ff 25 	mov    BYTE PTR [rbp-0x1129],0x25
    3cb5:	c6 85 d8 ee ff ff f0 	mov    BYTE PTR [rbp-0x1128],0xf0
    3cbc:	c6 85 d9 ee ff ff 90 	mov    BYTE PTR [rbp-0x1127],0x90
    3cc3:	c6 85 da ee ff ff 04 	mov    BYTE PTR [rbp-0x1126],0x4
    3cca:	c6 85 db ee ff ff 58 	mov    BYTE PTR [rbp-0x1125],0x58
    3cd1:	c6 85 dc ee ff ff e0 	mov    BYTE PTR [rbp-0x1124],0xe0
    3cd8:	c6 85 dd ee ff ff 64 	mov    BYTE PTR [rbp-0x1123],0x64
    3cdf:	c6 85 de ee ff ff 01 	mov    BYTE PTR [rbp-0x1122],0x1
    3ce6:	c6 85 df ee ff ff 70 	mov    BYTE PTR [rbp-0x1121],0x70
    3ced:	c6 85 e0 ee ff ff 08 	mov    BYTE PTR [rbp-0x1120],0x8
    3cf4:	c6 85 e1 ee ff ff 90 	mov    BYTE PTR [rbp-0x111f],0x90
    3cfb:	c6 85 e3 ee ff ff 26 	mov    BYTE PTR [rbp-0x111d],0x26
    3d02:	c6 85 e4 ee ff ff 74 	mov    BYTE PTR [rbp-0x111c],0x74
    3d09:	c6 85 e5 ee ff ff 2b 	mov    BYTE PTR [rbp-0x111b],0x2b
    3d10:	c6 85 e6 ee ff ff f0 	mov    BYTE PTR [rbp-0x111a],0xf0
    3d17:	c6 85 e7 ee ff ff 80 	mov    BYTE PTR [rbp-0x1119],0x80
    3d1e:	c6 85 e8 ee ff ff 08 	mov    BYTE PTR [rbp-0x1118],0x8
    3d25:	c6 85 e9 ee ff ff 90 	mov    BYTE PTR [rbp-0x1117],0x90
    3d2c:	c6 85 ea ee ff ff 06 	mov    BYTE PTR [rbp-0x1116],0x6
    3d33:	c6 85 eb ee ff ff ef 	mov    BYTE PTR [rbp-0x1115],0xef
    3d3a:	c6 85 ec ee ff ff e0 	mov    BYTE PTR [rbp-0x1114],0xe0
    3d41:	c6 85 ed ee ff ff 90 	mov    BYTE PTR [rbp-0x1113],0x90
    3d48:	c6 85 ef ee ff ff 26 	mov    BYTE PTR [rbp-0x1111],0x26
    3d4f:	c6 85 f0 ee ff ff f0 	mov    BYTE PTR [rbp-0x1110],0xf0
    3d56:	c6 85 f1 ee ff ff 90 	mov    BYTE PTR [rbp-0x110f],0x90
    3d5d:	c6 85 f3 ee ff ff 27 	mov    BYTE PTR [rbp-0x110d],0x27
    3d64:	c6 85 f4 ee ff ff 12 	mov    BYTE PTR [rbp-0x110c],0x12
    3d6b:	c6 85 f5 ee ff ff 18 	mov    BYTE PTR [rbp-0x110b],0x18
    3d72:	c6 85 f6 ee ff ff f1 	mov    BYTE PTR [rbp-0x110a],0xf1
    3d79:	c6 85 f7 ee ff ff 90 	mov    BYTE PTR [rbp-0x1109],0x90
    3d80:	c6 85 f8 ee ff ff 04 	mov    BYTE PTR [rbp-0x1108],0x4
    3d87:	c6 85 f9 ee ff ff 54 	mov    BYTE PTR [rbp-0x1107],0x54
    3d8e:	c6 85 fa ee ff ff e0 	mov    BYTE PTR [rbp-0x1106],0xe0
    3d95:	c6 85 fb ee ff ff 90 	mov    BYTE PTR [rbp-0x1105],0x90
    3d9c:	c6 85 fd ee ff ff 29 	mov    BYTE PTR [rbp-0x1103],0x29
    3da3:	c6 85 fe ee ff ff f0 	mov    BYTE PTR [rbp-0x1102],0xf0
    3daa:	c6 85 ff ee ff ff 90 	mov    BYTE PTR [rbp-0x1101],0x90
    3db1:	c6 85 00 ef ff ff 04 	mov    BYTE PTR [rbp-0x1100],0x4
    3db8:	c6 85 01 ef ff ff 55 	mov    BYTE PTR [rbp-0x10ff],0x55
    3dbf:	c6 85 02 ef ff ff e0 	mov    BYTE PTR [rbp-0x10fe],0xe0
    3dc6:	c6 85 03 ef ff ff 90 	mov    BYTE PTR [rbp-0x10fd],0x90
    3dcd:	c6 85 05 ef ff ff 2a 	mov    BYTE PTR [rbp-0x10fb],0x2a
    3dd4:	c6 85 06 ef ff ff 12 	mov    BYTE PTR [rbp-0x10fa],0x12
    3ddb:	c6 85 07 ef ff ff 18 	mov    BYTE PTR [rbp-0x10f9],0x18
    3de2:	c6 85 08 ef ff ff ef 	mov    BYTE PTR [rbp-0x10f8],0xef
    3de9:	c6 85 09 ef ff ff 90 	mov    BYTE PTR [rbp-0x10f7],0x90
    3df0:	c6 85 0a ef ff ff 04 	mov    BYTE PTR [rbp-0x10f6],0x4
    3df7:	c6 85 0b ef ff ff 56 	mov    BYTE PTR [rbp-0x10f5],0x56
    3dfe:	c6 85 0c ef ff ff e0 	mov    BYTE PTR [rbp-0x10f4],0xe0
    3e05:	c6 85 0d ef ff ff 90 	mov    BYTE PTR [rbp-0x10f3],0x90
    3e0c:	c6 85 0f ef ff ff 2d 	mov    BYTE PTR [rbp-0x10f1],0x2d
    3e13:	c6 85 10 ef ff ff f0 	mov    BYTE PTR [rbp-0x10f0],0xf0
    3e1a:	c6 85 11 ef ff ff 90 	mov    BYTE PTR [rbp-0x10ef],0x90
    3e21:	c6 85 12 ef ff ff 04 	mov    BYTE PTR [rbp-0x10ee],0x4
    3e28:	c6 85 13 ef ff ff 57 	mov    BYTE PTR [rbp-0x10ed],0x57
    3e2f:	c6 85 14 ef ff ff e0 	mov    BYTE PTR [rbp-0x10ec],0xe0
    3e36:	c6 85 15 ef ff ff 90 	mov    BYTE PTR [rbp-0x10eb],0x90
    3e3d:	c6 85 17 ef ff ff 2e 	mov    BYTE PTR [rbp-0x10e9],0x2e
    3e44:	c6 85 18 ef ff ff 12 	mov    BYTE PTR [rbp-0x10e8],0x12
    3e4b:	c6 85 19 ef ff ff 19 	mov    BYTE PTR [rbp-0x10e7],0x19
    3e52:	c6 85 1a ef ff ff 53 	mov    BYTE PTR [rbp-0x10e6],0x53
    3e59:	c6 85 1b ef ff ff 74 	mov    BYTE PTR [rbp-0x10e5],0x74
    3e60:	c6 85 1c ef ff ff 04 	mov    BYTE PTR [rbp-0x10e4],0x4
    3e67:	c6 85 1d ef ff ff f0 	mov    BYTE PTR [rbp-0x10e3],0xf0
    3e6e:	c6 85 1e ef ff ff 90 	mov    BYTE PTR [rbp-0x10e2],0x90
    3e75:	c6 85 1f ef ff ff 04 	mov    BYTE PTR [rbp-0x10e1],0x4
    3e7c:	c6 85 20 ef ff ff 50 	mov    BYTE PTR [rbp-0x10e0],0x50
    3e83:	c6 85 21 ef ff ff e0 	mov    BYTE PTR [rbp-0x10df],0xe0
    3e8a:	c6 85 22 ef ff ff 90 	mov    BYTE PTR [rbp-0x10de],0x90
    3e91:	c6 85 24 ef ff ff 31 	mov    BYTE PTR [rbp-0x10dc],0x31
    3e98:	c6 85 25 ef ff ff f0 	mov    BYTE PTR [rbp-0x10db],0xf0
    3e9f:	c6 85 26 ef ff ff 90 	mov    BYTE PTR [rbp-0x10da],0x90
    3ea6:	c6 85 27 ef ff ff 04 	mov    BYTE PTR [rbp-0x10d9],0x4
    3ead:	c6 85 28 ef ff ff 51 	mov    BYTE PTR [rbp-0x10d8],0x51
    3eb4:	c6 85 29 ef ff ff e0 	mov    BYTE PTR [rbp-0x10d7],0xe0
    3ebb:	c6 85 2a ef ff ff 90 	mov    BYTE PTR [rbp-0x10d6],0x90
    3ec2:	c6 85 2c ef ff ff 32 	mov    BYTE PTR [rbp-0x10d4],0x32
    3ec9:	c6 85 2d ef ff ff f0 	mov    BYTE PTR [rbp-0x10d3],0xf0
    3ed0:	c6 85 2e ef ff ff 90 	mov    BYTE PTR [rbp-0x10d2],0x90
    3ed7:	c6 85 2f ef ff ff 04 	mov    BYTE PTR [rbp-0x10d1],0x4
    3ede:	c6 85 30 ef ff ff 52 	mov    BYTE PTR [rbp-0x10d0],0x52
    3ee5:	c6 85 31 ef ff ff e0 	mov    BYTE PTR [rbp-0x10cf],0xe0
    3eec:	c6 85 32 ef ff ff 90 	mov    BYTE PTR [rbp-0x10ce],0x90
    3ef3:	c6 85 34 ef ff ff 33 	mov    BYTE PTR [rbp-0x10cc],0x33
    3efa:	c6 85 35 ef ff ff f0 	mov    BYTE PTR [rbp-0x10cb],0xf0
    3f01:	c6 85 36 ef ff ff 90 	mov    BYTE PTR [rbp-0x10ca],0x90
    3f08:	c6 85 37 ef ff ff 04 	mov    BYTE PTR [rbp-0x10c9],0x4
    3f0f:	c6 85 38 ef ff ff 53 	mov    BYTE PTR [rbp-0x10c8],0x53
    3f16:	c6 85 39 ef ff ff e0 	mov    BYTE PTR [rbp-0x10c7],0xe0
    3f1d:	c6 85 3a ef ff ff 90 	mov    BYTE PTR [rbp-0x10c6],0x90
    3f24:	c6 85 3c ef ff ff 34 	mov    BYTE PTR [rbp-0x10c4],0x34
    3f2b:	c6 85 3d ef ff ff 12 	mov    BYTE PTR [rbp-0x10c3],0x12
    3f32:	c6 85 3e ef ff ff 18 	mov    BYTE PTR [rbp-0x10c2],0x18
    3f39:	c6 85 3f ef ff ff ef 	mov    BYTE PTR [rbp-0x10c1],0xef
    3f40:	c6 85 40 ef ff ff 90 	mov    BYTE PTR [rbp-0x10c0],0x90
    3f47:	c6 85 41 ef ff ff 04 	mov    BYTE PTR [rbp-0x10bf],0x4
    3f4e:	c6 85 42 ef ff ff 54 	mov    BYTE PTR [rbp-0x10be],0x54
    3f55:	c6 85 43 ef ff ff e0 	mov    BYTE PTR [rbp-0x10bd],0xe0
    3f5c:	c6 85 44 ef ff ff 90 	mov    BYTE PTR [rbp-0x10bc],0x90
    3f63:	c6 85 46 ef ff ff 37 	mov    BYTE PTR [rbp-0x10ba],0x37
    3f6a:	c6 85 47 ef ff ff f0 	mov    BYTE PTR [rbp-0x10b9],0xf0
    3f71:	c6 85 48 ef ff ff 90 	mov    BYTE PTR [rbp-0x10b8],0x90
    3f78:	c6 85 49 ef ff ff 04 	mov    BYTE PTR [rbp-0x10b7],0x4
    3f7f:	c6 85 4a ef ff ff 55 	mov    BYTE PTR [rbp-0x10b6],0x55
    3f86:	c6 85 4b ef ff ff e0 	mov    BYTE PTR [rbp-0x10b5],0xe0
    3f8d:	c6 85 4c ef ff ff 90 	mov    BYTE PTR [rbp-0x10b4],0x90
    3f94:	c6 85 4e ef ff ff 38 	mov    BYTE PTR [rbp-0x10b2],0x38
    3f9b:	c6 85 4f ef ff ff 12 	mov    BYTE PTR [rbp-0x10b1],0x12
    3fa2:	c6 85 50 ef ff ff 18 	mov    BYTE PTR [rbp-0x10b0],0x18
    3fa9:	c6 85 51 ef ff ff ef 	mov    BYTE PTR [rbp-0x10af],0xef
    3fb0:	c6 85 52 ef ff ff 90 	mov    BYTE PTR [rbp-0x10ae],0x90
    3fb7:	c6 85 53 ef ff ff 04 	mov    BYTE PTR [rbp-0x10ad],0x4
    3fbe:	c6 85 54 ef ff ff 56 	mov    BYTE PTR [rbp-0x10ac],0x56
    3fc5:	c6 85 55 ef ff ff e0 	mov    BYTE PTR [rbp-0x10ab],0xe0
    3fcc:	c6 85 56 ef ff ff 90 	mov    BYTE PTR [rbp-0x10aa],0x90
    3fd3:	c6 85 58 ef ff ff 3b 	mov    BYTE PTR [rbp-0x10a8],0x3b
    3fda:	c6 85 59 ef ff ff f0 	mov    BYTE PTR [rbp-0x10a7],0xf0
    3fe1:	c6 85 5a ef ff ff 90 	mov    BYTE PTR [rbp-0x10a6],0x90
    3fe8:	c6 85 5b ef ff ff 04 	mov    BYTE PTR [rbp-0x10a5],0x4
    3fef:	c6 85 5c ef ff ff 57 	mov    BYTE PTR [rbp-0x10a4],0x57
    3ff6:	c6 85 5d ef ff ff e0 	mov    BYTE PTR [rbp-0x10a3],0xe0
    3ffd:	c6 85 5e ef ff ff 90 	mov    BYTE PTR [rbp-0x10a2],0x90
    4004:	c6 85 60 ef ff ff 3c 	mov    BYTE PTR [rbp-0x10a0],0x3c
    400b:	c6 85 61 ef ff ff 12 	mov    BYTE PTR [rbp-0x109f],0x12
    4012:	c6 85 62 ef ff ff 19 	mov    BYTE PTR [rbp-0x109e],0x19
    4019:	c6 85 63 ef ff ff 53 	mov    BYTE PTR [rbp-0x109d],0x53
    4020:	c6 85 64 ef ff ff 74 	mov    BYTE PTR [rbp-0x109c],0x74
    4027:	c6 85 65 ef ff ff 04 	mov    BYTE PTR [rbp-0x109b],0x4
    402e:	c6 85 66 ef ff ff f0 	mov    BYTE PTR [rbp-0x109a],0xf0
    4035:	c6 85 67 ef ff ff 90 	mov    BYTE PTR [rbp-0x1099],0x90
    403c:	c6 85 68 ef ff ff 04 	mov    BYTE PTR [rbp-0x1098],0x4
    4043:	c6 85 69 ef ff ff 5b 	mov    BYTE PTR [rbp-0x1097],0x5b
    404a:	c6 85 6a ef ff ff e0 	mov    BYTE PTR [rbp-0x1096],0xe0
    4051:	c6 85 6b ef ff ff 90 	mov    BYTE PTR [rbp-0x1095],0x90
    4058:	c6 85 6d ef ff ff 3f 	mov    BYTE PTR [rbp-0x1093],0x3f
    405f:	c6 85 6e ef ff ff f0 	mov    BYTE PTR [rbp-0x1092],0xf0
    4066:	48 8d 95 60 ed ff ff 	lea    rdx,[rbp-0x12a0]
    406d:	b8 00 00 00 00       	mov    eax,0x0
    4072:	b9 21 00 00 00       	mov    ecx,0x21
    4077:	48 89 d7             	mov    rdi,rdx
    407a:	f3 48 ab             	rep stos QWORD PTR es:[rdi],rax
    407d:	48 89 fa             	mov    rdx,rdi
    4080:	89 02                	mov    DWORD PTR [rdx],eax
    4082:	48 83 c2 04          	add    rdx,0x4
    4086:	66 89 02             	mov    WORD PTR [rdx],ax
    4089:	48 83 c2 02          	add    rdx,0x2
    408d:	c6 85 61 ed ff ff 58 	mov    BYTE PTR [rbp-0x129f],0x58
    4094:	c6 85 62 ed ff ff 87 	mov    BYTE PTR [rbp-0x129e],0x87
    409b:	c6 85 63 ed ff ff fa 	mov    BYTE PTR [rbp-0x129d],0xfa
    40a2:	c6 85 64 ed ff ff ff 	mov    BYTE PTR [rbp-0x129c],0xff
    40a9:	48 8d 95 50 ec ff ff 	lea    rdx,[rbp-0x13b0]
    40b0:	b8 00 00 00 00       	mov    eax,0x0
    40b5:	b9 21 00 00 00       	mov    ecx,0x21
    40ba:	48 89 d7             	mov    rdi,rdx
    40bd:	f3 48 ab             	rep stos QWORD PTR es:[rdi],rax
    40c0:	48 89 fa             	mov    rdx,rdi
    40c3:	89 02                	mov    DWORD PTR [rdx],eax
    40c5:	48 83 c2 04          	add    rdx,0x4
    40c9:	66 89 02             	mov    WORD PTR [rdx],ax
    40cc:	48 83 c2 02          	add    rdx,0x2
    40d0:	c6 85 50 ec ff ff 90 	mov    BYTE PTR [rbp-0x13b0],0x90
    40d7:	c6 85 51 ec ff ff 04 	mov    BYTE PTR [rbp-0x13af],0x4
    40de:	c6 85 52 ec ff ff 5f 	mov    BYTE PTR [rbp-0x13ae],0x5f
    40e5:	c6 85 53 ec ff ff e0 	mov    BYTE PTR [rbp-0x13ad],0xe0
    40ec:	c6 85 54 ec ff ff 90 	mov    BYTE PTR [rbp-0x13ac],0x90
    40f3:	c6 85 56 ec ff ff 40 	mov    BYTE PTR [rbp-0x13aa],0x40
    40fa:	c6 85 57 ec ff ff f0 	mov    BYTE PTR [rbp-0x13a9],0xf0
    4101:	c6 85 58 ec ff ff 90 	mov    BYTE PTR [rbp-0x13a8],0x90
    4108:	c6 85 59 ec ff ff 04 	mov    BYTE PTR [rbp-0x13a7],0x4
    410f:	c6 85 5a ec ff ff 60 	mov    BYTE PTR [rbp-0x13a6],0x60
    4116:	c6 85 5b ec ff ff e0 	mov    BYTE PTR [rbp-0x13a5],0xe0
    411d:	c6 85 5c ec ff ff 90 	mov    BYTE PTR [rbp-0x13a4],0x90
    4124:	c6 85 5e ec ff ff 41 	mov    BYTE PTR [rbp-0x13a2],0x41
    412b:	c6 85 5f ec ff ff f0 	mov    BYTE PTR [rbp-0x13a1],0xf0
    4132:	c6 85 60 ec ff ff 90 	mov    BYTE PTR [rbp-0x13a0],0x90
    4139:	c6 85 61 ec ff ff 04 	mov    BYTE PTR [rbp-0x139f],0x4
    4140:	c6 85 62 ec ff ff 5c 	mov    BYTE PTR [rbp-0x139e],0x5c
    4147:	c6 85 63 ec ff ff e0 	mov    BYTE PTR [rbp-0x139d],0xe0
    414e:	c6 85 64 ec ff ff 90 	mov    BYTE PTR [rbp-0x139c],0x90
    4155:	c6 85 66 ec ff ff 42 	mov    BYTE PTR [rbp-0x139a],0x42
    415c:	c6 85 67 ec ff ff f0 	mov    BYTE PTR [rbp-0x1399],0xf0
    4163:	c6 85 68 ec ff ff 7f 	mov    BYTE PTR [rbp-0x1398],0x7f
    416a:	c6 85 69 ec ff ff 31 	mov    BYTE PTR [rbp-0x1397],0x31
    4171:	c6 85 6a ec ff ff 02 	mov    BYTE PTR [rbp-0x1396],0x2
    4178:	c6 85 6b ec ff ff 0c 	mov    BYTE PTR [rbp-0x1395],0xc
    417f:	c6 85 6c ec ff ff df 	mov    BYTE PTR [rbp-0x1394],0xdf
    4186:	c6 85 6d ec ff ff 12 	mov    BYTE PTR [rbp-0x1393],0x12
    418d:	c6 85 6e ec ff ff 1d 	mov    BYTE PTR [rbp-0x1392],0x1d
    4194:	c6 85 6f ec ff ff df 	mov    BYTE PTR [rbp-0x1391],0xdf
    419b:	c6 85 70 ec ff ff 90 	mov    BYTE PTR [rbp-0x1390],0x90
    41a2:	c6 85 72 ec ff ff 10 	mov    BYTE PTR [rbp-0x138e],0x10
    41a9:	c6 85 73 ec ff ff 12 	mov    BYTE PTR [rbp-0x138d],0x12
    41b0:	c6 85 74 ec ff ff 0c 	mov    BYTE PTR [rbp-0x138c],0xc
    41b7:	c6 85 75 ec ff ff f0 	mov    BYTE PTR [rbp-0x138b],0xf0
    41be:	c6 85 76 ec ff ff 12 	mov    BYTE PTR [rbp-0x138a],0x12
    41c5:	c6 85 77 ec ff ff 1d 	mov    BYTE PTR [rbp-0x1389],0x1d
    41cc:	c6 85 78 ec ff ff df 	mov    BYTE PTR [rbp-0x1388],0xdf
    41d3:	c6 85 79 ec ff ff 12 	mov    BYTE PTR [rbp-0x1387],0x12
    41da:	c6 85 7a ec ff ff 1d 	mov    BYTE PTR [rbp-0x1386],0x1d
    41e1:	c6 85 7b ec ff ff df 	mov    BYTE PTR [rbp-0x1385],0xdf
    41e8:	c6 85 7c ec ff ff e4 	mov    BYTE PTR [rbp-0x1384],0xe4
    41ef:	c6 85 7d ec ff ff 90 	mov    BYTE PTR [rbp-0x1383],0x90
    41f6:	c6 85 7e ec ff ff 06 	mov    BYTE PTR [rbp-0x1382],0x6
    41fd:	c6 85 7f ec ff ff c2 	mov    BYTE PTR [rbp-0x1381],0xc2
    4204:	c6 85 80 ec ff ff 12 	mov    BYTE PTR [rbp-0x1380],0x12
    420b:	c6 85 81 ec ff ff 19 	mov    BYTE PTR [rbp-0x137f],0x19
    4212:	c6 85 82 ec ff ff 21 	mov    BYTE PTR [rbp-0x137e],0x21
    4219:	c6 85 83 ec ff ff a3 	mov    BYTE PTR [rbp-0x137d],0xa3
    4220:	c6 85 84 ec ff ff f0 	mov    BYTE PTR [rbp-0x137c],0xf0
    4227:	c6 85 85 ec ff ff fd 	mov    BYTE PTR [rbp-0x137b],0xfd
    422e:	c6 85 86 ec ff ff 7c 	mov    BYTE PTR [rbp-0x137a],0x7c
    4235:	c6 85 87 ec ff ff 70 	mov    BYTE PTR [rbp-0x1379],0x70
    423c:	c6 85 88 ec ff ff 12 	mov    BYTE PTR [rbp-0x1378],0x12
    4243:	c6 85 89 ec ff ff 1d 	mov    BYTE PTR [rbp-0x1377],0x1d
    424a:	c6 85 8a ec ff ff 4e 	mov    BYTE PTR [rbp-0x1376],0x4e
    4251:	c6 85 8b ec ff ff 12 	mov    BYTE PTR [rbp-0x1375],0x12
    4258:	c6 85 8c ec ff ff 17 	mov    BYTE PTR [rbp-0x1374],0x17
    425f:	c6 85 8d ec ff ff d3 	mov    BYTE PTR [rbp-0x1373],0xd3
    4266:	c6 85 8e ec ff ff 12 	mov    BYTE PTR [rbp-0x1372],0x12
    426d:	c6 85 8f ec ff ff 1c 	mov    BYTE PTR [rbp-0x1371],0x1c
    4274:	c6 85 90 ec ff ff 79 	mov    BYTE PTR [rbp-0x1370],0x79
    427b:	c6 85 91 ec ff ff 90 	mov    BYTE PTR [rbp-0x136f],0x90
    4282:	c6 85 92 ec ff ff 04 	mov    BYTE PTR [rbp-0x136e],0x4
    4289:	c6 85 93 ec ff ff 5c 	mov    BYTE PTR [rbp-0x136d],0x5c
    4290:	c6 85 94 ec ff ff e0 	mov    BYTE PTR [rbp-0x136c],0xe0
    4297:	c6 85 95 ec ff ff 04 	mov    BYTE PTR [rbp-0x136b],0x4
    429e:	c6 85 96 ec ff ff f0 	mov    BYTE PTR [rbp-0x136a],0xf0
    42a5:	c6 85 97 ec ff ff 90 	mov    BYTE PTR [rbp-0x1369],0x90
    42ac:	c6 85 98 ec ff ff 02 	mov    BYTE PTR [rbp-0x1368],0x2
    42b3:	c6 85 99 ec ff ff 16 	mov    BYTE PTR [rbp-0x1367],0x16
    42ba:	c6 85 9a ec ff ff e0 	mov    BYTE PTR [rbp-0x1366],0xe0
    42c1:	c6 85 9b ec ff ff 90 	mov    BYTE PTR [rbp-0x1365],0x90
    42c8:	c6 85 9c ec ff ff 06 	mov    BYTE PTR [rbp-0x1364],0x6
    42cf:	c6 85 9d ec ff ff ac 	mov    BYTE PTR [rbp-0x1363],0xac
    42d6:	c6 85 9e ec ff ff f0 	mov    BYTE PTR [rbp-0x1362],0xf0
    42dd:	c6 85 9f ec ff ff 90 	mov    BYTE PTR [rbp-0x1361],0x90
    42e4:	c6 85 a0 ec ff ff 02 	mov    BYTE PTR [rbp-0x1360],0x2
    42eb:	c6 85 a1 ec ff ff 17 	mov    BYTE PTR [rbp-0x135f],0x17
    42f2:	c6 85 a2 ec ff ff e0 	mov    BYTE PTR [rbp-0x135e],0xe0
    42f9:	c6 85 a3 ec ff ff 90 	mov    BYTE PTR [rbp-0x135d],0x90
    4300:	c6 85 a4 ec ff ff 06 	mov    BYTE PTR [rbp-0x135c],0x6
    4307:	c6 85 a5 ec ff ff ad 	mov    BYTE PTR [rbp-0x135b],0xad
    430e:	c6 85 a6 ec ff ff f0 	mov    BYTE PTR [rbp-0x135a],0xf0
    4315:	c6 85 a7 ec ff ff 90 	mov    BYTE PTR [rbp-0x1359],0x90
    431c:	c6 85 a8 ec ff ff 02 	mov    BYTE PTR [rbp-0x1358],0x2
    4323:	c6 85 a9 ec ff ff 18 	mov    BYTE PTR [rbp-0x1357],0x18
    432a:	c6 85 aa ec ff ff e0 	mov    BYTE PTR [rbp-0x1356],0xe0
    4331:	c6 85 ab ec ff ff 90 	mov    BYTE PTR [rbp-0x1355],0x90
    4338:	c6 85 ac ec ff ff 06 	mov    BYTE PTR [rbp-0x1354],0x6
    433f:	c6 85 ad ec ff ff ae 	mov    BYTE PTR [rbp-0x1353],0xae
    4346:	c6 85 ae ec ff ff f0 	mov    BYTE PTR [rbp-0x1352],0xf0
    434d:	c6 85 af ec ff ff 90 	mov    BYTE PTR [rbp-0x1351],0x90
    4354:	c6 85 b0 ec ff ff 02 	mov    BYTE PTR [rbp-0x1350],0x2
    435b:	c6 85 b1 ec ff ff 19 	mov    BYTE PTR [rbp-0x134f],0x19
    4362:	c6 85 b2 ec ff ff e0 	mov    BYTE PTR [rbp-0x134e],0xe0
    4369:	c6 85 b3 ec ff ff 90 	mov    BYTE PTR [rbp-0x134d],0x90
    4370:	c6 85 b4 ec ff ff 06 	mov    BYTE PTR [rbp-0x134c],0x6
    4377:	c6 85 b5 ec ff ff af 	mov    BYTE PTR [rbp-0x134b],0xaf
    437e:	c6 85 b6 ec ff ff f0 	mov    BYTE PTR [rbp-0x134a],0xf0
    4385:	c6 85 b7 ec ff ff 90 	mov    BYTE PTR [rbp-0x1349],0x90
    438c:	c6 85 b8 ec ff ff 04 	mov    BYTE PTR [rbp-0x1348],0x4
    4393:	c6 85 b9 ec ff ff 63 	mov    BYTE PTR [rbp-0x1347],0x63
    439a:	c6 85 ba ec ff ff e0 	mov    BYTE PTR [rbp-0x1346],0xe0
    43a1:	c6 85 bb ec ff ff 64 	mov    BYTE PTR [rbp-0x1345],0x64
    43a8:	c6 85 bc ec ff ff ca 	mov    BYTE PTR [rbp-0x1344],0xca
    43af:	c6 85 bd ec ff ff 70 	mov    BYTE PTR [rbp-0x1343],0x70
    43b6:	c6 85 be ec ff ff 06 	mov    BYTE PTR [rbp-0x1342],0x6
    43bd:	c6 85 c2 ec ff ff 02 	mov    BYTE PTR [rbp-0x133e],0x2
    43c4:	c6 85 c3 ec ff ff 09 	mov    BYTE PTR [rbp-0x133d],0x9
    43cb:	c6 85 c4 ec ff ff 25 	mov    BYTE PTR [rbp-0x133c],0x25
    43d2:	c6 85 c5 ec ff ff 90 	mov    BYTE PTR [rbp-0x133b],0x90
    43d9:	c6 85 c6 ec ff ff 04 	mov    BYTE PTR [rbp-0x133a],0x4
    43e0:	c6 85 c7 ec ff ff 63 	mov    BYTE PTR [rbp-0x1339],0x63
    43e7:	c6 85 c8 ec ff ff e0 	mov    BYTE PTR [rbp-0x1338],0xe0
    43ee:	c6 85 c9 ec ff ff 70 	mov    BYTE PTR [rbp-0x1337],0x70
    43f5:	c6 85 ca ec ff ff 6f 	mov    BYTE PTR [rbp-0x1336],0x6f
    43fc:	c6 85 cb ec ff ff 90 	mov    BYTE PTR [rbp-0x1335],0x90
    4403:	c6 85 cc ec ff ff 06 	mov    BYTE PTR [rbp-0x1334],0x6
    440a:	c6 85 cd ec ff ff af 	mov    BYTE PTR [rbp-0x1333],0xaf
    4411:	c6 85 ce ec ff ff e0 	mov    BYTE PTR [rbp-0x1332],0xe0
    4418:	c6 85 cf ec ff ff 90 	mov    BYTE PTR [rbp-0x1331],0x90
    441f:	c6 85 d0 ec ff ff 06 	mov    BYTE PTR [rbp-0x1330],0x6
    4426:	c6 85 d1 ec ff ff aa 	mov    BYTE PTR [rbp-0x132f],0xaa
    442d:	c6 85 d2 ec ff ff f0 	mov    BYTE PTR [rbp-0x132e],0xf0
    4434:	c6 85 d3 ec ff ff e0 	mov    BYTE PTR [rbp-0x132d],0xe0
    443b:	c6 85 d4 ec ff ff ff 	mov    BYTE PTR [rbp-0x132c],0xff
    4442:	c6 85 d5 ec ff ff d3 	mov    BYTE PTR [rbp-0x132b],0xd3
    4449:	c6 85 d6 ec ff ff 94 	mov    BYTE PTR [rbp-0x132a],0x94
    4450:	c6 85 d7 ec ff ff 1e 	mov    BYTE PTR [rbp-0x1329],0x1e
    4457:	c6 85 d8 ec ff ff 74 	mov    BYTE PTR [rbp-0x1328],0x74
    445e:	c6 85 d9 ec ff ff 80 	mov    BYTE PTR [rbp-0x1327],0x80
    4465:	c6 85 da ec ff ff 94 	mov    BYTE PTR [rbp-0x1326],0x94
    446c:	c6 85 db ec ff ff 80 	mov    BYTE PTR [rbp-0x1325],0x80
    4473:	c6 85 dc ec ff ff 40 	mov    BYTE PTR [rbp-0x1324],0x40
    447a:	c6 85 dd ec ff ff 12 	mov    BYTE PTR [rbp-0x1323],0x12
    4481:	c6 85 de ec ff ff 90 	mov    BYTE PTR [rbp-0x1322],0x90
    4488:	c6 85 df ec ff ff 04 	mov    BYTE PTR [rbp-0x1321],0x4
    448f:	c6 85 e0 ec ff ff 64 	mov    BYTE PTR [rbp-0x1320],0x64
    4496:	c6 85 e1 ec ff ff e0 	mov    BYTE PTR [rbp-0x131f],0xe0
    449d:	c6 85 e2 ec ff ff fe 	mov    BYTE PTR [rbp-0x131e],0xfe
    44a4:	c6 85 e3 ec ff ff ef 	mov    BYTE PTR [rbp-0x131d],0xef
    44ab:	c6 85 e4 ec ff ff d3 	mov    BYTE PTR [rbp-0x131c],0xd3
    44b2:	c6 85 e5 ec ff ff 9e 	mov    BYTE PTR [rbp-0x131b],0x9e
    44b9:	c6 85 e6 ec ff ff 50 	mov    BYTE PTR [rbp-0x131a],0x50
    44c0:	c6 85 e7 ec ff ff 08 	mov    BYTE PTR [rbp-0x1319],0x8
    44c7:	c6 85 e8 ec ff ff 90 	mov    BYTE PTR [rbp-0x1318],0x90
    44ce:	c6 85 e9 ec ff ff 04 	mov    BYTE PTR [rbp-0x1317],0x4
    44d5:	c6 85 ea ec ff ff 62 	mov    BYTE PTR [rbp-0x1316],0x62
    44dc:	c6 85 eb ec ff ff e0 	mov    BYTE PTR [rbp-0x1315],0xe0
    44e3:	c6 85 ec ec ff ff 04 	mov    BYTE PTR [rbp-0x1314],0x4
    44ea:	c6 85 ed ec ff ff f0 	mov    BYTE PTR [rbp-0x1313],0xf0
    44f1:	c6 85 ee ec ff ff 80 	mov    BYTE PTR [rbp-0x1312],0x80
    44f8:	c6 85 ef ec ff ff 0d 	mov    BYTE PTR [rbp-0x1311],0xd
    44ff:	c6 85 f0 ec ff ff 90 	mov    BYTE PTR [rbp-0x1310],0x90
    4506:	c6 85 f1 ec ff ff 04 	mov    BYTE PTR [rbp-0x130f],0x4
    450d:	c6 85 f2 ec ff ff 62 	mov    BYTE PTR [rbp-0x130e],0x62
    4514:	c6 85 f3 ec ff ff e0 	mov    BYTE PTR [rbp-0x130d],0xe0
    451b:	c6 85 f4 ec ff ff d3 	mov    BYTE PTR [rbp-0x130c],0xd3
    4522:	c6 85 f5 ec ff ff 12 	mov    BYTE PTR [rbp-0x130b],0x12
    4529:	c6 85 f6 ec ff ff 19 	mov    BYTE PTR [rbp-0x130a],0x19
    4530:	c6 85 f7 ec ff ff 15 	mov    BYTE PTR [rbp-0x1309],0x15
    4537:	c6 85 f8 ec ff ff 40 	mov    BYTE PTR [rbp-0x1308],0x40
    453e:	c6 85 f9 ec ff ff 03 	mov    BYTE PTR [rbp-0x1307],0x3
    4545:	c6 85 fa ec ff ff e0 	mov    BYTE PTR [rbp-0x1306],0xe0
    454c:	c6 85 fb ec ff ff 14 	mov    BYTE PTR [rbp-0x1305],0x14
    4553:	c6 85 fc ec ff ff f0 	mov    BYTE PTR [rbp-0x1304],0xf0
    455a:	c6 85 fd ec ff ff 90 	mov    BYTE PTR [rbp-0x1303],0x90
    4561:	c6 85 fe ec ff ff 06 	mov    BYTE PTR [rbp-0x1302],0x6
    4568:	c6 85 ff ec ff ff aa 	mov    BYTE PTR [rbp-0x1301],0xaa
    456f:	c6 85 00 ed ff ff e0 	mov    BYTE PTR [rbp-0x1300],0xe0
    4576:	c6 85 01 ed ff ff 24 	mov    BYTE PTR [rbp-0x12ff],0x24
    457d:	c6 85 02 ed ff ff 05 	mov    BYTE PTR [rbp-0x12fe],0x5
    4584:	c6 85 03 ed ff ff 90 	mov    BYTE PTR [rbp-0x12fd],0x90
    458b:	c6 85 04 ed ff ff 04 	mov    BYTE PTR [rbp-0x12fc],0x4
    4592:	c6 85 05 ed ff ff 64 	mov    BYTE PTR [rbp-0x12fb],0x64
    4599:	c6 85 06 ed ff ff f0 	mov    BYTE PTR [rbp-0x12fa],0xf0
    45a0:	c6 85 07 ed ff ff 90 	mov    BYTE PTR [rbp-0x12f9],0x90
    45a7:	c6 85 08 ed ff ff 04 	mov    BYTE PTR [rbp-0x12f8],0x4
    45ae:	c6 85 09 ed ff ff 62 	mov    BYTE PTR [rbp-0x12f7],0x62
    45b5:	c6 85 0a ed ff ff e0 	mov    BYTE PTR [rbp-0x12f6],0xe0
    45bc:	c6 85 0b ed ff ff d3 	mov    BYTE PTR [rbp-0x12f5],0xd3
    45c3:	c6 85 0c ed ff ff 94 	mov    BYTE PTR [rbp-0x12f4],0x94
    45ca:	c6 85 0d ed ff ff f0 	mov    BYTE PTR [rbp-0x12f3],0xf0
    45d1:	c6 85 0e ed ff ff 74 	mov    BYTE PTR [rbp-0x12f2],0x74
    45d8:	c6 85 0f ed ff ff 80 	mov    BYTE PTR [rbp-0x12f1],0x80
    45df:	c6 85 10 ed ff ff 94 	mov    BYTE PTR [rbp-0x12f0],0x94
    45e6:	c6 85 11 ed ff ff 80 	mov    BYTE PTR [rbp-0x12ef],0x80
    45ed:	c6 85 12 ed ff ff 40 	mov    BYTE PTR [rbp-0x12ee],0x40
    45f4:	c6 85 13 ed ff ff 67 	mov    BYTE PTR [rbp-0x12ed],0x67
    45fb:	c6 85 14 ed ff ff a3 	mov    BYTE PTR [rbp-0x12ec],0xa3
    4602:	c6 85 15 ed ff ff 74 	mov    BYTE PTR [rbp-0x12eb],0x74
    4609:	c6 85 16 ed ff ff 01 	mov    BYTE PTR [rbp-0x12ea],0x1
    4610:	c6 85 17 ed ff ff f0 	mov    BYTE PTR [rbp-0x12e9],0xf0
    4617:	c6 85 18 ed ff ff 90 	mov    BYTE PTR [rbp-0x12e8],0x90
    461e:	c6 85 19 ed ff ff 06 	mov    BYTE PTR [rbp-0x12e7],0x6
    4625:	c6 85 1a ed ff ff ac 	mov    BYTE PTR [rbp-0x12e6],0xac
    462c:	c6 85 1b ed ff ff e0 	mov    BYTE PTR [rbp-0x12e5],0xe0
    4633:	c6 85 1c ed ff ff 90 	mov    BYTE PTR [rbp-0x12e4],0x90
    463a:	c6 85 1d ed ff ff 04 	mov    BYTE PTR [rbp-0x12e3],0x4
    4641:	c6 85 1e ed ff ff 64 	mov    BYTE PTR [rbp-0x12e2],0x64
    4648:	c6 85 1f ed ff ff f0 	mov    BYTE PTR [rbp-0x12e1],0xf0
    464f:	c6 85 20 ed ff ff 90 	mov    BYTE PTR [rbp-0x12e0],0x90
    4656:	c6 85 21 ed ff ff 06 	mov    BYTE PTR [rbp-0x12df],0x6
    465d:	c6 85 22 ed ff ff ad 	mov    BYTE PTR [rbp-0x12de],0xad
    4664:	c6 85 23 ed ff ff e0 	mov    BYTE PTR [rbp-0x12dd],0xe0
    466b:	c6 85 24 ed ff ff 90 	mov    BYTE PTR [rbp-0x12dc],0x90
    4672:	c6 85 25 ed ff ff 04 	mov    BYTE PTR [rbp-0x12db],0x4
    4679:	c6 85 26 ed ff ff 65 	mov    BYTE PTR [rbp-0x12da],0x65
    4680:	c6 85 27 ed ff ff f0 	mov    BYTE PTR [rbp-0x12d9],0xf0
    4687:	c6 85 28 ed ff ff 90 	mov    BYTE PTR [rbp-0x12d8],0x90
    468e:	c6 85 29 ed ff ff 06 	mov    BYTE PTR [rbp-0x12d7],0x6
    4695:	c6 85 2a ed ff ff ae 	mov    BYTE PTR [rbp-0x12d6],0xae
    469c:	c6 85 2b ed ff ff e0 	mov    BYTE PTR [rbp-0x12d5],0xe0
    46a3:	c6 85 2c ed ff ff 90 	mov    BYTE PTR [rbp-0x12d4],0x90
    46aa:	c6 85 2d ed ff ff 04 	mov    BYTE PTR [rbp-0x12d3],0x4
    46b1:	c6 85 2e ed ff ff 66 	mov    BYTE PTR [rbp-0x12d2],0x66
    46b8:	c6 85 2f ed ff ff f0 	mov    BYTE PTR [rbp-0x12d1],0xf0
    46bf:	c6 85 30 ed ff ff 90 	mov    BYTE PTR [rbp-0x12d0],0x90
    46c6:	c6 85 31 ed ff ff 06 	mov    BYTE PTR [rbp-0x12cf],0x6
    46cd:	c6 85 32 ed ff ff af 	mov    BYTE PTR [rbp-0x12ce],0xaf
    46d4:	c6 85 33 ed ff ff e0 	mov    BYTE PTR [rbp-0x12cd],0xe0
    46db:	c6 85 34 ed ff ff 90 	mov    BYTE PTR [rbp-0x12cc],0x90
    46e2:	c6 85 35 ed ff ff 04 	mov    BYTE PTR [rbp-0x12cb],0x4
    46e9:	c6 85 36 ed ff ff 67 	mov    BYTE PTR [rbp-0x12ca],0x67
    46f0:	c6 85 37 ed ff ff f0 	mov    BYTE PTR [rbp-0x12c9],0xf0
    46f7:	c6 85 38 ed ff ff 80 	mov    BYTE PTR [rbp-0x12c8],0x80
    46fe:	c6 85 39 ed ff ff 41 	mov    BYTE PTR [rbp-0x12c7],0x41
    4705:	c6 85 3a ed ff ff 90 	mov    BYTE PTR [rbp-0x12c6],0x90
    470c:	c6 85 3b ed ff ff 04 	mov    BYTE PTR [rbp-0x12c5],0x4
    4713:	c6 85 3c ed ff ff 64 	mov    BYTE PTR [rbp-0x12c4],0x64
    471a:	c6 85 3d ed ff ff e0 	mov    BYTE PTR [rbp-0x12c3],0xe0
    4721:	c6 85 3e ed ff ff 90 	mov    BYTE PTR [rbp-0x12c2],0x90
    4728:	c6 85 3f ed ff ff 06 	mov    BYTE PTR [rbp-0x12c1],0x6
    472f:	c6 85 40 ed ff ff b8 	mov    BYTE PTR [rbp-0x12c0],0xb8
    4736:	c6 85 41 ed ff ff f0 	mov    BYTE PTR [rbp-0x12bf],0xf0
    473d:	c6 85 42 ed ff ff 90 	mov    BYTE PTR [rbp-0x12be],0x90
    4744:	c6 85 43 ed ff ff 04 	mov    BYTE PTR [rbp-0x12bd],0x4
    474b:	c6 85 44 ed ff ff 65 	mov    BYTE PTR [rbp-0x12bc],0x65
    4752:	c6 85 45 ed ff ff e0 	mov    BYTE PTR [rbp-0x12bb],0xe0
    4759:	c6 85 46 ed ff ff 90 	mov    BYTE PTR [rbp-0x12ba],0x90
    4760:	c6 85 47 ed ff ff 06 	mov    BYTE PTR [rbp-0x12b9],0x6
    4767:	c6 85 48 ed ff ff b9 	mov    BYTE PTR [rbp-0x12b8],0xb9
    476e:	c6 85 49 ed ff ff f0 	mov    BYTE PTR [rbp-0x12b7],0xf0
    4775:	c6 85 4a ed ff ff 90 	mov    BYTE PTR [rbp-0x12b6],0x90
    477c:	c6 85 4b ed ff ff 04 	mov    BYTE PTR [rbp-0x12b5],0x4
    4783:	c6 85 4c ed ff ff 66 	mov    BYTE PTR [rbp-0x12b4],0x66
    478a:	c6 85 4d ed ff ff e0 	mov    BYTE PTR [rbp-0x12b3],0xe0
    4791:	c6 85 4e ed ff ff 90 	mov    BYTE PTR [rbp-0x12b2],0x90
    4798:	48 8d 95 40 eb ff ff 	lea    rdx,[rbp-0x14c0]
    479f:	b8 00 00 00 00       	mov    eax,0x0
    47a4:	b9 21 00 00 00       	mov    ecx,0x21
    47a9:	48 89 d7             	mov    rdi,rdx
    47ac:	f3 48 ab             	rep stos QWORD PTR es:[rdi],rax
    47af:	48 89 fa             	mov    rdx,rdi
    47b2:	89 02                	mov    DWORD PTR [rdx],eax
    47b4:	48 83 c2 04          	add    rdx,0x4
    47b8:	66 89 02             	mov    WORD PTR [rdx],ax
    47bb:	48 83 c2 02          	add    rdx,0x2
    47bf:	c6 85 41 eb ff ff 58 	mov    BYTE PTR [rbp-0x14bf],0x58
    47c6:	c6 85 42 eb ff ff 88 	mov    BYTE PTR [rbp-0x14be],0x88
    47cd:	c6 85 43 eb ff ff f9 	mov    BYTE PTR [rbp-0x14bd],0xf9
    47d4:	c6 85 44 eb ff ff ff 	mov    BYTE PTR [rbp-0x14bc],0xff
    47db:	48 8d 95 30 ea ff ff 	lea    rdx,[rbp-0x15d0]
    47e2:	b8 00 00 00 00       	mov    eax,0x0
    47e7:	b9 21 00 00 00       	mov    ecx,0x21
    47ec:	48 89 d7             	mov    rdi,rdx
    47ef:	f3 48 ab             	rep stos QWORD PTR es:[rdi],rax
    47f2:	48 89 fa             	mov    rdx,rdi
    47f5:	89 02                	mov    DWORD PTR [rdx],eax
    47f7:	48 83 c2 04          	add    rdx,0x4
    47fb:	66 89 02             	mov    WORD PTR [rdx],ax
    47fe:	48 83 c2 02          	add    rdx,0x2
    4802:	c6 85 30 ea ff ff 06 	mov    BYTE PTR [rbp-0x15d0],0x6
    4809:	c6 85 31 ea ff ff ba 	mov    BYTE PTR [rbp-0x15cf],0xba
    4810:	c6 85 32 ea ff ff f0 	mov    BYTE PTR [rbp-0x15ce],0xf0
    4817:	c6 85 33 ea ff ff 90 	mov    BYTE PTR [rbp-0x15cd],0x90
    481e:	c6 85 34 ea ff ff 04 	mov    BYTE PTR [rbp-0x15cc],0x4
    4825:	c6 85 35 ea ff ff 67 	mov    BYTE PTR [rbp-0x15cb],0x67
    482c:	c6 85 36 ea ff ff e0 	mov    BYTE PTR [rbp-0x15ca],0xe0
    4833:	c6 85 37 ea ff ff 90 	mov    BYTE PTR [rbp-0x15c9],0x90
    483a:	c6 85 38 ea ff ff 06 	mov    BYTE PTR [rbp-0x15c8],0x6
    4841:	c6 85 39 ea ff ff bb 	mov    BYTE PTR [rbp-0x15c7],0xbb
    4848:	c6 85 3a ea ff ff f0 	mov    BYTE PTR [rbp-0x15c6],0xf0
    484f:	c6 85 3b ea ff ff 90 	mov    BYTE PTR [rbp-0x15c5],0x90
    4856:	c6 85 3c ea ff ff 06 	mov    BYTE PTR [rbp-0x15c4],0x6
    485d:	c6 85 3d ea ff ff b8 	mov    BYTE PTR [rbp-0x15c3],0xb8
    4864:	c6 85 3e ea ff ff 12 	mov    BYTE PTR [rbp-0x15c2],0x12
    486b:	c6 85 3f ea ff ff 14 	mov    BYTE PTR [rbp-0x15c1],0x14
    4872:	c6 85 40 ea ff ff 73 	mov    BYTE PTR [rbp-0x15c0],0x73
    4879:	c6 85 41 ea ff ff 12 	mov    BYTE PTR [rbp-0x15bf],0x12
    4880:	c6 85 42 ea ff ff 19 	mov    BYTE PTR [rbp-0x15be],0x19
    4887:	c6 85 43 ea ff ff 94 	mov    BYTE PTR [rbp-0x15bd],0x94
    488e:	c6 85 44 ea ff ff 12 	mov    BYTE PTR [rbp-0x15bc],0x12
    4895:	c6 85 45 ea ff ff 14 	mov    BYTE PTR [rbp-0x15bb],0x14
    489c:	c6 85 46 ea ff ff 32 	mov    BYTE PTR [rbp-0x15ba],0x32
    48a3:	c6 85 47 ea ff ff 7b 	mov    BYTE PTR [rbp-0x15b9],0x7b
    48aa:	c6 85 48 ea ff ff 80 	mov    BYTE PTR [rbp-0x15b8],0x80
    48b1:	c6 85 49 ea ff ff 7a 	mov    BYTE PTR [rbp-0x15b7],0x7a
    48b8:	c6 85 4a ea ff ff 3a 	mov    BYTE PTR [rbp-0x15b6],0x3a
    48bf:	c6 85 4b ea ff ff 79 	mov    BYTE PTR [rbp-0x15b5],0x79
    48c6:	c6 85 4c ea ff ff 09 	mov    BYTE PTR [rbp-0x15b4],0x9
    48cd:	c6 85 4d ea ff ff 78 	mov    BYTE PTR [rbp-0x15b3],0x78
    48d4:	c6 85 4f ea ff ff c3 	mov    BYTE PTR [rbp-0x15b1],0xc3
    48db:	c6 85 50 ea ff ff 12 	mov    BYTE PTR [rbp-0x15b0],0x12
    48e2:	c6 85 51 ea ff ff 14 	mov    BYTE PTR [rbp-0x15af],0x14
    48e9:	c6 85 52 ea ff ff 56 	mov    BYTE PTR [rbp-0x15ae],0x56
    48f0:	c6 85 53 ea ff ff 50 	mov    BYTE PTR [rbp-0x15ad],0x50
    48f7:	c6 85 54 ea ff ff 07 	mov    BYTE PTR [rbp-0x15ac],0x7
    48fe:	c6 85 55 ea ff ff e4 	mov    BYTE PTR [rbp-0x15ab],0xe4
    4905:	c6 85 56 ea ff ff 90 	mov    BYTE PTR [rbp-0x15aa],0x90
    490c:	c6 85 57 ea ff ff 04 	mov    BYTE PTR [rbp-0x15a9],0x4
    4913:	c6 85 58 ea ff ff 62 	mov    BYTE PTR [rbp-0x15a8],0x62
    491a:	c6 85 59 ea ff ff f0 	mov    BYTE PTR [rbp-0x15a7],0xf0
    4921:	c6 85 5a ea ff ff a3 	mov    BYTE PTR [rbp-0x15a6],0xa3
    4928:	c6 85 5b ea ff ff f0 	mov    BYTE PTR [rbp-0x15a5],0xf0
    492f:	c6 85 5c ea ff ff 12 	mov    BYTE PTR [rbp-0x15a4],0x12
    4936:	c6 85 5d ea ff ff 19 	mov    BYTE PTR [rbp-0x15a3],0x19
    493d:	c6 85 5e ea ff ff 1c 	mov    BYTE PTR [rbp-0x15a2],0x1c
    4944:	c6 85 5f ea ff ff 7f 	mov    BYTE PTR [rbp-0x15a1],0x7f
    494b:	c6 85 61 ea ff ff 7e 	mov    BYTE PTR [rbp-0x159f],0x7e
    4952:	c6 85 62 ea ff ff 70 	mov    BYTE PTR [rbp-0x159e],0x70
    4959:	c6 85 63 ea ff ff 12 	mov    BYTE PTR [rbp-0x159d],0x12
    4960:	c6 85 64 ea ff ff 10 	mov    BYTE PTR [rbp-0x159c],0x10
    4967:	c6 85 65 ea ff ff 42 	mov    BYTE PTR [rbp-0x159b],0x42
    496e:	c6 85 66 ea ff ff 90 	mov    BYTE PTR [rbp-0x159a],0x90
    4975:	c6 85 67 ea ff ff 04 	mov    BYTE PTR [rbp-0x1599],0x4
    497c:	c6 85 68 ea ff ff 48 	mov    BYTE PTR [rbp-0x1598],0x48
    4983:	c6 85 69 ea ff ff e0 	mov    BYTE PTR [rbp-0x1597],0xe0
    498a:	c6 85 6a ea ff ff 90 	mov    BYTE PTR [rbp-0x1596],0x90
    4991:	c6 85 6b ea ff ff 06 	mov    BYTE PTR [rbp-0x1595],0x6
    4998:	c6 85 6c ea ff ff b0 	mov    BYTE PTR [rbp-0x1594],0xb0
    499f:	c6 85 6d ea ff ff f0 	mov    BYTE PTR [rbp-0x1593],0xf0
    49a6:	c6 85 6e ea ff ff 90 	mov    BYTE PTR [rbp-0x1592],0x90
    49ad:	c6 85 6f ea ff ff 04 	mov    BYTE PTR [rbp-0x1591],0x4
    49b4:	c6 85 70 ea ff ff 49 	mov    BYTE PTR [rbp-0x1590],0x49
    49bb:	c6 85 71 ea ff ff e0 	mov    BYTE PTR [rbp-0x158f],0xe0
    49c2:	c6 85 72 ea ff ff 90 	mov    BYTE PTR [rbp-0x158e],0x90
    49c9:	c6 85 73 ea ff ff 06 	mov    BYTE PTR [rbp-0x158d],0x6
    49d0:	c6 85 74 ea ff ff b1 	mov    BYTE PTR [rbp-0x158c],0xb1
    49d7:	c6 85 75 ea ff ff f0 	mov    BYTE PTR [rbp-0x158b],0xf0
    49de:	c6 85 76 ea ff ff 90 	mov    BYTE PTR [rbp-0x158a],0x90
    49e5:	c6 85 77 ea ff ff 04 	mov    BYTE PTR [rbp-0x1589],0x4
    49ec:	c6 85 78 ea ff ff 4a 	mov    BYTE PTR [rbp-0x1588],0x4a
    49f3:	c6 85 79 ea ff ff e0 	mov    BYTE PTR [rbp-0x1587],0xe0
    49fa:	c6 85 7a ea ff ff 90 	mov    BYTE PTR [rbp-0x1586],0x90
    4a01:	c6 85 7b ea ff ff 06 	mov    BYTE PTR [rbp-0x1585],0x6
    4a08:	c6 85 7c ea ff ff b2 	mov    BYTE PTR [rbp-0x1584],0xb2
    4a0f:	c6 85 7d ea ff ff f0 	mov    BYTE PTR [rbp-0x1583],0xf0
    4a16:	c6 85 7e ea ff ff 90 	mov    BYTE PTR [rbp-0x1582],0x90
    4a1d:	c6 85 7f ea ff ff 04 	mov    BYTE PTR [rbp-0x1581],0x4
    4a24:	c6 85 80 ea ff ff 4b 	mov    BYTE PTR [rbp-0x1580],0x4b
    4a2b:	c6 85 81 ea ff ff e0 	mov    BYTE PTR [rbp-0x157f],0xe0
    4a32:	c6 85 82 ea ff ff 90 	mov    BYTE PTR [rbp-0x157e],0x90
    4a39:	c6 85 83 ea ff ff 06 	mov    BYTE PTR [rbp-0x157d],0x6
    4a40:	c6 85 84 ea ff ff b3 	mov    BYTE PTR [rbp-0x157c],0xb3
    4a47:	c6 85 85 ea ff ff f0 	mov    BYTE PTR [rbp-0x157b],0xf0
    4a4e:	c6 85 86 ea ff ff 90 	mov    BYTE PTR [rbp-0x157a],0x90
    4a55:	c6 85 87 ea ff ff 04 	mov    BYTE PTR [rbp-0x1579],0x4
    4a5c:	c6 85 88 ea ff ff 4c 	mov    BYTE PTR [rbp-0x1578],0x4c
    4a63:	c6 85 89 ea ff ff e0 	mov    BYTE PTR [rbp-0x1577],0xe0
    4a6a:	c6 85 8a ea ff ff 90 	mov    BYTE PTR [rbp-0x1576],0x90
    4a71:	c6 85 8b ea ff ff 06 	mov    BYTE PTR [rbp-0x1575],0x6
    4a78:	c6 85 8c ea ff ff b4 	mov    BYTE PTR [rbp-0x1574],0xb4
    4a7f:	c6 85 8d ea ff ff f0 	mov    BYTE PTR [rbp-0x1573],0xf0
    4a86:	c6 85 8e ea ff ff 90 	mov    BYTE PTR [rbp-0x1572],0x90
    4a8d:	c6 85 8f ea ff ff 04 	mov    BYTE PTR [rbp-0x1571],0x4
    4a94:	c6 85 90 ea ff ff 4d 	mov    BYTE PTR [rbp-0x1570],0x4d
    4a9b:	c6 85 91 ea ff ff e0 	mov    BYTE PTR [rbp-0x156f],0xe0
    4aa2:	c6 85 92 ea ff ff 90 	mov    BYTE PTR [rbp-0x156e],0x90
    4aa9:	c6 85 93 ea ff ff 06 	mov    BYTE PTR [rbp-0x156d],0x6
    4ab0:	c6 85 94 ea ff ff b5 	mov    BYTE PTR [rbp-0x156c],0xb5
    4ab7:	c6 85 95 ea ff ff f0 	mov    BYTE PTR [rbp-0x156b],0xf0
    4abe:	c6 85 96 ea ff ff 90 	mov    BYTE PTR [rbp-0x156a],0x90
    4ac5:	c6 85 97 ea ff ff 04 	mov    BYTE PTR [rbp-0x1569],0x4
    4acc:	c6 85 98 ea ff ff 4e 	mov    BYTE PTR [rbp-0x1568],0x4e
    4ad3:	c6 85 99 ea ff ff e0 	mov    BYTE PTR [rbp-0x1567],0xe0
    4ada:	c6 85 9a ea ff ff 90 	mov    BYTE PTR [rbp-0x1566],0x90
    4ae1:	c6 85 9b ea ff ff 06 	mov    BYTE PTR [rbp-0x1565],0x6
    4ae8:	c6 85 9c ea ff ff b6 	mov    BYTE PTR [rbp-0x1564],0xb6
    4aef:	c6 85 9d ea ff ff f0 	mov    BYTE PTR [rbp-0x1563],0xf0
    4af6:	c6 85 9e ea ff ff 90 	mov    BYTE PTR [rbp-0x1562],0x90
    4afd:	c6 85 9f ea ff ff 04 	mov    BYTE PTR [rbp-0x1561],0x4
    4b04:	c6 85 a0 ea ff ff 4f 	mov    BYTE PTR [rbp-0x1560],0x4f
    4b0b:	c6 85 a1 ea ff ff e0 	mov    BYTE PTR [rbp-0x155f],0xe0
    4b12:	c6 85 a2 ea ff ff 90 	mov    BYTE PTR [rbp-0x155e],0x90
    4b19:	c6 85 a3 ea ff ff 06 	mov    BYTE PTR [rbp-0x155d],0x6
    4b20:	c6 85 a4 ea ff ff b7 	mov    BYTE PTR [rbp-0x155c],0xb7
    4b27:	c6 85 a5 ea ff ff f0 	mov    BYTE PTR [rbp-0x155b],0xf0
    4b2e:	c6 85 a6 ea ff ff 12 	mov    BYTE PTR [rbp-0x155a],0x12
    4b35:	c6 85 a7 ea ff ff 19 	mov    BYTE PTR [rbp-0x1559],0x19
    4b3c:	c6 85 a8 ea ff ff 9a 	mov    BYTE PTR [rbp-0x1558],0x9a
    4b43:	c6 85 a9 ea ff ff 12 	mov    BYTE PTR [rbp-0x1557],0x12
    4b4a:	c6 85 aa ea ff ff 19 	mov    BYTE PTR [rbp-0x1556],0x19
    4b51:	c6 85 ab ea ff ff 5a 	mov    BYTE PTR [rbp-0x1555],0x5a
    4b58:	c6 85 ac ea ff ff 50 	mov    BYTE PTR [rbp-0x1554],0x50
    4b5f:	c6 85 ad ea ff ff 05 	mov    BYTE PTR [rbp-0x1553],0x5
    4b66:	c6 85 ae ea ff ff 12 	mov    BYTE PTR [rbp-0x1552],0x12
    4b6d:	c6 85 af ea ff ff 18 	mov    BYTE PTR [rbp-0x1551],0x18
    4b74:	c6 85 b0 ea ff ff f9 	mov    BYTE PTR [rbp-0x1550],0xf9
    4b7b:	c6 85 b1 ea ff ff 80 	mov    BYTE PTR [rbp-0x154f],0x80
    4b82:	c6 85 b2 ea ff ff f6 	mov    BYTE PTR [rbp-0x154e],0xf6
    4b89:	c6 85 b3 ea ff ff 90 	mov    BYTE PTR [rbp-0x154d],0x90
    4b90:	c6 85 b4 ea ff ff 04 	mov    BYTE PTR [rbp-0x154c],0x4
    4b97:	c6 85 b5 ea ff ff 63 	mov    BYTE PTR [rbp-0x154b],0x63
    4b9e:	c6 85 b6 ea ff ff e0 	mov    BYTE PTR [rbp-0x154a],0xe0
    4ba5:	c6 85 b7 ea ff ff 60 	mov    BYTE PTR [rbp-0x1549],0x60
    4bac:	c6 85 b8 ea ff ff 07 	mov    BYTE PTR [rbp-0x1548],0x7
    4bb3:	c6 85 b9 ea ff ff 64 	mov    BYTE PTR [rbp-0x1547],0x64
    4bba:	c6 85 ba ea ff ff ca 	mov    BYTE PTR [rbp-0x1546],0xca
    4bc1:	c6 85 bb ea ff ff 60 	mov    BYTE PTR [rbp-0x1545],0x60
    4bc8:	c6 85 bc ea ff ff 03 	mov    BYTE PTR [rbp-0x1544],0x3
    4bcf:	c6 85 bd ea ff ff 02 	mov    BYTE PTR [rbp-0x1543],0x2
    4bd6:	c6 85 be ea ff ff 0a 	mov    BYTE PTR [rbp-0x1542],0xa
    4bdd:	c6 85 bf ea ff ff db 	mov    BYTE PTR [rbp-0x1541],0xdb
    4be4:	c6 85 c0 ea ff ff 90 	mov    BYTE PTR [rbp-0x1540],0x90
    4beb:	c6 85 c1 ea ff ff 02 	mov    BYTE PTR [rbp-0x153f],0x2
    4bf2:	c6 85 c2 ea ff ff 45 	mov    BYTE PTR [rbp-0x153e],0x45
    4bf9:	c6 85 c3 ea ff ff e0 	mov    BYTE PTR [rbp-0x153d],0xe0
    4c00:	c6 85 c4 ea ff ff ff 	mov    BYTE PTR [rbp-0x153c],0xff
    4c07:	c6 85 c5 ea ff ff 90 	mov    BYTE PTR [rbp-0x153b],0x90
    4c0e:	c6 85 c6 ea ff ff 02 	mov    BYTE PTR [rbp-0x153a],0x2
    4c15:	c6 85 c7 ea ff ff 07 	mov    BYTE PTR [rbp-0x1539],0x7
    4c1c:	c6 85 c8 ea ff ff e0 	mov    BYTE PTR [rbp-0x1538],0xe0
    4c23:	c6 85 c9 ea ff ff 6f 	mov    BYTE PTR [rbp-0x1537],0x6f
    4c2a:	c6 85 ca ea ff ff 60 	mov    BYTE PTR [rbp-0x1536],0x60
    4c31:	c6 85 cb ea ff ff 03 	mov    BYTE PTR [rbp-0x1535],0x3
    4c38:	c6 85 cc ea ff ff 02 	mov    BYTE PTR [rbp-0x1534],0x2
    4c3f:	c6 85 cd ea ff ff 0a 	mov    BYTE PTR [rbp-0x1533],0xa
    4c46:	c6 85 ce ea ff ff db 	mov    BYTE PTR [rbp-0x1532],0xdb
    4c4d:	c6 85 cf ea ff ff 12 	mov    BYTE PTR [rbp-0x1531],0x12
    4c54:	c6 85 d0 ea ff ff 19 	mov    BYTE PTR [rbp-0x1530],0x19
    4c5b:	c6 85 d1 ea ff ff 94 	mov    BYTE PTR [rbp-0x152f],0x94
    4c62:	c6 85 d2 ea ff ff 90 	mov    BYTE PTR [rbp-0x152e],0x90
    4c69:	c6 85 d3 ea ff ff 06 	mov    BYTE PTR [rbp-0x152d],0x6
    4c70:	c6 85 d4 ea ff ff b0 	mov    BYTE PTR [rbp-0x152c],0xb0
    4c77:	c6 85 d5 ea ff ff 12 	mov    BYTE PTR [rbp-0x152b],0x12
    4c7e:	c6 85 d6 ea ff ff 14 	mov    BYTE PTR [rbp-0x152a],0x14
    4c85:	c6 85 d7 ea ff ff 73 	mov    BYTE PTR [rbp-0x1529],0x73
    4c8c:	c6 85 d8 ea ff ff c3 	mov    BYTE PTR [rbp-0x1528],0xc3
    4c93:	c6 85 d9 ea ff ff 12 	mov    BYTE PTR [rbp-0x1527],0x12
    4c9a:	c6 85 da ea ff ff 14 	mov    BYTE PTR [rbp-0x1526],0x14
    4ca1:	c6 85 db ea ff ff 56 	mov    BYTE PTR [rbp-0x1525],0x56
    4ca8:	c6 85 dc ea ff ff 40 	mov    BYTE PTR [rbp-0x1524],0x40
    4caf:	c6 85 dd ea ff ff 03 	mov    BYTE PTR [rbp-0x1523],0x3
    4cb6:	c6 85 de ea ff ff 02 	mov    BYTE PTR [rbp-0x1522],0x2
    4cbd:	c6 85 df ea ff ff 0a 	mov    BYTE PTR [rbp-0x1521],0xa
    4cc4:	c6 85 e0 ea ff ff db 	mov    BYTE PTR [rbp-0x1520],0xdb
    4ccb:	c6 85 e1 ea ff ff 12 	mov    BYTE PTR [rbp-0x151f],0x12
    4cd2:	c6 85 e2 ea ff ff 19 	mov    BYTE PTR [rbp-0x151e],0x19
    4cd9:	c6 85 e3 ea ff ff 94 	mov    BYTE PTR [rbp-0x151d],0x94
    4ce0:	c6 85 e4 ea ff ff 90 	mov    BYTE PTR [rbp-0x151c],0x90
    4ce7:	c6 85 e5 ea ff ff 06 	mov    BYTE PTR [rbp-0x151b],0x6
    4cee:	c6 85 e6 ea ff ff b4 	mov    BYTE PTR [rbp-0x151a],0xb4
    4cf5:	c6 85 e7 ea ff ff 12 	mov    BYTE PTR [rbp-0x1519],0x12
    4cfc:	c6 85 e8 ea ff ff 14 	mov    BYTE PTR [rbp-0x1518],0x14
    4d03:	c6 85 e9 ea ff ff 73 	mov    BYTE PTR [rbp-0x1517],0x73
    4d0a:	c6 85 ea ea ff ff d3 	mov    BYTE PTR [rbp-0x1516],0xd3
    4d11:	c6 85 eb ea ff ff 12 	mov    BYTE PTR [rbp-0x1515],0x12
    4d18:	c6 85 ec ea ff ff 14 	mov    BYTE PTR [rbp-0x1514],0x14
    4d1f:	c6 85 ed ea ff ff 56 	mov    BYTE PTR [rbp-0x1513],0x56
    4d26:	c6 85 ee ea ff ff 50 	mov    BYTE PTR [rbp-0x1512],0x50
    4d2d:	c6 85 ef ea ff ff 03 	mov    BYTE PTR [rbp-0x1511],0x3
    4d34:	c6 85 f0 ea ff ff 02 	mov    BYTE PTR [rbp-0x1510],0x2
    4d3b:	c6 85 f1 ea ff ff 0a 	mov    BYTE PTR [rbp-0x150f],0xa
    4d42:	c6 85 f2 ea ff ff db 	mov    BYTE PTR [rbp-0x150e],0xdb
    4d49:	c6 85 f3 ea ff ff 90 	mov    BYTE PTR [rbp-0x150d],0x90
    4d50:	c6 85 f4 ea ff ff 02 	mov    BYTE PTR [rbp-0x150c],0x2
    4d57:	c6 85 f5 ea ff ff 2a 	mov    BYTE PTR [rbp-0x150b],0x2a
    4d5e:	c6 85 f6 ea ff ff e0 	mov    BYTE PTR [rbp-0x150a],0xe0
    4d65:	c6 85 f7 ea ff ff ff 	mov    BYTE PTR [rbp-0x1509],0xff
    4d6c:	c6 85 f8 ea ff ff 90 	mov    BYTE PTR [rbp-0x1508],0x90
    4d73:	c6 85 f9 ea ff ff 04 	mov    BYTE PTR [rbp-0x1507],0x4
    4d7a:	c6 85 fa ea ff ff 50 	mov    BYTE PTR [rbp-0x1506],0x50
    4d81:	c6 85 fb ea ff ff e0 	mov    BYTE PTR [rbp-0x1505],0xe0
    4d88:	c6 85 fc ea ff ff 5f 	mov    BYTE PTR [rbp-0x1504],0x5f
    4d8f:	c6 85 fd ea ff ff d3 	mov    BYTE PTR [rbp-0x1503],0xd3
    4d96:	c6 85 fe ea ff ff 12 	mov    BYTE PTR [rbp-0x1502],0x12
    4d9d:	c6 85 ff ea ff ff 19 	mov    BYTE PTR [rbp-0x1501],0x19
    4da4:	c6 85 00 eb ff ff 15 	mov    BYTE PTR [rbp-0x1500],0x15
    4dab:	c6 85 01 eb ff ff 50 	mov    BYTE PTR [rbp-0x14ff],0x50
    4db2:	c6 85 02 eb ff ff 28 	mov    BYTE PTR [rbp-0x14fe],0x28
    4db9:	c6 85 03 eb ff ff 90 	mov    BYTE PTR [rbp-0x14fd],0x90
    4dc0:	c6 85 04 eb ff ff 02 	mov    BYTE PTR [rbp-0x14fc],0x2
    4dc7:	c6 85 05 eb ff ff 2b 	mov    BYTE PTR [rbp-0x14fb],0x2b
    4dce:	c6 85 06 eb ff ff e0 	mov    BYTE PTR [rbp-0x14fa],0xe0
    4dd5:	c6 85 07 eb ff ff 90 	mov    BYTE PTR [rbp-0x14f9],0x90
    4ddc:	c6 85 08 eb ff ff 04 	mov    BYTE PTR [rbp-0x14f8],0x4
    4de3:	c6 85 09 eb ff ff 51 	mov    BYTE PTR [rbp-0x14f7],0x51
    4dea:	c6 85 0a eb ff ff 12 	mov    BYTE PTR [rbp-0x14f6],0x12
    4df1:	c6 85 0b eb ff ff 19 	mov    BYTE PTR [rbp-0x14f5],0x19
    4df8:	c6 85 0c eb ff ff 12 	mov    BYTE PTR [rbp-0x14f4],0x12
    4dff:	c6 85 0d eb ff ff 50 	mov    BYTE PTR [rbp-0x14f3],0x50
    4e06:	c6 85 0e eb ff ff 1c 	mov    BYTE PTR [rbp-0x14f2],0x1c
    4e0d:	c6 85 0f eb ff ff 90 	mov    BYTE PTR [rbp-0x14f1],0x90
    4e14:	c6 85 10 eb ff ff 02 	mov    BYTE PTR [rbp-0x14f0],0x2
    4e1b:	c6 85 11 eb ff ff 2c 	mov    BYTE PTR [rbp-0x14ef],0x2c
    4e22:	c6 85 12 eb ff ff e0 	mov    BYTE PTR [rbp-0x14ee],0xe0
    4e29:	c6 85 13 eb ff ff 90 	mov    BYTE PTR [rbp-0x14ed],0x90
    4e30:	c6 85 14 eb ff ff 04 	mov    BYTE PTR [rbp-0x14ec],0x4
    4e37:	c6 85 15 eb ff ff 52 	mov    BYTE PTR [rbp-0x14eb],0x52
    4e3e:	c6 85 16 eb ff ff 12 	mov    BYTE PTR [rbp-0x14ea],0x12
    4e45:	c6 85 17 eb ff ff 19 	mov    BYTE PTR [rbp-0x14e9],0x19
    4e4c:	c6 85 18 eb ff ff 12 	mov    BYTE PTR [rbp-0x14e8],0x12
    4e53:	c6 85 19 eb ff ff 50 	mov    BYTE PTR [rbp-0x14e7],0x50
    4e5a:	c6 85 1a eb ff ff 10 	mov    BYTE PTR [rbp-0x14e6],0x10
    4e61:	c6 85 1b eb ff ff 90 	mov    BYTE PTR [rbp-0x14e5],0x90
    4e68:	c6 85 1c eb ff ff 02 	mov    BYTE PTR [rbp-0x14e4],0x2
    4e6f:	c6 85 1d eb ff ff 2d 	mov    BYTE PTR [rbp-0x14e3],0x2d
    4e76:	c6 85 1e eb ff ff e0 	mov    BYTE PTR [rbp-0x14e2],0xe0
    4e7d:	c6 85 1f eb ff ff ff 	mov    BYTE PTR [rbp-0x14e1],0xff
    4e84:	c6 85 20 eb ff ff 90 	mov    BYTE PTR [rbp-0x14e0],0x90
    4e8b:	c6 85 21 eb ff ff 04 	mov    BYTE PTR [rbp-0x14df],0x4
    4e92:	c6 85 22 eb ff ff 53 	mov    BYTE PTR [rbp-0x14de],0x53
    4e99:	c6 85 23 eb ff ff 12 	mov    BYTE PTR [rbp-0x14dd],0x12
    4ea0:	c6 85 24 eb ff ff 19 	mov    BYTE PTR [rbp-0x14dc],0x19
    4ea7:	c6 85 25 eb ff ff 13 	mov    BYTE PTR [rbp-0x14db],0x13
    4eae:	c6 85 26 eb ff ff 50 	mov    BYTE PTR [rbp-0x14da],0x50
    4eb5:	c6 85 27 eb ff ff 03 	mov    BYTE PTR [rbp-0x14d9],0x3
    4ebc:	c6 85 28 eb ff ff 02 	mov    BYTE PTR [rbp-0x14d8],0x2
    4ec3:	c6 85 29 eb ff ff 0a 	mov    BYTE PTR [rbp-0x14d7],0xa
    4eca:	c6 85 2a eb ff ff db 	mov    BYTE PTR [rbp-0x14d6],0xdb
    4ed1:	c6 85 2b eb ff ff 90 	mov    BYTE PTR [rbp-0x14d5],0x90
    4ed8:	c6 85 2c eb ff ff 04 	mov    BYTE PTR [rbp-0x14d4],0x4
    4edf:	c6 85 2d eb ff ff 58 	mov    BYTE PTR [rbp-0x14d3],0x58
    4ee6:	c6 85 2e eb ff ff e0 	mov    BYTE PTR [rbp-0x14d2],0xe0
    4eed:	48 8d 95 20 e9 ff ff 	lea    rdx,[rbp-0x16e0]
    4ef4:	b8 00 00 00 00       	mov    eax,0x0
    4ef9:	b9 21 00 00 00       	mov    ecx,0x21
    4efe:	48 89 d7             	mov    rdi,rdx
    4f01:	f3 48 ab             	rep stos QWORD PTR es:[rdi],rax
    4f04:	48 89 fa             	mov    rdx,rdi
    4f07:	89 02                	mov    DWORD PTR [rdx],eax
    4f09:	48 83 c2 04          	add    rdx,0x4
    4f0d:	66 89 02             	mov    WORD PTR [rdx],ax
    4f10:	48 83 c2 02          	add    rdx,0x2
    4f14:	c6 85 21 e9 ff ff 58 	mov    BYTE PTR [rbp-0x16df],0x58
    4f1b:	c6 85 22 e9 ff ff 89 	mov    BYTE PTR [rbp-0x16de],0x89
    4f22:	c6 85 23 e9 ff ff f8 	mov    BYTE PTR [rbp-0x16dd],0xf8
    4f29:	c6 85 24 e9 ff ff ff 	mov    BYTE PTR [rbp-0x16dc],0xff
    4f30:	48 8d 95 10 e8 ff ff 	lea    rdx,[rbp-0x17f0]
    4f37:	b8 00 00 00 00       	mov    eax,0x0
    4f3c:	b9 21 00 00 00       	mov    ecx,0x21
    4f41:	48 89 d7             	mov    rdi,rdx
    4f44:	f3 48 ab             	rep stos QWORD PTR es:[rdi],rax
    4f47:	48 89 fa             	mov    rdx,rdi
    4f4a:	89 02                	mov    DWORD PTR [rdx],eax
    4f4c:	48 83 c2 04          	add    rdx,0x4
    4f50:	66 89 02             	mov    WORD PTR [rdx],ax
    4f53:	48 83 c2 02          	add    rdx,0x2
    4f57:	c6 85 10 e8 ff ff 60 	mov    BYTE PTR [rbp-0x17f0],0x60
    4f5e:	c6 85 11 e8 ff ff 2d 	mov    BYTE PTR [rbp-0x17ef],0x2d
    4f65:	c6 85 12 e8 ff ff 90 	mov    BYTE PTR [rbp-0x17ee],0x90
    4f6c:	c6 85 13 e8 ff ff 06 	mov    BYTE PTR [rbp-0x17ed],0x6
    4f73:	c6 85 14 e8 ff ff f4 	mov    BYTE PTR [rbp-0x17ec],0xf4
    4f7a:	c6 85 15 e8 ff ff e0 	mov    BYTE PTR [rbp-0x17eb],0xe0
    4f81:	c6 85 16 e8 ff ff ff 	mov    BYTE PTR [rbp-0x17ea],0xff
    4f88:	c6 85 17 e8 ff ff 90 	mov    BYTE PTR [rbp-0x17e9],0x90
    4f8f:	c6 85 18 e8 ff ff 04 	mov    BYTE PTR [rbp-0x17e8],0x4
    4f96:	c6 85 19 e8 ff ff 59 	mov    BYTE PTR [rbp-0x17e7],0x59
    4f9d:	c6 85 1a e8 ff ff e0 	mov    BYTE PTR [rbp-0x17e6],0xe0
    4fa4:	c6 85 1b e8 ff ff 6f 	mov    BYTE PTR [rbp-0x17e5],0x6f
    4fab:	c6 85 1c e8 ff ff 60 	mov    BYTE PTR [rbp-0x17e4],0x60
    4fb2:	c6 85 1d e8 ff ff 03 	mov    BYTE PTR [rbp-0x17e3],0x3
    4fb9:	c6 85 1e e8 ff ff 02 	mov    BYTE PTR [rbp-0x17e2],0x2
    4fc0:	c6 85 1f e8 ff ff 0a 	mov    BYTE PTR [rbp-0x17e1],0xa
    4fc7:	c6 85 20 e8 ff ff db 	mov    BYTE PTR [rbp-0x17e0],0xdb
    4fce:	c6 85 21 e8 ff ff 90 	mov    BYTE PTR [rbp-0x17df],0x90
    4fd5:	c6 85 22 e8 ff ff 06 	mov    BYTE PTR [rbp-0x17de],0x6
    4fdc:	c6 85 23 e8 ff ff f5 	mov    BYTE PTR [rbp-0x17dd],0xf5
    4fe3:	c6 85 24 e8 ff ff e0 	mov    BYTE PTR [rbp-0x17dc],0xe0
    4fea:	c6 85 25 e8 ff ff ff 	mov    BYTE PTR [rbp-0x17db],0xff
    4ff1:	c6 85 26 e8 ff ff 90 	mov    BYTE PTR [rbp-0x17da],0x90
    4ff8:	c6 85 27 e8 ff ff 04 	mov    BYTE PTR [rbp-0x17d9],0x4
    4fff:	c6 85 28 e8 ff ff 5a 	mov    BYTE PTR [rbp-0x17d8],0x5a
    5006:	c6 85 29 e8 ff ff e0 	mov    BYTE PTR [rbp-0x17d7],0xe0
    500d:	c6 85 2a e8 ff ff 6f 	mov    BYTE PTR [rbp-0x17d6],0x6f
    5014:	c6 85 2b e8 ff ff 60 	mov    BYTE PTR [rbp-0x17d5],0x60
    501b:	c6 85 2c e8 ff ff 03 	mov    BYTE PTR [rbp-0x17d4],0x3
    5022:	c6 85 2d e8 ff ff 02 	mov    BYTE PTR [rbp-0x17d3],0x2
    5029:	c6 85 2e e8 ff ff 0a 	mov    BYTE PTR [rbp-0x17d2],0xa
    5030:	c6 85 2f e8 ff ff db 	mov    BYTE PTR [rbp-0x17d1],0xdb
    5037:	c6 85 30 e8 ff ff 90 	mov    BYTE PTR [rbp-0x17d0],0x90
    503e:	c6 85 31 e8 ff ff 06 	mov    BYTE PTR [rbp-0x17cf],0x6
    5045:	c6 85 32 e8 ff ff f6 	mov    BYTE PTR [rbp-0x17ce],0xf6
    504c:	c6 85 33 e8 ff ff e0 	mov    BYTE PTR [rbp-0x17cd],0xe0
    5053:	c6 85 34 e8 ff ff ff 	mov    BYTE PTR [rbp-0x17cc],0xff
    505a:	c6 85 35 e8 ff ff 90 	mov    BYTE PTR [rbp-0x17cb],0x90
    5061:	c6 85 36 e8 ff ff 04 	mov    BYTE PTR [rbp-0x17ca],0x4
    5068:	c6 85 37 e8 ff ff 61 	mov    BYTE PTR [rbp-0x17c9],0x61
    506f:	c6 85 38 e8 ff ff e0 	mov    BYTE PTR [rbp-0x17c8],0xe0
    5076:	c6 85 39 e8 ff ff 6f 	mov    BYTE PTR [rbp-0x17c7],0x6f
    507d:	c6 85 3a e8 ff ff 60 	mov    BYTE PTR [rbp-0x17c6],0x60
    5084:	c6 85 3b e8 ff ff 03 	mov    BYTE PTR [rbp-0x17c5],0x3
    508b:	c6 85 3c e8 ff ff 02 	mov    BYTE PTR [rbp-0x17c4],0x2
    5092:	c6 85 3d e8 ff ff 0a 	mov    BYTE PTR [rbp-0x17c3],0xa
    5099:	c6 85 3e e8 ff ff db 	mov    BYTE PTR [rbp-0x17c2],0xdb
    50a0:	c6 85 3f e8 ff ff 90 	mov    BYTE PTR [rbp-0x17c1],0x90
    50a7:	c6 85 41 e8 ff ff 12 	mov    BYTE PTR [rbp-0x17bf],0x12
    50ae:	c6 85 42 e8 ff ff 74 	mov    BYTE PTR [rbp-0x17be],0x74
    50b5:	c6 85 43 e8 ff ff 25 	mov    BYTE PTR [rbp-0x17bd],0x25
    50bc:	c6 85 44 e8 ff ff f0 	mov    BYTE PTR [rbp-0x17bc],0xf0
    50c3:	c6 85 45 e8 ff ff a3 	mov    BYTE PTR [rbp-0x17bb],0xa3
    50ca:	c6 85 46 e8 ff ff 74 	mov    BYTE PTR [rbp-0x17ba],0x74
    50d1:	c6 85 47 e8 ff ff 0d 	mov    BYTE PTR [rbp-0x17b9],0xd
    50d8:	c6 85 48 e8 ff ff f0 	mov    BYTE PTR [rbp-0x17b8],0xf0
    50df:	c6 85 49 e8 ff ff e4 	mov    BYTE PTR [rbp-0x17b7],0xe4
    50e6:	c6 85 4a e8 ff ff a3 	mov    BYTE PTR [rbp-0x17b6],0xa3
    50ed:	c6 85 4b e8 ff ff f0 	mov    BYTE PTR [rbp-0x17b5],0xf0
    50f4:	c6 85 4c e8 ff ff a3 	mov    BYTE PTR [rbp-0x17b4],0xa3
    50fb:	c6 85 4d e8 ff ff f0 	mov    BYTE PTR [rbp-0x17b3],0xf0
    5102:	c6 85 4e e8 ff ff a3 	mov    BYTE PTR [rbp-0x17b2],0xa3
    5109:	c6 85 4f e8 ff ff 04 	mov    BYTE PTR [rbp-0x17b1],0x4
    5110:	c6 85 50 e8 ff ff f0 	mov    BYTE PTR [rbp-0x17b0],0xf0
    5117:	c6 85 51 e8 ff ff e4 	mov    BYTE PTR [rbp-0x17af],0xe4
    511e:	c6 85 52 e8 ff ff a3 	mov    BYTE PTR [rbp-0x17ae],0xa3
    5125:	c6 85 53 e8 ff ff f0 	mov    BYTE PTR [rbp-0x17ad],0xf0
    512c:	c6 85 54 e8 ff ff a3 	mov    BYTE PTR [rbp-0x17ac],0xa3
    5133:	c6 85 55 e8 ff ff f0 	mov    BYTE PTR [rbp-0x17ab],0xf0
    513a:	c6 85 56 e8 ff ff 90 	mov    BYTE PTR [rbp-0x17aa],0x90
    5141:	c6 85 57 e8 ff ff 02 	mov    BYTE PTR [rbp-0x17a9],0x2
    5148:	c6 85 58 e8 ff ff 1a 	mov    BYTE PTR [rbp-0x17a8],0x1a
    514f:	c6 85 59 e8 ff ff e0 	mov    BYTE PTR [rbp-0x17a7],0xe0
    5156:	c6 85 5a e8 ff ff 90 	mov    BYTE PTR [rbp-0x17a6],0x90
    515d:	c6 85 5c e8 ff ff 19 	mov    BYTE PTR [rbp-0x17a4],0x19
    5164:	c6 85 5d e8 ff ff f0 	mov    BYTE PTR [rbp-0x17a3],0xf0
    516b:	c6 85 5e e8 ff ff 90 	mov    BYTE PTR [rbp-0x17a2],0x90
    5172:	c6 85 5f e8 ff ff 02 	mov    BYTE PTR [rbp-0x17a1],0x2
    5179:	c6 85 60 e8 ff ff 1b 	mov    BYTE PTR [rbp-0x17a0],0x1b
    5180:	c6 85 61 e8 ff ff e0 	mov    BYTE PTR [rbp-0x179f],0xe0
    5187:	c6 85 62 e8 ff ff 90 	mov    BYTE PTR [rbp-0x179e],0x90
    518e:	c6 85 64 e8 ff ff 1a 	mov    BYTE PTR [rbp-0x179c],0x1a
    5195:	c6 85 65 e8 ff ff f0 	mov    BYTE PTR [rbp-0x179b],0xf0
    519c:	c6 85 66 e8 ff ff 90 	mov    BYTE PTR [rbp-0x179a],0x90
    51a3:	c6 85 67 e8 ff ff 02 	mov    BYTE PTR [rbp-0x1799],0x2
    51aa:	c6 85 68 e8 ff ff 1c 	mov    BYTE PTR [rbp-0x1798],0x1c
    51b1:	c6 85 69 e8 ff ff e0 	mov    BYTE PTR [rbp-0x1797],0xe0
    51b8:	c6 85 6a e8 ff ff 90 	mov    BYTE PTR [rbp-0x1796],0x90
    51bf:	c6 85 6c e8 ff ff 1b 	mov    BYTE PTR [rbp-0x1794],0x1b
    51c6:	c6 85 6d e8 ff ff f0 	mov    BYTE PTR [rbp-0x1793],0xf0
    51cd:	c6 85 6e e8 ff ff 90 	mov    BYTE PTR [rbp-0x1792],0x90
    51d4:	c6 85 6f e8 ff ff 02 	mov    BYTE PTR [rbp-0x1791],0x2
    51db:	c6 85 70 e8 ff ff 1d 	mov    BYTE PTR [rbp-0x1790],0x1d
    51e2:	c6 85 71 e8 ff ff e0 	mov    BYTE PTR [rbp-0x178f],0xe0
    51e9:	c6 85 72 e8 ff ff 90 	mov    BYTE PTR [rbp-0x178e],0x90
    51f0:	c6 85 74 e8 ff ff 1c 	mov    BYTE PTR [rbp-0x178c],0x1c
    51f7:	c6 85 75 e8 ff ff f0 	mov    BYTE PTR [rbp-0x178b],0xf0
    51fe:	c6 85 76 e8 ff ff 90 	mov    BYTE PTR [rbp-0x178a],0x90
    5205:	c6 85 77 e8 ff ff 02 	mov    BYTE PTR [rbp-0x1789],0x2
    520c:	c6 85 78 e8 ff ff 1e 	mov    BYTE PTR [rbp-0x1788],0x1e
    5213:	c6 85 79 e8 ff ff e0 	mov    BYTE PTR [rbp-0x1787],0xe0
    521a:	c6 85 7a e8 ff ff 90 	mov    BYTE PTR [rbp-0x1786],0x90
    5221:	c6 85 7c e8 ff ff 1d 	mov    BYTE PTR [rbp-0x1784],0x1d
    5228:	c6 85 7d e8 ff ff f0 	mov    BYTE PTR [rbp-0x1783],0xf0
    522f:	c6 85 7e e8 ff ff 90 	mov    BYTE PTR [rbp-0x1782],0x90
    5236:	c6 85 7f e8 ff ff 02 	mov    BYTE PTR [rbp-0x1781],0x2
    523d:	c6 85 80 e8 ff ff 1f 	mov    BYTE PTR [rbp-0x1780],0x1f
    5244:	c6 85 81 e8 ff ff e0 	mov    BYTE PTR [rbp-0x177f],0xe0
    524b:	c6 85 82 e8 ff ff 90 	mov    BYTE PTR [rbp-0x177e],0x90
    5252:	c6 85 84 e8 ff ff 1e 	mov    BYTE PTR [rbp-0x177c],0x1e
    5259:	c6 85 85 e8 ff ff f0 	mov    BYTE PTR [rbp-0x177b],0xf0
    5260:	c6 85 86 e8 ff ff 90 	mov    BYTE PTR [rbp-0x177a],0x90
    5267:	c6 85 87 e8 ff ff 02 	mov    BYTE PTR [rbp-0x1779],0x2
    526e:	c6 85 88 e8 ff ff 20 	mov    BYTE PTR [rbp-0x1778],0x20
    5275:	c6 85 89 e8 ff ff e0 	mov    BYTE PTR [rbp-0x1777],0xe0
    527c:	c6 85 8a e8 ff ff 90 	mov    BYTE PTR [rbp-0x1776],0x90
    5283:	c6 85 8c e8 ff ff 1f 	mov    BYTE PTR [rbp-0x1774],0x1f
    528a:	c6 85 8d e8 ff ff f0 	mov    BYTE PTR [rbp-0x1773],0xf0
    5291:	c6 85 8e e8 ff ff 90 	mov    BYTE PTR [rbp-0x1772],0x90
    5298:	c6 85 8f e8 ff ff 02 	mov    BYTE PTR [rbp-0x1771],0x2
    529f:	c6 85 90 e8 ff ff 21 	mov    BYTE PTR [rbp-0x1770],0x21
    52a6:	c6 85 91 e8 ff ff e0 	mov    BYTE PTR [rbp-0x176f],0xe0
    52ad:	c6 85 92 e8 ff ff 90 	mov    BYTE PTR [rbp-0x176e],0x90
    52b4:	c6 85 94 e8 ff ff 20 	mov    BYTE PTR [rbp-0x176c],0x20
    52bb:	c6 85 95 e8 ff ff f0 	mov    BYTE PTR [rbp-0x176b],0xf0
    52c2:	c6 85 96 e8 ff ff a3 	mov    BYTE PTR [rbp-0x176a],0xa3
    52c9:	c6 85 97 e8 ff ff 74 	mov    BYTE PTR [rbp-0x1769],0x74
    52d0:	c6 85 98 e8 ff ff 25 	mov    BYTE PTR [rbp-0x1768],0x25
    52d7:	c6 85 99 e8 ff ff f0 	mov    BYTE PTR [rbp-0x1767],0xf0
    52de:	c6 85 9a e8 ff ff 74 	mov    BYTE PTR [rbp-0x1766],0x74
    52e5:	c6 85 9b e8 ff ff 0d 	mov    BYTE PTR [rbp-0x1765],0xd
    52ec:	c6 85 9c e8 ff ff 12 	mov    BYTE PTR [rbp-0x1764],0x12
    52f3:	c6 85 9d e8 ff ff 18 	mov    BYTE PTR [rbp-0x1763],0x18
    52fa:	c6 85 9e e8 ff ff e5 	mov    BYTE PTR [rbp-0x1762],0xe5
    5301:	c6 85 9f e8 ff ff a3 	mov    BYTE PTR [rbp-0x1761],0xa3
    5308:	c6 85 a0 e8 ff ff f0 	mov    BYTE PTR [rbp-0x1760],0xf0
    530f:	c6 85 a1 e8 ff ff a3 	mov    BYTE PTR [rbp-0x175f],0xa3
    5316:	c6 85 a2 e8 ff ff f0 	mov    BYTE PTR [rbp-0x175e],0xf0
    531d:	c6 85 a3 e8 ff ff 90 	mov    BYTE PTR [rbp-0x175d],0x90
    5324:	c6 85 a4 e8 ff ff 02 	mov    BYTE PTR [rbp-0x175c],0x2
    532b:	c6 85 a5 e8 ff ff 22 	mov    BYTE PTR [rbp-0x175b],0x22
    5332:	c6 85 a6 e8 ff ff e0 	mov    BYTE PTR [rbp-0x175a],0xe0
    5339:	c6 85 a7 e8 ff ff 90 	mov    BYTE PTR [rbp-0x1759],0x90
    5340:	c6 85 a9 e8 ff ff 28 	mov    BYTE PTR [rbp-0x1757],0x28
    5347:	c6 85 aa e8 ff ff f0 	mov    BYTE PTR [rbp-0x1756],0xf0
    534e:	c6 85 ab e8 ff ff 90 	mov    BYTE PTR [rbp-0x1755],0x90
    5355:	c6 85 ac e8 ff ff 02 	mov    BYTE PTR [rbp-0x1754],0x2
    535c:	c6 85 ad e8 ff ff 23 	mov    BYTE PTR [rbp-0x1753],0x23
    5363:	c6 85 ae e8 ff ff e0 	mov    BYTE PTR [rbp-0x1752],0xe0
    536a:	c6 85 af e8 ff ff 90 	mov    BYTE PTR [rbp-0x1751],0x90
    5371:	c6 85 b1 e8 ff ff 29 	mov    BYTE PTR [rbp-0x174f],0x29
    5378:	c6 85 b2 e8 ff ff f0 	mov    BYTE PTR [rbp-0x174e],0xf0
    537f:	c6 85 b3 e8 ff ff 90 	mov    BYTE PTR [rbp-0x174d],0x90
    5386:	c6 85 b4 e8 ff ff 02 	mov    BYTE PTR [rbp-0x174c],0x2
    538d:	c6 85 b5 e8 ff ff 24 	mov    BYTE PTR [rbp-0x174b],0x24
    5394:	c6 85 b6 e8 ff ff e0 	mov    BYTE PTR [rbp-0x174a],0xe0
    539b:	c6 85 b7 e8 ff ff 90 	mov    BYTE PTR [rbp-0x1749],0x90
    53a2:	c6 85 b9 e8 ff ff 2a 	mov    BYTE PTR [rbp-0x1747],0x2a
    53a9:	c6 85 ba e8 ff ff f0 	mov    BYTE PTR [rbp-0x1746],0xf0
    53b0:	c6 85 bb e8 ff ff 90 	mov    BYTE PTR [rbp-0x1745],0x90
    53b7:	c6 85 bc e8 ff ff 02 	mov    BYTE PTR [rbp-0x1744],0x2
    53be:	c6 85 bd e8 ff ff 25 	mov    BYTE PTR [rbp-0x1743],0x25
    53c5:	c6 85 be e8 ff ff e0 	mov    BYTE PTR [rbp-0x1742],0xe0
    53cc:	c6 85 bf e8 ff ff 90 	mov    BYTE PTR [rbp-0x1741],0x90
    53d3:	c6 85 c1 e8 ff ff 2b 	mov    BYTE PTR [rbp-0x173f],0x2b
    53da:	c6 85 c2 e8 ff ff f0 	mov    BYTE PTR [rbp-0x173e],0xf0
    53e1:	c6 85 c3 e8 ff ff 90 	mov    BYTE PTR [rbp-0x173d],0x90
    53e8:	c6 85 c4 e8 ff ff 02 	mov    BYTE PTR [rbp-0x173c],0x2
    53ef:	c6 85 c5 e8 ff ff 26 	mov    BYTE PTR [rbp-0x173b],0x26
    53f6:	c6 85 c6 e8 ff ff e0 	mov    BYTE PTR [rbp-0x173a],0xe0
    53fd:	c6 85 c7 e8 ff ff 90 	mov    BYTE PTR [rbp-0x1739],0x90
    5404:	c6 85 c9 e8 ff ff 2c 	mov    BYTE PTR [rbp-0x1737],0x2c
    540b:	c6 85 ca e8 ff ff f0 	mov    BYTE PTR [rbp-0x1736],0xf0
    5412:	c6 85 cb e8 ff ff 90 	mov    BYTE PTR [rbp-0x1735],0x90
    5419:	c6 85 cc e8 ff ff 02 	mov    BYTE PTR [rbp-0x1734],0x2
    5420:	c6 85 cd e8 ff ff 27 	mov    BYTE PTR [rbp-0x1733],0x27
    5427:	c6 85 ce e8 ff ff e0 	mov    BYTE PTR [rbp-0x1732],0xe0
    542e:	c6 85 cf e8 ff ff 90 	mov    BYTE PTR [rbp-0x1731],0x90
    5435:	c6 85 d1 e8 ff ff 2d 	mov    BYTE PTR [rbp-0x172f],0x2d
    543c:	c6 85 d2 e8 ff ff f0 	mov    BYTE PTR [rbp-0x172e],0xf0
    5443:	c6 85 d3 e8 ff ff 90 	mov    BYTE PTR [rbp-0x172d],0x90
    544a:	c6 85 d4 e8 ff ff 02 	mov    BYTE PTR [rbp-0x172c],0x2
    5451:	c6 85 d5 e8 ff ff 28 	mov    BYTE PTR [rbp-0x172b],0x28
    5458:	c6 85 d6 e8 ff ff e0 	mov    BYTE PTR [rbp-0x172a],0xe0
    545f:	c6 85 d7 e8 ff ff 90 	mov    BYTE PTR [rbp-0x1729],0x90
    5466:	c6 85 d9 e8 ff ff 2e 	mov    BYTE PTR [rbp-0x1727],0x2e
    546d:	c6 85 da e8 ff ff f0 	mov    BYTE PTR [rbp-0x1726],0xf0
    5474:	c6 85 db e8 ff ff 90 	mov    BYTE PTR [rbp-0x1725],0x90
    547b:	c6 85 dc e8 ff ff 02 	mov    BYTE PTR [rbp-0x1724],0x2
    5482:	c6 85 dd e8 ff ff 29 	mov    BYTE PTR [rbp-0x1723],0x29
    5489:	c6 85 de e8 ff ff e0 	mov    BYTE PTR [rbp-0x1722],0xe0
    5490:	c6 85 df e8 ff ff 90 	mov    BYTE PTR [rbp-0x1721],0x90
    5497:	c6 85 e1 e8 ff ff 2f 	mov    BYTE PTR [rbp-0x171f],0x2f
    549e:	c6 85 e2 e8 ff ff f0 	mov    BYTE PTR [rbp-0x171e],0xf0
    54a5:	c6 85 e3 e8 ff ff a3 	mov    BYTE PTR [rbp-0x171d],0xa3
    54ac:	c6 85 e4 e8 ff ff 12 	mov    BYTE PTR [rbp-0x171c],0x12
    54b3:	c6 85 e5 e8 ff ff 19 	mov    BYTE PTR [rbp-0x171b],0x19
    54ba:	c6 85 e6 e8 ff ff 4b 	mov    BYTE PTR [rbp-0x171a],0x4b
    54c1:	c6 85 e7 e8 ff ff a3 	mov    BYTE PTR [rbp-0x1719],0xa3
    54c8:	c6 85 e8 e8 ff ff 74 	mov    BYTE PTR [rbp-0x1718],0x74
    54cf:	c6 85 e9 e8 ff ff 40 	mov    BYTE PTR [rbp-0x1717],0x40
    54d6:	c6 85 ea e8 ff ff f0 	mov    BYTE PTR [rbp-0x1716],0xf0
    54dd:	c6 85 eb e8 ff ff e4 	mov    BYTE PTR [rbp-0x1715],0xe4
    54e4:	c6 85 ec e8 ff ff a3 	mov    BYTE PTR [rbp-0x1714],0xa3
    54eb:	c6 85 ed e8 ff ff f0 	mov    BYTE PTR [rbp-0x1713],0xf0
    54f2:	c6 85 ee e8 ff ff 7f 	mov    BYTE PTR [rbp-0x1712],0x7f
    54f9:	c6 85 ef e8 ff ff 22 	mov    BYTE PTR [rbp-0x1711],0x22
    5500:	c6 85 f0 e8 ff ff 02 	mov    BYTE PTR [rbp-0x1710],0x2
    5507:	c6 85 f1 e8 ff ff 0c 	mov    BYTE PTR [rbp-0x170f],0xc
    550e:	c6 85 f2 e8 ff ff df 	mov    BYTE PTR [rbp-0x170e],0xdf
    5515:	c6 85 f3 e8 ff ff 90 	mov    BYTE PTR [rbp-0x170d],0x90
    551c:	c6 85 f5 e8 ff ff 12 	mov    BYTE PTR [rbp-0x170b],0x12
    5523:	c6 85 f6 e8 ff ff 12 	mov    BYTE PTR [rbp-0x170a],0x12
    552a:	c6 85 f7 e8 ff ff 19 	mov    BYTE PTR [rbp-0x1709],0x19
    5531:	c6 85 f8 e8 ff ff 4b 	mov    BYTE PTR [rbp-0x1708],0x4b
    5538:	c6 85 f9 e8 ff ff e4 	mov    BYTE PTR [rbp-0x1707],0xe4
    553f:	c6 85 fa e8 ff ff a3 	mov    BYTE PTR [rbp-0x1706],0xa3
    5546:	c6 85 fb e8 ff ff f0 	mov    BYTE PTR [rbp-0x1705],0xf0
    554d:	c6 85 fc e8 ff ff a3 	mov    BYTE PTR [rbp-0x1704],0xa3
    5554:	c6 85 fd e8 ff ff f0 	mov    BYTE PTR [rbp-0x1703],0xf0
    555b:	c6 85 fe e8 ff ff 7f 	mov    BYTE PTR [rbp-0x1702],0x7f
    5562:	c6 85 ff e8 ff ff 04 	mov    BYTE PTR [rbp-0x1701],0x4
    5569:	c6 85 00 e9 ff ff 02 	mov    BYTE PTR [rbp-0x1700],0x2
    5570:	c6 85 01 e9 ff ff 0c 	mov    BYTE PTR [rbp-0x16ff],0xc
    5577:	c6 85 02 e9 ff ff df 	mov    BYTE PTR [rbp-0x16fe],0xdf
    557e:	c6 85 03 e9 ff ff 90 	mov    BYTE PTR [rbp-0x16fd],0x90
    5585:	c6 85 05 e9 ff ff 0f 	mov    BYTE PTR [rbp-0x16fb],0xf
    558c:	c6 85 06 e9 ff ff e0 	mov    BYTE PTR [rbp-0x16fa],0xe0
    5593:	c6 85 07 e9 ff ff a3 	mov    BYTE PTR [rbp-0x16f9],0xa3
    559a:	c6 85 08 e9 ff ff f0 	mov    BYTE PTR [rbp-0x16f8],0xf0
    55a1:	c6 85 09 e9 ff ff 64 	mov    BYTE PTR [rbp-0x16f7],0x64
    55a8:	c6 85 0a e9 ff ff 82 	mov    BYTE PTR [rbp-0x16f6],0x82
    55af:	c6 85 0b e9 ff ff 60 	mov    BYTE PTR [rbp-0x16f5],0x60
    55b6:	c6 85 0c e9 ff ff 03 	mov    BYTE PTR [rbp-0x16f4],0x3
    55bd:	c6 85 0d e9 ff ff 02 	mov    BYTE PTR [rbp-0x16f3],0x2
    55c4:	c6 85 0e e9 ff ff 0c 	mov    BYTE PTR [rbp-0x16f2],0xc
    55cb:	48 8d 95 00 e7 ff ff 	lea    rdx,[rbp-0x1900]
    55d2:	b8 00 00 00 00       	mov    eax,0x0
    55d7:	b9 21 00 00 00       	mov    ecx,0x21
    55dc:	48 89 d7             	mov    rdi,rdx
    55df:	f3 48 ab             	rep stos QWORD PTR es:[rdi],rax
    55e2:	48 89 fa             	mov    rdx,rdi
    55e5:	89 02                	mov    DWORD PTR [rdx],eax
    55e7:	48 83 c2 04          	add    rdx,0x4
    55eb:	66 89 02             	mov    WORD PTR [rdx],ax
    55ee:	48 83 c2 02          	add    rdx,0x2
    55f2:	c6 85 01 e7 ff ff 58 	mov    BYTE PTR [rbp-0x18ff],0x58
    55f9:	c6 85 02 e7 ff ff 8a 	mov    BYTE PTR [rbp-0x18fe],0x8a
    5600:	c6 85 03 e7 ff ff f7 	mov    BYTE PTR [rbp-0x18fd],0xf7
    5607:	c6 85 04 e7 ff ff ff 	mov    BYTE PTR [rbp-0x18fc],0xff
    560e:	48 8d 95 f0 e5 ff ff 	lea    rdx,[rbp-0x1a10]
    5615:	b8 00 00 00 00       	mov    eax,0x0
    561a:	b9 21 00 00 00       	mov    ecx,0x21
    561f:	48 89 d7             	mov    rdi,rdx
    5622:	f3 48 ab             	rep stos QWORD PTR es:[rdi],rax
    5625:	48 89 fa             	mov    rdx,rdi
    5628:	89 02                	mov    DWORD PTR [rdx],eax
    562a:	48 83 c2 04          	add    rdx,0x4
    562e:	66 89 02             	mov    WORD PTR [rdx],ax
    5631:	48 83 c2 02          	add    rdx,0x2
    5635:	c6 85 f0 e5 ff ff a9 	mov    BYTE PTR [rbp-0x1a10],0xa9
    563c:	c6 85 f1 e5 ff ff 12 	mov    BYTE PTR [rbp-0x1a0f],0x12
    5643:	c6 85 f2 e5 ff ff 0d 	mov    BYTE PTR [rbp-0x1a0e],0xd
    564a:	c6 85 f3 e5 ff ff 14 	mov    BYTE PTR [rbp-0x1a0d],0x14
    5651:	c6 85 f4 e5 ff ff 12 	mov    BYTE PTR [rbp-0x1a0c],0x12
    5658:	c6 85 f5 e5 ff ff 1d 	mov    BYTE PTR [rbp-0x1a0b],0x1d
    565f:	c6 85 f6 e5 ff ff df 	mov    BYTE PTR [rbp-0x1a0a],0xdf
    5666:	c6 85 f7 e5 ff ff 12 	mov    BYTE PTR [rbp-0x1a09],0x12
    566d:	c6 85 f8 e5 ff ff 1d 	mov    BYTE PTR [rbp-0x1a08],0x1d
    5674:	c6 85 f9 e5 ff ff df 	mov    BYTE PTR [rbp-0x1a07],0xdf
    567b:	c6 85 fa e5 ff ff 90 	mov    BYTE PTR [rbp-0x1a06],0x90
    5682:	c6 85 fb e5 ff ff 06 	mov    BYTE PTR [rbp-0x1a05],0x6
    5689:	c6 85 fc e5 ff ff dd 	mov    BYTE PTR [rbp-0x1a04],0xdd
    5690:	c6 85 fd e5 ff ff ef 	mov    BYTE PTR [rbp-0x1a03],0xef
    5697:	c6 85 fe e5 ff ff f0 	mov    BYTE PTR [rbp-0x1a02],0xf0
    569e:	c6 85 ff e5 ff ff 12 	mov    BYTE PTR [rbp-0x1a01],0x12
    56a5:	c6 85 00 e6 ff ff 1d 	mov    BYTE PTR [rbp-0x1a00],0x1d
    56ac:	c6 85 01 e6 ff ff df 	mov    BYTE PTR [rbp-0x19ff],0xdf
    56b3:	c6 85 02 e6 ff ff 90 	mov    BYTE PTR [rbp-0x19fe],0x90
    56ba:	c6 85 03 e6 ff ff 06 	mov    BYTE PTR [rbp-0x19fd],0x6
    56c1:	c6 85 04 e6 ff ff de 	mov    BYTE PTR [rbp-0x19fc],0xde
    56c8:	c6 85 05 e6 ff ff ef 	mov    BYTE PTR [rbp-0x19fb],0xef
    56cf:	c6 85 06 e6 ff ff f0 	mov    BYTE PTR [rbp-0x19fa],0xf0
    56d6:	c6 85 07 e6 ff ff 12 	mov    BYTE PTR [rbp-0x19f9],0x12
    56dd:	c6 85 08 e6 ff ff 1d 	mov    BYTE PTR [rbp-0x19f8],0x1d
    56e4:	c6 85 09 e6 ff ff df 	mov    BYTE PTR [rbp-0x19f7],0xdf
    56eb:	c6 85 0a e6 ff ff 90 	mov    BYTE PTR [rbp-0x19f6],0x90
    56f2:	c6 85 0b e6 ff ff 06 	mov    BYTE PTR [rbp-0x19f5],0x6
    56f9:	c6 85 0c e6 ff ff df 	mov    BYTE PTR [rbp-0x19f4],0xdf
    5700:	c6 85 0d e6 ff ff ef 	mov    BYTE PTR [rbp-0x19f3],0xef
    5707:	c6 85 0e e6 ff ff f0 	mov    BYTE PTR [rbp-0x19f2],0xf0
    570e:	c6 85 0f e6 ff ff 12 	mov    BYTE PTR [rbp-0x19f1],0x12
    5715:	c6 85 10 e6 ff ff 1d 	mov    BYTE PTR [rbp-0x19f0],0x1d
    571c:	c6 85 11 e6 ff ff df 	mov    BYTE PTR [rbp-0x19ef],0xdf
    5723:	c6 85 12 e6 ff ff 90 	mov    BYTE PTR [rbp-0x19ee],0x90
    572a:	c6 85 13 e6 ff ff 06 	mov    BYTE PTR [rbp-0x19ed],0x6
    5731:	c6 85 14 e6 ff ff e0 	mov    BYTE PTR [rbp-0x19ec],0xe0
    5738:	c6 85 15 e6 ff ff 12 	mov    BYTE PTR [rbp-0x19eb],0x12
    573f:	c6 85 16 e6 ff ff 0c 	mov    BYTE PTR [rbp-0x19ea],0xc
    5746:	c6 85 17 e6 ff ff f0 	mov    BYTE PTR [rbp-0x19e9],0xf0
    574d:	c6 85 18 e6 ff ff 12 	mov    BYTE PTR [rbp-0x19e8],0x12
    5754:	c6 85 19 e6 ff ff 19 	mov    BYTE PTR [rbp-0x19e7],0x19
    575b:	c6 85 1a e6 ff ff a4 	mov    BYTE PTR [rbp-0x19e6],0xa4
    5762:	c6 85 1b e6 ff ff e4 	mov    BYTE PTR [rbp-0x19e5],0xe4
    5769:	c6 85 1c e6 ff ff 12 	mov    BYTE PTR [rbp-0x19e4],0x12
    5770:	c6 85 1d e6 ff ff 0d 	mov    BYTE PTR [rbp-0x19e3],0xd
    5777:	c6 85 1e e6 ff ff 63 	mov    BYTE PTR [rbp-0x19e2],0x63
    577e:	c6 85 1f e6 ff ff 12 	mov    BYTE PTR [rbp-0x19e1],0x12
    5785:	c6 85 20 e6 ff ff 17 	mov    BYTE PTR [rbp-0x19e0],0x17
    578c:	c6 85 21 e6 ff ff d3 	mov    BYTE PTR [rbp-0x19df],0xd3
    5793:	c6 85 22 e6 ff ff 90 	mov    BYTE PTR [rbp-0x19de],0x90
    579a:	c6 85 23 e6 ff ff 06 	mov    BYTE PTR [rbp-0x19dd],0x6
    57a1:	c6 85 24 e6 ff ff f0 	mov    BYTE PTR [rbp-0x19dc],0xf0
    57a8:	c6 85 25 e6 ff ff e0 	mov    BYTE PTR [rbp-0x19db],0xe0
    57af:	c6 85 26 e6 ff ff ff 	mov    BYTE PTR [rbp-0x19da],0xff
    57b6:	c6 85 27 e6 ff ff 90 	mov    BYTE PTR [rbp-0x19d9],0x90
    57bd:	c6 85 28 e6 ff ff 06 	mov    BYTE PTR [rbp-0x19d8],0x6
    57c4:	c6 85 29 e6 ff ff dd 	mov    BYTE PTR [rbp-0x19d7],0xdd
    57cb:	c6 85 2a e6 ff ff e0 	mov    BYTE PTR [rbp-0x19d6],0xe0
    57d2:	c6 85 2b e6 ff ff 6f 	mov    BYTE PTR [rbp-0x19d5],0x6f
    57d9:	c6 85 2c e6 ff ff 60 	mov    BYTE PTR [rbp-0x19d4],0x60
    57e0:	c6 85 2d e6 ff ff 03 	mov    BYTE PTR [rbp-0x19d3],0x3
    57e7:	c6 85 2e e6 ff ff 02 	mov    BYTE PTR [rbp-0x19d2],0x2
    57ee:	c6 85 2f e6 ff ff 0c 	mov    BYTE PTR [rbp-0x19d1],0xc
    57f5:	c6 85 30 e6 ff ff a9 	mov    BYTE PTR [rbp-0x19d0],0xa9
    57fc:	c6 85 31 e6 ff ff 90 	mov    BYTE PTR [rbp-0x19cf],0x90
    5803:	c6 85 32 e6 ff ff 06 	mov    BYTE PTR [rbp-0x19ce],0x6
    580a:	c6 85 33 e6 ff ff f1 	mov    BYTE PTR [rbp-0x19cd],0xf1
    5811:	c6 85 34 e6 ff ff e0 	mov    BYTE PTR [rbp-0x19cc],0xe0
    5818:	c6 85 35 e6 ff ff ff 	mov    BYTE PTR [rbp-0x19cb],0xff
    581f:	c6 85 36 e6 ff ff 90 	mov    BYTE PTR [rbp-0x19ca],0x90
    5826:	c6 85 37 e6 ff ff 06 	mov    BYTE PTR [rbp-0x19c9],0x6
    582d:	c6 85 38 e6 ff ff de 	mov    BYTE PTR [rbp-0x19c8],0xde
    5834:	c6 85 39 e6 ff ff e0 	mov    BYTE PTR [rbp-0x19c7],0xe0
    583b:	c6 85 3a e6 ff ff 6f 	mov    BYTE PTR [rbp-0x19c6],0x6f
    5842:	c6 85 3b e6 ff ff 60 	mov    BYTE PTR [rbp-0x19c5],0x60
    5849:	c6 85 3c e6 ff ff 03 	mov    BYTE PTR [rbp-0x19c4],0x3
    5850:	c6 85 3d e6 ff ff 02 	mov    BYTE PTR [rbp-0x19c3],0x2
    5857:	c6 85 3e e6 ff ff 0c 	mov    BYTE PTR [rbp-0x19c2],0xc
    585e:	c6 85 3f e6 ff ff a9 	mov    BYTE PTR [rbp-0x19c1],0xa9
    5865:	c6 85 40 e6 ff ff 90 	mov    BYTE PTR [rbp-0x19c0],0x90
    586c:	c6 85 41 e6 ff ff 06 	mov    BYTE PTR [rbp-0x19bf],0x6
    5873:	c6 85 42 e6 ff ff f2 	mov    BYTE PTR [rbp-0x19be],0xf2
    587a:	c6 85 43 e6 ff ff e0 	mov    BYTE PTR [rbp-0x19bd],0xe0
    5881:	c6 85 44 e6 ff ff ff 	mov    BYTE PTR [rbp-0x19bc],0xff
    5888:	c6 85 45 e6 ff ff 90 	mov    BYTE PTR [rbp-0x19bb],0x90
    588f:	c6 85 46 e6 ff ff 06 	mov    BYTE PTR [rbp-0x19ba],0x6
    5896:	c6 85 47 e6 ff ff df 	mov    BYTE PTR [rbp-0x19b9],0xdf
    589d:	c6 85 48 e6 ff ff e0 	mov    BYTE PTR [rbp-0x19b8],0xe0
    58a4:	c6 85 49 e6 ff ff 6f 	mov    BYTE PTR [rbp-0x19b7],0x6f
    58ab:	c6 85 4a e6 ff ff 60 	mov    BYTE PTR [rbp-0x19b6],0x60
    58b2:	c6 85 4b e6 ff ff 03 	mov    BYTE PTR [rbp-0x19b5],0x3
    58b9:	c6 85 4c e6 ff ff 02 	mov    BYTE PTR [rbp-0x19b4],0x2
    58c0:	c6 85 4d e6 ff ff 0c 	mov    BYTE PTR [rbp-0x19b3],0xc
    58c7:	c6 85 4e e6 ff ff a9 	mov    BYTE PTR [rbp-0x19b2],0xa9
    58ce:	c6 85 4f e6 ff ff 90 	mov    BYTE PTR [rbp-0x19b1],0x90
    58d5:	c6 85 50 e6 ff ff 06 	mov    BYTE PTR [rbp-0x19b0],0x6
    58dc:	c6 85 51 e6 ff ff f3 	mov    BYTE PTR [rbp-0x19af],0xf3
    58e3:	c6 85 52 e6 ff ff e0 	mov    BYTE PTR [rbp-0x19ae],0xe0
    58ea:	c6 85 53 e6 ff ff ff 	mov    BYTE PTR [rbp-0x19ad],0xff
    58f1:	c6 85 54 e6 ff ff 90 	mov    BYTE PTR [rbp-0x19ac],0x90
    58f8:	c6 85 55 e6 ff ff 06 	mov    BYTE PTR [rbp-0x19ab],0x6
    58ff:	c6 85 56 e6 ff ff e0 	mov    BYTE PTR [rbp-0x19aa],0xe0
    5906:	c6 85 57 e6 ff ff e0 	mov    BYTE PTR [rbp-0x19a9],0xe0
    590d:	c6 85 58 e6 ff ff 6f 	mov    BYTE PTR [rbp-0x19a8],0x6f
    5914:	c6 85 59 e6 ff ff 60 	mov    BYTE PTR [rbp-0x19a7],0x60
    591b:	c6 85 5a e6 ff ff 03 	mov    BYTE PTR [rbp-0x19a6],0x3
    5922:	c6 85 5b e6 ff ff 02 	mov    BYTE PTR [rbp-0x19a5],0x2
    5929:	c6 85 5c e6 ff ff 0c 	mov    BYTE PTR [rbp-0x19a4],0xc
    5930:	c6 85 5d e6 ff ff a9 	mov    BYTE PTR [rbp-0x19a3],0xa9
    5937:	c6 85 5e e6 ff ff 12 	mov    BYTE PTR [rbp-0x19a2],0x12
    593e:	c6 85 5f e6 ff ff 19 	mov    BYTE PTR [rbp-0x19a1],0x19
    5945:	c6 85 60 e6 ff ff a4 	mov    BYTE PTR [rbp-0x19a0],0xa4
    594c:	c6 85 61 e6 ff ff 12 	mov    BYTE PTR [rbp-0x199f],0x12
    5953:	c6 85 62 e6 ff ff 0d 	mov    BYTE PTR [rbp-0x199e],0xd
    595a:	c6 85 63 e6 ff ff 63 	mov    BYTE PTR [rbp-0x199d],0x63
    5961:	c6 85 64 e6 ff ff 90 	mov    BYTE PTR [rbp-0x199c],0x90
    5968:	c6 85 65 e6 ff ff 04 	mov    BYTE PTR [rbp-0x199b],0x4
    596f:	c6 85 66 e6 ff ff 5b 	mov    BYTE PTR [rbp-0x199a],0x5b
    5976:	c6 85 67 e6 ff ff e0 	mov    BYTE PTR [rbp-0x1999],0xe0
    597d:	c6 85 68 e6 ff ff 04 	mov    BYTE PTR [rbp-0x1998],0x4
    5984:	c6 85 69 e6 ff ff f0 	mov    BYTE PTR [rbp-0x1997],0xf0
    598b:	c6 85 6a e6 ff ff 12 	mov    BYTE PTR [rbp-0x1996],0x12
    5992:	c6 85 6b e6 ff ff 19 	mov    BYTE PTR [rbp-0x1995],0x19
    5999:	c6 85 6c e6 ff ff 9a 	mov    BYTE PTR [rbp-0x1994],0x9a
    59a0:	c6 85 6d e6 ff ff 12 	mov    BYTE PTR [rbp-0x1993],0x12
    59a7:	c6 85 6e e6 ff ff 19 	mov    BYTE PTR [rbp-0x1992],0x19
    59ae:	c6 85 6f e6 ff ff 5a 	mov    BYTE PTR [rbp-0x1991],0x5a
    59b5:	c6 85 70 e6 ff ff 50 	mov    BYTE PTR [rbp-0x1990],0x50
    59bc:	c6 85 71 e6 ff ff 05 	mov    BYTE PTR [rbp-0x198f],0x5
    59c3:	c6 85 72 e6 ff ff 12 	mov    BYTE PTR [rbp-0x198e],0x12
    59ca:	c6 85 73 e6 ff ff 18 	mov    BYTE PTR [rbp-0x198d],0x18
    59d1:	c6 85 74 e6 ff ff f9 	mov    BYTE PTR [rbp-0x198c],0xf9
    59d8:	c6 85 75 e6 ff ff 80 	mov    BYTE PTR [rbp-0x198b],0x80
    59df:	c6 85 76 e6 ff ff f6 	mov    BYTE PTR [rbp-0x198a],0xf6
    59e6:	c6 85 77 e6 ff ff 90 	mov    BYTE PTR [rbp-0x1989],0x90
    59ed:	c6 85 78 e6 ff ff 02 	mov    BYTE PTR [rbp-0x1988],0x2
    59f4:	c6 85 79 e6 ff ff 16 	mov    BYTE PTR [rbp-0x1987],0x16
    59fb:	c6 85 7a e6 ff ff e0 	mov    BYTE PTR [rbp-0x1986],0xe0
    5a02:	c6 85 7b e6 ff ff ff 	mov    BYTE PTR [rbp-0x1985],0xff
    5a09:	c6 85 7c e6 ff ff 90 	mov    BYTE PTR [rbp-0x1984],0x90
    5a10:	c6 85 7d e6 ff ff 06 	mov    BYTE PTR [rbp-0x1983],0x6
    5a17:	c6 85 7e e6 ff ff f0 	mov    BYTE PTR [rbp-0x1982],0xf0
    5a1e:	c6 85 7f e6 ff ff e0 	mov    BYTE PTR [rbp-0x1981],0xe0
    5a25:	c6 85 80 e6 ff ff 6f 	mov    BYTE PTR [rbp-0x1980],0x6f
    5a2c:	c6 85 81 e6 ff ff 60 	mov    BYTE PTR [rbp-0x197f],0x60
    5a33:	c6 85 82 e6 ff ff 03 	mov    BYTE PTR [rbp-0x197e],0x3
    5a3a:	c6 85 83 e6 ff ff 02 	mov    BYTE PTR [rbp-0x197d],0x2
    5a41:	c6 85 84 e6 ff ff 0c 	mov    BYTE PTR [rbp-0x197c],0xc
    5a48:	c6 85 85 e6 ff ff 8f 	mov    BYTE PTR [rbp-0x197b],0x8f
    5a4f:	c6 85 86 e6 ff ff 90 	mov    BYTE PTR [rbp-0x197a],0x90
    5a56:	c6 85 87 e6 ff ff 02 	mov    BYTE PTR [rbp-0x1979],0x2
    5a5d:	c6 85 88 e6 ff ff 17 	mov    BYTE PTR [rbp-0x1978],0x17
    5a64:	c6 85 89 e6 ff ff e0 	mov    BYTE PTR [rbp-0x1977],0xe0
    5a6b:	c6 85 8a e6 ff ff ff 	mov    BYTE PTR [rbp-0x1976],0xff
    5a72:	c6 85 8b e6 ff ff 90 	mov    BYTE PTR [rbp-0x1975],0x90
    5a79:	c6 85 8c e6 ff ff 06 	mov    BYTE PTR [rbp-0x1974],0x6
    5a80:	c6 85 8d e6 ff ff f1 	mov    BYTE PTR [rbp-0x1973],0xf1
    5a87:	c6 85 8e e6 ff ff e0 	mov    BYTE PTR [rbp-0x1972],0xe0
    5a8e:	c6 85 8f e6 ff ff 6f 	mov    BYTE PTR [rbp-0x1971],0x6f
    5a95:	c6 85 90 e6 ff ff 60 	mov    BYTE PTR [rbp-0x1970],0x60
    5a9c:	c6 85 91 e6 ff ff 03 	mov    BYTE PTR [rbp-0x196f],0x3
    5aa3:	c6 85 92 e6 ff ff 02 	mov    BYTE PTR [rbp-0x196e],0x2
    5aaa:	c6 85 93 e6 ff ff 0c 	mov    BYTE PTR [rbp-0x196d],0xc
    5ab1:	c6 85 94 e6 ff ff 8f 	mov    BYTE PTR [rbp-0x196c],0x8f
    5ab8:	c6 85 95 e6 ff ff 90 	mov    BYTE PTR [rbp-0x196b],0x90
    5abf:	c6 85 96 e6 ff ff 02 	mov    BYTE PTR [rbp-0x196a],0x2
    5ac6:	c6 85 97 e6 ff ff 18 	mov    BYTE PTR [rbp-0x1969],0x18
    5acd:	c6 85 98 e6 ff ff e0 	mov    BYTE PTR [rbp-0x1968],0xe0
    5ad4:	c6 85 99 e6 ff ff ff 	mov    BYTE PTR [rbp-0x1967],0xff
    5adb:	c6 85 9a e6 ff ff 90 	mov    BYTE PTR [rbp-0x1966],0x90
    5ae2:	c6 85 9b e6 ff ff 06 	mov    BYTE PTR [rbp-0x1965],0x6
    5ae9:	c6 85 9c e6 ff ff f2 	mov    BYTE PTR [rbp-0x1964],0xf2
    5af0:	c6 85 9d e6 ff ff e0 	mov    BYTE PTR [rbp-0x1963],0xe0
    5af7:	c6 85 9e e6 ff ff 6f 	mov    BYTE PTR [rbp-0x1962],0x6f
    5afe:	c6 85 9f e6 ff ff 60 	mov    BYTE PTR [rbp-0x1961],0x60
    5b05:	c6 85 a0 e6 ff ff 03 	mov    BYTE PTR [rbp-0x1960],0x3
    5b0c:	c6 85 a1 e6 ff ff 02 	mov    BYTE PTR [rbp-0x195f],0x2
    5b13:	c6 85 a2 e6 ff ff 0c 	mov    BYTE PTR [rbp-0x195e],0xc
    5b1a:	c6 85 a3 e6 ff ff 8f 	mov    BYTE PTR [rbp-0x195d],0x8f
    5b21:	c6 85 a4 e6 ff ff 90 	mov    BYTE PTR [rbp-0x195c],0x90
    5b28:	c6 85 a5 e6 ff ff 02 	mov    BYTE PTR [rbp-0x195b],0x2
    5b2f:	c6 85 a6 e6 ff ff 19 	mov    BYTE PTR [rbp-0x195a],0x19
    5b36:	c6 85 a7 e6 ff ff e0 	mov    BYTE PTR [rbp-0x1959],0xe0
    5b3d:	c6 85 a8 e6 ff ff ff 	mov    BYTE PTR [rbp-0x1958],0xff
    5b44:	c6 85 a9 e6 ff ff 90 	mov    BYTE PTR [rbp-0x1957],0x90
    5b4b:	c6 85 aa e6 ff ff 06 	mov    BYTE PTR [rbp-0x1956],0x6
    5b52:	c6 85 ab e6 ff ff f3 	mov    BYTE PTR [rbp-0x1955],0xf3
    5b59:	c6 85 ac e6 ff ff e0 	mov    BYTE PTR [rbp-0x1954],0xe0
    5b60:	c6 85 ad e6 ff ff 6f 	mov    BYTE PTR [rbp-0x1953],0x6f
    5b67:	c6 85 ae e6 ff ff 60 	mov    BYTE PTR [rbp-0x1952],0x60
    5b6e:	c6 85 af e6 ff ff 03 	mov    BYTE PTR [rbp-0x1951],0x3
    5b75:	c6 85 b0 e6 ff ff 02 	mov    BYTE PTR [rbp-0x1950],0x2
    5b7c:	c6 85 b1 e6 ff ff 0c 	mov    BYTE PTR [rbp-0x194f],0xc
    5b83:	c6 85 b2 e6 ff ff 8f 	mov    BYTE PTR [rbp-0x194e],0x8f
    5b8a:	c6 85 b3 e6 ff ff 90 	mov    BYTE PTR [rbp-0x194d],0x90
    5b91:	c6 85 b4 e6 ff ff 02 	mov    BYTE PTR [rbp-0x194c],0x2
    5b98:	c6 85 b5 e6 ff ff 1a 	mov    BYTE PTR [rbp-0x194b],0x1a
    5b9f:	c6 85 b6 e6 ff ff e0 	mov    BYTE PTR [rbp-0x194a],0xe0
    5ba6:	c6 85 b7 e6 ff ff 90 	mov    BYTE PTR [rbp-0x1949],0x90
    5bad:	c6 85 b8 e6 ff ff 04 	mov    BYTE PTR [rbp-0x1948],0x4
    5bb4:	c6 85 b9 e6 ff ff 50 	mov    BYTE PTR [rbp-0x1947],0x50
    5bbb:	c6 85 ba e6 ff ff f0 	mov    BYTE PTR [rbp-0x1946],0xf0
    5bc2:	c6 85 bb e6 ff ff 90 	mov    BYTE PTR [rbp-0x1945],0x90
    5bc9:	c6 85 bc e6 ff ff 02 	mov    BYTE PTR [rbp-0x1944],0x2
    5bd0:	c6 85 bd e6 ff ff 1b 	mov    BYTE PTR [rbp-0x1943],0x1b
    5bd7:	c6 85 be e6 ff ff e0 	mov    BYTE PTR [rbp-0x1942],0xe0
    5bde:	c6 85 bf e6 ff ff 90 	mov    BYTE PTR [rbp-0x1941],0x90
    5be5:	c6 85 c0 e6 ff ff 04 	mov    BYTE PTR [rbp-0x1940],0x4
    5bec:	c6 85 c1 e6 ff ff 51 	mov    BYTE PTR [rbp-0x193f],0x51
    5bf3:	c6 85 c2 e6 ff ff f0 	mov    BYTE PTR [rbp-0x193e],0xf0
    5bfa:	c6 85 c3 e6 ff ff 90 	mov    BYTE PTR [rbp-0x193d],0x90
    5c01:	c6 85 c4 e6 ff ff 02 	mov    BYTE PTR [rbp-0x193c],0x2
    5c08:	c6 85 c5 e6 ff ff 1c 	mov    BYTE PTR [rbp-0x193b],0x1c
    5c0f:	c6 85 c6 e6 ff ff e0 	mov    BYTE PTR [rbp-0x193a],0xe0
    5c16:	c6 85 c7 e6 ff ff 90 	mov    BYTE PTR [rbp-0x1939],0x90
    5c1d:	c6 85 c8 e6 ff ff 04 	mov    BYTE PTR [rbp-0x1938],0x4
    5c24:	c6 85 c9 e6 ff ff 52 	mov    BYTE PTR [rbp-0x1937],0x52
    5c2b:	c6 85 ca e6 ff ff f0 	mov    BYTE PTR [rbp-0x1936],0xf0
    5c32:	c6 85 cb e6 ff ff 90 	mov    BYTE PTR [rbp-0x1935],0x90
    5c39:	c6 85 cc e6 ff ff 02 	mov    BYTE PTR [rbp-0x1934],0x2
    5c40:	c6 85 cd e6 ff ff 1d 	mov    BYTE PTR [rbp-0x1933],0x1d
    5c47:	c6 85 ce e6 ff ff e0 	mov    BYTE PTR [rbp-0x1932],0xe0
    5c4e:	c6 85 cf e6 ff ff 90 	mov    BYTE PTR [rbp-0x1931],0x90
    5c55:	c6 85 d0 e6 ff ff 04 	mov    BYTE PTR [rbp-0x1930],0x4
    5c5c:	c6 85 d1 e6 ff ff 53 	mov    BYTE PTR [rbp-0x192f],0x53
    5c63:	c6 85 d2 e6 ff ff f0 	mov    BYTE PTR [rbp-0x192e],0xf0
    5c6a:	c6 85 d3 e6 ff ff 90 	mov    BYTE PTR [rbp-0x192d],0x90
    5c71:	c6 85 d4 e6 ff ff 02 	mov    BYTE PTR [rbp-0x192c],0x2
    5c78:	c6 85 d5 e6 ff ff 1e 	mov    BYTE PTR [rbp-0x192b],0x1e
    5c7f:	c6 85 d6 e6 ff ff e0 	mov    BYTE PTR [rbp-0x192a],0xe0
    5c86:	c6 85 d7 e6 ff ff 90 	mov    BYTE PTR [rbp-0x1929],0x90
    5c8d:	c6 85 d8 e6 ff ff 04 	mov    BYTE PTR [rbp-0x1928],0x4
    5c94:	c6 85 d9 e6 ff ff 48 	mov    BYTE PTR [rbp-0x1927],0x48
    5c9b:	c6 85 da e6 ff ff f0 	mov    BYTE PTR [rbp-0x1926],0xf0
    5ca2:	c6 85 db e6 ff ff 90 	mov    BYTE PTR [rbp-0x1925],0x90
    5ca9:	c6 85 dc e6 ff ff 02 	mov    BYTE PTR [rbp-0x1924],0x2
    5cb0:	c6 85 dd e6 ff ff 1f 	mov    BYTE PTR [rbp-0x1923],0x1f
    5cb7:	c6 85 de e6 ff ff e0 	mov    BYTE PTR [rbp-0x1922],0xe0
    5cbe:	c6 85 df e6 ff ff 90 	mov    BYTE PTR [rbp-0x1921],0x90
    5cc5:	c6 85 e0 e6 ff ff 04 	mov    BYTE PTR [rbp-0x1920],0x4
    5ccc:	c6 85 e1 e6 ff ff 49 	mov    BYTE PTR [rbp-0x191f],0x49
    5cd3:	c6 85 e2 e6 ff ff f0 	mov    BYTE PTR [rbp-0x191e],0xf0
    5cda:	c6 85 e3 e6 ff ff 90 	mov    BYTE PTR [rbp-0x191d],0x90
    5ce1:	c6 85 e4 e6 ff ff 02 	mov    BYTE PTR [rbp-0x191c],0x2
    5ce8:	c6 85 e5 e6 ff ff 20 	mov    BYTE PTR [rbp-0x191b],0x20
    5cef:	c6 85 e6 e6 ff ff e0 	mov    BYTE PTR [rbp-0x191a],0xe0
    5cf6:	c6 85 e7 e6 ff ff 90 	mov    BYTE PTR [rbp-0x1919],0x90
    5cfd:	c6 85 e8 e6 ff ff 04 	mov    BYTE PTR [rbp-0x1918],0x4
    5d04:	c6 85 e9 e6 ff ff 4a 	mov    BYTE PTR [rbp-0x1917],0x4a
    5d0b:	c6 85 ea e6 ff ff f0 	mov    BYTE PTR [rbp-0x1916],0xf0
    5d12:	c6 85 eb e6 ff ff 90 	mov    BYTE PTR [rbp-0x1915],0x90
    5d19:	c6 85 ec e6 ff ff 02 	mov    BYTE PTR [rbp-0x1914],0x2
    5d20:	c6 85 ed e6 ff ff 21 	mov    BYTE PTR [rbp-0x1913],0x21
    5d27:	c6 85 ee e6 ff ff e0 	mov    BYTE PTR [rbp-0x1912],0xe0
    5d2e:	48 8d 95 e0 e4 ff ff 	lea    rdx,[rbp-0x1b20]
    5d35:	b8 00 00 00 00       	mov    eax,0x0
    5d3a:	b9 21 00 00 00       	mov    ecx,0x21
    5d3f:	48 89 d7             	mov    rdi,rdx
    5d42:	f3 48 ab             	rep stos QWORD PTR es:[rdi],rax
    5d45:	48 89 fa             	mov    rdx,rdi
    5d48:	89 02                	mov    DWORD PTR [rdx],eax
    5d4a:	48 83 c2 04          	add    rdx,0x4
    5d4e:	66 89 02             	mov    WORD PTR [rdx],ax
    5d51:	48 83 c2 02          	add    rdx,0x2
    5d55:	c6 85 e1 e4 ff ff 58 	mov    BYTE PTR [rbp-0x1b1f],0x58
    5d5c:	c6 85 e2 e4 ff ff 8b 	mov    BYTE PTR [rbp-0x1b1e],0x8b
    5d63:	c6 85 e3 e4 ff ff f6 	mov    BYTE PTR [rbp-0x1b1d],0xf6
    5d6a:	c6 85 e4 e4 ff ff ff 	mov    BYTE PTR [rbp-0x1b1c],0xff
    5d71:	48 8d 95 d0 e3 ff ff 	lea    rdx,[rbp-0x1c30]
    5d78:	b8 00 00 00 00       	mov    eax,0x0
    5d7d:	b9 21 00 00 00       	mov    ecx,0x21
    5d82:	48 89 d7             	mov    rdi,rdx
    5d85:	f3 48 ab             	rep stos QWORD PTR es:[rdi],rax
    5d88:	48 89 fa             	mov    rdx,rdi
    5d8b:	89 02                	mov    DWORD PTR [rdx],eax
    5d8d:	48 83 c2 04          	add    rdx,0x4
    5d91:	66 89 02             	mov    WORD PTR [rdx],ax
    5d94:	48 83 c2 02          	add    rdx,0x2
    5d98:	c6 85 d0 e3 ff ff 90 	mov    BYTE PTR [rbp-0x1c30],0x90
    5d9f:	c6 85 d1 e3 ff ff 04 	mov    BYTE PTR [rbp-0x1c2f],0x4
    5da6:	c6 85 d2 e3 ff ff 4b 	mov    BYTE PTR [rbp-0x1c2e],0x4b
    5dad:	c6 85 d3 e3 ff ff f0 	mov    BYTE PTR [rbp-0x1c2d],0xf0
    5db4:	c6 85 d4 e3 ff ff 90 	mov    BYTE PTR [rbp-0x1c2c],0x90
    5dbb:	c6 85 d5 e3 ff ff 02 	mov    BYTE PTR [rbp-0x1c2b],0x2
    5dc2:	c6 85 d6 e3 ff ff 22 	mov    BYTE PTR [rbp-0x1c2a],0x22
    5dc9:	c6 85 d7 e3 ff ff e0 	mov    BYTE PTR [rbp-0x1c29],0xe0
    5dd0:	c6 85 d8 e3 ff ff 90 	mov    BYTE PTR [rbp-0x1c28],0x90
    5dd7:	c6 85 d9 e3 ff ff 04 	mov    BYTE PTR [rbp-0x1c27],0x4
    5dde:	c6 85 da e3 ff ff 4c 	mov    BYTE PTR [rbp-0x1c26],0x4c
    5de5:	c6 85 db e3 ff ff f0 	mov    BYTE PTR [rbp-0x1c25],0xf0
    5dec:	c6 85 dc e3 ff ff 90 	mov    BYTE PTR [rbp-0x1c24],0x90
    5df3:	c6 85 dd e3 ff ff 02 	mov    BYTE PTR [rbp-0x1c23],0x2
    5dfa:	c6 85 de e3 ff ff 23 	mov    BYTE PTR [rbp-0x1c22],0x23
    5e01:	c6 85 df e3 ff ff e0 	mov    BYTE PTR [rbp-0x1c21],0xe0
    5e08:	c6 85 e0 e3 ff ff 90 	mov    BYTE PTR [rbp-0x1c20],0x90
    5e0f:	c6 85 e1 e3 ff ff 04 	mov    BYTE PTR [rbp-0x1c1f],0x4
    5e16:	c6 85 e2 e3 ff ff 4d 	mov    BYTE PTR [rbp-0x1c1e],0x4d
    5e1d:	c6 85 e3 e3 ff ff f0 	mov    BYTE PTR [rbp-0x1c1d],0xf0
    5e24:	c6 85 e4 e3 ff ff 90 	mov    BYTE PTR [rbp-0x1c1c],0x90
    5e2b:	c6 85 e5 e3 ff ff 02 	mov    BYTE PTR [rbp-0x1c1b],0x2
    5e32:	c6 85 e6 e3 ff ff 24 	mov    BYTE PTR [rbp-0x1c1a],0x24
    5e39:	c6 85 e7 e3 ff ff e0 	mov    BYTE PTR [rbp-0x1c19],0xe0
    5e40:	c6 85 e8 e3 ff ff 90 	mov    BYTE PTR [rbp-0x1c18],0x90
    5e47:	c6 85 e9 e3 ff ff 04 	mov    BYTE PTR [rbp-0x1c17],0x4
    5e4e:	c6 85 ea e3 ff ff 4e 	mov    BYTE PTR [rbp-0x1c16],0x4e
    5e55:	c6 85 eb e3 ff ff f0 	mov    BYTE PTR [rbp-0x1c15],0xf0
    5e5c:	c6 85 ec e3 ff ff 90 	mov    BYTE PTR [rbp-0x1c14],0x90
    5e63:	c6 85 ed e3 ff ff 02 	mov    BYTE PTR [rbp-0x1c13],0x2
    5e6a:	c6 85 ee e3 ff ff 25 	mov    BYTE PTR [rbp-0x1c12],0x25
    5e71:	c6 85 ef e3 ff ff e0 	mov    BYTE PTR [rbp-0x1c11],0xe0
    5e78:	c6 85 f0 e3 ff ff 90 	mov    BYTE PTR [rbp-0x1c10],0x90
    5e7f:	c6 85 f1 e3 ff ff 04 	mov    BYTE PTR [rbp-0x1c0f],0x4
    5e86:	c6 85 f2 e3 ff ff 4f 	mov    BYTE PTR [rbp-0x1c0e],0x4f
    5e8d:	c6 85 f3 e3 ff ff f0 	mov    BYTE PTR [rbp-0x1c0d],0xf0
    5e94:	c6 85 f4 e3 ff ff 90 	mov    BYTE PTR [rbp-0x1c0c],0x90
    5e9b:	c6 85 f5 e3 ff ff 02 	mov    BYTE PTR [rbp-0x1c0b],0x2
    5ea2:	c6 85 f6 e3 ff ff 26 	mov    BYTE PTR [rbp-0x1c0a],0x26
    5ea9:	c6 85 f7 e3 ff ff e0 	mov    BYTE PTR [rbp-0x1c09],0xe0
    5eb0:	c6 85 f8 e3 ff ff 90 	mov    BYTE PTR [rbp-0x1c08],0x90
    5eb7:	c6 85 f9 e3 ff ff 04 	mov    BYTE PTR [rbp-0x1c07],0x4
    5ebe:	c6 85 fa e3 ff ff 54 	mov    BYTE PTR [rbp-0x1c06],0x54
    5ec5:	c6 85 fb e3 ff ff f0 	mov    BYTE PTR [rbp-0x1c05],0xf0
    5ecc:	c6 85 fc e3 ff ff 90 	mov    BYTE PTR [rbp-0x1c04],0x90
    5ed3:	c6 85 fd e3 ff ff 02 	mov    BYTE PTR [rbp-0x1c03],0x2
    5eda:	c6 85 fe e3 ff ff 27 	mov    BYTE PTR [rbp-0x1c02],0x27
    5ee1:	c6 85 ff e3 ff ff e0 	mov    BYTE PTR [rbp-0x1c01],0xe0
    5ee8:	c6 85 00 e4 ff ff 90 	mov    BYTE PTR [rbp-0x1c00],0x90
    5eef:	c6 85 01 e4 ff ff 04 	mov    BYTE PTR [rbp-0x1bff],0x4
    5ef6:	c6 85 02 e4 ff ff 55 	mov    BYTE PTR [rbp-0x1bfe],0x55
    5efd:	c6 85 03 e4 ff ff f0 	mov    BYTE PTR [rbp-0x1bfd],0xf0
    5f04:	c6 85 04 e4 ff ff 90 	mov    BYTE PTR [rbp-0x1bfc],0x90
    5f0b:	c6 85 05 e4 ff ff 02 	mov    BYTE PTR [rbp-0x1bfb],0x2
    5f12:	c6 85 06 e4 ff ff 28 	mov    BYTE PTR [rbp-0x1bfa],0x28
    5f19:	c6 85 07 e4 ff ff e0 	mov    BYTE PTR [rbp-0x1bf9],0xe0
    5f20:	c6 85 08 e4 ff ff 90 	mov    BYTE PTR [rbp-0x1bf8],0x90
    5f27:	c6 85 09 e4 ff ff 04 	mov    BYTE PTR [rbp-0x1bf7],0x4
    5f2e:	c6 85 0a e4 ff ff 56 	mov    BYTE PTR [rbp-0x1bf6],0x56
    5f35:	c6 85 0b e4 ff ff f0 	mov    BYTE PTR [rbp-0x1bf5],0xf0
    5f3c:	c6 85 0c e4 ff ff 90 	mov    BYTE PTR [rbp-0x1bf4],0x90
    5f43:	c6 85 0d e4 ff ff 02 	mov    BYTE PTR [rbp-0x1bf3],0x2
    5f4a:	c6 85 0e e4 ff ff 29 	mov    BYTE PTR [rbp-0x1bf2],0x29
    5f51:	c6 85 0f e4 ff ff e0 	mov    BYTE PTR [rbp-0x1bf1],0xe0
    5f58:	c6 85 10 e4 ff ff 90 	mov    BYTE PTR [rbp-0x1bf0],0x90
    5f5f:	c6 85 11 e4 ff ff 04 	mov    BYTE PTR [rbp-0x1bef],0x4
    5f66:	c6 85 12 e4 ff ff 57 	mov    BYTE PTR [rbp-0x1bee],0x57
    5f6d:	c6 85 13 e4 ff ff f0 	mov    BYTE PTR [rbp-0x1bed],0xf0
    5f74:	c6 85 14 e4 ff ff 90 	mov    BYTE PTR [rbp-0x1bec],0x90
    5f7b:	c6 85 15 e4 ff ff 02 	mov    BYTE PTR [rbp-0x1beb],0x2
    5f82:	c6 85 16 e4 ff ff 2a 	mov    BYTE PTR [rbp-0x1bea],0x2a
    5f89:	c6 85 17 e4 ff ff e0 	mov    BYTE PTR [rbp-0x1be9],0xe0
    5f90:	c6 85 18 e4 ff ff 90 	mov    BYTE PTR [rbp-0x1be8],0x90
    5f97:	c6 85 19 e4 ff ff 04 	mov    BYTE PTR [rbp-0x1be7],0x4
    5f9e:	c6 85 1a e4 ff ff 58 	mov    BYTE PTR [rbp-0x1be6],0x58
    5fa5:	c6 85 1b e4 ff ff f0 	mov    BYTE PTR [rbp-0x1be5],0xf0
    5fac:	c6 85 1c e4 ff ff 90 	mov    BYTE PTR [rbp-0x1be4],0x90
    5fb3:	c6 85 1d e4 ff ff 02 	mov    BYTE PTR [rbp-0x1be3],0x2
    5fba:	c6 85 1e e4 ff ff 2b 	mov    BYTE PTR [rbp-0x1be2],0x2b
    5fc1:	c6 85 1f e4 ff ff e0 	mov    BYTE PTR [rbp-0x1be1],0xe0
    5fc8:	c6 85 20 e4 ff ff 64 	mov    BYTE PTR [rbp-0x1be0],0x64
    5fcf:	c6 85 21 e4 ff ff 01 	mov    BYTE PTR [rbp-0x1bdf],0x1
    5fd6:	c6 85 22 e4 ff ff 70 	mov    BYTE PTR [rbp-0x1bde],0x70
    5fdd:	c6 85 23 e4 ff ff 09 	mov    BYTE PTR [rbp-0x1bdd],0x9
    5fe4:	c6 85 24 e4 ff ff 90 	mov    BYTE PTR [rbp-0x1bdc],0x90
    5feb:	c6 85 25 e4 ff ff 04 	mov    BYTE PTR [rbp-0x1bdb],0x4
    5ff2:	c6 85 26 e4 ff ff 63 	mov    BYTE PTR [rbp-0x1bda],0x63
    5ff9:	c6 85 27 e4 ff ff e0 	mov    BYTE PTR [rbp-0x1bd9],0xe0
    6000:	c6 85 28 e4 ff ff 64 	mov    BYTE PTR [rbp-0x1bd8],0x64
    6007:	c6 85 29 e4 ff ff ca 	mov    BYTE PTR [rbp-0x1bd7],0xca
    600e:	c6 85 2a e4 ff ff 70 	mov    BYTE PTR [rbp-0x1bd6],0x70
    6015:	c6 85 2b e4 ff ff 01 	mov    BYTE PTR [rbp-0x1bd5],0x1
    601c:	c6 85 2c e4 ff ff f0 	mov    BYTE PTR [rbp-0x1bd4],0xf0
    6023:	c6 85 2d e4 ff ff 90 	mov    BYTE PTR [rbp-0x1bd3],0x90
    602a:	c6 85 2e e4 ff ff 02 	mov    BYTE PTR [rbp-0x1bd2],0x2
    6031:	c6 85 2f e4 ff ff 2b 	mov    BYTE PTR [rbp-0x1bd1],0x2b
    6038:	c6 85 30 e4 ff ff e0 	mov    BYTE PTR [rbp-0x1bd0],0xe0
    603f:	c6 85 31 e4 ff ff 90 	mov    BYTE PTR [rbp-0x1bcf],0x90
    6046:	c6 85 32 e4 ff ff 04 	mov    BYTE PTR [rbp-0x1bce],0x4
    604d:	c6 85 33 e4 ff ff 5d 	mov    BYTE PTR [rbp-0x1bcd],0x5d
    6054:	c6 85 34 e4 ff ff f0 	mov    BYTE PTR [rbp-0x1bcc],0xf0
    605b:	c6 85 35 e4 ff ff 90 	mov    BYTE PTR [rbp-0x1bcb],0x90
    6062:	c6 85 36 e4 ff ff 02 	mov    BYTE PTR [rbp-0x1bca],0x2
    6069:	c6 85 37 e4 ff ff 2c 	mov    BYTE PTR [rbp-0x1bc9],0x2c
    6070:	c6 85 38 e4 ff ff e0 	mov    BYTE PTR [rbp-0x1bc8],0xe0
    6077:	c6 85 39 e4 ff ff 90 	mov    BYTE PTR [rbp-0x1bc7],0x90
    607e:	c6 85 3a e4 ff ff 04 	mov    BYTE PTR [rbp-0x1bc6],0x4
    6085:	c6 85 3b e4 ff ff 5e 	mov    BYTE PTR [rbp-0x1bc5],0x5e
    608c:	c6 85 3c e4 ff ff f0 	mov    BYTE PTR [rbp-0x1bc4],0xf0
    6093:	c6 85 3d e4 ff ff 90 	mov    BYTE PTR [rbp-0x1bc3],0x90
    609a:	c6 85 3e e4 ff ff 04 	mov    BYTE PTR [rbp-0x1bc2],0x4
    60a1:	c6 85 3f e4 ff ff 58 	mov    BYTE PTR [rbp-0x1bc1],0x58
    60a8:	c6 85 40 e4 ff ff e0 	mov    BYTE PTR [rbp-0x1bc0],0xe0
    60af:	c6 85 41 e4 ff ff 60 	mov    BYTE PTR [rbp-0x1bbf],0x60
    60b6:	c6 85 42 e4 ff ff 0e 	mov    BYTE PTR [rbp-0x1bbe],0xe
    60bd:	c6 85 43 e4 ff ff a3 	mov    BYTE PTR [rbp-0x1bbd],0xa3
    60c4:	c6 85 44 e4 ff ff e0 	mov    BYTE PTR [rbp-0x1bbc],0xe0
    60cb:	c6 85 45 e4 ff ff 70 	mov    BYTE PTR [rbp-0x1bbb],0x70
    60d2:	c6 85 46 e4 ff ff 22 	mov    BYTE PTR [rbp-0x1bba],0x22
    60d9:	c6 85 47 e4 ff ff a3 	mov    BYTE PTR [rbp-0x1bb9],0xa3
    60e0:	c6 85 48 e4 ff ff e0 	mov    BYTE PTR [rbp-0x1bb8],0xe0
    60e7:	c6 85 49 e4 ff ff 70 	mov    BYTE PTR [rbp-0x1bb7],0x70
    60ee:	c6 85 4a e4 ff ff 1e 	mov    BYTE PTR [rbp-0x1bb6],0x1e
    60f5:	c6 85 4b e4 ff ff 90 	mov    BYTE PTR [rbp-0x1bb5],0x90
    60fc:	c6 85 4c e4 ff ff 04 	mov    BYTE PTR [rbp-0x1bb4],0x4
    6103:	c6 85 4d e4 ff ff 61 	mov    BYTE PTR [rbp-0x1bb3],0x61
    610a:	c6 85 4e e4 ff ff e0 	mov    BYTE PTR [rbp-0x1bb2],0xe0
    6111:	c6 85 4f e4 ff ff 70 	mov    BYTE PTR [rbp-0x1bb1],0x70
    6118:	c6 85 50 e4 ff ff 18 	mov    BYTE PTR [rbp-0x1bb0],0x18
    611f:	c6 85 51 e4 ff ff 90 	mov    BYTE PTR [rbp-0x1baf],0x90
    6126:	c6 85 52 e4 ff ff 06 	mov    BYTE PTR [rbp-0x1bae],0x6
    612d:	c6 85 53 e4 ff ff f4 	mov    BYTE PTR [rbp-0x1bad],0xf4
    6134:	c6 85 54 e4 ff ff e0 	mov    BYTE PTR [rbp-0x1bac],0xe0
    613b:	c6 85 55 e4 ff ff 90 	mov    BYTE PTR [rbp-0x1bab],0x90
    6142:	c6 85 56 e4 ff ff 04 	mov    BYTE PTR [rbp-0x1baa],0x4
    6149:	c6 85 57 e4 ff ff 59 	mov    BYTE PTR [rbp-0x1ba9],0x59
    6150:	c6 85 58 e4 ff ff f0 	mov    BYTE PTR [rbp-0x1ba8],0xf0
    6157:	c6 85 59 e4 ff ff 90 	mov    BYTE PTR [rbp-0x1ba7],0x90
    615e:	c6 85 5a e4 ff ff 06 	mov    BYTE PTR [rbp-0x1ba6],0x6
    6165:	c6 85 5b e4 ff ff f5 	mov    BYTE PTR [rbp-0x1ba5],0xf5
    616c:	c6 85 5c e4 ff ff e0 	mov    BYTE PTR [rbp-0x1ba4],0xe0
    6173:	c6 85 5d e4 ff ff 90 	mov    BYTE PTR [rbp-0x1ba3],0x90
    617a:	c6 85 5e e4 ff ff 04 	mov    BYTE PTR [rbp-0x1ba2],0x4
    6181:	c6 85 5f e4 ff ff 5a 	mov    BYTE PTR [rbp-0x1ba1],0x5a
    6188:	c6 85 60 e4 ff ff f0 	mov    BYTE PTR [rbp-0x1ba0],0xf0
    618f:	c6 85 61 e4 ff ff 90 	mov    BYTE PTR [rbp-0x1b9f],0x90
    6196:	c6 85 62 e4 ff ff 06 	mov    BYTE PTR [rbp-0x1b9e],0x6
    619d:	c6 85 63 e4 ff ff f6 	mov    BYTE PTR [rbp-0x1b9d],0xf6
    61a4:	c6 85 64 e4 ff ff e0 	mov    BYTE PTR [rbp-0x1b9c],0xe0
    61ab:	c6 85 65 e4 ff ff 90 	mov    BYTE PTR [rbp-0x1b9b],0x90
    61b2:	c6 85 66 e4 ff ff 04 	mov    BYTE PTR [rbp-0x1b9a],0x4
    61b9:	c6 85 67 e4 ff ff 61 	mov    BYTE PTR [rbp-0x1b99],0x61
    61c0:	c6 85 68 e4 ff ff f0 	mov    BYTE PTR [rbp-0x1b98],0xf0
    61c7:	c6 85 69 e4 ff ff 90 	mov    BYTE PTR [rbp-0x1b97],0x90
    61ce:	c6 85 6a e4 ff ff 02 	mov    BYTE PTR [rbp-0x1b96],0x2
    61d5:	c6 85 6b e4 ff ff 07 	mov    BYTE PTR [rbp-0x1b95],0x7
    61dc:	c6 85 6c e4 ff ff e0 	mov    BYTE PTR [rbp-0x1b94],0xe0
    61e3:	c6 85 6d e4 ff ff 90 	mov    BYTE PTR [rbp-0x1b93],0x90
    61ea:	c6 85 6e e4 ff ff 04 	mov    BYTE PTR [rbp-0x1b92],0x4
    61f1:	c6 85 6f e4 ff ff 5f 	mov    BYTE PTR [rbp-0x1b91],0x5f
    61f8:	c6 85 70 e4 ff ff f0 	mov    BYTE PTR [rbp-0x1b90],0xf0
    61ff:	c6 85 71 e4 ff ff 90 	mov    BYTE PTR [rbp-0x1b8f],0x90
    6206:	c6 85 72 e4 ff ff 02 	mov    BYTE PTR [rbp-0x1b8e],0x2
    620d:	c6 85 73 e4 ff ff 45 	mov    BYTE PTR [rbp-0x1b8d],0x45
    6214:	c6 85 74 e4 ff ff e0 	mov    BYTE PTR [rbp-0x1b8c],0xe0
    621b:	c6 85 75 e4 ff ff 90 	mov    BYTE PTR [rbp-0x1b8b],0x90
    6222:	c6 85 76 e4 ff ff 04 	mov    BYTE PTR [rbp-0x1b8a],0x4
    6229:	c6 85 77 e4 ff ff 60 	mov    BYTE PTR [rbp-0x1b89],0x60
    6230:	c6 85 78 e4 ff ff f0 	mov    BYTE PTR [rbp-0x1b88],0xf0
    6237:	c6 85 79 e4 ff ff 12 	mov    BYTE PTR [rbp-0x1b87],0x12
    623e:	c6 85 7a e4 ff ff 19 	mov    BYTE PTR [rbp-0x1b86],0x19
    6245:	c6 85 7b e4 ff ff 1c 	mov    BYTE PTR [rbp-0x1b85],0x1c
    624c:	c6 85 7c e4 ff ff 7f 	mov    BYTE PTR [rbp-0x1b84],0x7f
    6253:	c6 85 7e e4 ff ff 7e 	mov    BYTE PTR [rbp-0x1b82],0x7e
    625a:	c6 85 7f e4 ff ff 70 	mov    BYTE PTR [rbp-0x1b81],0x70
    6261:	c6 85 80 e4 ff ff 12 	mov    BYTE PTR [rbp-0x1b80],0x12
    6268:	c6 85 81 e4 ff ff 10 	mov    BYTE PTR [rbp-0x1b7f],0x10
    626f:	c6 85 82 e4 ff ff 42 	mov    BYTE PTR [rbp-0x1b7e],0x42
    6276:	c6 85 83 e4 ff ff 12 	mov    BYTE PTR [rbp-0x1b7d],0x12
    627d:	c6 85 84 e4 ff ff 1c 	mov    BYTE PTR [rbp-0x1b7c],0x1c
    6284:	c6 85 85 e4 ff ff 79 	mov    BYTE PTR [rbp-0x1b7b],0x79
    628b:	c6 85 86 e4 ff ff e4 	mov    BYTE PTR [rbp-0x1b7a],0xe4
    6292:	c6 85 87 e4 ff ff ff 	mov    BYTE PTR [rbp-0x1b79],0xff
    6299:	c6 85 88 e4 ff ff 80 	mov    BYTE PTR [rbp-0x1b78],0x80
    62a0:	c6 85 89 e4 ff ff 2f 	mov    BYTE PTR [rbp-0x1b77],0x2f
    62a7:	c6 85 8a e4 ff ff 12 	mov    BYTE PTR [rbp-0x1b76],0x12
    62ae:	c6 85 8b e4 ff ff 1c 	mov    BYTE PTR [rbp-0x1b75],0x1c
    62b5:	c6 85 8c e4 ff ff 79 	mov    BYTE PTR [rbp-0x1b74],0x79
    62bc:	c6 85 8d e4 ff ff 90 	mov    BYTE PTR [rbp-0x1b73],0x90
    62c3:	c6 85 8f e4 ff ff 12 	mov    BYTE PTR [rbp-0x1b71],0x12
    62ca:	c6 85 90 e4 ff ff 74 	mov    BYTE PTR [rbp-0x1b70],0x74
    62d1:	c6 85 91 e4 ff ff 74 	mov    BYTE PTR [rbp-0x1b6f],0x74
    62d8:	c6 85 92 e4 ff ff f0 	mov    BYTE PTR [rbp-0x1b6e],0xf0
    62df:	c6 85 93 e4 ff ff a3 	mov    BYTE PTR [rbp-0x1b6d],0xa3
    62e6:	c6 85 94 e4 ff ff 74 	mov    BYTE PTR [rbp-0x1b6c],0x74
    62ed:	c6 85 95 e4 ff ff 04 	mov    BYTE PTR [rbp-0x1b6b],0x4
    62f4:	c6 85 96 e4 ff ff f0 	mov    BYTE PTR [rbp-0x1b6a],0xf0
    62fb:	c6 85 97 e4 ff ff 90 	mov    BYTE PTR [rbp-0x1b69],0x90
    6302:	c6 85 98 e4 ff ff 06 	mov    BYTE PTR [rbp-0x1b68],0x6
    6309:	c6 85 99 e4 ff ff f0 	mov    BYTE PTR [rbp-0x1b67],0xf0
    6310:	c6 85 9a e4 ff ff e0 	mov    BYTE PTR [rbp-0x1b66],0xe0
    6317:	c6 85 9b e4 ff ff 90 	mov    BYTE PTR [rbp-0x1b65],0x90
    631e:	c6 85 9d e4 ff ff 14 	mov    BYTE PTR [rbp-0x1b63],0x14
    6325:	c6 85 9e e4 ff ff f0 	mov    BYTE PTR [rbp-0x1b62],0xf0
    632c:	c6 85 9f e4 ff ff 90 	mov    BYTE PTR [rbp-0x1b61],0x90
    6333:	c6 85 a0 e4 ff ff 06 	mov    BYTE PTR [rbp-0x1b60],0x6
    633a:	c6 85 a1 e4 ff ff f1 	mov    BYTE PTR [rbp-0x1b5f],0xf1
    6341:	c6 85 a2 e4 ff ff e0 	mov    BYTE PTR [rbp-0x1b5e],0xe0
    6348:	c6 85 a3 e4 ff ff 90 	mov    BYTE PTR [rbp-0x1b5d],0x90
    634f:	c6 85 a5 e4 ff ff 15 	mov    BYTE PTR [rbp-0x1b5b],0x15
    6356:	c6 85 a6 e4 ff ff f0 	mov    BYTE PTR [rbp-0x1b5a],0xf0
    635d:	c6 85 a7 e4 ff ff 90 	mov    BYTE PTR [rbp-0x1b59],0x90
    6364:	c6 85 a8 e4 ff ff 06 	mov    BYTE PTR [rbp-0x1b58],0x6
    636b:	c6 85 a9 e4 ff ff f2 	mov    BYTE PTR [rbp-0x1b57],0xf2
    6372:	c6 85 aa e4 ff ff e0 	mov    BYTE PTR [rbp-0x1b56],0xe0
    6379:	c6 85 ab e4 ff ff 90 	mov    BYTE PTR [rbp-0x1b55],0x90
    6380:	c6 85 ad e4 ff ff 16 	mov    BYTE PTR [rbp-0x1b53],0x16
    6387:	c6 85 ae e4 ff ff f0 	mov    BYTE PTR [rbp-0x1b52],0xf0
    638e:	c6 85 af e4 ff ff 90 	mov    BYTE PTR [rbp-0x1b51],0x90
    6395:	c6 85 b0 e4 ff ff 06 	mov    BYTE PTR [rbp-0x1b50],0x6
    639c:	c6 85 b1 e4 ff ff f3 	mov    BYTE PTR [rbp-0x1b4f],0xf3
    63a3:	c6 85 b2 e4 ff ff e0 	mov    BYTE PTR [rbp-0x1b4e],0xe0
    63aa:	c6 85 b3 e4 ff ff 90 	mov    BYTE PTR [rbp-0x1b4d],0x90
    63b1:	c6 85 b5 e4 ff ff 17 	mov    BYTE PTR [rbp-0x1b4b],0x17
    63b8:	c6 85 b6 e4 ff ff f0 	mov    BYTE PTR [rbp-0x1b4a],0xf0
    63bf:	c6 85 b7 e4 ff ff 7f 	mov    BYTE PTR [rbp-0x1b49],0x7f
    63c6:	c6 85 b8 e4 ff ff 06 	mov    BYTE PTR [rbp-0x1b48],0x6
    63cd:	c6 85 b9 e4 ff ff 12 	mov    BYTE PTR [rbp-0x1b47],0x12
    63d4:	c6 85 ba e4 ff ff 1d 	mov    BYTE PTR [rbp-0x1b46],0x1d
    63db:	c6 85 bb e4 ff ff b5 	mov    BYTE PTR [rbp-0x1b45],0xb5
    63e2:	c6 85 bc e4 ff ff 02 	mov    BYTE PTR [rbp-0x1b44],0x2
    63e9:	c6 85 bd e4 ff ff 02 	mov    BYTE PTR [rbp-0x1b43],0x2
    63f0:	c6 85 be e4 ff ff 31 	mov    BYTE PTR [rbp-0x1b42],0x31
    63f7:	c6 85 bf e4 ff ff 12 	mov    BYTE PTR [rbp-0x1b41],0x12
    63fe:	c6 85 c0 e4 ff ff 1c 	mov    BYTE PTR [rbp-0x1b40],0x1c
    6405:	c6 85 c1 e4 ff ff 79 	mov    BYTE PTR [rbp-0x1b3f],0x79
    640c:	c6 85 c2 e4 ff ff e4 	mov    BYTE PTR [rbp-0x1b3e],0xe4
    6413:	c6 85 c3 e4 ff ff ff 	mov    BYTE PTR [rbp-0x1b3d],0xff
    641a:	c6 85 c4 e4 ff ff 12 	mov    BYTE PTR [rbp-0x1b3c],0x12
    6421:	c6 85 c5 e4 ff ff 1d 	mov    BYTE PTR [rbp-0x1b3b],0x1d
    6428:	c6 85 c6 e4 ff ff b5 	mov    BYTE PTR [rbp-0x1b3a],0xb5
    642f:	c6 85 c7 e4 ff ff 02 	mov    BYTE PTR [rbp-0x1b39],0x2
    6436:	c6 85 c8 e4 ff ff 02 	mov    BYTE PTR [rbp-0x1b38],0x2
    643d:	c6 85 c9 e4 ff ff 31 	mov    BYTE PTR [rbp-0x1b37],0x31
    6444:	c6 85 ca e4 ff ff ef 	mov    BYTE PTR [rbp-0x1b36],0xef
    644b:	c6 85 cb e4 ff ff f0 	mov    BYTE PTR [rbp-0x1b35],0xf0
    6452:	c6 85 cc e4 ff ff 12 	mov    BYTE PTR [rbp-0x1b34],0x12
    6459:	c6 85 cd e4 ff ff 1d 	mov    BYTE PTR [rbp-0x1b33],0x1d
    6460:	c6 85 ce e4 ff ff df 	mov    BYTE PTR [rbp-0x1b32],0xdf
    6467:	48 8d 95 c0 e2 ff ff 	lea    rdx,[rbp-0x1d40]
    646e:	b8 00 00 00 00       	mov    eax,0x0
    6473:	b9 21 00 00 00       	mov    ecx,0x21
    6478:	48 89 d7             	mov    rdi,rdx
    647b:	f3 48 ab             	rep stos QWORD PTR es:[rdi],rax
    647e:	48 89 fa             	mov    rdx,rdi
    6481:	89 02                	mov    DWORD PTR [rdx],eax
    6483:	48 83 c2 04          	add    rdx,0x4
    6487:	66 89 02             	mov    WORD PTR [rdx],ax
    648a:	48 83 c2 02          	add    rdx,0x2
    648e:	c6 85 c1 e2 ff ff 58 	mov    BYTE PTR [rbp-0x1d3f],0x58
    6495:	c6 85 c2 e2 ff ff 8c 	mov    BYTE PTR [rbp-0x1d3e],0x8c
    649c:	c6 85 c3 e2 ff ff f5 	mov    BYTE PTR [rbp-0x1d3d],0xf5
    64a3:	c6 85 c4 e2 ff ff ff 	mov    BYTE PTR [rbp-0x1d3c],0xff
    64aa:	48 8d 95 b0 e1 ff ff 	lea    rdx,[rbp-0x1e50]
    64b1:	b8 00 00 00 00       	mov    eax,0x0
    64b6:	b9 21 00 00 00       	mov    ecx,0x21
    64bb:	48 89 d7             	mov    rdi,rdx
    64be:	f3 48 ab             	rep stos QWORD PTR es:[rdi],rax
    64c1:	48 89 fa             	mov    rdx,rdi
    64c4:	89 02                	mov    DWORD PTR [rdx],eax
    64c6:	48 83 c2 04          	add    rdx,0x4
    64ca:	66 89 02             	mov    WORD PTR [rdx],ax
    64cd:	48 83 c2 02          	add    rdx,0x2
    64d1:	c6 85 b0 e1 ff ff 12 	mov    BYTE PTR [rbp-0x1e50],0x12
    64d8:	c6 85 b1 e1 ff ff 1d 	mov    BYTE PTR [rbp-0x1e4f],0x1d
    64df:	c6 85 b2 e1 ff ff df 	mov    BYTE PTR [rbp-0x1e4e],0xdf
    64e6:	c6 85 b3 e1 ff ff 12 	mov    BYTE PTR [rbp-0x1e4d],0x12
    64ed:	c6 85 b4 e1 ff ff 1d 	mov    BYTE PTR [rbp-0x1e4c],0x1d
    64f4:	c6 85 b5 e1 ff ff df 	mov    BYTE PTR [rbp-0x1e4b],0xdf
    64fb:	c6 85 b6 e1 ff ff 12 	mov    BYTE PTR [rbp-0x1e4a],0x12
    6502:	c6 85 b7 e1 ff ff 1d 	mov    BYTE PTR [rbp-0x1e49],0x1d
    6509:	c6 85 b8 e1 ff ff df 	mov    BYTE PTR [rbp-0x1e48],0xdf
    6510:	c6 85 b9 e1 ff ff 22 	mov    BYTE PTR [rbp-0x1e47],0x22
    6517:	c6 85 ba e1 ff ff f0 	mov    BYTE PTR [rbp-0x1e46],0xf0
    651e:	c6 85 bb e1 ff ff 7b 	mov    BYTE PTR [rbp-0x1e45],0x7b
    6525:	c6 85 bc e1 ff ff 01 	mov    BYTE PTR [rbp-0x1e44],0x1
    652c:	c6 85 bd e1 ff ff 7a 	mov    BYTE PTR [rbp-0x1e43],0x7a
    6533:	c6 85 be e1 ff ff 04 	mov    BYTE PTR [rbp-0x1e42],0x4
    653a:	c6 85 bf e1 ff ff 79 	mov    BYTE PTR [rbp-0x1e41],0x79
    6541:	c6 85 c0 e1 ff ff 48 	mov    BYTE PTR [rbp-0x1e40],0x48
    6548:	c6 85 c1 e1 ff ff 90 	mov    BYTE PTR [rbp-0x1e3f],0x90
    654f:	c6 85 c2 e1 ff ff 06 	mov    BYTE PTR [rbp-0x1e3e],0x6
    6556:	c6 85 c3 e1 ff ff c2 	mov    BYTE PTR [rbp-0x1e3d],0xc2
    655d:	c6 85 c4 e1 ff ff 74 	mov    BYTE PTR [rbp-0x1e3c],0x74
    6564:	c6 85 c5 e1 ff ff ff 	mov    BYTE PTR [rbp-0x1e3b],0xff
    656b:	c6 85 c6 e1 ff ff f0 	mov    BYTE PTR [rbp-0x1e3a],0xf0
    6572:	c6 85 c7 e1 ff ff 7f 	mov    BYTE PTR [rbp-0x1e39],0x7f
    6579:	c6 85 c9 e1 ff ff 7e 	mov    BYTE PTR [rbp-0x1e37],0x7e
    6580:	c6 85 ca e1 ff ff 70 	mov    BYTE PTR [rbp-0x1e36],0x70
    6587:	c6 85 cb e1 ff ff 12 	mov    BYTE PTR [rbp-0x1e35],0x12
    658e:	c6 85 cc e1 ff ff 10 	mov    BYTE PTR [rbp-0x1e34],0x10
    6595:	c6 85 cd e1 ff ff 42 	mov    BYTE PTR [rbp-0x1e33],0x42
    659c:	c6 85 ce e1 ff ff 22 	mov    BYTE PTR [rbp-0x1e32],0x22
    65a3:	c6 85 cf e1 ff ff 12 	mov    BYTE PTR [rbp-0x1e31],0x12
    65aa:	c6 85 d0 e1 ff ff 1d 	mov    BYTE PTR [rbp-0x1e30],0x1d
    65b1:	c6 85 d1 e1 ff ff df 	mov    BYTE PTR [rbp-0x1e2f],0xdf
    65b8:	c6 85 d2 e1 ff ff 12 	mov    BYTE PTR [rbp-0x1e2e],0x12
    65bf:	c6 85 d3 e1 ff ff 1d 	mov    BYTE PTR [rbp-0x1e2d],0x1d
    65c6:	c6 85 d4 e1 ff ff df 	mov    BYTE PTR [rbp-0x1e2c],0xdf
    65cd:	c6 85 d5 e1 ff ff 12 	mov    BYTE PTR [rbp-0x1e2b],0x12
    65d4:	c6 85 d6 e1 ff ff 1d 	mov    BYTE PTR [rbp-0x1e2a],0x1d
    65db:	c6 85 d7 e1 ff ff df 	mov    BYTE PTR [rbp-0x1e29],0xdf
    65e2:	c6 85 d8 e1 ff ff 12 	mov    BYTE PTR [rbp-0x1e28],0x12
    65e9:	c6 85 d9 e1 ff ff 1d 	mov    BYTE PTR [rbp-0x1e27],0x1d
    65f0:	c6 85 da e1 ff ff df 	mov    BYTE PTR [rbp-0x1e26],0xdf
    65f7:	c6 85 db e1 ff ff 22 	mov    BYTE PTR [rbp-0x1e25],0x22
    65fe:	c6 85 dc e1 ff ff 7b 	mov    BYTE PTR [rbp-0x1e24],0x7b
    6605:	c6 85 dd e1 ff ff 01 	mov    BYTE PTR [rbp-0x1e23],0x1
    660c:	c6 85 de e1 ff ff 7a 	mov    BYTE PTR [rbp-0x1e22],0x7a
    6613:	c6 85 df e1 ff ff 04 	mov    BYTE PTR [rbp-0x1e21],0x4
    661a:	c6 85 e0 e1 ff ff 79 	mov    BYTE PTR [rbp-0x1e20],0x79
    6621:	c6 85 e1 e1 ff ff 48 	mov    BYTE PTR [rbp-0x1e1f],0x48
    6628:	c6 85 e2 e1 ff ff e4 	mov    BYTE PTR [rbp-0x1e1e],0xe4
    662f:	c6 85 e3 e1 ff ff 90 	mov    BYTE PTR [rbp-0x1e1d],0x90
    6636:	c6 85 e4 e1 ff ff 06 	mov    BYTE PTR [rbp-0x1e1c],0x6
    663d:	c6 85 e5 e1 ff ff c2 	mov    BYTE PTR [rbp-0x1e1b],0xc2
    6644:	c6 85 e6 e1 ff ff f0 	mov    BYTE PTR [rbp-0x1e1a],0xf0
    664b:	c6 85 e7 e1 ff ff a3 	mov    BYTE PTR [rbp-0x1e19],0xa3
    6652:	c6 85 e8 e1 ff ff f0 	mov    BYTE PTR [rbp-0x1e18],0xf0
    6659:	c6 85 e9 e1 ff ff fd 	mov    BYTE PTR [rbp-0x1e17],0xfd
    6660:	c6 85 ea e1 ff ff 7c 	mov    BYTE PTR [rbp-0x1e16],0x7c
    6667:	c6 85 eb e1 ff ff 70 	mov    BYTE PTR [rbp-0x1e15],0x70
    666e:	c6 85 ec e1 ff ff 12 	mov    BYTE PTR [rbp-0x1e14],0x12
    6675:	c6 85 ed e1 ff ff 1d 	mov    BYTE PTR [rbp-0x1e13],0x1d
    667c:	c6 85 ee e1 ff ff 4e 	mov    BYTE PTR [rbp-0x1e12],0x4e
    6683:	c6 85 ef e1 ff ff 22 	mov    BYTE PTR [rbp-0x1e11],0x22
    668a:	c6 85 f0 e1 ff ff 12 	mov    BYTE PTR [rbp-0x1e10],0x12
    6691:	c6 85 f1 e1 ff ff 1d 	mov    BYTE PTR [rbp-0x1e0f],0x1d
    6698:	c6 85 f2 e1 ff ff df 	mov    BYTE PTR [rbp-0x1e0e],0xdf
    669f:	c6 85 f3 e1 ff ff 90 	mov    BYTE PTR [rbp-0x1e0d],0x90
    66a6:	c6 85 f4 e1 ff ff 06 	mov    BYTE PTR [rbp-0x1e0c],0x6
    66ad:	c6 85 f5 e1 ff ff a8 	mov    BYTE PTR [rbp-0x1e0b],0xa8
    66b4:	c6 85 f6 e1 ff ff e4 	mov    BYTE PTR [rbp-0x1e0a],0xe4
    66bb:	c6 85 f7 e1 ff ff 75 	mov    BYTE PTR [rbp-0x1e09],0x75
    66c2:	c6 85 f8 e1 ff ff f0 	mov    BYTE PTR [rbp-0x1e08],0xf0
    66c9:	c6 85 f9 e1 ff ff 01 	mov    BYTE PTR [rbp-0x1e07],0x1
    66d0:	c6 85 fa e1 ff ff 12 	mov    BYTE PTR [rbp-0x1e06],0x12
    66d7:	c6 85 fb e1 ff ff 14 	mov    BYTE PTR [rbp-0x1e05],0x14
    66de:	c6 85 fc e1 ff ff 1c 	mov    BYTE PTR [rbp-0x1e04],0x1c
    66e5:	c6 85 fd e1 ff ff 22 	mov    BYTE PTR [rbp-0x1e03],0x22
    66ec:	c6 85 fe e1 ff ff 12 	mov    BYTE PTR [rbp-0x1e02],0x12
    66f3:	c6 85 ff e1 ff ff 1d 	mov    BYTE PTR [rbp-0x1e01],0x1d
    66fa:	c6 85 00 e2 ff ff df 	mov    BYTE PTR [rbp-0x1e00],0xdf
    6701:	c6 85 01 e2 ff ff 90 	mov    BYTE PTR [rbp-0x1dff],0x90
    6708:	c6 85 03 e2 ff ff 10 	mov    BYTE PTR [rbp-0x1dfd],0x10
    670f:	c6 85 04 e2 ff ff ef 	mov    BYTE PTR [rbp-0x1dfc],0xef
    6716:	c6 85 05 e2 ff ff f0 	mov    BYTE PTR [rbp-0x1dfb],0xf0
    671d:	c6 85 06 e2 ff ff 22 	mov    BYTE PTR [rbp-0x1dfa],0x22
    6724:	c6 85 07 e2 ff ff 12 	mov    BYTE PTR [rbp-0x1df9],0x12
    672b:	c6 85 08 e2 ff ff 1d 	mov    BYTE PTR [rbp-0x1df8],0x1d
    6732:	c6 85 09 e2 ff ff d3 	mov    BYTE PTR [rbp-0x1df7],0xd3
    6739:	c6 85 0a e2 ff ff 7f 	mov    BYTE PTR [rbp-0x1df6],0x7f
    6740:	c6 85 0b e2 ff ff 30 	mov    BYTE PTR [rbp-0x1df5],0x30
    6747:	c6 85 0c e2 ff ff 12 	mov    BYTE PTR [rbp-0x1df4],0x12
    674e:	c6 85 0d e2 ff ff 1d 	mov    BYTE PTR [rbp-0x1df3],0x1d
    6755:	c6 85 0e e2 ff ff d3 	mov    BYTE PTR [rbp-0x1df2],0xd3
    675c:	c6 85 0f e2 ff ff 22 	mov    BYTE PTR [rbp-0x1df1],0x22
    6763:	c6 85 10 e2 ff ff 12 	mov    BYTE PTR [rbp-0x1df0],0x12
    676a:	c6 85 11 e2 ff ff 1c 	mov    BYTE PTR [rbp-0x1def],0x1c
    6771:	c6 85 12 e2 ff ff 79 	mov    BYTE PTR [rbp-0x1dee],0x79
    6778:	c6 85 13 e2 ff ff 90 	mov    BYTE PTR [rbp-0x1ded],0x90
    677f:	c6 85 14 e2 ff ff 04 	mov    BYTE PTR [rbp-0x1dec],0x4
    6786:	c6 85 15 e2 ff ff 99 	mov    BYTE PTR [rbp-0x1deb],0x99
    678d:	c6 85 16 e2 ff ff e0 	mov    BYTE PTR [rbp-0x1dea],0xe0
    6794:	c6 85 17 e2 ff ff ff 	mov    BYTE PTR [rbp-0x1de9],0xff
    679b:	c6 85 18 e2 ff ff 90 	mov    BYTE PTR [rbp-0x1de8],0x90
    67a2:	c6 85 1a e2 ff ff 0f 	mov    BYTE PTR [rbp-0x1de6],0xf
    67a9:	c6 85 1b e2 ff ff e0 	mov    BYTE PTR [rbp-0x1de5],0xe0
    67b0:	c6 85 1c e2 ff ff 6f 	mov    BYTE PTR [rbp-0x1de4],0x6f
    67b7:	c6 85 1d e2 ff ff 22 	mov    BYTE PTR [rbp-0x1de3],0x22
    67be:	c6 85 1e e2 ff ff f0 	mov    BYTE PTR [rbp-0x1de2],0xf0
    67c5:	c6 85 1f e2 ff ff a3 	mov    BYTE PTR [rbp-0x1de1],0xa3
    67cc:	c6 85 20 e2 ff ff 74 	mov    BYTE PTR [rbp-0x1de0],0x74
    67d3:	c6 85 21 e2 ff ff ff 	mov    BYTE PTR [rbp-0x1ddf],0xff
    67da:	c6 85 22 e2 ff ff f0 	mov    BYTE PTR [rbp-0x1dde],0xf0
    67e1:	c6 85 23 e2 ff ff 7d 	mov    BYTE PTR [rbp-0x1ddd],0x7d
    67e8:	c6 85 25 e2 ff ff 7c 	mov    BYTE PTR [rbp-0x1ddb],0x7c
    67ef:	c6 85 26 e2 ff ff 70 	mov    BYTE PTR [rbp-0x1dda],0x70
    67f6:	c6 85 27 e2 ff ff 12 	mov    BYTE PTR [rbp-0x1dd9],0x12
    67fd:	c6 85 28 e2 ff ff 1d 	mov    BYTE PTR [rbp-0x1dd8],0x1d
    6804:	c6 85 29 e2 ff ff 4e 	mov    BYTE PTR [rbp-0x1dd7],0x4e
    680b:	c6 85 2a e2 ff ff 22 	mov    BYTE PTR [rbp-0x1dd6],0x22
    6812:	c6 85 2b e2 ff ff 12 	mov    BYTE PTR [rbp-0x1dd5],0x12
    6819:	c6 85 2c e2 ff ff 1c 	mov    BYTE PTR [rbp-0x1dd4],0x1c
    6820:	c6 85 2d e2 ff ff 79 	mov    BYTE PTR [rbp-0x1dd3],0x79
    6827:	c6 85 2e e2 ff ff 90 	mov    BYTE PTR [rbp-0x1dd2],0x90
    682e:	c6 85 2f e2 ff ff 04 	mov    BYTE PTR [rbp-0x1dd1],0x4
    6835:	c6 85 30 e2 ff ff 5d 	mov    BYTE PTR [rbp-0x1dd0],0x5d
    683c:	c6 85 31 e2 ff ff e0 	mov    BYTE PTR [rbp-0x1dcf],0xe0
    6843:	c6 85 32 e2 ff ff 64 	mov    BYTE PTR [rbp-0x1dce],0x64
    684a:	c6 85 33 e2 ff ff 01 	mov    BYTE PTR [rbp-0x1dcd],0x1
    6851:	c6 85 34 e2 ff ff 22 	mov    BYTE PTR [rbp-0x1dcc],0x22
    6858:	c6 85 35 e2 ff ff 12 	mov    BYTE PTR [rbp-0x1dcb],0x12
    685f:	c6 85 36 e2 ff ff 1d 	mov    BYTE PTR [rbp-0x1dca],0x1d
    6866:	c6 85 37 e2 ff ff df 	mov    BYTE PTR [rbp-0x1dc9],0xdf
    686d:	c6 85 38 e2 ff ff 90 	mov    BYTE PTR [rbp-0x1dc8],0x90
    6874:	c6 85 3a e2 ff ff 10 	mov    BYTE PTR [rbp-0x1dc6],0x10
    687b:	c6 85 3b e2 ff ff 22 	mov    BYTE PTR [rbp-0x1dc5],0x22
    6882:	c6 85 3c e2 ff ff 12 	mov    BYTE PTR [rbp-0x1dc4],0x12
    6889:	c6 85 3d e2 ff ff 1d 	mov    BYTE PTR [rbp-0x1dc3],0x1d
    6890:	c6 85 3e e2 ff ff df 	mov    BYTE PTR [rbp-0x1dc2],0xdf
    6897:	c6 85 3f e2 ff ff 90 	mov    BYTE PTR [rbp-0x1dc1],0x90
    689e:	c6 85 40 e2 ff ff 04 	mov    BYTE PTR [rbp-0x1dc0],0x4
    68a5:	c6 85 41 e2 ff ff 9a 	mov    BYTE PTR [rbp-0x1dbf],0x9a
    68ac:	c6 85 42 e2 ff ff 22 	mov    BYTE PTR [rbp-0x1dbe],0x22
    68b3:	c6 85 43 e2 ff ff 12 	mov    BYTE PTR [rbp-0x1dbd],0x12
    68ba:	c6 85 44 e2 ff ff 1d 	mov    BYTE PTR [rbp-0x1dbc],0x1d
    68c1:	c6 85 45 e2 ff ff df 	mov    BYTE PTR [rbp-0x1dbb],0xdf
    68c8:	c6 85 46 e2 ff ff 90 	mov    BYTE PTR [rbp-0x1dba],0x90
    68cf:	c6 85 47 e2 ff ff 04 	mov    BYTE PTR [rbp-0x1db9],0x4
    68d6:	c6 85 48 e2 ff ff 9b 	mov    BYTE PTR [rbp-0x1db8],0x9b
    68dd:	c6 85 49 e2 ff ff 22 	mov    BYTE PTR [rbp-0x1db7],0x22
    68e4:	c6 85 4a e2 ff ff 12 	mov    BYTE PTR [rbp-0x1db6],0x12
    68eb:	c6 85 4b e2 ff ff 1d 	mov    BYTE PTR [rbp-0x1db5],0x1d
    68f2:	c6 85 4c e2 ff ff df 	mov    BYTE PTR [rbp-0x1db4],0xdf
    68f9:	c6 85 4d e2 ff ff 90 	mov    BYTE PTR [rbp-0x1db3],0x90
    6900:	c6 85 4e e2 ff ff 04 	mov    BYTE PTR [rbp-0x1db2],0x4
    6907:	c6 85 4f e2 ff ff 9c 	mov    BYTE PTR [rbp-0x1db1],0x9c
    690e:	c6 85 50 e2 ff ff 22 	mov    BYTE PTR [rbp-0x1db0],0x22
    6915:	c6 85 51 e2 ff ff 12 	mov    BYTE PTR [rbp-0x1daf],0x12
    691c:	c6 85 52 e2 ff ff 1c 	mov    BYTE PTR [rbp-0x1dae],0x1c
    6923:	c6 85 53 e2 ff ff 79 	mov    BYTE PTR [rbp-0x1dad],0x79
    692a:	c6 85 54 e2 ff ff 90 	mov    BYTE PTR [rbp-0x1dac],0x90
    6931:	c6 85 56 e2 ff ff 12 	mov    BYTE PTR [rbp-0x1daa],0x12
    6938:	c6 85 57 e2 ff ff 22 	mov    BYTE PTR [rbp-0x1da9],0x22
    693f:	c6 85 58 e2 ff ff 44 	mov    BYTE PTR [rbp-0x1da8],0x44
    6946:	c6 85 59 e2 ff ff 06 	mov    BYTE PTR [rbp-0x1da7],0x6
    694d:	c6 85 5a e2 ff ff f0 	mov    BYTE PTR [rbp-0x1da6],0xf0
    6954:	0f b6 45 80          	movzx  eax,BYTE PTR [rbp-0x80]
    6958:	88 85 5b e2 ff ff    	mov    BYTE PTR [rbp-0x1da5],al
    695e:	0f b6 45 81          	movzx  eax,BYTE PTR [rbp-0x7f]
    6962:	88 85 5c e2 ff ff    	mov    BYTE PTR [rbp-0x1da4],al
    6968:	0f b6 45 82          	movzx  eax,BYTE PTR [rbp-0x7e]
    696c:	88 85 5d e2 ff ff    	mov    BYTE PTR [rbp-0x1da3],al
    6972:	0f b6 45 83          	movzx  eax,BYTE PTR [rbp-0x7d]
    6976:	88 85 5e e2 ff ff    	mov    BYTE PTR [rbp-0x1da2],al
    697c:	c6 85 5f e2 ff ff 44 	mov    BYTE PTR [rbp-0x1da1],0x44
    6983:	c6 85 60 e2 ff ff 06 	mov    BYTE PTR [rbp-0x1da0],0x6
    698a:	c6 85 61 e2 ff ff dd 	mov    BYTE PTR [rbp-0x1d9f],0xdd
    6991:	0f b6 45 84          	movzx  eax,BYTE PTR [rbp-0x7c]
    6995:	88 85 62 e2 ff ff    	mov    BYTE PTR [rbp-0x1d9e],al
    699b:	0f b6 45 85          	movzx  eax,BYTE PTR [rbp-0x7b]
    699f:	88 85 63 e2 ff ff    	mov    BYTE PTR [rbp-0x1d9d],al
    69a5:	0f b6 45 86          	movzx  eax,BYTE PTR [rbp-0x7a]
    69a9:	88 85 64 e2 ff ff    	mov    BYTE PTR [rbp-0x1d9c],al
    69af:	0f b6 45 87          	movzx  eax,BYTE PTR [rbp-0x79]
    69b3:	88 85 65 e2 ff ff    	mov    BYTE PTR [rbp-0x1d9b],al
    69b9:	c6 85 66 e2 ff ff 4f 	mov    BYTE PTR [rbp-0x1d9a],0x4f
    69c0:	c6 85 67 e2 ff ff 06 	mov    BYTE PTR [rbp-0x1d99],0x6
    69c7:	c6 85 68 e2 ff ff e1 	mov    BYTE PTR [rbp-0x1d98],0xe1
    69ce:	0f b6 45 88          	movzx  eax,BYTE PTR [rbp-0x78]
    69d2:	88 85 69 e2 ff ff    	mov    BYTE PTR [rbp-0x1d97],al
    69d8:	0f b6 45 89          	movzx  eax,BYTE PTR [rbp-0x77]
    69dc:	88 85 6a e2 ff ff    	mov    BYTE PTR [rbp-0x1d96],al
    69e2:	0f b6 45 8a          	movzx  eax,BYTE PTR [rbp-0x76]
    69e6:	88 85 6b e2 ff ff    	mov    BYTE PTR [rbp-0x1d95],al
    69ec:	0f b6 45 8b          	movzx  eax,BYTE PTR [rbp-0x75]
    69f0:	88 85 6c e2 ff ff    	mov    BYTE PTR [rbp-0x1d94],al
    69f6:	0f b6 45 8c          	movzx  eax,BYTE PTR [rbp-0x74]
    69fa:	88 85 6d e2 ff ff    	mov    BYTE PTR [rbp-0x1d93],al
    6a00:	0f b6 45 8d          	movzx  eax,BYTE PTR [rbp-0x73]
    6a04:	88 85 6e e2 ff ff    	mov    BYTE PTR [rbp-0x1d92],al
    6a0a:	0f b6 45 8e          	movzx  eax,BYTE PTR [rbp-0x72]
    6a0e:	88 85 6f e2 ff ff    	mov    BYTE PTR [rbp-0x1d91],al
    6a14:	0f b6 45 8f          	movzx  eax,BYTE PTR [rbp-0x71]
    6a18:	88 85 70 e2 ff ff    	mov    BYTE PTR [rbp-0x1d90],al
    6a1e:	0f b6 45 90          	movzx  eax,BYTE PTR [rbp-0x70]
    6a22:	88 85 71 e2 ff ff    	mov    BYTE PTR [rbp-0x1d8f],al
    6a28:	0f b6 45 91          	movzx  eax,BYTE PTR [rbp-0x6f]
    6a2c:	88 85 72 e2 ff ff    	mov    BYTE PTR [rbp-0x1d8e],al
    6a32:	0f b6 45 92          	movzx  eax,BYTE PTR [rbp-0x6e]
    6a36:	88 85 73 e2 ff ff    	mov    BYTE PTR [rbp-0x1d8d],al
    6a3c:	0f b6 45 93          	movzx  eax,BYTE PTR [rbp-0x6d]
    6a40:	88 85 74 e2 ff ff    	mov    BYTE PTR [rbp-0x1d8c],al
    6a46:	0f b6 45 94          	movzx  eax,BYTE PTR [rbp-0x6c]
    6a4a:	88 85 75 e2 ff ff    	mov    BYTE PTR [rbp-0x1d8b],al
    6a50:	0f b6 45 95          	movzx  eax,BYTE PTR [rbp-0x6b]
    6a54:	88 85 76 e2 ff ff    	mov    BYTE PTR [rbp-0x1d8a],al
    6a5a:	0f b6 45 96          	movzx  eax,BYTE PTR [rbp-0x6a]
    6a5e:	88 85 77 e2 ff ff    	mov    BYTE PTR [rbp-0x1d89],al
    6a64:	c6 85 78 e2 ff ff 43 	mov    BYTE PTR [rbp-0x1d88],0x43
    6a6b:	c6 85 79 e2 ff ff 06 	mov    BYTE PTR [rbp-0x1d87],0x6
    6a72:	c6 85 7a e2 ff ff f4 	mov    BYTE PTR [rbp-0x1d86],0xf4
    6a79:	c6 85 7e e2 ff ff 60 	mov    BYTE PTR [rbp-0x1d82],0x60
    6a80:	c6 85 7f e2 ff ff 60 	mov    BYTE PTR [rbp-0x1d81],0x60
    6a87:	c6 85 80 e2 ff ff 06 	mov    BYTE PTR [rbp-0x1d80],0x6
    6a8e:	c6 85 81 e2 ff ff 48 	mov    BYTE PTR [rbp-0x1d7f],0x48
    6a95:	c6 85 82 e2 ff ff 02 	mov    BYTE PTR [rbp-0x1d7e],0x2
    6a9c:	c6 85 84 e2 ff ff 3b 	mov    BYTE PTR [rbp-0x1d7c],0x3b
    6aa3:	c6 85 85 e2 ff ff 32 	mov    BYTE PTR [rbp-0x1d7b],0x32
    6aaa:	c6 85 8d e2 ff ff 32 	mov    BYTE PTR [rbp-0x1d73],0x32
    6ab1:	c6 85 95 e2 ff ff 32 	mov    BYTE PTR [rbp-0x1d6b],0x32
    6ab8:	c6 85 9d e2 ff ff 32 	mov    BYTE PTR [rbp-0x1d63],0x32
    6abf:	c6 85 a5 e2 ff ff 32 	mov    BYTE PTR [rbp-0x1d5b],0x32
    6ac6:	c6 85 ad e2 ff ff 32 	mov    BYTE PTR [rbp-0x1d53],0x32
    6acd:	48 8d 95 a0 e0 ff ff 	lea    rdx,[rbp-0x1f60]
    6ad4:	b8 00 00 00 00       	mov    eax,0x0
    6ad9:	b9 21 00 00 00       	mov    ecx,0x21
    6ade:	48 89 d7             	mov    rdi,rdx
    6ae1:	f3 48 ab             	rep stos QWORD PTR es:[rdi],rax
    6ae4:	48 89 fa             	mov    rdx,rdi
    6ae7:	89 02                	mov    DWORD PTR [rdx],eax
    6ae9:	48 83 c2 04          	add    rdx,0x4
    6aed:	66 89 02             	mov    WORD PTR [rdx],ax
    6af0:	48 83 c2 02          	add    rdx,0x2
    6af4:	c6 85 a1 e0 ff ff 58 	mov    BYTE PTR [rbp-0x1f5f],0x58
    6afb:	c6 85 a2 e0 ff ff 8d 	mov    BYTE PTR [rbp-0x1f5e],0x8d
    6b02:	c6 85 a3 e0 ff ff f4 	mov    BYTE PTR [rbp-0x1f5d],0xf4
    6b09:	c6 85 a4 e0 ff ff ff 	mov    BYTE PTR [rbp-0x1f5c],0xff
    6b10:	48 8d 95 90 df ff ff 	lea    rdx,[rbp-0x2070]
    6b17:	b8 00 00 00 00       	mov    eax,0x0
    6b1c:	b9 21 00 00 00       	mov    ecx,0x21
    6b21:	48 89 d7             	mov    rdi,rdx
    6b24:	f3 48 ab             	rep stos QWORD PTR es:[rdi],rax
    6b27:	48 89 fa             	mov    rdx,rdi
    6b2a:	89 02                	mov    DWORD PTR [rdx],eax
    6b2c:	48 83 c2 04          	add    rdx,0x4
    6b30:	66 89 02             	mov    WORD PTR [rdx],ax
    6b33:	48 83 c2 02          	add    rdx,0x2
    6b37:	c6 85 96 df ff ff 32 	mov    BYTE PTR [rbp-0x206a],0x32
    6b3e:	c6 85 9e df ff ff 78 	mov    BYTE PTR [rbp-0x2062],0x78
    6b45:	c6 85 9f df ff ff ff 	mov    BYTE PTR [rbp-0x2061],0xff
    6b4c:	c6 85 a0 df ff ff e4 	mov    BYTE PTR [rbp-0x2060],0xe4
    6b53:	c6 85 a1 df ff ff f6 	mov    BYTE PTR [rbp-0x205f],0xf6
    6b5a:	c6 85 a2 df ff ff d8 	mov    BYTE PTR [rbp-0x205e],0xd8
    6b61:	c6 85 a3 df ff ff fd 	mov    BYTE PTR [rbp-0x205d],0xfd
    6b68:	c6 85 a4 df ff ff 90 	mov    BYTE PTR [rbp-0x205c],0x90
    6b6f:	c6 85 a7 df ff ff 7f 	mov    BYTE PTR [rbp-0x2059],0x7f
    6b76:	c6 85 a8 df ff ff 1c 	mov    BYTE PTR [rbp-0x2058],0x1c
    6b7d:	c6 85 a9 df ff ff 7e 	mov    BYTE PTR [rbp-0x2057],0x7e
    6b84:	c6 85 aa df ff ff 04 	mov    BYTE PTR [rbp-0x2056],0x4
    6b8b:	c6 85 ab df ff ff ef 	mov    BYTE PTR [rbp-0x2055],0xef
    6b92:	c6 85 ac df ff ff 70 	mov    BYTE PTR [rbp-0x2054],0x70
    6b99:	c6 85 ad df ff ff 03 	mov    BYTE PTR [rbp-0x2053],0x3
    6ba0:	c6 85 ae df ff ff ee 	mov    BYTE PTR [rbp-0x2052],0xee
    6ba7:	c6 85 af df ff ff 60 	mov    BYTE PTR [rbp-0x2051],0x60
    6bae:	c6 85 b0 df ff ff 08 	mov    BYTE PTR [rbp-0x2050],0x8
    6bb5:	c6 85 b1 df ff ff 0e 	mov    BYTE PTR [rbp-0x204f],0xe
    6bbc:	c6 85 b2 df ff ff e4 	mov    BYTE PTR [rbp-0x204e],0xe4
    6bc3:	c6 85 b3 df ff ff f0 	mov    BYTE PTR [rbp-0x204d],0xf0
    6bca:	c6 85 b4 df ff ff a3 	mov    BYTE PTR [rbp-0x204c],0xa3
    6bd1:	c6 85 b5 df ff ff df 	mov    BYTE PTR [rbp-0x204b],0xdf
    6bd8:	c6 85 b6 df ff ff fc 	mov    BYTE PTR [rbp-0x204a],0xfc
    6bdf:	c6 85 b7 df ff ff de 	mov    BYTE PTR [rbp-0x2049],0xde
    6be6:	c6 85 b8 df ff ff fa 	mov    BYTE PTR [rbp-0x2048],0xfa
    6bed:	c6 85 b9 df ff ff 75 	mov    BYTE PTR [rbp-0x2047],0x75
    6bf4:	c6 85 ba df ff ff 90 	mov    BYTE PTR [rbp-0x2046],0x90
    6bfb:	c6 85 bb df ff ff 03 	mov    BYTE PTR [rbp-0x2045],0x3
    6c02:	c6 85 bc df ff ff 75 	mov    BYTE PTR [rbp-0x2044],0x75
    6c09:	c6 85 bd df ff ff c3 	mov    BYTE PTR [rbp-0x2043],0xc3
    6c10:	c6 85 be df ff ff 01 	mov    BYTE PTR [rbp-0x2042],0x1
    6c17:	c6 85 bf df ff ff 02 	mov    BYTE PTR [rbp-0x2041],0x2
    6c1e:	c6 85 c0 df ff ff 80 	mov    BYTE PTR [rbp-0x2040],0x80
    6c25:	c6 85 c2 df ff ff ff 	mov    BYTE PTR [rbp-0x203e],0xff
    6c2c:	c6 85 c3 df ff ff 62 	mov    BYTE PTR [rbp-0x203d],0x62
    6c33:	c6 85 c6 df ff ff 12 	mov    BYTE PTR [rbp-0x203a],0x12
    6c3a:	0f b6 45 97          	movzx  eax,BYTE PTR [rbp-0x69]
    6c3e:	88 85 c7 df ff ff    	mov    BYTE PTR [rbp-0x2039],al
    6c44:	0f b6 45 98          	movzx  eax,BYTE PTR [rbp-0x68]
    6c48:	88 85 c8 df ff ff    	mov    BYTE PTR [rbp-0x2038],al
    6c4e:	0f b6 45 99          	movzx  eax,BYTE PTR [rbp-0x67]
    6c52:	88 85 c9 df ff ff    	mov    BYTE PTR [rbp-0x2037],al
    6c58:	0f b6 45 9a          	movzx  eax,BYTE PTR [rbp-0x66]
    6c5c:	88 85 ca df ff ff    	mov    BYTE PTR [rbp-0x2036],al
    6c62:	0f b6 45 9b          	movzx  eax,BYTE PTR [rbp-0x65]
    6c66:	88 85 cb df ff ff    	mov    BYTE PTR [rbp-0x2035],al
    6c6c:	0f b6 45 9c          	movzx  eax,BYTE PTR [rbp-0x64]
    6c70:	88 85 cc df ff ff    	mov    BYTE PTR [rbp-0x2034],al
    6c76:	0f b6 45 9d          	movzx  eax,BYTE PTR [rbp-0x63]
    6c7a:	88 85 cd df ff ff    	mov    BYTE PTR [rbp-0x2033],al
    6c80:	0f b6 45 9e          	movzx  eax,BYTE PTR [rbp-0x62]
    6c84:	88 85 ce df ff ff    	mov    BYTE PTR [rbp-0x2032],al
    6c8a:	0f b6 45 9f          	movzx  eax,BYTE PTR [rbp-0x61]
    6c8e:	88 85 cf df ff ff    	mov    BYTE PTR [rbp-0x2031],al
    6c94:	0f b6 45 a0          	movzx  eax,BYTE PTR [rbp-0x60]
    6c98:	88 85 d0 df ff ff    	mov    BYTE PTR [rbp-0x2030],al
    6c9e:	0f b6 45 a1          	movzx  eax,BYTE PTR [rbp-0x5f]
    6ca2:	88 85 d1 df ff ff    	mov    BYTE PTR [rbp-0x202f],al
    6ca8:	0f b6 45 a2          	movzx  eax,BYTE PTR [rbp-0x5e]
    6cac:	88 85 d2 df ff ff    	mov    BYTE PTR [rbp-0x202e],al
    6cb2:	0f b6 45 a3          	movzx  eax,BYTE PTR [rbp-0x5d]
    6cb6:	88 85 d3 df ff ff    	mov    BYTE PTR [rbp-0x202d],al
    6cbc:	0f b6 45 a4          	movzx  eax,BYTE PTR [rbp-0x5c]
    6cc0:	88 85 d4 df ff ff    	mov    BYTE PTR [rbp-0x202c],al
    6cc6:	0f b6 45 a5          	movzx  eax,BYTE PTR [rbp-0x5b]
    6cca:	88 85 d5 df ff ff    	mov    BYTE PTR [rbp-0x202b],al
    6cd0:	0f b6 45 a6          	movzx  eax,BYTE PTR [rbp-0x5a]
    6cd4:	88 85 d6 df ff ff    	mov    BYTE PTR [rbp-0x202a],al
    6cda:	0f b6 45 a7          	movzx  eax,BYTE PTR [rbp-0x59]
    6cde:	88 85 d7 df ff ff    	mov    BYTE PTR [rbp-0x2029],al
    6ce4:	0f b6 45 a8          	movzx  eax,BYTE PTR [rbp-0x58]
    6ce8:	88 85 dc df ff ff    	mov    BYTE PTR [rbp-0x2024],al
    6cee:	0f b6 45 a9          	movzx  eax,BYTE PTR [rbp-0x57]
    6cf2:	88 85 dd df ff ff    	mov    BYTE PTR [rbp-0x2023],al
    6cf8:	c6 85 de df ff ff ff 	mov    BYTE PTR [rbp-0x2022],0xff
    6cff:	c6 85 df df ff ff ff 	mov    BYTE PTR [rbp-0x2021],0xff
    6d06:	0f b6 45 aa          	movzx  eax,BYTE PTR [rbp-0x56]
    6d0a:	88 85 e7 df ff ff    	mov    BYTE PTR [rbp-0x2019],al
    6d10:	0f b6 45 ab          	movzx  eax,BYTE PTR [rbp-0x55]
    6d14:	88 85 e8 df ff ff    	mov    BYTE PTR [rbp-0x2018],al
    6d1a:	0f b6 45 ac          	movzx  eax,BYTE PTR [rbp-0x54]
    6d1e:	88 85 e9 df ff ff    	mov    BYTE PTR [rbp-0x2017],al
    6d24:	0f b6 45 ad          	movzx  eax,BYTE PTR [rbp-0x53]
    6d28:	88 85 ea df ff ff    	mov    BYTE PTR [rbp-0x2016],al
    6d2e:	0f b6 45 ae          	movzx  eax,BYTE PTR [rbp-0x52]
    6d32:	88 85 eb df ff ff    	mov    BYTE PTR [rbp-0x2015],al
    6d38:	0f b6 45 af          	movzx  eax,BYTE PTR [rbp-0x51]
    6d3c:	88 85 ec df ff ff    	mov    BYTE PTR [rbp-0x2014],al
    6d42:	0f b6 45 b0          	movzx  eax,BYTE PTR [rbp-0x50]
    6d46:	88 85 ed df ff ff    	mov    BYTE PTR [rbp-0x2013],al
    6d4c:	0f b6 45 b1          	movzx  eax,BYTE PTR [rbp-0x4f]
    6d50:	88 85 ee df ff ff    	mov    BYTE PTR [rbp-0x2012],al
    6d56:	0f b6 45 b2          	movzx  eax,BYTE PTR [rbp-0x4e]
    6d5a:	88 85 ef df ff ff    	mov    BYTE PTR [rbp-0x2011],al
    6d60:	0f b6 45 b3          	movzx  eax,BYTE PTR [rbp-0x4d]
    6d64:	88 85 f0 df ff ff    	mov    BYTE PTR [rbp-0x2010],al
    6d6a:	0f b6 45 b4          	movzx  eax,BYTE PTR [rbp-0x4c]
    6d6e:	88 85 f1 df ff ff    	mov    BYTE PTR [rbp-0x200f],al
    6d74:	0f b6 45 b5          	movzx  eax,BYTE PTR [rbp-0x4b]
    6d78:	88 85 f2 df ff ff    	mov    BYTE PTR [rbp-0x200e],al
    6d7e:	0f b6 45 b6          	movzx  eax,BYTE PTR [rbp-0x4a]
    6d82:	88 85 f3 df ff ff    	mov    BYTE PTR [rbp-0x200d],al
    6d88:	0f b6 45 b7          	movzx  eax,BYTE PTR [rbp-0x49]
    6d8c:	88 85 f4 df ff ff    	mov    BYTE PTR [rbp-0x200c],al
    6d92:	0f b6 45 b8          	movzx  eax,BYTE PTR [rbp-0x48]
    6d96:	88 85 f5 df ff ff    	mov    BYTE PTR [rbp-0x200b],al
    6d9c:	0f b6 45 b9          	movzx  eax,BYTE PTR [rbp-0x47]
    6da0:	88 85 f6 df ff ff    	mov    BYTE PTR [rbp-0x200a],al
    6da6:	0f b6 45 ba          	movzx  eax,BYTE PTR [rbp-0x46]
    6daa:	88 85 f7 df ff ff    	mov    BYTE PTR [rbp-0x2009],al
    6db0:	0f b6 45 bb          	movzx  eax,BYTE PTR [rbp-0x45]
    6db4:	88 85 f8 df ff ff    	mov    BYTE PTR [rbp-0x2008],al
    6dba:	0f b6 45 bc          	movzx  eax,BYTE PTR [rbp-0x44]
    6dbe:	88 85 f9 df ff ff    	mov    BYTE PTR [rbp-0x2007],al
    6dc4:	0f b6 45 bd          	movzx  eax,BYTE PTR [rbp-0x43]
    6dc8:	88 85 fa df ff ff    	mov    BYTE PTR [rbp-0x2006],al
    6dce:	0f b6 45 be          	movzx  eax,BYTE PTR [rbp-0x42]
    6dd2:	88 85 fb df ff ff    	mov    BYTE PTR [rbp-0x2005],al
    6dd8:	0f b6 45 bf          	movzx  eax,BYTE PTR [rbp-0x41]
    6ddc:	88 85 fc df ff ff    	mov    BYTE PTR [rbp-0x2004],al
    6de2:	0f b6 45 c0          	movzx  eax,BYTE PTR [rbp-0x40]
    6de6:	88 85 fd df ff ff    	mov    BYTE PTR [rbp-0x2003],al
    6dec:	0f b6 45 c1          	movzx  eax,BYTE PTR [rbp-0x3f]
    6df0:	88 85 fe df ff ff    	mov    BYTE PTR [rbp-0x2002],al
    6df6:	0f b6 45 c2          	movzx  eax,BYTE PTR [rbp-0x3e]
    6dfa:	88 85 ff df ff ff    	mov    BYTE PTR [rbp-0x2001],al
    6e00:	0f b6 45 c3          	movzx  eax,BYTE PTR [rbp-0x3d]
    6e04:	88 85 00 e0 ff ff    	mov    BYTE PTR [rbp-0x2000],al
    6e0a:	0f b6 45 c4          	movzx  eax,BYTE PTR [rbp-0x3c]
    6e0e:	88 85 01 e0 ff ff    	mov    BYTE PTR [rbp-0x1fff],al
    6e14:	0f b6 45 c5          	movzx  eax,BYTE PTR [rbp-0x3b]
    6e18:	88 85 02 e0 ff ff    	mov    BYTE PTR [rbp-0x1ffe],al
    6e1e:	0f b6 45 c6          	movzx  eax,BYTE PTR [rbp-0x3a]
    6e22:	88 85 03 e0 ff ff    	mov    BYTE PTR [rbp-0x1ffd],al
    6e28:	0f b6 45 c7          	movzx  eax,BYTE PTR [rbp-0x39]
    6e2c:	88 85 04 e0 ff ff    	mov    BYTE PTR [rbp-0x1ffc],al
    6e32:	0f b6 45 c8          	movzx  eax,BYTE PTR [rbp-0x38]
    6e36:	88 85 05 e0 ff ff    	mov    BYTE PTR [rbp-0x1ffb],al
    6e3c:	0f b6 45 c9          	movzx  eax,BYTE PTR [rbp-0x37]
    6e40:	88 85 06 e0 ff ff    	mov    BYTE PTR [rbp-0x1ffa],al
    6e46:	0f b6 45 ca          	movzx  eax,BYTE PTR [rbp-0x36]
    6e4a:	88 85 07 e0 ff ff    	mov    BYTE PTR [rbp-0x1ff9],al
    6e50:	0f b6 45 cb          	movzx  eax,BYTE PTR [rbp-0x35]
    6e54:	88 85 08 e0 ff ff    	mov    BYTE PTR [rbp-0x1ff8],al
    6e5a:	0f b6 45 cc          	movzx  eax,BYTE PTR [rbp-0x34]
    6e5e:	88 85 09 e0 ff ff    	mov    BYTE PTR [rbp-0x1ff7],al
    6e64:	0f b6 45 cd          	movzx  eax,BYTE PTR [rbp-0x33]
    6e68:	88 85 0a e0 ff ff    	mov    BYTE PTR [rbp-0x1ff6],al
    6e6e:	0f b6 45 ce          	movzx  eax,BYTE PTR [rbp-0x32]
    6e72:	88 85 0b e0 ff ff    	mov    BYTE PTR [rbp-0x1ff5],al
    6e78:	0f b6 45 cf          	movzx  eax,BYTE PTR [rbp-0x31]
    6e7c:	88 85 0c e0 ff ff    	mov    BYTE PTR [rbp-0x1ff4],al
    6e82:	0f b6 45 d0          	movzx  eax,BYTE PTR [rbp-0x30]
    6e86:	88 85 0d e0 ff ff    	mov    BYTE PTR [rbp-0x1ff3],al
    6e8c:	0f b6 45 d1          	movzx  eax,BYTE PTR [rbp-0x2f]
    6e90:	88 85 0e e0 ff ff    	mov    BYTE PTR [rbp-0x1ff2],al
    6e96:	0f b6 45 d2          	movzx  eax,BYTE PTR [rbp-0x2e]
    6e9a:	88 85 0f e0 ff ff    	mov    BYTE PTR [rbp-0x1ff1],al
    6ea0:	0f b6 45 d3          	movzx  eax,BYTE PTR [rbp-0x2d]
    6ea4:	88 85 10 e0 ff ff    	mov    BYTE PTR [rbp-0x1ff0],al
    6eaa:	0f b6 45 d4          	movzx  eax,BYTE PTR [rbp-0x2c]
    6eae:	88 85 11 e0 ff ff    	mov    BYTE PTR [rbp-0x1fef],al
    6eb4:	0f b6 45 d5          	movzx  eax,BYTE PTR [rbp-0x2b]
    6eb8:	88 85 12 e0 ff ff    	mov    BYTE PTR [rbp-0x1fee],al
    6ebe:	0f b6 45 d6          	movzx  eax,BYTE PTR [rbp-0x2a]
    6ec2:	88 85 13 e0 ff ff    	mov    BYTE PTR [rbp-0x1fed],al
    6ec8:	0f b6 45 d7          	movzx  eax,BYTE PTR [rbp-0x29]
    6ecc:	88 85 14 e0 ff ff    	mov    BYTE PTR [rbp-0x1fec],al
    6ed2:	0f b6 45 d8          	movzx  eax,BYTE PTR [rbp-0x28]
    6ed6:	88 85 15 e0 ff ff    	mov    BYTE PTR [rbp-0x1feb],al
    6edc:	0f b6 45 d9          	movzx  eax,BYTE PTR [rbp-0x27]
    6ee0:	88 85 16 e0 ff ff    	mov    BYTE PTR [rbp-0x1fea],al
    6ee6:	c6 85 17 e0 ff ff 02 	mov    BYTE PTR [rbp-0x1fe9],0x2
    6eed:	c6 85 18 e0 ff ff 31 	mov    BYTE PTR [rbp-0x1fe8],0x31
    6ef4:	c6 85 19 e0 ff ff 32 	mov    BYTE PTR [rbp-0x1fe7],0x32
    6efb:	c6 85 1a e0 ff ff 33 	mov    BYTE PTR [rbp-0x1fe6],0x33
    6f02:	c6 85 1b e0 ff ff 34 	mov    BYTE PTR [rbp-0x1fe5],0x34
    6f09:	48 8d 95 80 de ff ff 	lea    rdx,[rbp-0x2180]
    6f10:	b8 00 00 00 00       	mov    eax,0x0
    6f15:	b9 21 00 00 00       	mov    ecx,0x21
    6f1a:	48 89 d7             	mov    rdi,rdx
    6f1d:	f3 48 ab             	rep stos QWORD PTR es:[rdi],rax
    6f20:	48 89 fa             	mov    rdx,rdi
    6f23:	89 02                	mov    DWORD PTR [rdx],eax
    6f25:	48 83 c2 04          	add    rdx,0x4
    6f29:	66 89 02             	mov    WORD PTR [rdx],ax
    6f2c:	48 83 c2 02          	add    rdx,0x2
    6f30:	c6 85 81 de ff ff 58 	mov    BYTE PTR [rbp-0x217f],0x58
    6f37:	c6 85 82 de ff ff 8e 	mov    BYTE PTR [rbp-0x217e],0x8e
    6f3e:	c6 85 83 de ff ff f3 	mov    BYTE PTR [rbp-0x217d],0xf3
    6f45:	c6 85 84 de ff ff ff 	mov    BYTE PTR [rbp-0x217c],0xff
    6f4c:	48 8d 95 70 dd ff ff 	lea    rdx,[rbp-0x2290]
    6f53:	b8 00 00 00 00       	mov    eax,0x0
    6f58:	b9 21 00 00 00       	mov    ecx,0x21
    6f5d:	48 89 d7             	mov    rdi,rdx
    6f60:	f3 48 ab             	rep stos QWORD PTR es:[rdi],rax
    6f63:	48 89 fa             	mov    rdx,rdi
    6f66:	89 02                	mov    DWORD PTR [rdx],eax
    6f68:	48 83 c2 04          	add    rdx,0x4
    6f6c:	66 89 02             	mov    WORD PTR [rdx],ax
    6f6f:	48 83 c2 02          	add    rdx,0x2
    6f73:	48 8d 95 60 dc ff ff 	lea    rdx,[rbp-0x23a0]
    6f7a:	b8 00 00 00 00       	mov    eax,0x0
    6f7f:	b9 21 00 00 00       	mov    ecx,0x21
    6f84:	48 89 d7             	mov    rdi,rdx
    6f87:	f3 48 ab             	rep stos QWORD PTR es:[rdi],rax
    6f8a:	48 89 fa             	mov    rdx,rdi
    6f8d:	89 02                	mov    DWORD PTR [rdx],eax
    6f8f:	48 83 c2 04          	add    rdx,0x4
    6f93:	66 89 02             	mov    WORD PTR [rdx],ax
    6f96:	48 83 c2 02          	add    rdx,0x2
    6f9a:	c6 85 61 dc ff ff 58 	mov    BYTE PTR [rbp-0x239f],0x58
    6fa1:	c6 85 62 dc ff ff 8f 	mov    BYTE PTR [rbp-0x239e],0x8f
    6fa8:	c6 85 63 dc ff ff f2 	mov    BYTE PTR [rbp-0x239d],0xf2
    6faf:	c6 85 64 dc ff ff ff 	mov    BYTE PTR [rbp-0x239c],0xff
    6fb6:	48 8d 95 50 db ff ff 	lea    rdx,[rbp-0x24b0]
    6fbd:	b8 00 00 00 00       	mov    eax,0x0
    6fc2:	b9 21 00 00 00       	mov    ecx,0x21
    6fc7:	48 89 d7             	mov    rdi,rdx
    6fca:	f3 48 ab             	rep stos QWORD PTR es:[rdi],rax
    6fcd:	48 89 fa             	mov    rdx,rdi
    6fd0:	89 02                	mov    DWORD PTR [rdx],eax
    6fd2:	48 83 c2 04          	add    rdx,0x4
    6fd6:	66 89 02             	mov    WORD PTR [rdx],ax
    6fd9:	48 83 c2 02          	add    rdx,0x2
    6fdd:	c6 85 89 db ff ff 44 	mov    BYTE PTR [rbp-0x2477],0x44
    6fe4:	c6 85 8a db ff ff 02 	mov    BYTE PTR [rbp-0x2476],0x2
    6feb:	c6 85 8b db ff ff 12 	mov    BYTE PTR [rbp-0x2475],0x12
    6ff2:	c6 85 90 db ff ff 4c 	mov    BYTE PTR [rbp-0x2470],0x4c
    6ff9:	c6 85 92 db ff ff 01 	mov    BYTE PTR [rbp-0x246e],0x1
    7000:	c6 85 93 db ff ff 0b 	mov    BYTE PTR [rbp-0x246d],0xb
    7007:	c6 85 94 db ff ff 11 	mov    BYTE PTR [rbp-0x246c],0x11
    700e:	c6 85 95 db ff ff 12 	mov    BYTE PTR [rbp-0x246b],0x12
    7015:	c6 85 96 db ff ff 13 	mov    BYTE PTR [rbp-0x246a],0x13
    701c:	c6 85 97 db ff ff 18 	mov    BYTE PTR [rbp-0x2469],0x18
    7023:	c6 85 98 db ff ff 91 	mov    BYTE PTR [rbp-0x2468],0x91
    702a:	c6 85 99 db ff ff 92 	mov    BYTE PTR [rbp-0x2467],0x92
    7031:	c6 85 9a db ff ff 93 	mov    BYTE PTR [rbp-0x2466],0x93
    7038:	c6 85 9b db ff ff 94 	mov    BYTE PTR [rbp-0x2465],0x94
    703f:	c6 85 9c db ff ff 95 	mov    BYTE PTR [rbp-0x2464],0x95
    7046:	c6 85 9d db ff ff 96 	mov    BYTE PTR [rbp-0x2463],0x96
    704d:	c6 85 9e db ff ff 97 	mov    BYTE PTR [rbp-0x2462],0x97
    7054:	c6 85 a0 db ff ff 90 	mov    BYTE PTR [rbp-0x2460],0x90
    705b:	c6 85 a1 db ff ff 06 	mov    BYTE PTR [rbp-0x245f],0x6
    7062:	c6 85 a2 db ff ff bd 	mov    BYTE PTR [rbp-0x245e],0xbd
    7069:	c6 85 a3 db ff ff ee 	mov    BYTE PTR [rbp-0x245d],0xee
    7070:	c6 85 a4 db ff ff f0 	mov    BYTE PTR [rbp-0x245c],0xf0
    7077:	c6 85 a5 db ff ff a3 	mov    BYTE PTR [rbp-0x245b],0xa3
    707e:	c6 85 a6 db ff ff ef 	mov    BYTE PTR [rbp-0x245a],0xef
    7085:	c6 85 a7 db ff ff f0 	mov    BYTE PTR [rbp-0x2459],0xf0
    708c:	c6 85 a8 db ff ff a3 	mov    BYTE PTR [rbp-0x2458],0xa3
    7093:	c6 85 a9 db ff ff 12 	mov    BYTE PTR [rbp-0x2457],0x12
    709a:	c6 85 aa db ff ff 14 	mov    BYTE PTR [rbp-0x2456],0x14
    70a1:	c6 85 ab db ff ff 88 	mov    BYTE PTR [rbp-0x2455],0x88
    70a8:	c6 85 ac db ff ff e4 	mov    BYTE PTR [rbp-0x2454],0xe4
    70af:	c6 85 ad db ff ff 90 	mov    BYTE PTR [rbp-0x2453],0x90
    70b6:	c6 85 ae db ff ff 06 	mov    BYTE PTR [rbp-0x2452],0x6
    70bd:	c6 85 af db ff ff c7 	mov    BYTE PTR [rbp-0x2451],0xc7
    70c4:	c6 85 b0 db ff ff f0 	mov    BYTE PTR [rbp-0x2450],0xf0
    70cb:	c6 85 b1 db ff ff a3 	mov    BYTE PTR [rbp-0x244f],0xa3
    70d2:	c6 85 b2 db ff ff f0 	mov    BYTE PTR [rbp-0x244e],0xf0
    70d9:	c6 85 b3 db ff ff a3 	mov    BYTE PTR [rbp-0x244d],0xa3
    70e0:	c6 85 b4 db ff ff f0 	mov    BYTE PTR [rbp-0x244c],0xf0
    70e7:	c6 85 b5 db ff ff a3 	mov    BYTE PTR [rbp-0x244b],0xa3
    70ee:	c6 85 b6 db ff ff f0 	mov    BYTE PTR [rbp-0x244a],0xf0
    70f5:	c6 85 b7 db ff ff a3 	mov    BYTE PTR [rbp-0x2449],0xa3
    70fc:	c6 85 b8 db ff ff f0 	mov    BYTE PTR [rbp-0x2448],0xf0
    7103:	c6 85 b9 db ff ff a3 	mov    BYTE PTR [rbp-0x2447],0xa3
    710a:	c6 85 ba db ff ff f0 	mov    BYTE PTR [rbp-0x2446],0xf0
    7111:	c6 85 bb db ff ff 90 	mov    BYTE PTR [rbp-0x2445],0x90
    7118:	c6 85 bc db ff ff 06 	mov    BYTE PTR [rbp-0x2444],0x6
    711f:	c6 85 bd db ff ff bd 	mov    BYTE PTR [rbp-0x2443],0xbd
    7126:	c6 85 be db ff ff e0 	mov    BYTE PTR [rbp-0x2442],0xe0
    712d:	c6 85 bf db ff ff fa 	mov    BYTE PTR [rbp-0x2441],0xfa
    7134:	c6 85 c0 db ff ff a3 	mov    BYTE PTR [rbp-0x2440],0xa3
    713b:	c6 85 c1 db ff ff e0 	mov    BYTE PTR [rbp-0x243f],0xe0
    7142:	c6 85 c2 db ff ff fb 	mov    BYTE PTR [rbp-0x243e],0xfb
    7149:	c6 85 c3 db ff ff 90 	mov    BYTE PTR [rbp-0x243d],0x90
    7150:	c6 85 c4 db ff ff 06 	mov    BYTE PTR [rbp-0x243c],0x6
    7157:	c6 85 c5 db ff ff c3 	mov    BYTE PTR [rbp-0x243b],0xc3
    715e:	c6 85 c6 db ff ff ea 	mov    BYTE PTR [rbp-0x243a],0xea
    7165:	c6 85 c7 db ff ff f0 	mov    BYTE PTR [rbp-0x2439],0xf0
    716c:	c6 85 c8 db ff ff fe 	mov    BYTE PTR [rbp-0x2438],0xfe
    7173:	c6 85 c9 db ff ff a3 	mov    BYTE PTR [rbp-0x2437],0xa3
    717a:	c6 85 ca db ff ff eb 	mov    BYTE PTR [rbp-0x2436],0xeb
    7181:	c6 85 cb db ff ff f0 	mov    BYTE PTR [rbp-0x2435],0xf0
    7188:	c6 85 cc db ff ff ff 	mov    BYTE PTR [rbp-0x2434],0xff
    718f:	c6 85 cd db ff ff 90 	mov    BYTE PTR [rbp-0x2433],0x90
    7196:	c6 85 ce db ff ff 06 	mov    BYTE PTR [rbp-0x2432],0x6
    719d:	c6 85 cf db ff ff c2 	mov    BYTE PTR [rbp-0x2431],0xc2
    71a4:	c6 85 d0 db ff ff e0 	mov    BYTE PTR [rbp-0x2430],0xe0
    71ab:	c6 85 d1 db ff ff 2f 	mov    BYTE PTR [rbp-0x242f],0x2f
    71b2:	c6 85 d2 db ff ff ff 	mov    BYTE PTR [rbp-0x242e],0xff
    71b9:	c6 85 d3 db ff ff e4 	mov    BYTE PTR [rbp-0x242d],0xe4
    71c0:	c6 85 d4 db ff ff 3e 	mov    BYTE PTR [rbp-0x242c],0x3e
    71c7:	c6 85 d5 db ff ff cf 	mov    BYTE PTR [rbp-0x242b],0xcf
    71ce:	c6 85 d6 db ff ff 24 	mov    BYTE PTR [rbp-0x242a],0x24
    71d5:	c6 85 d7 db ff ff ff 	mov    BYTE PTR [rbp-0x2429],0xff
    71dc:	c6 85 d8 db ff ff cf 	mov    BYTE PTR [rbp-0x2428],0xcf
    71e3:	c6 85 d9 db ff ff 34 	mov    BYTE PTR [rbp-0x2427],0x34
    71ea:	c6 85 da db ff ff ff 	mov    BYTE PTR [rbp-0x2426],0xff
    71f1:	c6 85 db db ff ff 90 	mov    BYTE PTR [rbp-0x2425],0x90
    71f8:	c6 85 dc db ff ff 06 	mov    BYTE PTR [rbp-0x2424],0x6
    71ff:	c6 85 dd db ff ff c5 	mov    BYTE PTR [rbp-0x2423],0xc5
    7206:	c6 85 de db ff ff f0 	mov    BYTE PTR [rbp-0x2422],0xf0
    720d:	c6 85 df db ff ff a3 	mov    BYTE PTR [rbp-0x2421],0xa3
    7214:	c6 85 e0 db ff ff ef 	mov    BYTE PTR [rbp-0x2420],0xef
    721b:	c6 85 e1 db ff ff f0 	mov    BYTE PTR [rbp-0x241f],0xf0
    7222:	c6 85 e2 db ff ff c3 	mov    BYTE PTR [rbp-0x241e],0xc3
    7229:	c6 85 e3 db ff ff ea 	mov    BYTE PTR [rbp-0x241d],0xea
    7230:	c6 85 e4 db ff ff 94 	mov    BYTE PTR [rbp-0x241c],0x94
    7237:	c6 85 e6 db ff ff 40 	mov    BYTE PTR [rbp-0x241a],0x40
    723e:	c6 85 e7 db ff ff 22 	mov    BYTE PTR [rbp-0x2419],0x22
    7245:	c6 85 e8 db ff ff 90 	mov    BYTE PTR [rbp-0x2418],0x90
    724c:	c6 85 e9 db ff ff 06 	mov    BYTE PTR [rbp-0x2417],0x6
    7253:	c6 85 ea db ff ff bd 	mov    BYTE PTR [rbp-0x2416],0xbd
    725a:	c6 85 eb db ff ff a3 	mov    BYTE PTR [rbp-0x2415],0xa3
    7261:	c6 85 ec db ff ff e0 	mov    BYTE PTR [rbp-0x2414],0xe0
    7268:	c6 85 ed db ff ff ff 	mov    BYTE PTR [rbp-0x2413],0xff
    726f:	c6 85 ee db ff ff ee 	mov    BYTE PTR [rbp-0x2412],0xee
    7276:	c6 85 ef db ff ff 94 	mov    BYTE PTR [rbp-0x2411],0x94
    727d:	c6 85 f0 db ff ff 08 	mov    BYTE PTR [rbp-0x2410],0x8
    7284:	c6 85 f1 db ff ff 50 	mov    BYTE PTR [rbp-0x240f],0x50
    728b:	c6 85 f2 db ff ff 17 	mov    BYTE PTR [rbp-0x240e],0x17
    7292:	c6 85 f3 db ff ff a9 	mov    BYTE PTR [rbp-0x240d],0xa9
    7299:	c6 85 f4 db ff ff 07 	mov    BYTE PTR [rbp-0x240c],0x7
    72a0:	c6 85 f5 db ff ff 7b 	mov    BYTE PTR [rbp-0x240b],0x7b
    72a7:	c6 85 f6 db ff ff 01 	mov    BYTE PTR [rbp-0x240a],0x1
    72ae:	c6 85 f7 db ff ff c0 	mov    BYTE PTR [rbp-0x2409],0xc0
    72b5:	c6 85 f8 db ff ff 03 	mov    BYTE PTR [rbp-0x2408],0x3
    72bc:	c6 85 f9 db ff ff c0 	mov    BYTE PTR [rbp-0x2407],0xc0
    72c3:	c6 85 fa db ff ff 02 	mov    BYTE PTR [rbp-0x2406],0x2
    72ca:	c6 85 fb db ff ff c0 	mov    BYTE PTR [rbp-0x2405],0xc0
    72d1:	c6 85 fc db ff ff 01 	mov    BYTE PTR [rbp-0x2404],0x1
    72d8:	c6 85 fd db ff ff a3 	mov    BYTE PTR [rbp-0x2403],0xa3
    72df:	c6 85 fe db ff ff 12 	mov    BYTE PTR [rbp-0x2402],0x12
    72e6:	c6 85 ff db ff ff 15 	mov    BYTE PTR [rbp-0x2401],0x15
    72ed:	c6 85 00 dc ff ff c3 	mov    BYTE PTR [rbp-0x2400],0xc3
    72f4:	c6 85 01 dc ff ff d0 	mov    BYTE PTR [rbp-0x23ff],0xd0
    72fb:	c6 85 02 dc ff ff 01 	mov    BYTE PTR [rbp-0x23fe],0x1
    7302:	c6 85 03 dc ff ff d0 	mov    BYTE PTR [rbp-0x23fd],0xd0
    7309:	c6 85 04 dc ff ff 02 	mov    BYTE PTR [rbp-0x23fc],0x2
    7310:	c6 85 05 dc ff ff d0 	mov    BYTE PTR [rbp-0x23fb],0xd0
    7317:	c6 85 06 dc ff ff 03 	mov    BYTE PTR [rbp-0x23fa],0x3
    731e:	c6 85 07 dc ff ff 02 	mov    BYTE PTR [rbp-0x23f9],0x2
    7325:	c6 85 08 dc ff ff 1a 	mov    BYTE PTR [rbp-0x23f8],0x1a
    732c:	c6 85 09 dc ff ff 81 	mov    BYTE PTR [rbp-0x23f7],0x81
    7333:	c6 85 0a dc ff ff 90 	mov    BYTE PTR [rbp-0x23f6],0x90
    733a:	c6 85 0b dc ff ff 06 	mov    BYTE PTR [rbp-0x23f5],0x6
    7341:	c6 85 0c dc ff ff c5 	mov    BYTE PTR [rbp-0x23f4],0xc5
    7348:	c6 85 0d dc ff ff e0 	mov    BYTE PTR [rbp-0x23f3],0xe0
    734f:	c6 85 0e dc ff ff fe 	mov    BYTE PTR [rbp-0x23f2],0xfe
    7356:	c6 85 0f dc ff ff a3 	mov    BYTE PTR [rbp-0x23f1],0xa3
    735d:	c6 85 10 dc ff ff e0 	mov    BYTE PTR [rbp-0x23f0],0xe0
    7364:	c6 85 11 dc ff ff ff 	mov    BYTE PTR [rbp-0x23ef],0xff
    736b:	c6 85 12 dc ff ff e4 	mov    BYTE PTR [rbp-0x23ee],0xe4
    7372:	c6 85 13 dc ff ff fc 	mov    BYTE PTR [rbp-0x23ed],0xfc
    7379:	c6 85 14 dc ff ff fd 	mov    BYTE PTR [rbp-0x23ec],0xfd
    7380:	c6 85 15 dc ff ff fb 	mov    BYTE PTR [rbp-0x23eb],0xfb
    7387:	c6 85 16 dc ff ff fa 	mov    BYTE PTR [rbp-0x23ea],0xfa
    738e:	c6 85 17 dc ff ff 79 	mov    BYTE PTR [rbp-0x23e9],0x79
    7395:	c6 85 18 dc ff ff 01 	mov    BYTE PTR [rbp-0x23e8],0x1
    739c:	c6 85 19 dc ff ff f8 	mov    BYTE PTR [rbp-0x23e7],0xf8
    73a3:	c6 85 1a dc ff ff d3 	mov    BYTE PTR [rbp-0x23e6],0xd3
    73aa:	c6 85 1b dc ff ff 12 	mov    BYTE PTR [rbp-0x23e5],0x12
    73b1:	c6 85 1c dc ff ff 14 	mov    BYTE PTR [rbp-0x23e4],0x14
    73b8:	c6 85 1d dc ff ff 40 	mov    BYTE PTR [rbp-0x23e3],0x40
    73bf:	c6 85 1e dc ff ff 50 	mov    BYTE PTR [rbp-0x23e2],0x50
    73c6:	c6 85 1f dc ff ff 03 	mov    BYTE PTR [rbp-0x23e1],0x3
    73cd:	c6 85 20 dc ff ff 02 	mov    BYTE PTR [rbp-0x23e0],0x2
    73d4:	c6 85 21 dc ff ff 11 	mov    BYTE PTR [rbp-0x23df],0x11
    73db:	c6 85 22 dc ff ff de 	mov    BYTE PTR [rbp-0x23de],0xde
    73e2:	c6 85 23 dc ff ff 90 	mov    BYTE PTR [rbp-0x23dd],0x90
    73e9:	c6 85 24 dc ff ff 06 	mov    BYTE PTR [rbp-0x23dc],0x6
    73f0:	c6 85 25 dc ff ff bf 	mov    BYTE PTR [rbp-0x23db],0xbf
    73f7:	c6 85 26 dc ff ff 12 	mov    BYTE PTR [rbp-0x23da],0x12
    73fe:	c6 85 27 dc ff ff 15 	mov    BYTE PTR [rbp-0x23d9],0x15
    7405:	c6 85 28 dc ff ff c3 	mov    BYTE PTR [rbp-0x23d8],0xc3
    740c:	c6 85 29 dc ff ff 7b 	mov    BYTE PTR [rbp-0x23d7],0x7b
    7413:	c6 85 2a dc ff ff 01 	mov    BYTE PTR [rbp-0x23d6],0x1
    741a:	c6 85 2b dc ff ff 7a 	mov    BYTE PTR [rbp-0x23d5],0x7a
    7421:	c6 85 2c dc ff ff 02 	mov    BYTE PTR [rbp-0x23d4],0x2
    7428:	c6 85 2d dc ff ff 79 	mov    BYTE PTR [rbp-0x23d3],0x79
    742f:	c6 85 2e dc ff ff 46 	mov    BYTE PTR [rbp-0x23d2],0x46
    7436:	c6 85 2f dc ff ff 12 	mov    BYTE PTR [rbp-0x23d1],0x12
    743d:	c6 85 30 dc ff ff 1a 	mov    BYTE PTR [rbp-0x23d0],0x1a
    7444:	c6 85 31 dc ff ff 81 	mov    BYTE PTR [rbp-0x23cf],0x81
    744b:	c6 85 32 dc ff ff 90 	mov    BYTE PTR [rbp-0x23ce],0x90
    7452:	c6 85 33 dc ff ff 06 	mov    BYTE PTR [rbp-0x23cd],0x6
    7459:	c6 85 34 dc ff ff c3 	mov    BYTE PTR [rbp-0x23cc],0xc3
    7460:	c6 85 35 dc ff ff e0 	mov    BYTE PTR [rbp-0x23cb],0xe0
    7467:	c6 85 36 dc ff ff 54 	mov    BYTE PTR [rbp-0x23ca],0x54
    746e:	c6 85 37 dc ff ff fe 	mov    BYTE PTR [rbp-0x23c9],0xfe
    7475:	c6 85 38 dc ff ff f0 	mov    BYTE PTR [rbp-0x23c8],0xf0
    747c:	c6 85 39 dc ff ff a3 	mov    BYTE PTR [rbp-0x23c7],0xa3
    7483:	c6 85 3a dc ff ff e4 	mov    BYTE PTR [rbp-0x23c6],0xe4
    748a:	c6 85 3b dc ff ff f0 	mov    BYTE PTR [rbp-0x23c5],0xf0
    7491:	c6 85 3c dc ff ff 90 	mov    BYTE PTR [rbp-0x23c4],0x90
    7498:	c6 85 3d dc ff ff 06 	mov    BYTE PTR [rbp-0x23c3],0x6
    749f:	c6 85 3e dc ff ff bd 	mov    BYTE PTR [rbp-0x23c2],0xbd
    74a6:	c6 85 3f dc ff ff e0 	mov    BYTE PTR [rbp-0x23c1],0xe0
    74ad:	c6 85 40 dc ff ff 54 	mov    BYTE PTR [rbp-0x23c0],0x54
    74b4:	c6 85 41 dc ff ff 01 	mov    BYTE PTR [rbp-0x23bf],0x1
    74bb:	c6 85 42 dc ff ff f0 	mov    BYTE PTR [rbp-0x23be],0xf0
    74c2:	c6 85 43 dc ff ff a3 	mov    BYTE PTR [rbp-0x23bd],0xa3
    74c9:	c6 85 44 dc ff ff e0 	mov    BYTE PTR [rbp-0x23bc],0xe0
    74d0:	c6 85 45 dc ff ff f0 	mov    BYTE PTR [rbp-0x23bb],0xf0
    74d7:	c6 85 46 dc ff ff 90 	mov    BYTE PTR [rbp-0x23ba],0x90
    74de:	c6 85 47 dc ff ff 06 	mov    BYTE PTR [rbp-0x23b9],0x6
    74e5:	c6 85 48 dc ff ff c2 	mov    BYTE PTR [rbp-0x23b8],0xc2
    74ec:	c6 85 49 dc ff ff e0 	mov    BYTE PTR [rbp-0x23b7],0xe0
    74f3:	c6 85 4a dc ff ff ff 	mov    BYTE PTR [rbp-0x23b6],0xff
    74fa:	c6 85 4b dc ff ff 90 	mov    BYTE PTR [rbp-0x23b5],0x90
    7501:	c6 85 4c dc ff ff 06 	mov    BYTE PTR [rbp-0x23b4],0x6
    7508:	c6 85 4d dc ff ff c7 	mov    BYTE PTR [rbp-0x23b3],0xc7
    750f:	c6 85 4e dc ff ff e4 	mov    BYTE PTR [rbp-0x23b2],0xe4
    7516:	48 8d 95 40 da ff ff 	lea    rdx,[rbp-0x25c0]
    751d:	b8 00 00 00 00       	mov    eax,0x0
    7522:	b9 21 00 00 00       	mov    ecx,0x21
    7527:	48 89 d7             	mov    rdi,rdx
    752a:	f3 48 ab             	rep stos QWORD PTR es:[rdi],rax
    752d:	48 89 fa             	mov    rdx,rdi
    7530:	89 02                	mov    DWORD PTR [rdx],eax
    7532:	48 83 c2 04          	add    rdx,0x4
    7536:	66 89 02             	mov    WORD PTR [rdx],ax
    7539:	48 83 c2 02          	add    rdx,0x2
    753d:	c6 85 41 da ff ff 58 	mov    BYTE PTR [rbp-0x25bf],0x58
    7544:	c6 85 42 da ff ff 90 	mov    BYTE PTR [rbp-0x25be],0x90
    754b:	c6 85 43 da ff ff f1 	mov    BYTE PTR [rbp-0x25bd],0xf1
    7552:	c6 85 44 da ff ff ff 	mov    BYTE PTR [rbp-0x25bc],0xff
    7559:	48 8d 95 30 d9 ff ff 	lea    rdx,[rbp-0x26d0]
    7560:	b8 00 00 00 00       	mov    eax,0x0
    7565:	b9 21 00 00 00       	mov    ecx,0x21
    756a:	48 89 d7             	mov    rdi,rdx
    756d:	f3 48 ab             	rep stos QWORD PTR es:[rdi],rax
    7570:	48 89 fa             	mov    rdx,rdi
    7573:	89 02                	mov    DWORD PTR [rdx],eax
    7575:	48 83 c2 04          	add    rdx,0x4
    7579:	66 89 02             	mov    WORD PTR [rdx],ax
    757c:	48 83 c2 02          	add    rdx,0x2
    7580:	c6 85 30 d9 ff ff f0 	mov    BYTE PTR [rbp-0x26d0],0xf0
    7587:	c6 85 31 d9 ff ff a3 	mov    BYTE PTR [rbp-0x26cf],0xa3
    758e:	c6 85 32 d9 ff ff ef 	mov    BYTE PTR [rbp-0x26ce],0xef
    7595:	c6 85 33 d9 ff ff f0 	mov    BYTE PTR [rbp-0x26cd],0xf0
    759c:	c6 85 34 d9 ff ff 90 	mov    BYTE PTR [rbp-0x26cc],0x90
    75a3:	c6 85 35 d9 ff ff 06 	mov    BYTE PTR [rbp-0x26cb],0x6
    75aa:	c6 85 36 d9 ff ff c7 	mov    BYTE PTR [rbp-0x26ca],0xc7
    75b1:	c6 85 37 d9 ff ff e0 	mov    BYTE PTR [rbp-0x26c9],0xe0
    75b8:	c6 85 38 d9 ff ff fe 	mov    BYTE PTR [rbp-0x26c8],0xfe
    75bf:	c6 85 39 d9 ff ff a3 	mov    BYTE PTR [rbp-0x26c7],0xa3
    75c6:	c6 85 3a d9 ff ff e0 	mov    BYTE PTR [rbp-0x26c6],0xe0
    75cd:	c6 85 3b d9 ff ff ff 	mov    BYTE PTR [rbp-0x26c5],0xff
    75d4:	c6 85 3c d9 ff ff 4e 	mov    BYTE PTR [rbp-0x26c4],0x4e
    75db:	c6 85 3d d9 ff ff 70 	mov    BYTE PTR [rbp-0x26c3],0x70
    75e2:	c6 85 3e d9 ff ff 03 	mov    BYTE PTR [rbp-0x26c2],0x3
    75e9:	c6 85 3f d9 ff ff 02 	mov    BYTE PTR [rbp-0x26c1],0x2
    75f0:	c6 85 40 d9 ff ff 11 	mov    BYTE PTR [rbp-0x26c0],0x11
    75f7:	c6 85 41 d9 ff ff e4 	mov    BYTE PTR [rbp-0x26bf],0xe4
    75fe:	c6 85 42 d9 ff ff 90 	mov    BYTE PTR [rbp-0x26be],0x90
    7605:	c6 85 43 d9 ff ff 06 	mov    BYTE PTR [rbp-0x26bd],0x6
    760c:	c6 85 44 d9 ff ff bd 	mov    BYTE PTR [rbp-0x26bc],0xbd
    7613:	c6 85 45 d9 ff ff e0 	mov    BYTE PTR [rbp-0x26bb],0xe0
    761a:	c6 85 46 d9 ff ff fc 	mov    BYTE PTR [rbp-0x26ba],0xfc
    7621:	c6 85 47 d9 ff ff a3 	mov    BYTE PTR [rbp-0x26b9],0xa3
    7628:	c6 85 48 d9 ff ff e0 	mov    BYTE PTR [rbp-0x26b8],0xe0
    762f:	c6 85 49 d9 ff ff fd 	mov    BYTE PTR [rbp-0x26b7],0xfd
    7636:	c6 85 4a d9 ff ff 2f 	mov    BYTE PTR [rbp-0x26b6],0x2f
    763d:	c6 85 4b d9 ff ff ec 	mov    BYTE PTR [rbp-0x26b5],0xec
    7644:	c6 85 4c d9 ff ff 3e 	mov    BYTE PTR [rbp-0x26b4],0x3e
    764b:	c6 85 4d d9 ff ff c3 	mov    BYTE PTR [rbp-0x26b3],0xc3
    7652:	c6 85 4e d9 ff ff 94 	mov    BYTE PTR [rbp-0x26b2],0x94
    7659:	c6 85 4f d9 ff ff 02 	mov    BYTE PTR [rbp-0x26b1],0x2
    7660:	c6 85 50 d9 ff ff 50 	mov    BYTE PTR [rbp-0x26b0],0x50
    7667:	c6 85 51 d9 ff ff 02 	mov    BYTE PTR [rbp-0x26af],0x2
    766e:	c6 85 52 d9 ff ff 80 	mov    BYTE PTR [rbp-0x26ae],0x80
    7675:	c6 85 53 d9 ff ff 08 	mov    BYTE PTR [rbp-0x26ad],0x8
    767c:	c6 85 54 d9 ff ff c3 	mov    BYTE PTR [rbp-0x26ac],0xc3
    7683:	c6 85 55 d9 ff ff e4 	mov    BYTE PTR [rbp-0x26ab],0xe4
    768a:	c6 85 56 d9 ff ff 9d 	mov    BYTE PTR [rbp-0x26aa],0x9d
    7691:	c6 85 57 d9 ff ff ff 	mov    BYTE PTR [rbp-0x26a9],0xff
    7698:	c6 85 58 d9 ff ff 74 	mov    BYTE PTR [rbp-0x26a8],0x74
    769f:	c6 85 59 d9 ff ff 02 	mov    BYTE PTR [rbp-0x26a7],0x2
    76a6:	c6 85 5a d9 ff ff 9c 	mov    BYTE PTR [rbp-0x26a6],0x9c
    76ad:	c6 85 5b d9 ff ff fe 	mov    BYTE PTR [rbp-0x26a5],0xfe
    76b4:	c6 85 5c d9 ff ff 90 	mov    BYTE PTR [rbp-0x26a4],0x90
    76bb:	c6 85 5d d9 ff ff 06 	mov    BYTE PTR [rbp-0x26a3],0x6
    76c2:	c6 85 5e d9 ff ff c9 	mov    BYTE PTR [rbp-0x26a2],0xc9
    76c9:	c6 85 5f d9 ff ff ee 	mov    BYTE PTR [rbp-0x26a1],0xee
    76d0:	c6 85 60 d9 ff ff f0 	mov    BYTE PTR [rbp-0x26a0],0xf0
    76d7:	c6 85 61 d9 ff ff a3 	mov    BYTE PTR [rbp-0x269f],0xa3
    76de:	c6 85 62 d9 ff ff ef 	mov    BYTE PTR [rbp-0x269e],0xef
    76e5:	c6 85 63 d9 ff ff f0 	mov    BYTE PTR [rbp-0x269d],0xf0
    76ec:	c6 85 64 d9 ff ff 12 	mov    BYTE PTR [rbp-0x269c],0x12
    76f3:	c6 85 65 d9 ff ff 16 	mov    BYTE PTR [rbp-0x269b],0x16
    76fa:	c6 85 66 d9 ff ff 61 	mov    BYTE PTR [rbp-0x269a],0x61
    7701:	c6 85 67 d9 ff ff f9 	mov    BYTE PTR [rbp-0x2699],0xf9
    7708:	c6 85 68 d9 ff ff 12 	mov    BYTE PTR [rbp-0x2698],0x12
    770f:	c6 85 69 d9 ff ff 16 	mov    BYTE PTR [rbp-0x2697],0x16
    7716:	c6 85 6a d9 ff ff 32 	mov    BYTE PTR [rbp-0x2696],0x32
    771d:	c6 85 6b d9 ff ff 90 	mov    BYTE PTR [rbp-0x2695],0x90
    7724:	c6 85 6c d9 ff ff 06 	mov    BYTE PTR [rbp-0x2694],0x6
    772b:	c6 85 6d d9 ff ff d3 	mov    BYTE PTR [rbp-0x2693],0xd3
    7732:	c6 85 6e d9 ff ff 74 	mov    BYTE PTR [rbp-0x2692],0x74
    7739:	c6 85 6f d9 ff ff 02 	mov    BYTE PTR [rbp-0x2691],0x2
    7740:	c6 85 70 d9 ff ff f0 	mov    BYTE PTR [rbp-0x2690],0xf0
    7747:	c6 85 71 d9 ff ff a3 	mov    BYTE PTR [rbp-0x268f],0xa3
    774e:	c6 85 72 d9 ff ff e4 	mov    BYTE PTR [rbp-0x268e],0xe4
    7755:	c6 85 73 d9 ff ff f0 	mov    BYTE PTR [rbp-0x268d],0xf0
    775c:	c6 85 74 d9 ff ff 12 	mov    BYTE PTR [rbp-0x268c],0x12
    7763:	c6 85 75 d9 ff ff 16 	mov    BYTE PTR [rbp-0x268b],0x16
    776a:	c6 85 76 d9 ff ff 74 	mov    BYTE PTR [rbp-0x268a],0x74
    7771:	c6 85 77 d9 ff ff 12 	mov    BYTE PTR [rbp-0x2689],0x12
    7778:	c6 85 78 d9 ff ff 1a 	mov    BYTE PTR [rbp-0x2688],0x1a
    777f:	c6 85 79 d9 ff ff 81 	mov    BYTE PTR [rbp-0x2687],0x81
    7786:	c6 85 7a d9 ff ff 12 	mov    BYTE PTR [rbp-0x2686],0x12
    778d:	c6 85 7b d9 ff ff 16 	mov    BYTE PTR [rbp-0x2685],0x16
    7794:	c6 85 7c d9 ff ff 74 	mov    BYTE PTR [rbp-0x2684],0x74
    779b:	c6 85 7d d9 ff ff 90 	mov    BYTE PTR [rbp-0x2683],0x90
    77a2:	c6 85 7e d9 ff ff 06 	mov    BYTE PTR [rbp-0x2682],0x6
    77a9:	c6 85 7f d9 ff ff bd 	mov    BYTE PTR [rbp-0x2681],0xbd
    77b0:	c6 85 80 d9 ff ff e0 	mov    BYTE PTR [rbp-0x2680],0xe0
    77b7:	c6 85 81 d9 ff ff fe 	mov    BYTE PTR [rbp-0x267f],0xfe
    77be:	c6 85 82 d9 ff ff a3 	mov    BYTE PTR [rbp-0x267e],0xa3
    77c5:	c6 85 83 d9 ff ff e0 	mov    BYTE PTR [rbp-0x267d],0xe0
    77cc:	c6 85 84 d9 ff ff 29 	mov    BYTE PTR [rbp-0x267c],0x29
    77d3:	c6 85 85 d9 ff ff f9 	mov    BYTE PTR [rbp-0x267b],0xf9
    77da:	c6 85 86 d9 ff ff ea 	mov    BYTE PTR [rbp-0x267a],0xea
    77e1:	c6 85 87 d9 ff ff 3e 	mov    BYTE PTR [rbp-0x2679],0x3e
    77e8:	c6 85 88 d9 ff ff fa 	mov    BYTE PTR [rbp-0x2678],0xfa
    77ef:	c6 85 89 d9 ff ff c0 	mov    BYTE PTR [rbp-0x2677],0xc0
    77f6:	c6 85 8a d9 ff ff 03 	mov    BYTE PTR [rbp-0x2676],0x3
    77fd:	c6 85 8b d9 ff ff c0 	mov    BYTE PTR [rbp-0x2675],0xc0
    7804:	c6 85 8c d9 ff ff 02 	mov    BYTE PTR [rbp-0x2674],0x2
    780b:	c6 85 8d d9 ff ff c0 	mov    BYTE PTR [rbp-0x2673],0xc0
    7812:	c6 85 8e d9 ff ff 01 	mov    BYTE PTR [rbp-0x2672],0x1
    7819:	c6 85 8f d9 ff ff 90 	mov    BYTE PTR [rbp-0x2671],0x90
    7820:	c6 85 90 d9 ff ff 06 	mov    BYTE PTR [rbp-0x2670],0x6
    7827:	c6 85 91 d9 ff ff cb 	mov    BYTE PTR [rbp-0x266f],0xcb
    782e:	c6 85 92 d9 ff ff e0 	mov    BYTE PTR [rbp-0x266e],0xe0
    7835:	c6 85 93 d9 ff ff fe 	mov    BYTE PTR [rbp-0x266d],0xfe
    783c:	c6 85 94 d9 ff ff a3 	mov    BYTE PTR [rbp-0x266c],0xa3
    7843:	c6 85 95 d9 ff ff e0 	mov    BYTE PTR [rbp-0x266b],0xe0
    784a:	c6 85 96 d9 ff ff 24 	mov    BYTE PTR [rbp-0x266a],0x24
    7851:	c6 85 97 d9 ff ff 46 	mov    BYTE PTR [rbp-0x2669],0x46
    7858:	c6 85 98 d9 ff ff f9 	mov    BYTE PTR [rbp-0x2668],0xf9
    785f:	c6 85 99 d9 ff ff 74 	mov    BYTE PTR [rbp-0x2667],0x74
    7866:	c6 85 9a d9 ff ff 02 	mov    BYTE PTR [rbp-0x2666],0x2
    786d:	c6 85 9b d9 ff ff 3e 	mov    BYTE PTR [rbp-0x2665],0x3e
    7874:	c6 85 9c d9 ff ff fa 	mov    BYTE PTR [rbp-0x2664],0xfa
    787b:	c6 85 9d d9 ff ff 12 	mov    BYTE PTR [rbp-0x2663],0x12
    7882:	c6 85 9e d9 ff ff 16 	mov    BYTE PTR [rbp-0x2662],0x16
    7889:	c6 85 9f d9 ff ff 34 	mov    BYTE PTR [rbp-0x2661],0x34
    7890:	c6 85 a0 d9 ff ff 90 	mov    BYTE PTR [rbp-0x2660],0x90
    7897:	c6 85 a1 d9 ff ff 06 	mov    BYTE PTR [rbp-0x265f],0x6
    789e:	c6 85 a2 d9 ff ff c9 	mov    BYTE PTR [rbp-0x265e],0xc9
    78a5:	c6 85 a3 d9 ff ff e0 	mov    BYTE PTR [rbp-0x265d],0xe0
    78ac:	c6 85 a4 d9 ff ff ff 	mov    BYTE PTR [rbp-0x265c],0xff
    78b3:	c6 85 a5 d9 ff ff a3 	mov    BYTE PTR [rbp-0x265b],0xa3
    78ba:	c6 85 a6 d9 ff ff e0 	mov    BYTE PTR [rbp-0x265a],0xe0
    78c1:	c6 85 a7 d9 ff ff 90 	mov    BYTE PTR [rbp-0x2659],0x90
    78c8:	c6 85 a8 d9 ff ff 06 	mov    BYTE PTR [rbp-0x2658],0x6
    78cf:	c6 85 a9 d9 ff ff d3 	mov    BYTE PTR [rbp-0x2657],0xd3
    78d6:	c6 85 aa d9 ff ff cf 	mov    BYTE PTR [rbp-0x2656],0xcf
    78dd:	c6 85 ab d9 ff ff f0 	mov    BYTE PTR [rbp-0x2655],0xf0
    78e4:	c6 85 ac d9 ff ff a3 	mov    BYTE PTR [rbp-0x2654],0xa3
    78eb:	c6 85 ad d9 ff ff ef 	mov    BYTE PTR [rbp-0x2653],0xef
    78f2:	c6 85 ae d9 ff ff f0 	mov    BYTE PTR [rbp-0x2652],0xf0
    78f9:	c6 85 af d9 ff ff d0 	mov    BYTE PTR [rbp-0x2651],0xd0
    7900:	c6 85 b0 d9 ff ff 01 	mov    BYTE PTR [rbp-0x2650],0x1
    7907:	c6 85 b1 d9 ff ff d0 	mov    BYTE PTR [rbp-0x264f],0xd0
    790e:	c6 85 b2 d9 ff ff 02 	mov    BYTE PTR [rbp-0x264e],0x2
    7915:	c6 85 b3 d9 ff ff d0 	mov    BYTE PTR [rbp-0x264d],0xd0
    791c:	c6 85 b4 d9 ff ff 03 	mov    BYTE PTR [rbp-0x264c],0x3
    7923:	c6 85 b5 d9 ff ff 12 	mov    BYTE PTR [rbp-0x264b],0x12
    792a:	c6 85 b6 d9 ff ff 1a 	mov    BYTE PTR [rbp-0x264a],0x1a
    7931:	c6 85 b7 d9 ff ff 81 	mov    BYTE PTR [rbp-0x2649],0x81
    7938:	c6 85 b8 d9 ff ff 90 	mov    BYTE PTR [rbp-0x2648],0x90
    793f:	c6 85 b9 d9 ff ff 06 	mov    BYTE PTR [rbp-0x2647],0x6
    7946:	c6 85 ba d9 ff ff c9 	mov    BYTE PTR [rbp-0x2646],0xc9
    794d:	c6 85 bb d9 ff ff e0 	mov    BYTE PTR [rbp-0x2645],0xe0
    7954:	c6 85 bc d9 ff ff fe 	mov    BYTE PTR [rbp-0x2644],0xfe
    795b:	c6 85 bd d9 ff ff a3 	mov    BYTE PTR [rbp-0x2643],0xa3
    7962:	c6 85 be d9 ff ff e0 	mov    BYTE PTR [rbp-0x2642],0xe0
    7969:	c6 85 bf d9 ff ff ff 	mov    BYTE PTR [rbp-0x2641],0xff
    7970:	c6 85 c0 d9 ff ff a3 	mov    BYTE PTR [rbp-0x2640],0xa3
    7977:	c6 85 c1 d9 ff ff ee 	mov    BYTE PTR [rbp-0x263f],0xee
    797e:	c6 85 c2 d9 ff ff 8f 	mov    BYTE PTR [rbp-0x263e],0x8f
    7985:	c6 85 c3 d9 ff ff f0 	mov    BYTE PTR [rbp-0x263d],0xf0
    798c:	c6 85 c4 d9 ff ff 12 	mov    BYTE PTR [rbp-0x263c],0x12
    7993:	c6 85 c5 d9 ff ff 14 	mov    BYTE PTR [rbp-0x263b],0x14
    799a:	c6 85 c6 d9 ff ff 1c 	mov    BYTE PTR [rbp-0x263a],0x1c
    79a1:	c6 85 c7 d9 ff ff 12 	mov    BYTE PTR [rbp-0x2639],0x12
    79a8:	c6 85 c8 d9 ff ff 16 	mov    BYTE PTR [rbp-0x2638],0x16
    79af:	c6 85 c9 d9 ff ff 61 	mov    BYTE PTR [rbp-0x2637],0x61
    79b6:	c6 85 ca d9 ff ff ff 	mov    BYTE PTR [rbp-0x2636],0xff
    79bd:	c6 85 cb d9 ff ff 12 	mov    BYTE PTR [rbp-0x2635],0x12
    79c4:	c6 85 cc d9 ff ff 1d 	mov    BYTE PTR [rbp-0x2634],0x1d
    79cb:	c6 85 cd d9 ff ff 83 	mov    BYTE PTR [rbp-0x2633],0x83
    79d2:	c6 85 ce d9 ff ff 90 	mov    BYTE PTR [rbp-0x2632],0x90
    79d9:	c6 85 d1 d9 ff ff ef 	mov    BYTE PTR [rbp-0x262f],0xef
    79e0:	c6 85 d2 d9 ff ff f0 	mov    BYTE PTR [rbp-0x262e],0xf0
    79e7:	c6 85 d3 d9 ff ff 70 	mov    BYTE PTR [rbp-0x262d],0x70
    79ee:	c6 85 d4 d9 ff ff 4e 	mov    BYTE PTR [rbp-0x262c],0x4e
    79f5:	c6 85 d5 d9 ff ff 12 	mov    BYTE PTR [rbp-0x262b],0x12
    79fc:	c6 85 d6 d9 ff ff 16 	mov    BYTE PTR [rbp-0x262a],0x16
    7a03:	c6 85 d7 d9 ff ff 61 	mov    BYTE PTR [rbp-0x2629],0x61
    7a0a:	c6 85 d8 d9 ff ff ff 	mov    BYTE PTR [rbp-0x2628],0xff
    7a11:	c6 85 d9 d9 ff ff 12 	mov    BYTE PTR [rbp-0x2627],0x12
    7a18:	c6 85 da d9 ff ff 16 	mov    BYTE PTR [rbp-0x2626],0x16
    7a1f:	c6 85 db d9 ff ff 74 	mov    BYTE PTR [rbp-0x2625],0x74
    7a26:	c6 85 dc d9 ff ff ac 	mov    BYTE PTR [rbp-0x2624],0xac
    7a2d:	c6 85 dd d9 ff ff 02 	mov    BYTE PTR [rbp-0x2623],0x2
    7a34:	c6 85 de d9 ff ff ad 	mov    BYTE PTR [rbp-0x2622],0xad
    7a3b:	c6 85 df d9 ff ff 01 	mov    BYTE PTR [rbp-0x2621],0x1
    7a42:	c6 85 e0 d9 ff ff 12 	mov    BYTE PTR [rbp-0x2620],0x12
    7a49:	c6 85 e1 d9 ff ff 19 	mov    BYTE PTR [rbp-0x261f],0x19
    7a50:	c6 85 e2 d9 ff ff ae 	mov    BYTE PTR [rbp-0x261e],0xae
    7a57:	c6 85 e3 d9 ff ff 90 	mov    BYTE PTR [rbp-0x261d],0x90
    7a5e:	c6 85 e6 d9 ff ff ef 	mov    BYTE PTR [rbp-0x261a],0xef
    7a65:	c6 85 e7 d9 ff ff f0 	mov    BYTE PTR [rbp-0x2619],0xf0
    7a6c:	c6 85 e8 d9 ff ff 70 	mov    BYTE PTR [rbp-0x2618],0x70
    7a73:	c6 85 e9 d9 ff ff 39 	mov    BYTE PTR [rbp-0x2617],0x39
    7a7a:	c6 85 ea d9 ff ff 90 	mov    BYTE PTR [rbp-0x2616],0x90
    7a81:	c6 85 eb d9 ff ff 06 	mov    BYTE PTR [rbp-0x2615],0x6
    7a88:	c6 85 ec d9 ff ff bd 	mov    BYTE PTR [rbp-0x2614],0xbd
    7a8f:	c6 85 ed d9 ff ff a3 	mov    BYTE PTR [rbp-0x2613],0xa3
    7a96:	c6 85 ee d9 ff ff e0 	mov    BYTE PTR [rbp-0x2612],0xe0
    7a9d:	c6 85 ef d9 ff ff ff 	mov    BYTE PTR [rbp-0x2611],0xff
    7aa4:	c6 85 f0 d9 ff ff 90 	mov    BYTE PTR [rbp-0x2610],0x90
    7aab:	c6 85 f1 d9 ff ff 06 	mov    BYTE PTR [rbp-0x260f],0x6
    7ab2:	c6 85 f2 d9 ff ff c9 	mov    BYTE PTR [rbp-0x260e],0xc9
    7ab9:	c6 85 f3 d9 ff ff e0 	mov    BYTE PTR [rbp-0x260d],0xe0
    7ac0:	c6 85 f4 d9 ff ff fc 	mov    BYTE PTR [rbp-0x260c],0xfc
    7ac7:	c6 85 f5 d9 ff ff a3 	mov    BYTE PTR [rbp-0x260b],0xa3
    7ace:	c6 85 f6 d9 ff ff e0 	mov    BYTE PTR [rbp-0x260a],0xe0
    7ad5:	c6 85 f7 d9 ff ff fd 	mov    BYTE PTR [rbp-0x2609],0xfd
    7adc:	c6 85 f8 d9 ff ff 2f 	mov    BYTE PTR [rbp-0x2608],0x2f
    7ae3:	c6 85 f9 d9 ff ff ff 	mov    BYTE PTR [rbp-0x2607],0xff
    7aea:	c6 85 fa d9 ff ff e4 	mov    BYTE PTR [rbp-0x2606],0xe4
    7af1:	c6 85 fb d9 ff ff 90 	mov    BYTE PTR [rbp-0x2605],0x90
    7af8:	c6 85 fc d9 ff ff 06 	mov    BYTE PTR [rbp-0x2604],0x6
    7aff:	c6 85 fd d9 ff ff bd 	mov    BYTE PTR [rbp-0x2603],0xbd
    7b06:	c6 85 fe d9 ff ff f0 	mov    BYTE PTR [rbp-0x2602],0xf0
    7b0d:	c6 85 ff d9 ff ff a3 	mov    BYTE PTR [rbp-0x2601],0xa3
    7b14:	c6 85 00 da ff ff ef 	mov    BYTE PTR [rbp-0x2600],0xef
    7b1b:	c6 85 01 da ff ff f0 	mov    BYTE PTR [rbp-0x25ff],0xf0
    7b22:	c6 85 02 da ff ff 90 	mov    BYTE PTR [rbp-0x25fe],0x90
    7b29:	c6 85 03 da ff ff 06 	mov    BYTE PTR [rbp-0x25fd],0x6
    7b30:	c6 85 04 da ff ff c3 	mov    BYTE PTR [rbp-0x25fc],0xc3
    7b37:	c6 85 05 da ff ff 74 	mov    BYTE PTR [rbp-0x25fb],0x74
    7b3e:	c6 85 06 da ff ff 02 	mov    BYTE PTR [rbp-0x25fa],0x2
    7b45:	c6 85 07 da ff ff 75 	mov    BYTE PTR [rbp-0x25f9],0x75
    7b4c:	c6 85 08 da ff ff f0 	mov    BYTE PTR [rbp-0x25f8],0xf0
    7b53:	c6 85 0a da ff ff 12 	mov    BYTE PTR [rbp-0x25f6],0x12
    7b5a:	c6 85 0b da ff ff 14 	mov    BYTE PTR [rbp-0x25f5],0x14
    7b61:	c6 85 0c da ff ff 1c 	mov    BYTE PTR [rbp-0x25f4],0x1c
    7b68:	c6 85 0d da ff ff c3 	mov    BYTE PTR [rbp-0x25f3],0xc3
    7b6f:	c6 85 0e da ff ff 90 	mov    BYTE PTR [rbp-0x25f2],0x90
    7b76:	c6 85 0f da ff ff 06 	mov    BYTE PTR [rbp-0x25f1],0x6
    7b7d:	c6 85 10 da ff ff c8 	mov    BYTE PTR [rbp-0x25f0],0xc8
    7b84:	c6 85 11 da ff ff e0 	mov    BYTE PTR [rbp-0x25ef],0xe0
    7b8b:	c6 85 12 da ff ff 9d 	mov    BYTE PTR [rbp-0x25ee],0x9d
    7b92:	c6 85 13 da ff ff f0 	mov    BYTE PTR [rbp-0x25ed],0xf0
    7b99:	c6 85 14 da ff ff 90 	mov    BYTE PTR [rbp-0x25ec],0x90
    7ba0:	c6 85 15 da ff ff 06 	mov    BYTE PTR [rbp-0x25eb],0x6
    7ba7:	c6 85 16 da ff ff c7 	mov    BYTE PTR [rbp-0x25ea],0xc7
    7bae:	c6 85 17 da ff ff e0 	mov    BYTE PTR [rbp-0x25e9],0xe0
    7bb5:	c6 85 18 da ff ff 9c 	mov    BYTE PTR [rbp-0x25e8],0x9c
    7bbc:	c6 85 19 da ff ff f0 	mov    BYTE PTR [rbp-0x25e7],0xf0
    7bc3:	c6 85 1a da ff ff 02 	mov    BYTE PTR [rbp-0x25e6],0x2
    7bca:	c6 85 1b da ff ff 10 	mov    BYTE PTR [rbp-0x25e5],0x10
    7bd1:	c6 85 1c da ff ff f5 	mov    BYTE PTR [rbp-0x25e4],0xf5
    7bd8:	c6 85 1d da ff ff 90 	mov    BYTE PTR [rbp-0x25e3],0x90
    7bdf:	c6 85 20 da ff ff 74 	mov    BYTE PTR [rbp-0x25e0],0x74
    7be6:	c6 85 21 da ff ff 08 	mov    BYTE PTR [rbp-0x25df],0x8
    7bed:	c6 85 22 da ff ff f0 	mov    BYTE PTR [rbp-0x25de],0xf0
    7bf4:	c6 85 23 da ff ff 22 	mov    BYTE PTR [rbp-0x25dd],0x22
    7bfb:	c6 85 24 da ff ff 90 	mov    BYTE PTR [rbp-0x25dc],0x90
    7c02:	c6 85 25 da ff ff 06 	mov    BYTE PTR [rbp-0x25db],0x6
    7c09:	c6 85 26 da ff ff c0 	mov    BYTE PTR [rbp-0x25da],0xc0
    7c10:	c6 85 27 da ff ff 12 	mov    BYTE PTR [rbp-0x25d9],0x12
    7c17:	c6 85 28 da ff ff 14 	mov    BYTE PTR [rbp-0x25d8],0x14
    7c1e:	c6 85 29 da ff ff 88 	mov    BYTE PTR [rbp-0x25d7],0x88
    7c25:	c6 85 2a da ff ff ae 	mov    BYTE PTR [rbp-0x25d6],0xae
    7c2c:	c6 85 2b da ff ff 05 	mov    BYTE PTR [rbp-0x25d5],0x5
    7c33:	c6 85 2c da ff ff ef 	mov    BYTE PTR [rbp-0x25d4],0xef
    7c3a:	c6 85 2d da ff ff d3 	mov    BYTE PTR [rbp-0x25d3],0xd3
    7c41:	c6 85 2e da ff ff 94 	mov    BYTE PTR [rbp-0x25d2],0x94
    7c48:	48 8d 95 20 d8 ff ff 	lea    rdx,[rbp-0x27e0]
    7c4f:	b8 00 00 00 00       	mov    eax,0x0
    7c54:	b9 21 00 00 00       	mov    ecx,0x21
    7c59:	48 89 d7             	mov    rdi,rdx
    7c5c:	f3 48 ab             	rep stos QWORD PTR es:[rdi],rax
    7c5f:	48 89 fa             	mov    rdx,rdi
    7c62:	89 02                	mov    DWORD PTR [rdx],eax
    7c64:	48 83 c2 04          	add    rdx,0x4
    7c68:	66 89 02             	mov    WORD PTR [rdx],ax
    7c6b:	48 83 c2 02          	add    rdx,0x2
    7c6f:	c6 85 21 d8 ff ff 58 	mov    BYTE PTR [rbp-0x27df],0x58
    7c76:	c6 85 22 d8 ff ff 91 	mov    BYTE PTR [rbp-0x27de],0x91
    7c7d:	c6 85 23 d8 ff ff f0 	mov    BYTE PTR [rbp-0x27dd],0xf0
    7c84:	c6 85 24 d8 ff ff ff 	mov    BYTE PTR [rbp-0x27dc],0xff
    7c8b:	48 8d 95 10 d7 ff ff 	lea    rdx,[rbp-0x28f0]
    7c92:	b8 00 00 00 00       	mov    eax,0x0
    7c97:	b9 21 00 00 00       	mov    ecx,0x21
    7c9c:	48 89 d7             	mov    rdi,rdx
    7c9f:	f3 48 ab             	rep stos QWORD PTR es:[rdi],rax
    7ca2:	48 89 fa             	mov    rdx,rdi
    7ca5:	89 02                	mov    DWORD PTR [rdx],eax
    7ca7:	48 83 c2 04          	add    rdx,0x4
    7cab:	66 89 02             	mov    WORD PTR [rdx],ax
    7cae:	48 83 c2 02          	add    rdx,0x2
    7cb2:	c6 85 10 d7 ff ff 01 	mov    BYTE PTR [rbp-0x28f0],0x1
    7cb9:	c6 85 11 d7 ff ff 74 	mov    BYTE PTR [rbp-0x28ef],0x74
    7cc0:	c6 85 12 d7 ff ff 80 	mov    BYTE PTR [rbp-0x28ee],0x80
    7cc7:	c6 85 13 d7 ff ff 94 	mov    BYTE PTR [rbp-0x28ed],0x94
    7cce:	c6 85 14 d7 ff ff 80 	mov    BYTE PTR [rbp-0x28ec],0x80
    7cd5:	c6 85 15 d7 ff ff 50 	mov    BYTE PTR [rbp-0x28eb],0x50
    7cdc:	c6 85 16 d7 ff ff 0c 	mov    BYTE PTR [rbp-0x28ea],0xc
    7ce3:	c6 85 17 d7 ff ff ed 	mov    BYTE PTR [rbp-0x28e9],0xed
    7cea:	c6 85 18 d7 ff ff fb 	mov    BYTE PTR [rbp-0x28e8],0xfb
    7cf1:	c6 85 19 d7 ff ff 7a 	mov    BYTE PTR [rbp-0x28e7],0x7a
    7cf8:	c6 85 1b d7 ff ff 94 	mov    BYTE PTR [rbp-0x28e5],0x94
    7cff:	c6 85 1c d7 ff ff 10 	mov    BYTE PTR [rbp-0x28e4],0x10
    7d06:	c6 85 1d d7 ff ff 74 	mov    BYTE PTR [rbp-0x28e3],0x74
    7d0d:	c6 85 1e d7 ff ff 80 	mov    BYTE PTR [rbp-0x28e2],0x80
    7d14:	c6 85 1f d7 ff ff 94 	mov    BYTE PTR [rbp-0x28e1],0x94
    7d1b:	c6 85 20 d7 ff ff 80 	mov    BYTE PTR [rbp-0x28e0],0x80
    7d22:	c6 85 21 d7 ff ff 40 	mov    BYTE PTR [rbp-0x28df],0x40
    7d29:	c6 85 22 d7 ff ff 03 	mov    BYTE PTR [rbp-0x28de],0x3
    7d30:	c6 85 23 d7 ff ff 7f 	mov    BYTE PTR [rbp-0x28dd],0x7f
    7d37:	c6 85 25 d7 ff ff 22 	mov    BYTE PTR [rbp-0x28db],0x22
    7d3e:	c6 85 26 d7 ff ff 75 	mov    BYTE PTR [rbp-0x28da],0x75
    7d45:	c6 85 27 d7 ff ff 86 	mov    BYTE PTR [rbp-0x28d9],0x86
    7d4c:	c6 85 28 d7 ff ff 01 	mov    BYTE PTR [rbp-0x28d8],0x1
    7d53:	c6 85 29 d7 ff ff eb 	mov    BYTE PTR [rbp-0x28d7],0xeb
    7d5a:	c6 85 2a d7 ff ff 64 	mov    BYTE PTR [rbp-0x28d6],0x64
    7d61:	c6 85 2b d7 ff ff 10 	mov    BYTE PTR [rbp-0x28d5],0x10
    7d68:	c6 85 2c d7 ff ff 4a 	mov    BYTE PTR [rbp-0x28d4],0x4a
    7d6f:	c6 85 2d d7 ff ff 70 	mov    BYTE PTR [rbp-0x28d3],0x70
    7d76:	c6 85 2e d7 ff ff 03 	mov    BYTE PTR [rbp-0x28d2],0x3
    7d7d:	c6 85 2f d7 ff ff 02 	mov    BYTE PTR [rbp-0x28d1],0x2
    7d84:	c6 85 30 d7 ff ff 13 	mov    BYTE PTR [rbp-0x28d0],0x13
    7d8b:	c6 85 31 d7 ff ff 27 	mov    BYTE PTR [rbp-0x28cf],0x27
    7d92:	c6 85 32 d7 ff ff d2 	mov    BYTE PTR [rbp-0x28ce],0xd2
    7d99:	c6 85 33 d7 ff ff c5 	mov    BYTE PTR [rbp-0x28cd],0xc5
    7da0:	c6 85 34 d7 ff ff 12 	mov    BYTE PTR [rbp-0x28cc],0x12
    7da7:	c6 85 35 d7 ff ff 16 	mov    BYTE PTR [rbp-0x28cb],0x16
    7dae:	c6 85 36 d7 ff ff 53 	mov    BYTE PTR [rbp-0x28ca],0x53
    7db5:	c6 85 37 d7 ff ff 90 	mov    BYTE PTR [rbp-0x28c9],0x90
    7dbc:	c6 85 38 d7 ff ff 06 	mov    BYTE PTR [rbp-0x28c8],0x6
    7dc3:	c6 85 39 d7 ff ff c4 	mov    BYTE PTR [rbp-0x28c7],0xc4
    7dca:	c6 85 3a d7 ff ff e0 	mov    BYTE PTR [rbp-0x28c6],0xe0
    7dd1:	c6 85 3b d7 ff ff 24 	mov    BYTE PTR [rbp-0x28c5],0x24
    7dd8:	c6 85 3c d7 ff ff ff 	mov    BYTE PTR [rbp-0x28c4],0xff
    7ddf:	c6 85 3d d7 ff ff 12 	mov    BYTE PTR [rbp-0x28c3],0x12
    7de6:	c6 85 3e d7 ff ff 15 	mov    BYTE PTR [rbp-0x28c2],0x15
    7ded:	c6 85 3f d7 ff ff ac 	mov    BYTE PTR [rbp-0x28c1],0xac
    7df4:	c6 85 40 d7 ff ff f5 	mov    BYTE PTR [rbp-0x28c0],0xf5
    7dfb:	c6 85 41 d7 ff ff f8 	mov    BYTE PTR [rbp-0x28bf],0xf8
    7e02:	c6 85 42 d7 ff ff 90 	mov    BYTE PTR [rbp-0x28be],0x90
    7e09:	c6 85 43 d7 ff ff 06 	mov    BYTE PTR [rbp-0x28bd],0x6
    7e10:	c6 85 44 d7 ff ff c4 	mov    BYTE PTR [rbp-0x28bc],0xc4
    7e17:	c6 85 45 d7 ff ff e0 	mov    BYTE PTR [rbp-0x28bb],0xe0
    7e1e:	c6 85 46 d7 ff ff 24 	mov    BYTE PTR [rbp-0x28ba],0x24
    7e25:	c6 85 47 d7 ff ff fe 	mov    BYTE PTR [rbp-0x28b9],0xfe
    7e2c:	c6 85 48 d7 ff ff 12 	mov    BYTE PTR [rbp-0x28b8],0x12
    7e33:	c6 85 49 d7 ff ff 15 	mov    BYTE PTR [rbp-0x28b7],0x15
    7e3a:	c6 85 4a d7 ff ff ac 	mov    BYTE PTR [rbp-0x28b6],0xac
    7e41:	c6 85 4b d7 ff ff f5 	mov    BYTE PTR [rbp-0x28b5],0xf5
    7e48:	c6 85 4c d7 ff ff f9 	mov    BYTE PTR [rbp-0x28b4],0xf9
    7e4f:	c6 85 4d d7 ff ff 90 	mov    BYTE PTR [rbp-0x28b3],0x90
    7e56:	c6 85 4e d7 ff ff 06 	mov    BYTE PTR [rbp-0x28b2],0x6
    7e5d:	c6 85 4f d7 ff ff c4 	mov    BYTE PTR [rbp-0x28b1],0xc4
    7e64:	c6 85 50 d7 ff ff e0 	mov    BYTE PTR [rbp-0x28b0],0xe0
    7e6b:	c6 85 51 d7 ff ff 24 	mov    BYTE PTR [rbp-0x28af],0x24
    7e72:	c6 85 52 d7 ff ff fd 	mov    BYTE PTR [rbp-0x28ae],0xfd
    7e79:	c6 85 53 d7 ff ff 12 	mov    BYTE PTR [rbp-0x28ad],0x12
    7e80:	c6 85 54 d7 ff ff 15 	mov    BYTE PTR [rbp-0x28ac],0x15
    7e87:	c6 85 55 d7 ff ff ac 	mov    BYTE PTR [rbp-0x28ab],0xac
    7e8e:	c6 85 56 d7 ff ff f5 	mov    BYTE PTR [rbp-0x28aa],0xf5
    7e95:	c6 85 57 d7 ff ff fa 	mov    BYTE PTR [rbp-0x28a9],0xfa
    7e9c:	c6 85 58 d7 ff ff 90 	mov    BYTE PTR [rbp-0x28a8],0x90
    7ea3:	c6 85 59 d7 ff ff 06 	mov    BYTE PTR [rbp-0x28a7],0x6
    7eaa:	c6 85 5a d7 ff ff c4 	mov    BYTE PTR [rbp-0x28a6],0xc4
    7eb1:	c6 85 5b d7 ff ff e0 	mov    BYTE PTR [rbp-0x28a5],0xe0
    7eb8:	c6 85 5c d7 ff ff 24 	mov    BYTE PTR [rbp-0x28a4],0x24
    7ebf:	c6 85 5d d7 ff ff fc 	mov    BYTE PTR [rbp-0x28a3],0xfc
    7ec6:	c6 85 5e d7 ff ff 12 	mov    BYTE PTR [rbp-0x28a2],0x12
    7ecd:	c6 85 5f d7 ff ff 15 	mov    BYTE PTR [rbp-0x28a1],0x15
    7ed4:	c6 85 60 d7 ff ff ac 	mov    BYTE PTR [rbp-0x28a0],0xac
    7edb:	c6 85 61 d7 ff ff f5 	mov    BYTE PTR [rbp-0x289f],0xf5
    7ee2:	c6 85 62 d7 ff ff fb 	mov    BYTE PTR [rbp-0x289e],0xfb
    7ee9:	c6 85 63 d7 ff ff 90 	mov    BYTE PTR [rbp-0x289d],0x90
    7ef0:	c6 85 64 d7 ff ff 06 	mov    BYTE PTR [rbp-0x289c],0x6
    7ef7:	c6 85 65 d7 ff ff c4 	mov    BYTE PTR [rbp-0x289b],0xc4
    7efe:	c6 85 66 d7 ff ff e0 	mov    BYTE PTR [rbp-0x289a],0xe0
    7f05:	c6 85 67 d7 ff ff 24 	mov    BYTE PTR [rbp-0x2899],0x24
    7f0c:	c6 85 68 d7 ff ff fb 	mov    BYTE PTR [rbp-0x2898],0xfb
    7f13:	c6 85 69 d7 ff ff 12 	mov    BYTE PTR [rbp-0x2897],0x12
    7f1a:	c6 85 6a d7 ff ff 15 	mov    BYTE PTR [rbp-0x2896],0x15
    7f21:	c6 85 6b d7 ff ff ac 	mov    BYTE PTR [rbp-0x2895],0xac
    7f28:	c6 85 6c d7 ff ff f5 	mov    BYTE PTR [rbp-0x2894],0xf5
    7f2f:	c6 85 6d d7 ff ff fc 	mov    BYTE PTR [rbp-0x2893],0xfc
    7f36:	c6 85 6e d7 ff ff 90 	mov    BYTE PTR [rbp-0x2892],0x90
    7f3d:	c6 85 6f d7 ff ff 06 	mov    BYTE PTR [rbp-0x2891],0x6
    7f44:	c6 85 70 d7 ff ff c4 	mov    BYTE PTR [rbp-0x2890],0xc4
    7f4b:	c6 85 71 d7 ff ff e0 	mov    BYTE PTR [rbp-0x288f],0xe0
    7f52:	c6 85 72 d7 ff ff 24 	mov    BYTE PTR [rbp-0x288e],0x24
    7f59:	c6 85 73 d7 ff ff fa 	mov    BYTE PTR [rbp-0x288d],0xfa
    7f60:	c6 85 74 d7 ff ff 12 	mov    BYTE PTR [rbp-0x288c],0x12
    7f67:	c6 85 75 d7 ff ff 15 	mov    BYTE PTR [rbp-0x288b],0x15
    7f6e:	c6 85 76 d7 ff ff ac 	mov    BYTE PTR [rbp-0x288a],0xac
    7f75:	c6 85 77 d7 ff ff f5 	mov    BYTE PTR [rbp-0x2889],0xf5
    7f7c:	c6 85 78 d7 ff ff fd 	mov    BYTE PTR [rbp-0x2888],0xfd
    7f83:	c6 85 79 d7 ff ff 90 	mov    BYTE PTR [rbp-0x2887],0x90
    7f8a:	c6 85 7a d7 ff ff 06 	mov    BYTE PTR [rbp-0x2886],0x6
    7f91:	c6 85 7b d7 ff ff c4 	mov    BYTE PTR [rbp-0x2885],0xc4
    7f98:	c6 85 7c d7 ff ff e0 	mov    BYTE PTR [rbp-0x2884],0xe0
    7f9f:	c6 85 7d d7 ff ff 24 	mov    BYTE PTR [rbp-0x2883],0x24
    7fa6:	c6 85 7e d7 ff ff f9 	mov    BYTE PTR [rbp-0x2882],0xf9
    7fad:	c6 85 7f d7 ff ff 12 	mov    BYTE PTR [rbp-0x2881],0x12
    7fb4:	c6 85 80 d7 ff ff 15 	mov    BYTE PTR [rbp-0x2880],0x15
    7fbb:	c6 85 81 d7 ff ff ac 	mov    BYTE PTR [rbp-0x287f],0xac
    7fc2:	c6 85 82 d7 ff ff f5 	mov    BYTE PTR [rbp-0x287e],0xf5
    7fc9:	c6 85 83 d7 ff ff fe 	mov    BYTE PTR [rbp-0x287d],0xfe
    7fd0:	c6 85 84 d7 ff ff 90 	mov    BYTE PTR [rbp-0x287c],0x90
    7fd7:	c6 85 85 d7 ff ff 06 	mov    BYTE PTR [rbp-0x287b],0x6
    7fde:	c6 85 86 d7 ff ff c4 	mov    BYTE PTR [rbp-0x287a],0xc4
    7fe5:	c6 85 87 d7 ff ff e0 	mov    BYTE PTR [rbp-0x2879],0xe0
    7fec:	c6 85 88 d7 ff ff 24 	mov    BYTE PTR [rbp-0x2878],0x24
    7ff3:	c6 85 89 d7 ff ff f8 	mov    BYTE PTR [rbp-0x2877],0xf8
    7ffa:	c6 85 8a d7 ff ff 12 	mov    BYTE PTR [rbp-0x2876],0x12
    8001:	c6 85 8b d7 ff ff 15 	mov    BYTE PTR [rbp-0x2875],0x15
    8008:	c6 85 8c d7 ff ff ac 	mov    BYTE PTR [rbp-0x2874],0xac
    800f:	c6 85 8d d7 ff ff f5 	mov    BYTE PTR [rbp-0x2873],0xf5
    8016:	c6 85 8e d7 ff ff ff 	mov    BYTE PTR [rbp-0x2872],0xff
    801d:	c6 85 8f d7 ff ff c2 	mov    BYTE PTR [rbp-0x2871],0xc2
    8024:	c6 85 90 d7 ff ff c5 	mov    BYTE PTR [rbp-0x2870],0xc5
    802b:	c6 85 91 d7 ff ff ef 	mov    BYTE PTR [rbp-0x286f],0xef
    8032:	c6 85 92 d7 ff ff 64 	mov    BYTE PTR [rbp-0x286e],0x64
    8039:	c6 85 93 d7 ff ff 01 	mov    BYTE PTR [rbp-0x286d],0x1
    8040:	c6 85 94 d7 ff ff 70 	mov    BYTE PTR [rbp-0x286c],0x70
    8047:	c6 85 95 d7 ff ff 7c 	mov    BYTE PTR [rbp-0x286b],0x7c
    804e:	c6 85 96 d7 ff ff d2 	mov    BYTE PTR [rbp-0x286a],0xd2
    8055:	c6 85 97 d7 ff ff c6 	mov    BYTE PTR [rbp-0x2869],0xc6
    805c:	c6 85 98 d7 ff ff 12 	mov    BYTE PTR [rbp-0x2868],0x12
    8063:	c6 85 99 d7 ff ff 16 	mov    BYTE PTR [rbp-0x2867],0x16
    806a:	c6 85 9a d7 ff ff 53 	mov    BYTE PTR [rbp-0x2866],0x53
    8071:	c6 85 9b d7 ff ff 90 	mov    BYTE PTR [rbp-0x2865],0x90
    8078:	c6 85 9c d7 ff ff 06 	mov    BYTE PTR [rbp-0x2864],0x6
    807f:	c6 85 9d d7 ff ff c4 	mov    BYTE PTR [rbp-0x2863],0xc4
    8086:	c6 85 9e d7 ff ff e0 	mov    BYTE PTR [rbp-0x2862],0xe0
    808d:	c6 85 9f d7 ff ff 24 	mov    BYTE PTR [rbp-0x2861],0x24
    8094:	c6 85 a0 d7 ff ff ef 	mov    BYTE PTR [rbp-0x2860],0xef
    809b:	c6 85 a1 d7 ff ff 12 	mov    BYTE PTR [rbp-0x285f],0x12
    80a2:	c6 85 a2 d7 ff ff 15 	mov    BYTE PTR [rbp-0x285e],0x15
    80a9:	c6 85 a3 d7 ff ff ac 	mov    BYTE PTR [rbp-0x285d],0xac
    80b0:	c6 85 a4 d7 ff ff f5 	mov    BYTE PTR [rbp-0x285c],0xf5
    80b7:	c6 85 a5 d7 ff ff f8 	mov    BYTE PTR [rbp-0x285b],0xf8
    80be:	c6 85 a6 d7 ff ff 90 	mov    BYTE PTR [rbp-0x285a],0x90
    80c5:	c6 85 a7 d7 ff ff 06 	mov    BYTE PTR [rbp-0x2859],0x6
    80cc:	c6 85 a8 d7 ff ff c4 	mov    BYTE PTR [rbp-0x2858],0xc4
    80d3:	c6 85 a9 d7 ff ff e0 	mov    BYTE PTR [rbp-0x2857],0xe0
    80da:	c6 85 aa d7 ff ff 24 	mov    BYTE PTR [rbp-0x2856],0x24
    80e1:	c6 85 ab d7 ff ff ee 	mov    BYTE PTR [rbp-0x2855],0xee
    80e8:	c6 85 ac d7 ff ff 12 	mov    BYTE PTR [rbp-0x2854],0x12
    80ef:	c6 85 ad d7 ff ff 15 	mov    BYTE PTR [rbp-0x2853],0x15
    80f6:	c6 85 ae d7 ff ff ac 	mov    BYTE PTR [rbp-0x2852],0xac
    80fd:	c6 85 af d7 ff ff f5 	mov    BYTE PTR [rbp-0x2851],0xf5
    8104:	c6 85 b0 d7 ff ff f9 	mov    BYTE PTR [rbp-0x2850],0xf9
    810b:	c6 85 b1 d7 ff ff 90 	mov    BYTE PTR [rbp-0x284f],0x90
    8112:	c6 85 b2 d7 ff ff 06 	mov    BYTE PTR [rbp-0x284e],0x6
    8119:	c6 85 b3 d7 ff ff c4 	mov    BYTE PTR [rbp-0x284d],0xc4
    8120:	c6 85 b4 d7 ff ff e0 	mov    BYTE PTR [rbp-0x284c],0xe0
    8127:	c6 85 b5 d7 ff ff 24 	mov    BYTE PTR [rbp-0x284b],0x24
    812e:	c6 85 b6 d7 ff ff ed 	mov    BYTE PTR [rbp-0x284a],0xed
    8135:	c6 85 b7 d7 ff ff 12 	mov    BYTE PTR [rbp-0x2849],0x12
    813c:	c6 85 b8 d7 ff ff 15 	mov    BYTE PTR [rbp-0x2848],0x15
    8143:	c6 85 b9 d7 ff ff ac 	mov    BYTE PTR [rbp-0x2847],0xac
    814a:	c6 85 ba d7 ff ff f5 	mov    BYTE PTR [rbp-0x2846],0xf5
    8151:	c6 85 bb d7 ff ff fa 	mov    BYTE PTR [rbp-0x2845],0xfa
    8158:	c6 85 bc d7 ff ff 90 	mov    BYTE PTR [rbp-0x2844],0x90
    815f:	c6 85 bd d7 ff ff 06 	mov    BYTE PTR [rbp-0x2843],0x6
    8166:	c6 85 be d7 ff ff c4 	mov    BYTE PTR [rbp-0x2842],0xc4
    816d:	c6 85 bf d7 ff ff e0 	mov    BYTE PTR [rbp-0x2841],0xe0
    8174:	c6 85 c0 d7 ff ff 24 	mov    BYTE PTR [rbp-0x2840],0x24
    817b:	c6 85 c1 d7 ff ff ec 	mov    BYTE PTR [rbp-0x283f],0xec
    8182:	c6 85 c2 d7 ff ff 12 	mov    BYTE PTR [rbp-0x283e],0x12
    8189:	c6 85 c3 d7 ff ff 15 	mov    BYTE PTR [rbp-0x283d],0x15
    8190:	c6 85 c4 d7 ff ff ac 	mov    BYTE PTR [rbp-0x283c],0xac
    8197:	c6 85 c5 d7 ff ff f5 	mov    BYTE PTR [rbp-0x283b],0xf5
    819e:	c6 85 c6 d7 ff ff fb 	mov    BYTE PTR [rbp-0x283a],0xfb
    81a5:	c6 85 c7 d7 ff ff 90 	mov    BYTE PTR [rbp-0x2839],0x90
    81ac:	c6 85 c8 d7 ff ff 06 	mov    BYTE PTR [rbp-0x2838],0x6
    81b3:	c6 85 c9 d7 ff ff c4 	mov    BYTE PTR [rbp-0x2837],0xc4
    81ba:	c6 85 ca d7 ff ff e0 	mov    BYTE PTR [rbp-0x2836],0xe0
    81c1:	c6 85 cb d7 ff ff 24 	mov    BYTE PTR [rbp-0x2835],0x24
    81c8:	c6 85 cc d7 ff ff eb 	mov    BYTE PTR [rbp-0x2834],0xeb
    81cf:	c6 85 cd d7 ff ff 12 	mov    BYTE PTR [rbp-0x2833],0x12
    81d6:	c6 85 ce d7 ff ff 15 	mov    BYTE PTR [rbp-0x2832],0x15
    81dd:	c6 85 cf d7 ff ff ac 	mov    BYTE PTR [rbp-0x2831],0xac
    81e4:	c6 85 d0 d7 ff ff f5 	mov    BYTE PTR [rbp-0x2830],0xf5
    81eb:	c6 85 d1 d7 ff ff fc 	mov    BYTE PTR [rbp-0x282f],0xfc
    81f2:	c6 85 d2 d7 ff ff 90 	mov    BYTE PTR [rbp-0x282e],0x90
    81f9:	c6 85 d3 d7 ff ff 06 	mov    BYTE PTR [rbp-0x282d],0x6
    8200:	c6 85 d4 d7 ff ff c4 	mov    BYTE PTR [rbp-0x282c],0xc4
    8207:	c6 85 d5 d7 ff ff e0 	mov    BYTE PTR [rbp-0x282b],0xe0
    820e:	c6 85 d6 d7 ff ff 24 	mov    BYTE PTR [rbp-0x282a],0x24
    8215:	c6 85 d7 d7 ff ff ea 	mov    BYTE PTR [rbp-0x2829],0xea
    821c:	c6 85 d8 d7 ff ff 12 	mov    BYTE PTR [rbp-0x2828],0x12
    8223:	c6 85 d9 d7 ff ff 15 	mov    BYTE PTR [rbp-0x2827],0x15
    822a:	c6 85 da d7 ff ff ac 	mov    BYTE PTR [rbp-0x2826],0xac
    8231:	c6 85 db d7 ff ff f5 	mov    BYTE PTR [rbp-0x2825],0xf5
    8238:	c6 85 dc d7 ff ff fd 	mov    BYTE PTR [rbp-0x2824],0xfd
    823f:	c6 85 dd d7 ff ff 90 	mov    BYTE PTR [rbp-0x2823],0x90
    8246:	c6 85 de d7 ff ff 06 	mov    BYTE PTR [rbp-0x2822],0x6
    824d:	c6 85 df d7 ff ff c4 	mov    BYTE PTR [rbp-0x2821],0xc4
    8254:	c6 85 e0 d7 ff ff e0 	mov    BYTE PTR [rbp-0x2820],0xe0
    825b:	c6 85 e1 d7 ff ff 24 	mov    BYTE PTR [rbp-0x281f],0x24
    8262:	c6 85 e2 d7 ff ff e9 	mov    BYTE PTR [rbp-0x281e],0xe9
    8269:	c6 85 e3 d7 ff ff 12 	mov    BYTE PTR [rbp-0x281d],0x12
    8270:	c6 85 e4 d7 ff ff 15 	mov    BYTE PTR [rbp-0x281c],0x15
    8277:	c6 85 e5 d7 ff ff ac 	mov    BYTE PTR [rbp-0x281b],0xac
    827e:	c6 85 e6 d7 ff ff f5 	mov    BYTE PTR [rbp-0x281a],0xf5
    8285:	c6 85 e7 d7 ff ff fe 	mov    BYTE PTR [rbp-0x2819],0xfe
    828c:	c6 85 e8 d7 ff ff 90 	mov    BYTE PTR [rbp-0x2818],0x90
    8293:	c6 85 e9 d7 ff ff 06 	mov    BYTE PTR [rbp-0x2817],0x6
    829a:	c6 85 ea d7 ff ff c4 	mov    BYTE PTR [rbp-0x2816],0xc4
    82a1:	c6 85 eb d7 ff ff e0 	mov    BYTE PTR [rbp-0x2815],0xe0
    82a8:	c6 85 ec d7 ff ff 24 	mov    BYTE PTR [rbp-0x2814],0x24
    82af:	c6 85 ed d7 ff ff e8 	mov    BYTE PTR [rbp-0x2813],0xe8
    82b6:	c6 85 ee d7 ff ff 12 	mov    BYTE PTR [rbp-0x2812],0x12
    82bd:	c6 85 ef d7 ff ff 15 	mov    BYTE PTR [rbp-0x2811],0x15
    82c4:	c6 85 f0 d7 ff ff ac 	mov    BYTE PTR [rbp-0x2810],0xac
    82cb:	c6 85 f1 d7 ff ff f5 	mov    BYTE PTR [rbp-0x280f],0xf5
    82d2:	c6 85 f2 d7 ff ff ff 	mov    BYTE PTR [rbp-0x280e],0xff
    82d9:	c6 85 f3 d7 ff ff c2 	mov    BYTE PTR [rbp-0x280d],0xc2
    82e0:	c6 85 f4 d7 ff ff c6 	mov    BYTE PTR [rbp-0x280c],0xc6
    82e7:	c6 85 f5 d7 ff ff d2 	mov    BYTE PTR [rbp-0x280b],0xd2
    82ee:	c6 85 f6 d7 ff ff c7 	mov    BYTE PTR [rbp-0x280a],0xc7
    82f5:	c6 85 f7 d7 ff ff 12 	mov    BYTE PTR [rbp-0x2809],0x12
    82fc:	c6 85 f8 d7 ff ff 15 	mov    BYTE PTR [rbp-0x2808],0x15
    8303:	c6 85 f9 d7 ff ff 0c 	mov    BYTE PTR [rbp-0x2807],0xc
    830a:	c6 85 fa d7 ff ff f5 	mov    BYTE PTR [rbp-0x2806],0xf5
    8311:	c6 85 fb d7 ff ff ff 	mov    BYTE PTR [rbp-0x2805],0xff
    8318:	c6 85 fc d7 ff ff c2 	mov    BYTE PTR [rbp-0x2804],0xc2
    831f:	c6 85 fd d7 ff ff c7 	mov    BYTE PTR [rbp-0x2803],0xc7
    8326:	c6 85 fe d7 ff ff ee 	mov    BYTE PTR [rbp-0x2802],0xee
    832d:	c6 85 ff d7 ff ff fd 	mov    BYTE PTR [rbp-0x2801],0xfd
    8334:	c6 85 00 d8 ff ff 7c 	mov    BYTE PTR [rbp-0x2800],0x7c
    833b:	c6 85 02 d8 ff ff 70 	mov    BYTE PTR [rbp-0x27fe],0x70
    8342:	c6 85 03 d8 ff ff 02 	mov    BYTE PTR [rbp-0x27fd],0x2
    8349:	c6 85 04 d8 ff ff c2 	mov    BYTE PTR [rbp-0x27fc],0xc2
    8350:	c6 85 05 d8 ff ff c1 	mov    BYTE PTR [rbp-0x27fb],0xc1
    8357:	c6 85 06 d8 ff ff ed 	mov    BYTE PTR [rbp-0x27fa],0xed
    835e:	c6 85 07 d8 ff ff 64 	mov    BYTE PTR [rbp-0x27f9],0x64
    8365:	c6 85 08 d8 ff ff 01 	mov    BYTE PTR [rbp-0x27f8],0x1
    836c:	c6 85 09 d8 ff ff 4c 	mov    BYTE PTR [rbp-0x27f7],0x4c
    8373:	c6 85 0a d8 ff ff 70 	mov    BYTE PTR [rbp-0x27f6],0x70
    837a:	c6 85 0b d8 ff ff 02 	mov    BYTE PTR [rbp-0x27f5],0x2
    8381:	c6 85 0c d8 ff ff d2 	mov    BYTE PTR [rbp-0x27f4],0xd2
    8388:	c6 85 0d d8 ff ff c1 	mov    BYTE PTR [rbp-0x27f3],0xc1
    838f:	c6 85 0e d8 ff ff d2 	mov    BYTE PTR [rbp-0x27f2],0xd2
    8396:	48 8d 95 00 d6 ff ff 	lea    rdx,[rbp-0x2a00]
    839d:	b8 00 00 00 00       	mov    eax,0x0
    83a2:	b9 21 00 00 00       	mov    ecx,0x21
    83a7:	48 89 d7             	mov    rdi,rdx
    83aa:	f3 48 ab             	rep stos QWORD PTR es:[rdi],rax
    83ad:	48 89 fa             	mov    rdx,rdi
    83b0:	89 02                	mov    DWORD PTR [rdx],eax
    83b2:	48 83 c2 04          	add    rdx,0x4
    83b6:	66 89 02             	mov    WORD PTR [rdx],ax
    83b9:	48 83 c2 02          	add    rdx,0x2
    83bd:	c6 85 01 d6 ff ff 58 	mov    BYTE PTR [rbp-0x29ff],0x58
    83c4:	c6 85 02 d6 ff ff 92 	mov    BYTE PTR [rbp-0x29fe],0x92
    83cb:	c6 85 03 d6 ff ff ef 	mov    BYTE PTR [rbp-0x29fd],0xef
    83d2:	c6 85 04 d6 ff ff ff 	mov    BYTE PTR [rbp-0x29fc],0xff
    83d9:	48 8d 95 f0 d4 ff ff 	lea    rdx,[rbp-0x2b10]
    83e0:	b8 00 00 00 00       	mov    eax,0x0
    83e5:	b9 21 00 00 00       	mov    ecx,0x21
    83ea:	48 89 d7             	mov    rdi,rdx
    83ed:	f3 48 ab             	rep stos QWORD PTR es:[rdi],rax
    83f0:	48 89 fa             	mov    rdx,rdi
    83f3:	89 02                	mov    DWORD PTR [rdx],eax
    83f5:	48 83 c2 04          	add    rdx,0x4
    83f9:	66 89 02             	mov    WORD PTR [rdx],ax
    83fc:	48 83 c2 02          	add    rdx,0x2
    8400:	c6 85 f0 d4 ff ff c2 	mov    BYTE PTR [rbp-0x2b10],0xc2
    8407:	c6 85 f1 d4 ff ff 80 	mov    BYTE PTR [rbp-0x2b0f],0x80
    840e:	c6 85 f2 d4 ff ff 20 	mov    BYTE PTR [rbp-0x2b0e],0x20
    8415:	c6 85 f3 d4 ff ff 43 	mov    BYTE PTR [rbp-0x2b0d],0x43
    841c:	c6 85 f4 d4 ff ff c0 	mov    BYTE PTR [rbp-0x2b0c],0xc0
    8423:	c6 85 f5 d4 ff ff c0 	mov    BYTE PTR [rbp-0x2b0b],0xc0
    842a:	c6 85 f6 d4 ff ff 12 	mov    BYTE PTR [rbp-0x2b0a],0x12
    8431:	c6 85 f7 d4 ff ff 16 	mov    BYTE PTR [rbp-0x2b09],0x16
    8438:	c6 85 f8 d4 ff ff 53 	mov    BYTE PTR [rbp-0x2b08],0x53
    843f:	c6 85 f9 d4 ff ff 12 	mov    BYTE PTR [rbp-0x2b07],0x12
    8446:	c6 85 fa d4 ff ff 15 	mov    BYTE PTR [rbp-0x2b06],0x15
    844d:	c6 85 fb d4 ff ff 0c 	mov    BYTE PTR [rbp-0x2b05],0xc
    8454:	c6 85 fc d4 ff ff f5 	mov    BYTE PTR [rbp-0x2b04],0xf5
    845b:	c6 85 fd d4 ff ff ff 	mov    BYTE PTR [rbp-0x2b03],0xff
    8462:	c6 85 fe d4 ff ff 53 	mov    BYTE PTR [rbp-0x2b02],0x53
    8469:	c6 85 ff d4 ff ff c0 	mov    BYTE PTR [rbp-0x2b01],0xc0
    8470:	c6 85 00 d5 ff ff 3f 	mov    BYTE PTR [rbp-0x2b00],0x3f
    8477:	c6 85 01 d5 ff ff ee 	mov    BYTE PTR [rbp-0x2aff],0xee
    847e:	c6 85 02 d5 ff ff fd 	mov    BYTE PTR [rbp-0x2afe],0xfd
    8485:	c6 85 03 d5 ff ff 7c 	mov    BYTE PTR [rbp-0x2afd],0x7c
    848c:	c6 85 05 d5 ff ff 70 	mov    BYTE PTR [rbp-0x2afb],0x70
    8493:	c6 85 06 d5 ff ff 02 	mov    BYTE PTR [rbp-0x2afa],0x2
    849a:	c6 85 07 d5 ff ff c2 	mov    BYTE PTR [rbp-0x2af9],0xc2
    84a1:	c6 85 08 d5 ff ff c1 	mov    BYTE PTR [rbp-0x2af8],0xc1
    84a8:	c6 85 09 d5 ff ff ed 	mov    BYTE PTR [rbp-0x2af7],0xed
    84af:	c6 85 0a d5 ff ff 64 	mov    BYTE PTR [rbp-0x2af6],0x64
    84b6:	c6 85 0b d5 ff ff 01 	mov    BYTE PTR [rbp-0x2af5],0x1
    84bd:	c6 85 0c d5 ff ff 4c 	mov    BYTE PTR [rbp-0x2af4],0x4c
    84c4:	c6 85 0d d5 ff ff 70 	mov    BYTE PTR [rbp-0x2af3],0x70
    84cb:	c6 85 0e d5 ff ff 02 	mov    BYTE PTR [rbp-0x2af2],0x2
    84d2:	c6 85 0f d5 ff ff d2 	mov    BYTE PTR [rbp-0x2af1],0xd2
    84d9:	c6 85 10 d5 ff ff c1 	mov    BYTE PTR [rbp-0x2af0],0xc1
    84e0:	c6 85 11 d5 ff ff c2 	mov    BYTE PTR [rbp-0x2aef],0xc2
    84e7:	c6 85 12 d5 ff ff c2 	mov    BYTE PTR [rbp-0x2aee],0xc2
    84ee:	c6 85 13 d5 ff ff 53 	mov    BYTE PTR [rbp-0x2aed],0x53
    84f5:	c6 85 14 d5 ff ff e1 	mov    BYTE PTR [rbp-0x2aec],0xe1
    84fc:	c6 85 15 d5 ff ff fe 	mov    BYTE PTR [rbp-0x2aeb],0xfe
    8503:	c6 85 16 d5 ff ff 90 	mov    BYTE PTR [rbp-0x2aea],0x90
    850a:	c6 85 17 d5 ff ff 1a 	mov    BYTE PTR [rbp-0x2ae9],0x1a
    8511:	c6 85 18 d5 ff ff 10 	mov    BYTE PTR [rbp-0x2ae8],0x10
    8518:	c6 85 19 d5 ff ff 74 	mov    BYTE PTR [rbp-0x2ae7],0x74
    851f:	c6 85 1a d5 ff ff 01 	mov    BYTE PTR [rbp-0x2ae6],0x1
    8526:	c6 85 1b d5 ff ff f0 	mov    BYTE PTR [rbp-0x2ae5],0xf0
    852d:	c6 85 1c d5 ff ff d2 	mov    BYTE PTR [rbp-0x2ae4],0xd2
    8534:	c6 85 1d d5 ff ff c0 	mov    BYTE PTR [rbp-0x2ae3],0xc0
    853b:	c6 85 1e d5 ff ff 30 	mov    BYTE PTR [rbp-0x2ae2],0x30
    8542:	c6 85 1f d5 ff ff c3 	mov    BYTE PTR [rbp-0x2ae1],0xc3
    8549:	c6 85 20 d5 ff ff fd 	mov    BYTE PTR [rbp-0x2ae0],0xfd
    8550:	c6 85 21 d5 ff ff 90 	mov    BYTE PTR [rbp-0x2adf],0x90
    8557:	c6 85 22 d5 ff ff 1a 	mov    BYTE PTR [rbp-0x2ade],0x1a
    855e:	c6 85 23 d5 ff ff 10 	mov    BYTE PTR [rbp-0x2add],0x10
    8565:	c6 85 24 d5 ff ff e4 	mov    BYTE PTR [rbp-0x2adc],0xe4
    856c:	c6 85 25 d5 ff ff f0 	mov    BYTE PTR [rbp-0x2adb],0xf0
    8573:	c6 85 26 d5 ff ff 80 	mov    BYTE PTR [rbp-0x2ada],0x80
    857a:	c6 85 27 d5 ff ff 58 	mov    BYTE PTR [rbp-0x2ad9],0x58
    8581:	c6 85 28 d5 ff ff 12 	mov    BYTE PTR [rbp-0x2ad8],0x12
    8588:	c6 85 29 d5 ff ff 16 	mov    BYTE PTR [rbp-0x2ad7],0x16
    858f:	c6 85 2a d5 ff ff 53 	mov    BYTE PTR [rbp-0x2ad6],0x53
    8596:	c6 85 2b d5 ff ff 12 	mov    BYTE PTR [rbp-0x2ad5],0x12
    859d:	c6 85 2c d5 ff ff 15 	mov    BYTE PTR [rbp-0x2ad4],0x15
    85a4:	c6 85 2d d5 ff ff ec 	mov    BYTE PTR [rbp-0x2ad3],0xec
    85ab:	c6 85 2e d5 ff ff 24 	mov    BYTE PTR [rbp-0x2ad2],0x24
    85b2:	c6 85 2f d5 ff ff ff 	mov    BYTE PTR [rbp-0x2ad1],0xff
    85b9:	c6 85 30 d5 ff ff 12 	mov    BYTE PTR [rbp-0x2ad0],0x12
    85c0:	c6 85 31 d5 ff ff 15 	mov    BYTE PTR [rbp-0x2acf],0x15
    85c7:	c6 85 32 d5 ff ff bb 	mov    BYTE PTR [rbp-0x2ace],0xbb
    85ce:	c6 85 33 d5 ff ff e5 	mov    BYTE PTR [rbp-0x2acd],0xe5
    85d5:	c6 85 34 d5 ff ff f8 	mov    BYTE PTR [rbp-0x2acc],0xf8
    85dc:	c6 85 35 d5 ff ff 12 	mov    BYTE PTR [rbp-0x2acb],0x12
    85e3:	c6 85 36 d5 ff ff 13 	mov    BYTE PTR [rbp-0x2aca],0x13
    85ea:	c6 85 37 d5 ff ff c4 	mov    BYTE PTR [rbp-0x2ac9],0xc4
    85f1:	c6 85 38 d5 ff ff 74 	mov    BYTE PTR [rbp-0x2ac8],0x74
    85f8:	c6 85 39 d5 ff ff fe 	mov    BYTE PTR [rbp-0x2ac7],0xfe
    85ff:	c6 85 3a d5 ff ff 12 	mov    BYTE PTR [rbp-0x2ac6],0x12
    8606:	c6 85 3b d5 ff ff 15 	mov    BYTE PTR [rbp-0x2ac5],0x15
    860d:	c6 85 3c d5 ff ff ba 	mov    BYTE PTR [rbp-0x2ac4],0xba
    8614:	c6 85 3d d5 ff ff e5 	mov    BYTE PTR [rbp-0x2ac3],0xe5
    861b:	c6 85 3e d5 ff ff f9 	mov    BYTE PTR [rbp-0x2ac2],0xf9
    8622:	c6 85 3f d5 ff ff 12 	mov    BYTE PTR [rbp-0x2ac1],0x12
    8629:	c6 85 40 d5 ff ff 15 	mov    BYTE PTR [rbp-0x2ac0],0x15
    8630:	c6 85 41 d5 ff ff e9 	mov    BYTE PTR [rbp-0x2abf],0xe9
    8637:	c6 85 42 d5 ff ff 24 	mov    BYTE PTR [rbp-0x2abe],0x24
    863e:	c6 85 43 d5 ff ff fd 	mov    BYTE PTR [rbp-0x2abd],0xfd
    8645:	c6 85 44 d5 ff ff 12 	mov    BYTE PTR [rbp-0x2abc],0x12
    864c:	c6 85 45 d5 ff ff 15 	mov    BYTE PTR [rbp-0x2abb],0x15
    8653:	c6 85 46 d5 ff ff bb 	mov    BYTE PTR [rbp-0x2aba],0xbb
    865a:	c6 85 47 d5 ff ff e5 	mov    BYTE PTR [rbp-0x2ab9],0xe5
    8661:	c6 85 48 d5 ff ff fa 	mov    BYTE PTR [rbp-0x2ab8],0xfa
    8668:	c6 85 49 d5 ff ff 12 	mov    BYTE PTR [rbp-0x2ab7],0x12
    866f:	c6 85 4a d5 ff ff 13 	mov    BYTE PTR [rbp-0x2ab6],0x13
    8676:	c6 85 4b d5 ff ff c4 	mov    BYTE PTR [rbp-0x2ab5],0xc4
    867d:	c6 85 4c d5 ff ff 74 	mov    BYTE PTR [rbp-0x2ab4],0x74
    8684:	c6 85 4d d5 ff ff fc 	mov    BYTE PTR [rbp-0x2ab3],0xfc
    868b:	c6 85 4e d5 ff ff 12 	mov    BYTE PTR [rbp-0x2ab2],0x12
    8692:	c6 85 4f d5 ff ff 15 	mov    BYTE PTR [rbp-0x2ab1],0x15
    8699:	c6 85 50 d5 ff ff ba 	mov    BYTE PTR [rbp-0x2ab0],0xba
    86a0:	c6 85 51 d5 ff ff e5 	mov    BYTE PTR [rbp-0x2aaf],0xe5
    86a7:	c6 85 52 d5 ff ff fb 	mov    BYTE PTR [rbp-0x2aae],0xfb
    86ae:	c6 85 53 d5 ff ff 12 	mov    BYTE PTR [rbp-0x2aad],0x12
    86b5:	c6 85 54 d5 ff ff 15 	mov    BYTE PTR [rbp-0x2aac],0x15
    86bc:	c6 85 55 d5 ff ff e9 	mov    BYTE PTR [rbp-0x2aab],0xe9
    86c3:	c6 85 56 d5 ff ff 24 	mov    BYTE PTR [rbp-0x2aaa],0x24
    86ca:	c6 85 57 d5 ff ff fb 	mov    BYTE PTR [rbp-0x2aa9],0xfb
    86d1:	c6 85 58 d5 ff ff 12 	mov    BYTE PTR [rbp-0x2aa8],0x12
    86d8:	c6 85 59 d5 ff ff 15 	mov    BYTE PTR [rbp-0x2aa7],0x15
    86df:	c6 85 5a d5 ff ff bb 	mov    BYTE PTR [rbp-0x2aa6],0xbb
    86e6:	c6 85 5b d5 ff ff e5 	mov    BYTE PTR [rbp-0x2aa5],0xe5
    86ed:	c6 85 5c d5 ff ff fc 	mov    BYTE PTR [rbp-0x2aa4],0xfc
    86f4:	c6 85 5d d5 ff ff 12 	mov    BYTE PTR [rbp-0x2aa3],0x12
    86fb:	c6 85 5e d5 ff ff 13 	mov    BYTE PTR [rbp-0x2aa2],0x13
    8702:	c6 85 5f d5 ff ff c4 	mov    BYTE PTR [rbp-0x2aa1],0xc4
    8709:	c6 85 60 d5 ff ff 74 	mov    BYTE PTR [rbp-0x2aa0],0x74
    8710:	c6 85 61 d5 ff ff fa 	mov    BYTE PTR [rbp-0x2a9f],0xfa
    8717:	c6 85 62 d5 ff ff 12 	mov    BYTE PTR [rbp-0x2a9e],0x12
    871e:	c6 85 63 d5 ff ff 15 	mov    BYTE PTR [rbp-0x2a9d],0x15
    8725:	c6 85 64 d5 ff ff ba 	mov    BYTE PTR [rbp-0x2a9c],0xba
    872c:	c6 85 65 d5 ff ff e5 	mov    BYTE PTR [rbp-0x2a9b],0xe5
    8733:	c6 85 66 d5 ff ff fd 	mov    BYTE PTR [rbp-0x2a9a],0xfd
    873a:	c6 85 67 d5 ff ff 12 	mov    BYTE PTR [rbp-0x2a99],0x12
    8741:	c6 85 68 d5 ff ff 15 	mov    BYTE PTR [rbp-0x2a98],0x15
    8748:	c6 85 69 d5 ff ff e9 	mov    BYTE PTR [rbp-0x2a97],0xe9
    874f:	c6 85 6a d5 ff ff 24 	mov    BYTE PTR [rbp-0x2a96],0x24
    8756:	c6 85 6b d5 ff ff f9 	mov    BYTE PTR [rbp-0x2a95],0xf9
    875d:	c6 85 6c d5 ff ff 12 	mov    BYTE PTR [rbp-0x2a94],0x12
    8764:	c6 85 6d d5 ff ff 15 	mov    BYTE PTR [rbp-0x2a93],0x15
    876b:	c6 85 6e d5 ff ff bb 	mov    BYTE PTR [rbp-0x2a92],0xbb
    8772:	c6 85 6f d5 ff ff e5 	mov    BYTE PTR [rbp-0x2a91],0xe5
    8779:	c6 85 70 d5 ff ff fe 	mov    BYTE PTR [rbp-0x2a90],0xfe
    8780:	c6 85 71 d5 ff ff 12 	mov    BYTE PTR [rbp-0x2a8f],0x12
    8787:	c6 85 72 d5 ff ff 13 	mov    BYTE PTR [rbp-0x2a8e],0x13
    878e:	c6 85 73 d5 ff ff c4 	mov    BYTE PTR [rbp-0x2a8d],0xc4
    8795:	c6 85 74 d5 ff ff 74 	mov    BYTE PTR [rbp-0x2a8c],0x74
    879c:	c6 85 75 d5 ff ff f8 	mov    BYTE PTR [rbp-0x2a8b],0xf8
    87a3:	c6 85 76 d5 ff ff 12 	mov    BYTE PTR [rbp-0x2a8a],0x12
    87aa:	c6 85 77 d5 ff ff 15 	mov    BYTE PTR [rbp-0x2a89],0x15
    87b1:	c6 85 78 d5 ff ff ba 	mov    BYTE PTR [rbp-0x2a88],0xba
    87b8:	c6 85 79 d5 ff ff e5 	mov    BYTE PTR [rbp-0x2a87],0xe5
    87bf:	c6 85 7a d5 ff ff ff 	mov    BYTE PTR [rbp-0x2a86],0xff
    87c6:	c6 85 7b d5 ff ff 12 	mov    BYTE PTR [rbp-0x2a85],0x12
    87cd:	c6 85 7c d5 ff ff 13 	mov    BYTE PTR [rbp-0x2a84],0x13
    87d4:	c6 85 7d d5 ff ff c4 	mov    BYTE PTR [rbp-0x2a83],0xc4
    87db:	c6 85 7e d5 ff ff c2 	mov    BYTE PTR [rbp-0x2a82],0xc2
    87e2:	c6 85 7f d5 ff ff c3 	mov    BYTE PTR [rbp-0x2a81],0xc3
    87e9:	c6 85 80 d5 ff ff e4 	mov    BYTE PTR [rbp-0x2a80],0xe4
    87f0:	c6 85 81 d5 ff ff f5 	mov    BYTE PTR [rbp-0x2a7f],0xf5
    87f7:	c6 85 82 d5 ff ff 86 	mov    BYTE PTR [rbp-0x2a7e],0x86
    87fe:	c6 85 83 d5 ff ff 7f 	mov    BYTE PTR [rbp-0x2a7d],0x7f
    8805:	c6 85 84 d5 ff ff 01 	mov    BYTE PTR [rbp-0x2a7c],0x1
    880c:	c6 85 85 d5 ff ff 22 	mov    BYTE PTR [rbp-0x2a7b],0x22
    8813:	c6 85 86 d5 ff ff bb 	mov    BYTE PTR [rbp-0x2a7a],0xbb
    881a:	c6 85 87 d5 ff ff 01 	mov    BYTE PTR [rbp-0x2a79],0x1
    8821:	c6 85 88 d5 ff ff 0c 	mov    BYTE PTR [rbp-0x2a78],0xc
    8828:	c6 85 89 d5 ff ff e5 	mov    BYTE PTR [rbp-0x2a77],0xe5
    882f:	c6 85 8a d5 ff ff 82 	mov    BYTE PTR [rbp-0x2a76],0x82
    8836:	c6 85 8b d5 ff ff 29 	mov    BYTE PTR [rbp-0x2a75],0x29
    883d:	c6 85 8c d5 ff ff f5 	mov    BYTE PTR [rbp-0x2a74],0xf5
    8844:	c6 85 8d d5 ff ff 82 	mov    BYTE PTR [rbp-0x2a73],0x82
    884b:	c6 85 8e d5 ff ff e5 	mov    BYTE PTR [rbp-0x2a72],0xe5
    8852:	c6 85 8f d5 ff ff 83 	mov    BYTE PTR [rbp-0x2a71],0x83
    8859:	c6 85 90 d5 ff ff 3a 	mov    BYTE PTR [rbp-0x2a70],0x3a
    8860:	c6 85 91 d5 ff ff f5 	mov    BYTE PTR [rbp-0x2a6f],0xf5
    8867:	c6 85 92 d5 ff ff 83 	mov    BYTE PTR [rbp-0x2a6e],0x83
    886e:	c6 85 93 d5 ff ff e0 	mov    BYTE PTR [rbp-0x2a6d],0xe0
    8875:	c6 85 94 d5 ff ff 22 	mov    BYTE PTR [rbp-0x2a6c],0x22
    887c:	c6 85 95 d5 ff ff 50 	mov    BYTE PTR [rbp-0x2a6b],0x50
    8883:	c6 85 96 d5 ff ff 06 	mov    BYTE PTR [rbp-0x2a6a],0x6
    888a:	c6 85 97 d5 ff ff e9 	mov    BYTE PTR [rbp-0x2a69],0xe9
    8891:	c6 85 98 d5 ff ff 25 	mov    BYTE PTR [rbp-0x2a68],0x25
    8898:	c6 85 99 d5 ff ff 82 	mov    BYTE PTR [rbp-0x2a67],0x82
    889f:	c6 85 9a d5 ff ff f8 	mov    BYTE PTR [rbp-0x2a66],0xf8
    88a6:	c6 85 9b d5 ff ff e6 	mov    BYTE PTR [rbp-0x2a65],0xe6
    88ad:	c6 85 9c d5 ff ff 22 	mov    BYTE PTR [rbp-0x2a64],0x22
    88b4:	c6 85 9d d5 ff ff bb 	mov    BYTE PTR [rbp-0x2a63],0xbb
    88bb:	c6 85 9e d5 ff ff fe 	mov    BYTE PTR [rbp-0x2a62],0xfe
    88c2:	c6 85 9f d5 ff ff 06 	mov    BYTE PTR [rbp-0x2a61],0x6
    88c9:	c6 85 a0 d5 ff ff e9 	mov    BYTE PTR [rbp-0x2a60],0xe9
    88d0:	c6 85 a1 d5 ff ff 25 	mov    BYTE PTR [rbp-0x2a5f],0x25
    88d7:	c6 85 a2 d5 ff ff 82 	mov    BYTE PTR [rbp-0x2a5e],0x82
    88de:	c6 85 a3 d5 ff ff f8 	mov    BYTE PTR [rbp-0x2a5d],0xf8
    88e5:	c6 85 a4 d5 ff ff e2 	mov    BYTE PTR [rbp-0x2a5c],0xe2
    88ec:	c6 85 a5 d5 ff ff 22 	mov    BYTE PTR [rbp-0x2a5b],0x22
    88f3:	c6 85 a6 d5 ff ff e5 	mov    BYTE PTR [rbp-0x2a5a],0xe5
    88fa:	c6 85 a7 d5 ff ff 82 	mov    BYTE PTR [rbp-0x2a59],0x82
    8901:	c6 85 a8 d5 ff ff 29 	mov    BYTE PTR [rbp-0x2a58],0x29
    8908:	c6 85 a9 d5 ff ff f5 	mov    BYTE PTR [rbp-0x2a57],0xf5
    890f:	c6 85 aa d5 ff ff 82 	mov    BYTE PTR [rbp-0x2a56],0x82
    8916:	c6 85 ab d5 ff ff e5 	mov    BYTE PTR [rbp-0x2a55],0xe5
    891d:	c6 85 ac d5 ff ff 83 	mov    BYTE PTR [rbp-0x2a54],0x83
    8924:	c6 85 ad d5 ff ff 3a 	mov    BYTE PTR [rbp-0x2a53],0x3a
    892b:	c6 85 ae d5 ff ff f5 	mov    BYTE PTR [rbp-0x2a52],0xf5
    8932:	c6 85 af d5 ff ff 83 	mov    BYTE PTR [rbp-0x2a51],0x83
    8939:	c6 85 b0 d5 ff ff e4 	mov    BYTE PTR [rbp-0x2a50],0xe4
    8940:	c6 85 b1 d5 ff ff 93 	mov    BYTE PTR [rbp-0x2a4f],0x93
    8947:	c6 85 b2 d5 ff ff 22 	mov    BYTE PTR [rbp-0x2a4e],0x22
    894e:	c6 85 b3 d5 ff ff bb 	mov    BYTE PTR [rbp-0x2a4d],0xbb
    8955:	c6 85 b4 d5 ff ff 01 	mov    BYTE PTR [rbp-0x2a4c],0x1
    895c:	c6 85 b5 d5 ff ff 06 	mov    BYTE PTR [rbp-0x2a4b],0x6
    8963:	c6 85 b6 d5 ff ff 89 	mov    BYTE PTR [rbp-0x2a4a],0x89
    896a:	c6 85 b7 d5 ff ff 82 	mov    BYTE PTR [rbp-0x2a49],0x82
    8971:	c6 85 b8 d5 ff ff 8a 	mov    BYTE PTR [rbp-0x2a48],0x8a
    8978:	c6 85 b9 d5 ff ff 83 	mov    BYTE PTR [rbp-0x2a47],0x83
    897f:	c6 85 ba d5 ff ff f0 	mov    BYTE PTR [rbp-0x2a46],0xf0
    8986:	c6 85 bb d5 ff ff 22 	mov    BYTE PTR [rbp-0x2a45],0x22
    898d:	c6 85 bc d5 ff ff 50 	mov    BYTE PTR [rbp-0x2a44],0x50
    8994:	c6 85 bd d5 ff ff 02 	mov    BYTE PTR [rbp-0x2a43],0x2
    899b:	c6 85 be d5 ff ff f7 	mov    BYTE PTR [rbp-0x2a42],0xf7
    89a2:	c6 85 bf d5 ff ff 22 	mov    BYTE PTR [rbp-0x2a41],0x22
    89a9:	c6 85 c0 d5 ff ff bb 	mov    BYTE PTR [rbp-0x2a40],0xbb
    89b0:	c6 85 c1 d5 ff ff fe 	mov    BYTE PTR [rbp-0x2a3f],0xfe
    89b7:	c6 85 c2 d5 ff ff 01 	mov    BYTE PTR [rbp-0x2a3e],0x1
    89be:	c6 85 c3 d5 ff ff f3 	mov    BYTE PTR [rbp-0x2a3d],0xf3
    89c5:	c6 85 c4 d5 ff ff 22 	mov    BYTE PTR [rbp-0x2a3c],0x22
    89cc:	c6 85 c5 d5 ff ff f8 	mov    BYTE PTR [rbp-0x2a3b],0xf8
    89d3:	c6 85 c6 d5 ff ff bb 	mov    BYTE PTR [rbp-0x2a3a],0xbb
    89da:	c6 85 c7 d5 ff ff 01 	mov    BYTE PTR [rbp-0x2a39],0x1
    89e1:	c6 85 c8 d5 ff ff 0d 	mov    BYTE PTR [rbp-0x2a38],0xd
    89e8:	c6 85 c9 d5 ff ff e5 	mov    BYTE PTR [rbp-0x2a37],0xe5
    89ef:	c6 85 ca d5 ff ff 82 	mov    BYTE PTR [rbp-0x2a36],0x82
    89f6:	c6 85 cb d5 ff ff 29 	mov    BYTE PTR [rbp-0x2a35],0x29
    89fd:	c6 85 cc d5 ff ff f5 	mov    BYTE PTR [rbp-0x2a34],0xf5
    8a04:	c6 85 cd d5 ff ff 82 	mov    BYTE PTR [rbp-0x2a33],0x82
    8a0b:	c6 85 ce d5 ff ff e5 	mov    BYTE PTR [rbp-0x2a32],0xe5
    8a12:	c6 85 cf d5 ff ff 83 	mov    BYTE PTR [rbp-0x2a31],0x83
    8a19:	c6 85 d0 d5 ff ff 3a 	mov    BYTE PTR [rbp-0x2a30],0x3a
    8a20:	c6 85 d1 d5 ff ff f5 	mov    BYTE PTR [rbp-0x2a2f],0xf5
    8a27:	c6 85 d2 d5 ff ff 83 	mov    BYTE PTR [rbp-0x2a2e],0x83
    8a2e:	c6 85 d3 d5 ff ff e8 	mov    BYTE PTR [rbp-0x2a2d],0xe8
    8a35:	c6 85 d4 d5 ff ff f0 	mov    BYTE PTR [rbp-0x2a2c],0xf0
    8a3c:	c6 85 d5 d5 ff ff 22 	mov    BYTE PTR [rbp-0x2a2b],0x22
    8a43:	c6 85 d6 d5 ff ff 50 	mov    BYTE PTR [rbp-0x2a2a],0x50
    8a4a:	c6 85 d7 d5 ff ff 06 	mov    BYTE PTR [rbp-0x2a29],0x6
    8a51:	c6 85 d8 d5 ff ff e9 	mov    BYTE PTR [rbp-0x2a28],0xe9
    8a58:	c6 85 d9 d5 ff ff 25 	mov    BYTE PTR [rbp-0x2a27],0x25
    8a5f:	c6 85 da d5 ff ff 82 	mov    BYTE PTR [rbp-0x2a26],0x82
    8a66:	c6 85 db d5 ff ff c8 	mov    BYTE PTR [rbp-0x2a25],0xc8
    8a6d:	c6 85 dc d5 ff ff f6 	mov    BYTE PTR [rbp-0x2a24],0xf6
    8a74:	c6 85 dd d5 ff ff 22 	mov    BYTE PTR [rbp-0x2a23],0x22
    8a7b:	c6 85 de d5 ff ff bb 	mov    BYTE PTR [rbp-0x2a22],0xbb
    8a82:	c6 85 df d5 ff ff fe 	mov    BYTE PTR [rbp-0x2a21],0xfe
    8a89:	c6 85 e0 d5 ff ff 05 	mov    BYTE PTR [rbp-0x2a20],0x5
    8a90:	c6 85 e1 d5 ff ff e9 	mov    BYTE PTR [rbp-0x2a1f],0xe9
    8a97:	c6 85 e2 d5 ff ff 25 	mov    BYTE PTR [rbp-0x2a1e],0x25
    8a9e:	c6 85 e3 d5 ff ff 82 	mov    BYTE PTR [rbp-0x2a1d],0x82
    8aa5:	c6 85 e4 d5 ff ff c8 	mov    BYTE PTR [rbp-0x2a1c],0xc8
    8aac:	c6 85 e5 d5 ff ff f2 	mov    BYTE PTR [rbp-0x2a1b],0xf2
    8ab3:	c6 85 e6 d5 ff ff 22 	mov    BYTE PTR [rbp-0x2a1a],0x22
    8aba:	c6 85 e7 d5 ff ff c2 	mov    BYTE PTR [rbp-0x2a19],0xc2
    8ac1:	c6 85 e8 d5 ff ff d5 	mov    BYTE PTR [rbp-0x2a18],0xd5
    8ac8:	c6 85 e9 d5 ff ff ec 	mov    BYTE PTR [rbp-0x2a17],0xec
    8acf:	c6 85 ea d5 ff ff 30 	mov    BYTE PTR [rbp-0x2a16],0x30
    8ad6:	c6 85 eb d5 ff ff e7 	mov    BYTE PTR [rbp-0x2a15],0xe7
    8add:	c6 85 ec d5 ff ff 09 	mov    BYTE PTR [rbp-0x2a14],0x9
    8ae4:	c6 85 ed d5 ff ff b2 	mov    BYTE PTR [rbp-0x2a13],0xb2
    8aeb:	c6 85 ee d5 ff ff d5 	mov    BYTE PTR [rbp-0x2a12],0xd5
    8af2:	48 8d 95 e0 d3 ff ff 	lea    rdx,[rbp-0x2c20]
    8af9:	b8 00 00 00 00       	mov    eax,0x0
    8afe:	b9 21 00 00 00       	mov    ecx,0x21
    8b03:	48 89 d7             	mov    rdi,rdx
    8b06:	f3 48 ab             	rep stos QWORD PTR es:[rdi],rax
    8b09:	48 89 fa             	mov    rdx,rdi
    8b0c:	89 02                	mov    DWORD PTR [rdx],eax
    8b0e:	48 83 c2 04          	add    rdx,0x4
    8b12:	66 89 02             	mov    WORD PTR [rdx],ax
    8b15:	48 83 c2 02          	add    rdx,0x2
    8b19:	c6 85 e1 d3 ff ff 58 	mov    BYTE PTR [rbp-0x2c1f],0x58
    8b20:	c6 85 e2 d3 ff ff 93 	mov    BYTE PTR [rbp-0x2c1e],0x93
    8b27:	c6 85 e3 d3 ff ff ee 	mov    BYTE PTR [rbp-0x2c1d],0xee
    8b2e:	c6 85 e4 d3 ff ff ff 	mov    BYTE PTR [rbp-0x2c1c],0xff
    8b35:	48 8d 95 d0 d2 ff ff 	lea    rdx,[rbp-0x2d30]
    8b3c:	b8 00 00 00 00       	mov    eax,0x0
    8b41:	b9 21 00 00 00       	mov    ecx,0x21
    8b46:	48 89 d7             	mov    rdi,rdx
    8b49:	f3 48 ab             	rep stos QWORD PTR es:[rdi],rax
    8b4c:	48 89 fa             	mov    rdx,rdi
    8b4f:	89 02                	mov    DWORD PTR [rdx],eax
    8b51:	48 83 c2 04          	add    rdx,0x4
    8b55:	66 89 02             	mov    WORD PTR [rdx],ax
    8b58:	48 83 c2 02          	add    rdx,0x2
    8b5c:	c6 85 d0 d2 ff ff e4 	mov    BYTE PTR [rbp-0x2d30],0xe4
    8b63:	c6 85 d1 d2 ff ff c3 	mov    BYTE PTR [rbp-0x2d2f],0xc3
    8b6a:	c6 85 d2 d2 ff ff 9d 	mov    BYTE PTR [rbp-0x2d2e],0x9d
    8b71:	c6 85 d3 d2 ff ff fd 	mov    BYTE PTR [rbp-0x2d2d],0xfd
    8b78:	c6 85 d4 d2 ff ff e4 	mov    BYTE PTR [rbp-0x2d2c],0xe4
    8b7f:	c6 85 d5 d2 ff ff 9c 	mov    BYTE PTR [rbp-0x2d2b],0x9c
    8b86:	c6 85 d6 d2 ff ff fc 	mov    BYTE PTR [rbp-0x2d2a],0xfc
    8b8d:	c6 85 d7 d2 ff ff ee 	mov    BYTE PTR [rbp-0x2d29],0xee
    8b94:	c6 85 d8 d2 ff ff 30 	mov    BYTE PTR [rbp-0x2d28],0x30
    8b9b:	c6 85 d9 d2 ff ff e7 	mov    BYTE PTR [rbp-0x2d27],0xe7
    8ba2:	c6 85 da d2 ff ff 15 	mov    BYTE PTR [rbp-0x2d26],0x15
    8ba9:	c6 85 db d2 ff ff b2 	mov    BYTE PTR [rbp-0x2d25],0xb2
    8bb0:	c6 85 dc d2 ff ff d5 	mov    BYTE PTR [rbp-0x2d24],0xd5
    8bb7:	c6 85 dd d2 ff ff e4 	mov    BYTE PTR [rbp-0x2d23],0xe4
    8bbe:	c6 85 de d2 ff ff c3 	mov    BYTE PTR [rbp-0x2d22],0xc3
    8bc5:	c6 85 df d2 ff ff 9f 	mov    BYTE PTR [rbp-0x2d21],0x9f
    8bcc:	c6 85 e0 d2 ff ff ff 	mov    BYTE PTR [rbp-0x2d20],0xff
    8bd3:	c6 85 e1 d2 ff ff e4 	mov    BYTE PTR [rbp-0x2d1f],0xe4
    8bda:	c6 85 e2 d2 ff ff 9e 	mov    BYTE PTR [rbp-0x2d1e],0x9e
    8be1:	c6 85 e3 d2 ff ff fe 	mov    BYTE PTR [rbp-0x2d1d],0xfe
    8be8:	c6 85 e4 d2 ff ff 12 	mov    BYTE PTR [rbp-0x2d1c],0x12
    8bef:	c6 85 e5 d2 ff ff 14 	mov    BYTE PTR [rbp-0x2d1b],0x14
    8bf6:	c6 85 e6 d2 ff ff b7 	mov    BYTE PTR [rbp-0x2d1a],0xb7
    8bfd:	c6 85 e7 d2 ff ff c3 	mov    BYTE PTR [rbp-0x2d19],0xc3
    8c04:	c6 85 e8 d2 ff ff e4 	mov    BYTE PTR [rbp-0x2d18],0xe4
    8c0b:	c6 85 e9 d2 ff ff 9d 	mov    BYTE PTR [rbp-0x2d17],0x9d
    8c12:	c6 85 ea d2 ff ff fd 	mov    BYTE PTR [rbp-0x2d16],0xfd
    8c19:	c6 85 eb d2 ff ff e4 	mov    BYTE PTR [rbp-0x2d15],0xe4
    8c20:	c6 85 ec d2 ff ff 9c 	mov    BYTE PTR [rbp-0x2d14],0x9c
    8c27:	c6 85 ed d2 ff ff fc 	mov    BYTE PTR [rbp-0x2d13],0xfc
    8c2e:	c6 85 ee d2 ff ff 80 	mov    BYTE PTR [rbp-0x2d12],0x80
    8c35:	c6 85 ef d2 ff ff 03 	mov    BYTE PTR [rbp-0x2d11],0x3
    8c3c:	c6 85 f0 d2 ff ff 12 	mov    BYTE PTR [rbp-0x2d10],0x12
    8c43:	c6 85 f1 d2 ff ff 14 	mov    BYTE PTR [rbp-0x2d0f],0x14
    8c4a:	c6 85 f2 d2 ff ff b7 	mov    BYTE PTR [rbp-0x2d0e],0xb7
    8c51:	c6 85 f3 d2 ff ff 30 	mov    BYTE PTR [rbp-0x2d0d],0x30
    8c58:	c6 85 f4 d2 ff ff d5 	mov    BYTE PTR [rbp-0x2d0c],0xd5
    8c5f:	c6 85 f5 d2 ff ff 07 	mov    BYTE PTR [rbp-0x2d0b],0x7
    8c66:	c6 85 f6 d2 ff ff c3 	mov    BYTE PTR [rbp-0x2d0a],0xc3
    8c6d:	c6 85 f7 d2 ff ff e4 	mov    BYTE PTR [rbp-0x2d09],0xe4
    8c74:	c6 85 f8 d2 ff ff 9f 	mov    BYTE PTR [rbp-0x2d08],0x9f
    8c7b:	c6 85 f9 d2 ff ff ff 	mov    BYTE PTR [rbp-0x2d07],0xff
    8c82:	c6 85 fa d2 ff ff e4 	mov    BYTE PTR [rbp-0x2d06],0xe4
    8c89:	c6 85 fb d2 ff ff 9e 	mov    BYTE PTR [rbp-0x2d05],0x9e
    8c90:	c6 85 fc d2 ff ff fe 	mov    BYTE PTR [rbp-0x2d04],0xfe
    8c97:	c6 85 fd d2 ff ff 22 	mov    BYTE PTR [rbp-0x2d03],0x22
    8c9e:	c6 85 fe d2 ff ff c5 	mov    BYTE PTR [rbp-0x2d02],0xc5
    8ca5:	c6 85 ff d2 ff ff f0 	mov    BYTE PTR [rbp-0x2d01],0xf0
    8cac:	c6 85 00 d3 ff ff f8 	mov    BYTE PTR [rbp-0x2d00],0xf8
    8cb3:	c6 85 01 d3 ff ff a3 	mov    BYTE PTR [rbp-0x2cff],0xa3
    8cba:	c6 85 02 d3 ff ff e0 	mov    BYTE PTR [rbp-0x2cfe],0xe0
    8cc1:	c6 85 03 d3 ff ff 28 	mov    BYTE PTR [rbp-0x2cfd],0x28
    8cc8:	c6 85 04 d3 ff ff f0 	mov    BYTE PTR [rbp-0x2cfc],0xf0
    8ccf:	c6 85 05 d3 ff ff c5 	mov    BYTE PTR [rbp-0x2cfb],0xc5
    8cd6:	c6 85 06 d3 ff ff f0 	mov    BYTE PTR [rbp-0x2cfa],0xf0
    8cdd:	c6 85 07 d3 ff ff f8 	mov    BYTE PTR [rbp-0x2cf9],0xf8
    8ce4:	c6 85 08 d3 ff ff e5 	mov    BYTE PTR [rbp-0x2cf8],0xe5
    8ceb:	c6 85 09 d3 ff ff 82 	mov    BYTE PTR [rbp-0x2cf7],0x82
    8cf2:	c6 85 0a d3 ff ff 15 	mov    BYTE PTR [rbp-0x2cf6],0x15
    8cf9:	c6 85 0b d3 ff ff 82 	mov    BYTE PTR [rbp-0x2cf5],0x82
    8d00:	c6 85 0c d3 ff ff 70 	mov    BYTE PTR [rbp-0x2cf4],0x70
    8d07:	c6 85 0d d3 ff ff 02 	mov    BYTE PTR [rbp-0x2cf3],0x2
    8d0e:	c6 85 0e d3 ff ff 15 	mov    BYTE PTR [rbp-0x2cf2],0x15
    8d15:	c6 85 0f d3 ff ff 83 	mov    BYTE PTR [rbp-0x2cf1],0x83
    8d1c:	c6 85 10 d3 ff ff e0 	mov    BYTE PTR [rbp-0x2cf0],0xe0
    8d23:	c6 85 11 d3 ff ff 38 	mov    BYTE PTR [rbp-0x2cef],0x38
    8d2a:	c6 85 12 d3 ff ff f0 	mov    BYTE PTR [rbp-0x2cee],0xf0
    8d31:	c6 85 13 d3 ff ff 22 	mov    BYTE PTR [rbp-0x2ced],0x22
    8d38:	c6 85 14 d3 ff ff c3 	mov    BYTE PTR [rbp-0x2cec],0xc3
    8d3f:	c6 85 15 d3 ff ff ef 	mov    BYTE PTR [rbp-0x2ceb],0xef
    8d46:	c6 85 16 d3 ff ff 9b 	mov    BYTE PTR [rbp-0x2cea],0x9b
    8d4d:	c6 85 17 d3 ff ff ff 	mov    BYTE PTR [rbp-0x2ce9],0xff
    8d54:	c6 85 18 d3 ff ff ee 	mov    BYTE PTR [rbp-0x2ce8],0xee
    8d5b:	c6 85 19 d3 ff ff 9a 	mov    BYTE PTR [rbp-0x2ce7],0x9a
    8d62:	c6 85 1a d3 ff ff fe 	mov    BYTE PTR [rbp-0x2ce6],0xfe
    8d69:	c6 85 1b d3 ff ff ed 	mov    BYTE PTR [rbp-0x2ce5],0xed
    8d70:	c6 85 1c d3 ff ff 99 	mov    BYTE PTR [rbp-0x2ce4],0x99
    8d77:	c6 85 1d d3 ff ff fd 	mov    BYTE PTR [rbp-0x2ce3],0xfd
    8d7e:	c6 85 1e d3 ff ff ec 	mov    BYTE PTR [rbp-0x2ce2],0xec
    8d85:	c6 85 1f d3 ff ff 98 	mov    BYTE PTR [rbp-0x2ce1],0x98
    8d8c:	c6 85 20 d3 ff ff fc 	mov    BYTE PTR [rbp-0x2ce0],0xfc
    8d93:	c6 85 21 d3 ff ff 22 	mov    BYTE PTR [rbp-0x2cdf],0x22
    8d9a:	c6 85 22 d3 ff ff eb 	mov    BYTE PTR [rbp-0x2cde],0xeb
    8da1:	c6 85 23 d3 ff ff 9f 	mov    BYTE PTR [rbp-0x2cdd],0x9f
    8da8:	c6 85 24 d3 ff ff f5 	mov    BYTE PTR [rbp-0x2cdc],0xf5
    8daf:	c6 85 25 d3 ff ff f0 	mov    BYTE PTR [rbp-0x2cdb],0xf0
    8db6:	c6 85 26 d3 ff ff ea 	mov    BYTE PTR [rbp-0x2cda],0xea
    8dbd:	c6 85 27 d3 ff ff 9e 	mov    BYTE PTR [rbp-0x2cd9],0x9e
    8dc4:	c6 85 28 d3 ff ff 42 	mov    BYTE PTR [rbp-0x2cd8],0x42
    8dcb:	c6 85 29 d3 ff ff f0 	mov    BYTE PTR [rbp-0x2cd7],0xf0
    8dd2:	c6 85 2a d3 ff ff e9 	mov    BYTE PTR [rbp-0x2cd6],0xe9
    8dd9:	c6 85 2b d3 ff ff 9d 	mov    BYTE PTR [rbp-0x2cd5],0x9d
    8de0:	c6 85 2c d3 ff ff 42 	mov    BYTE PTR [rbp-0x2cd4],0x42
    8de7:	c6 85 2d d3 ff ff f0 	mov    BYTE PTR [rbp-0x2cd3],0xf0
    8dee:	c6 85 2e d3 ff ff ec 	mov    BYTE PTR [rbp-0x2cd2],0xec
    8df5:	c6 85 2f d3 ff ff 64 	mov    BYTE PTR [rbp-0x2cd1],0x64
    8dfc:	c6 85 30 d3 ff ff 80 	mov    BYTE PTR [rbp-0x2cd0],0x80
    8e03:	c6 85 31 d3 ff ff c8 	mov    BYTE PTR [rbp-0x2ccf],0xc8
    8e0a:	c6 85 32 d3 ff ff 64 	mov    BYTE PTR [rbp-0x2cce],0x64
    8e11:	c6 85 33 d3 ff ff 80 	mov    BYTE PTR [rbp-0x2ccd],0x80
    8e18:	c6 85 34 d3 ff ff 98 	mov    BYTE PTR [rbp-0x2ccc],0x98
    8e1f:	c6 85 35 d3 ff ff 45 	mov    BYTE PTR [rbp-0x2ccb],0x45
    8e26:	c6 85 36 d3 ff ff f0 	mov    BYTE PTR [rbp-0x2cca],0xf0
    8e2d:	c6 85 37 d3 ff ff 22 	mov    BYTE PTR [rbp-0x2cc9],0x22
    8e34:	c6 85 38 d3 ff ff eb 	mov    BYTE PTR [rbp-0x2cc8],0xeb
    8e3b:	c6 85 39 d3 ff ff 9f 	mov    BYTE PTR [rbp-0x2cc7],0x9f
    8e42:	c6 85 3a d3 ff ff f5 	mov    BYTE PTR [rbp-0x2cc6],0xf5
    8e49:	c6 85 3b d3 ff ff f0 	mov    BYTE PTR [rbp-0x2cc5],0xf0
    8e50:	c6 85 3c d3 ff ff ea 	mov    BYTE PTR [rbp-0x2cc4],0xea
    8e57:	c6 85 3d d3 ff ff 9e 	mov    BYTE PTR [rbp-0x2cc3],0x9e
    8e5e:	c6 85 3e d3 ff ff 42 	mov    BYTE PTR [rbp-0x2cc2],0x42
    8e65:	c6 85 3f d3 ff ff f0 	mov    BYTE PTR [rbp-0x2cc1],0xf0
    8e6c:	c6 85 40 d3 ff ff e9 	mov    BYTE PTR [rbp-0x2cc0],0xe9
    8e73:	c6 85 41 d3 ff ff 9d 	mov    BYTE PTR [rbp-0x2cbf],0x9d
    8e7a:	c6 85 42 d3 ff ff 42 	mov    BYTE PTR [rbp-0x2cbe],0x42
    8e81:	c6 85 43 d3 ff ff f0 	mov    BYTE PTR [rbp-0x2cbd],0xf0
    8e88:	c6 85 44 d3 ff ff e8 	mov    BYTE PTR [rbp-0x2cbc],0xe8
    8e8f:	c6 85 45 d3 ff ff 9c 	mov    BYTE PTR [rbp-0x2cbb],0x9c
    8e96:	c6 85 46 d3 ff ff 45 	mov    BYTE PTR [rbp-0x2cba],0x45
    8e9d:	c6 85 47 d3 ff ff f0 	mov    BYTE PTR [rbp-0x2cb9],0xf0
    8ea4:	c6 85 48 d3 ff ff 22 	mov    BYTE PTR [rbp-0x2cb8],0x22
    8eab:	c6 85 49 d3 ff ff e0 	mov    BYTE PTR [rbp-0x2cb7],0xe0
    8eb2:	c6 85 4a d3 ff ff fc 	mov    BYTE PTR [rbp-0x2cb6],0xfc
    8eb9:	c6 85 4b d3 ff ff a3 	mov    BYTE PTR [rbp-0x2cb5],0xa3
    8ec0:	c6 85 4c d3 ff ff e0 	mov    BYTE PTR [rbp-0x2cb4],0xe0
    8ec7:	c6 85 4d d3 ff ff fd 	mov    BYTE PTR [rbp-0x2cb3],0xfd
    8ece:	c6 85 4e d3 ff ff a3 	mov    BYTE PTR [rbp-0x2cb2],0xa3
    8ed5:	c6 85 4f d3 ff ff e0 	mov    BYTE PTR [rbp-0x2cb1],0xe0
    8edc:	c6 85 50 d3 ff ff fe 	mov    BYTE PTR [rbp-0x2cb0],0xfe
    8ee3:	c6 85 51 d3 ff ff a3 	mov    BYTE PTR [rbp-0x2caf],0xa3
    8eea:	c6 85 52 d3 ff ff e0 	mov    BYTE PTR [rbp-0x2cae],0xe0
    8ef1:	c6 85 53 d3 ff ff ff 	mov    BYTE PTR [rbp-0x2cad],0xff
    8ef8:	c6 85 54 d3 ff ff 22 	mov    BYTE PTR [rbp-0x2cac],0x22
    8eff:	c6 85 55 d3 ff ff e0 	mov    BYTE PTR [rbp-0x2cab],0xe0
    8f06:	c6 85 56 d3 ff ff f8 	mov    BYTE PTR [rbp-0x2caa],0xf8
    8f0d:	c6 85 57 d3 ff ff a3 	mov    BYTE PTR [rbp-0x2ca9],0xa3
    8f14:	c6 85 58 d3 ff ff e0 	mov    BYTE PTR [rbp-0x2ca8],0xe0
    8f1b:	c6 85 59 d3 ff ff f9 	mov    BYTE PTR [rbp-0x2ca7],0xf9
    8f22:	c6 85 5a d3 ff ff a3 	mov    BYTE PTR [rbp-0x2ca6],0xa3
    8f29:	c6 85 5b d3 ff ff e0 	mov    BYTE PTR [rbp-0x2ca5],0xe0
    8f30:	c6 85 5c d3 ff ff fa 	mov    BYTE PTR [rbp-0x2ca4],0xfa
    8f37:	c6 85 5d d3 ff ff a3 	mov    BYTE PTR [rbp-0x2ca3],0xa3
    8f3e:	c6 85 5e d3 ff ff e0 	mov    BYTE PTR [rbp-0x2ca2],0xe0
    8f45:	c6 85 5f d3 ff ff fb 	mov    BYTE PTR [rbp-0x2ca1],0xfb
    8f4c:	c6 85 60 d3 ff ff 22 	mov    BYTE PTR [rbp-0x2ca0],0x22
    8f53:	c6 85 61 d3 ff ff e0 	mov    BYTE PTR [rbp-0x2c9f],0xe0
    8f5a:	c6 85 62 d3 ff ff fb 	mov    BYTE PTR [rbp-0x2c9e],0xfb
    8f61:	c6 85 63 d3 ff ff a3 	mov    BYTE PTR [rbp-0x2c9d],0xa3
    8f68:	c6 85 64 d3 ff ff e0 	mov    BYTE PTR [rbp-0x2c9c],0xe0
    8f6f:	c6 85 65 d3 ff ff fa 	mov    BYTE PTR [rbp-0x2c9b],0xfa
    8f76:	c6 85 66 d3 ff ff a3 	mov    BYTE PTR [rbp-0x2c9a],0xa3
    8f7d:	c6 85 67 d3 ff ff e0 	mov    BYTE PTR [rbp-0x2c99],0xe0
    8f84:	c6 85 68 d3 ff ff f9 	mov    BYTE PTR [rbp-0x2c98],0xf9
    8f8b:	c6 85 69 d3 ff ff 22 	mov    BYTE PTR [rbp-0x2c97],0x22
    8f92:	c6 85 6a d3 ff ff eb 	mov    BYTE PTR [rbp-0x2c96],0xeb
    8f99:	c6 85 6b d3 ff ff f0 	mov    BYTE PTR [rbp-0x2c95],0xf0
    8fa0:	c6 85 6c d3 ff ff a3 	mov    BYTE PTR [rbp-0x2c94],0xa3
    8fa7:	c6 85 6d d3 ff ff ea 	mov    BYTE PTR [rbp-0x2c93],0xea
    8fae:	c6 85 6e d3 ff ff f0 	mov    BYTE PTR [rbp-0x2c92],0xf0
    8fb5:	c6 85 6f d3 ff ff a3 	mov    BYTE PTR [rbp-0x2c91],0xa3
    8fbc:	c6 85 70 d3 ff ff e9 	mov    BYTE PTR [rbp-0x2c90],0xe9
    8fc3:	c6 85 71 d3 ff ff f0 	mov    BYTE PTR [rbp-0x2c8f],0xf0
    8fca:	c6 85 72 d3 ff ff 22 	mov    BYTE PTR [rbp-0x2c8e],0x22
    8fd1:	c6 85 73 d3 ff ff d0 	mov    BYTE PTR [rbp-0x2c8d],0xd0
    8fd8:	c6 85 74 d3 ff ff 83 	mov    BYTE PTR [rbp-0x2c8c],0x83
    8fdf:	c6 85 75 d3 ff ff d0 	mov    BYTE PTR [rbp-0x2c8b],0xd0
    8fe6:	c6 85 76 d3 ff ff 82 	mov    BYTE PTR [rbp-0x2c8a],0x82
    8fed:	c6 85 77 d3 ff ff f8 	mov    BYTE PTR [rbp-0x2c89],0xf8
    8ff4:	c6 85 78 d3 ff ff e4 	mov    BYTE PTR [rbp-0x2c88],0xe4
    8ffb:	c6 85 79 d3 ff ff 93 	mov    BYTE PTR [rbp-0x2c87],0x93
    9002:	c6 85 7a d3 ff ff 70 	mov    BYTE PTR [rbp-0x2c86],0x70
    9009:	c6 85 7b d3 ff ff 12 	mov    BYTE PTR [rbp-0x2c85],0x12
    9010:	c6 85 7c d3 ff ff 74 	mov    BYTE PTR [rbp-0x2c84],0x74
    9017:	c6 85 7d d3 ff ff 01 	mov    BYTE PTR [rbp-0x2c83],0x1
    901e:	c6 85 7e d3 ff ff 93 	mov    BYTE PTR [rbp-0x2c82],0x93
    9025:	c6 85 7f d3 ff ff 70 	mov    BYTE PTR [rbp-0x2c81],0x70
    902c:	c6 85 80 d3 ff ff 0d 	mov    BYTE PTR [rbp-0x2c80],0xd
    9033:	c6 85 81 d3 ff ff a3 	mov    BYTE PTR [rbp-0x2c7f],0xa3
    903a:	c6 85 82 d3 ff ff a3 	mov    BYTE PTR [rbp-0x2c7e],0xa3
    9041:	c6 85 83 d3 ff ff 93 	mov    BYTE PTR [rbp-0x2c7d],0x93
    9048:	c6 85 84 d3 ff ff f8 	mov    BYTE PTR [rbp-0x2c7c],0xf8
    904f:	c6 85 85 d3 ff ff 74 	mov    BYTE PTR [rbp-0x2c7b],0x74
    9056:	c6 85 86 d3 ff ff 01 	mov    BYTE PTR [rbp-0x2c7a],0x1
    905d:	c6 85 87 d3 ff ff 93 	mov    BYTE PTR [rbp-0x2c79],0x93
    9064:	c6 85 88 d3 ff ff f5 	mov    BYTE PTR [rbp-0x2c78],0xf5
    906b:	c6 85 89 d3 ff ff 82 	mov    BYTE PTR [rbp-0x2c77],0x82
    9072:	c6 85 8a d3 ff ff 88 	mov    BYTE PTR [rbp-0x2c76],0x88
    9079:	c6 85 8b d3 ff ff 83 	mov    BYTE PTR [rbp-0x2c75],0x83
    9080:	c6 85 8c d3 ff ff e4 	mov    BYTE PTR [rbp-0x2c74],0xe4
    9087:	c6 85 8d d3 ff ff 73 	mov    BYTE PTR [rbp-0x2c73],0x73
    908e:	c6 85 8e d3 ff ff 74 	mov    BYTE PTR [rbp-0x2c72],0x74
    9095:	c6 85 8f d3 ff ff 02 	mov    BYTE PTR [rbp-0x2c71],0x2
    909c:	c6 85 90 d3 ff ff 93 	mov    BYTE PTR [rbp-0x2c70],0x93
    90a3:	c6 85 91 d3 ff ff 68 	mov    BYTE PTR [rbp-0x2c6f],0x68
    90aa:	c6 85 92 d3 ff ff 60 	mov    BYTE PTR [rbp-0x2c6e],0x60
    90b1:	c6 85 93 d3 ff ff ef 	mov    BYTE PTR [rbp-0x2c6d],0xef
    90b8:	c6 85 94 d3 ff ff a3 	mov    BYTE PTR [rbp-0x2c6c],0xa3
    90bf:	c6 85 95 d3 ff ff a3 	mov    BYTE PTR [rbp-0x2c6b],0xa3
    90c6:	c6 85 96 d3 ff ff a3 	mov    BYTE PTR [rbp-0x2c6a],0xa3
    90cd:	c6 85 97 d3 ff ff 80 	mov    BYTE PTR [rbp-0x2c69],0x80
    90d4:	c6 85 98 d3 ff ff df 	mov    BYTE PTR [rbp-0x2c68],0xdf
    90db:	c6 85 99 d3 ff ff bc 	mov    BYTE PTR [rbp-0x2c67],0xbc
    90e2:	c6 85 9b d3 ff ff 0b 	mov    BYTE PTR [rbp-0x2c65],0xb
    90e9:	c6 85 9c d3 ff ff be 	mov    BYTE PTR [rbp-0x2c64],0xbe
    90f0:	c6 85 9e d3 ff ff 29 	mov    BYTE PTR [rbp-0x2c62],0x29
    90f7:	c6 85 9f d3 ff ff ef 	mov    BYTE PTR [rbp-0x2c61],0xef
    90fe:	c6 85 a0 d3 ff ff 8d 	mov    BYTE PTR [rbp-0x2c60],0x8d
    9105:	c6 85 a1 d3 ff ff f0 	mov    BYTE PTR [rbp-0x2c5f],0xf0
    910c:	c6 85 a2 d3 ff ff 84 	mov    BYTE PTR [rbp-0x2c5e],0x84
    9113:	c6 85 a3 d3 ff ff ff 	mov    BYTE PTR [rbp-0x2c5d],0xff
    911a:	c6 85 a4 d3 ff ff ad 	mov    BYTE PTR [rbp-0x2c5c],0xad
    9121:	c6 85 a5 d3 ff ff f0 	mov    BYTE PTR [rbp-0x2c5b],0xf0
    9128:	c6 85 a6 d3 ff ff 22 	mov    BYTE PTR [rbp-0x2c5a],0x22
    912f:	c6 85 a7 d3 ff ff e4 	mov    BYTE PTR [rbp-0x2c59],0xe4
    9136:	c6 85 a8 d3 ff ff cc 	mov    BYTE PTR [rbp-0x2c58],0xcc
    913d:	c6 85 a9 d3 ff ff f8 	mov    BYTE PTR [rbp-0x2c57],0xf8
    9144:	c6 85 aa d3 ff ff 75 	mov    BYTE PTR [rbp-0x2c56],0x75
    914b:	c6 85 ab d3 ff ff f0 	mov    BYTE PTR [rbp-0x2c55],0xf0
    9152:	c6 85 ac d3 ff ff 08 	mov    BYTE PTR [rbp-0x2c54],0x8
    9159:	c6 85 ad d3 ff ff ef 	mov    BYTE PTR [rbp-0x2c53],0xef
    9160:	c6 85 ae d3 ff ff 2f 	mov    BYTE PTR [rbp-0x2c52],0x2f
    9167:	c6 85 af d3 ff ff ff 	mov    BYTE PTR [rbp-0x2c51],0xff
    916e:	c6 85 b0 d3 ff ff ee 	mov    BYTE PTR [rbp-0x2c50],0xee
    9175:	c6 85 b1 d3 ff ff 33 	mov    BYTE PTR [rbp-0x2c4f],0x33
    917c:	c6 85 b2 d3 ff ff fe 	mov    BYTE PTR [rbp-0x2c4e],0xfe
    9183:	c6 85 b3 d3 ff ff ec 	mov    BYTE PTR [rbp-0x2c4d],0xec
    918a:	c6 85 b4 d3 ff ff 33 	mov    BYTE PTR [rbp-0x2c4c],0x33
    9191:	c6 85 b5 d3 ff ff fc 	mov    BYTE PTR [rbp-0x2c4b],0xfc
    9198:	c6 85 b6 d3 ff ff ee 	mov    BYTE PTR [rbp-0x2c4a],0xee
    919f:	c6 85 b7 d3 ff ff 9d 	mov    BYTE PTR [rbp-0x2c49],0x9d
    91a6:	c6 85 b8 d3 ff ff ec 	mov    BYTE PTR [rbp-0x2c48],0xec
    91ad:	c6 85 b9 d3 ff ff 98 	mov    BYTE PTR [rbp-0x2c47],0x98
    91b4:	c6 85 ba d3 ff ff 40 	mov    BYTE PTR [rbp-0x2c46],0x40
    91bb:	c6 85 bb d3 ff ff 05 	mov    BYTE PTR [rbp-0x2c45],0x5
    91c2:	c6 85 bc d3 ff ff fc 	mov    BYTE PTR [rbp-0x2c44],0xfc
    91c9:	c6 85 bd d3 ff ff ee 	mov    BYTE PTR [rbp-0x2c43],0xee
    91d0:	c6 85 be d3 ff ff 9d 	mov    BYTE PTR [rbp-0x2c42],0x9d
    91d7:	c6 85 bf d3 ff ff fe 	mov    BYTE PTR [rbp-0x2c41],0xfe
    91de:	c6 85 c0 d3 ff ff 0f 	mov    BYTE PTR [rbp-0x2c40],0xf
    91e5:	c6 85 c1 d3 ff ff d5 	mov    BYTE PTR [rbp-0x2c3f],0xd5
    91ec:	c6 85 c2 d3 ff ff f0 	mov    BYTE PTR [rbp-0x2c3e],0xf0
    91f3:	c6 85 c3 d3 ff ff e9 	mov    BYTE PTR [rbp-0x2c3d],0xe9
    91fa:	c6 85 c4 d3 ff ff e4 	mov    BYTE PTR [rbp-0x2c3c],0xe4
    9201:	c6 85 c5 d3 ff ff ce 	mov    BYTE PTR [rbp-0x2c3b],0xce
    9208:	c6 85 c6 d3 ff ff fd 	mov    BYTE PTR [rbp-0x2c3a],0xfd
    920f:	c6 85 c7 d3 ff ff 22 	mov    BYTE PTR [rbp-0x2c39],0x22
    9216:	c6 85 c8 d3 ff ff ed 	mov    BYTE PTR [rbp-0x2c38],0xed
    921d:	c6 85 c9 d3 ff ff f8 	mov    BYTE PTR [rbp-0x2c37],0xf8
    9224:	c6 85 ca d3 ff ff f5 	mov    BYTE PTR [rbp-0x2c36],0xf5
    922b:	c6 85 cb d3 ff ff f0 	mov    BYTE PTR [rbp-0x2c35],0xf0
    9232:	c6 85 cc d3 ff ff ee 	mov    BYTE PTR [rbp-0x2c34],0xee
    9239:	c6 85 cd d3 ff ff 84 	mov    BYTE PTR [rbp-0x2c33],0x84
    9240:	c6 85 ce d3 ff ff 20 	mov    BYTE PTR [rbp-0x2c32],0x20
    9247:	48 8d 95 c0 d1 ff ff 	lea    rdx,[rbp-0x2e40]
    924e:	b8 00 00 00 00       	mov    eax,0x0
    9253:	b9 21 00 00 00       	mov    ecx,0x21
    9258:	48 89 d7             	mov    rdi,rdx
    925b:	f3 48 ab             	rep stos QWORD PTR es:[rdi],rax
    925e:	48 89 fa             	mov    rdx,rdi
    9261:	89 02                	mov    DWORD PTR [rdx],eax
    9263:	48 83 c2 04          	add    rdx,0x4
    9267:	66 89 02             	mov    WORD PTR [rdx],ax
    926a:	48 83 c2 02          	add    rdx,0x2
    926e:	c6 85 c1 d1 ff ff 58 	mov    BYTE PTR [rbp-0x2e3f],0x58
    9275:	c6 85 c2 d1 ff ff 94 	mov    BYTE PTR [rbp-0x2e3e],0x94
    927c:	c6 85 c3 d1 ff ff ed 	mov    BYTE PTR [rbp-0x2e3d],0xed
    9283:	c6 85 c4 d1 ff ff ff 	mov    BYTE PTR [rbp-0x2e3c],0xff
    928a:	48 8d 95 b0 d0 ff ff 	lea    rdx,[rbp-0x2f50]
    9291:	b8 00 00 00 00       	mov    eax,0x0
    9296:	b9 21 00 00 00       	mov    ecx,0x21
    929b:	48 89 d7             	mov    rdi,rdx
    929e:	f3 48 ab             	rep stos QWORD PTR es:[rdi],rax
    92a1:	48 89 fa             	mov    rdx,rdi
    92a4:	89 02                	mov    DWORD PTR [rdx],eax
    92a6:	48 83 c2 04          	add    rdx,0x4
    92aa:	66 89 02             	mov    WORD PTR [rdx],ax
    92ad:	48 83 c2 02          	add    rdx,0x2
    92b1:	c6 85 b0 d0 ff ff d2 	mov    BYTE PTR [rbp-0x2f50],0xd2
    92b8:	c6 85 b1 d0 ff ff 1c 	mov    BYTE PTR [rbp-0x2f4f],0x1c
    92bf:	c6 85 b2 d0 ff ff fe 	mov    BYTE PTR [rbp-0x2f4e],0xfe
    92c6:	c6 85 b3 d0 ff ff ad 	mov    BYTE PTR [rbp-0x2f4d],0xad
    92cd:	c6 85 b4 d0 ff ff f0 	mov    BYTE PTR [rbp-0x2f4c],0xf0
    92d4:	c6 85 b5 d0 ff ff 75 	mov    BYTE PTR [rbp-0x2f4b],0x75
    92db:	c6 85 b6 d0 ff ff f0 	mov    BYTE PTR [rbp-0x2f4a],0xf0
    92e2:	c6 85 b7 d0 ff ff 08 	mov    BYTE PTR [rbp-0x2f49],0x8
    92e9:	c6 85 b8 d0 ff ff ef 	mov    BYTE PTR [rbp-0x2f48],0xef
    92f0:	c6 85 b9 d0 ff ff 2f 	mov    BYTE PTR [rbp-0x2f47],0x2f
    92f7:	c6 85 ba d0 ff ff ff 	mov    BYTE PTR [rbp-0x2f46],0xff
    92fe:	c6 85 bb d0 ff ff ed 	mov    BYTE PTR [rbp-0x2f45],0xed
    9305:	c6 85 bc d0 ff ff 33 	mov    BYTE PTR [rbp-0x2f44],0x33
    930c:	c6 85 bd d0 ff ff fd 	mov    BYTE PTR [rbp-0x2f43],0xfd
    9313:	c6 85 be d0 ff ff 40 	mov    BYTE PTR [rbp-0x2f42],0x40
    931a:	c6 85 bf d0 ff ff 07 	mov    BYTE PTR [rbp-0x2f41],0x7
    9321:	c6 85 c0 d0 ff ff 98 	mov    BYTE PTR [rbp-0x2f40],0x98
    9328:	c6 85 c1 d0 ff ff 50 	mov    BYTE PTR [rbp-0x2f3f],0x50
    932f:	c6 85 c2 d0 ff ff 06 	mov    BYTE PTR [rbp-0x2f3e],0x6
    9336:	c6 85 c3 d0 ff ff d5 	mov    BYTE PTR [rbp-0x2f3d],0xd5
    933d:	c6 85 c4 d0 ff ff f0 	mov    BYTE PTR [rbp-0x2f3c],0xf0
    9344:	c6 85 c5 d0 ff ff f2 	mov    BYTE PTR [rbp-0x2f3b],0xf2
    934b:	c6 85 c6 d0 ff ff 22 	mov    BYTE PTR [rbp-0x2f3a],0x22
    9352:	c6 85 c7 d0 ff ff c3 	mov    BYTE PTR [rbp-0x2f39],0xc3
    9359:	c6 85 c8 d0 ff ff 98 	mov    BYTE PTR [rbp-0x2f38],0x98
    9360:	c6 85 c9 d0 ff ff fd 	mov    BYTE PTR [rbp-0x2f37],0xfd
    9367:	c6 85 ca d0 ff ff 0f 	mov    BYTE PTR [rbp-0x2f36],0xf
    936e:	c6 85 cb d0 ff ff d5 	mov    BYTE PTR [rbp-0x2f35],0xd5
    9375:	c6 85 cc d0 ff ff f0 	mov    BYTE PTR [rbp-0x2f34],0xf0
    937c:	c6 85 cd d0 ff ff ea 	mov    BYTE PTR [rbp-0x2f33],0xea
    9383:	c6 85 ce d0 ff ff 22 	mov    BYTE PTR [rbp-0x2f32],0x22
    938a:	c6 85 cf d0 ff ff 90 	mov    BYTE PTR [rbp-0x2f31],0x90
    9391:	c6 85 d0 d0 ff ff 06 	mov    BYTE PTR [rbp-0x2f30],0x6
    9398:	c6 85 d1 d0 ff ff c4 	mov    BYTE PTR [rbp-0x2f2f],0xc4
    939f:	c6 85 d2 d0 ff ff e0 	mov    BYTE PTR [rbp-0x2f2e],0xe0
    93a6:	c6 85 d3 d0 ff ff 24 	mov    BYTE PTR [rbp-0x2f2d],0x24
    93ad:	c6 85 d4 d0 ff ff f7 	mov    BYTE PTR [rbp-0x2f2c],0xf7
    93b4:	c6 85 d5 d0 ff ff fd 	mov    BYTE PTR [rbp-0x2f2b],0xfd
    93bb:	c6 85 d6 d0 ff ff 90 	mov    BYTE PTR [rbp-0x2f2a],0x90
    93c2:	c6 85 d7 d0 ff ff 06 	mov    BYTE PTR [rbp-0x2f29],0x6
    93c9:	c6 85 d8 d0 ff ff c3 	mov    BYTE PTR [rbp-0x2f28],0xc3
    93d0:	c6 85 d9 d0 ff ff e0 	mov    BYTE PTR [rbp-0x2f27],0xe0
    93d7:	c6 85 da d0 ff ff 34 	mov    BYTE PTR [rbp-0x2f26],0x34
    93de:	c6 85 db d0 ff ff ff 	mov    BYTE PTR [rbp-0x2f25],0xff
    93e5:	c6 85 dc d0 ff ff 8d 	mov    BYTE PTR [rbp-0x2f24],0x8d
    93ec:	c6 85 dd d0 ff ff 82 	mov    BYTE PTR [rbp-0x2f23],0x82
    93f3:	c6 85 de d0 ff ff f5 	mov    BYTE PTR [rbp-0x2f22],0xf5
    93fa:	c6 85 df d0 ff ff 83 	mov    BYTE PTR [rbp-0x2f21],0x83
    9401:	c6 85 e0 d0 ff ff 12 	mov    BYTE PTR [rbp-0x2f20],0x12
    9408:	c6 85 e1 d0 ff ff 13 	mov    BYTE PTR [rbp-0x2f1f],0x13
    940f:	c6 85 e2 d0 ff ff 85 	mov    BYTE PTR [rbp-0x2f1e],0x85
    9416:	c6 85 e3 d0 ff ff f5 	mov    BYTE PTR [rbp-0x2f1d],0xf5
    941d:	c6 85 e4 d0 ff ff f8 	mov    BYTE PTR [rbp-0x2f1c],0xf8
    9424:	c6 85 e5 d0 ff ff 90 	mov    BYTE PTR [rbp-0x2f1b],0x90
    942b:	c6 85 e6 d0 ff ff 06 	mov    BYTE PTR [rbp-0x2f1a],0x6
    9432:	c6 85 e7 d0 ff ff c4 	mov    BYTE PTR [rbp-0x2f19],0xc4
    9439:	c6 85 e8 d0 ff ff e0 	mov    BYTE PTR [rbp-0x2f18],0xe0
    9440:	c6 85 e9 d0 ff ff 24 	mov    BYTE PTR [rbp-0x2f17],0x24
    9447:	c6 85 ea d0 ff ff f6 	mov    BYTE PTR [rbp-0x2f16],0xf6
    944e:	c6 85 eb d0 ff ff fd 	mov    BYTE PTR [rbp-0x2f15],0xfd
    9455:	c6 85 ec d0 ff ff 90 	mov    BYTE PTR [rbp-0x2f14],0x90
    945c:	c6 85 ed d0 ff ff 06 	mov    BYTE PTR [rbp-0x2f13],0x6
    9463:	c6 85 ee d0 ff ff c3 	mov    BYTE PTR [rbp-0x2f12],0xc3
    946a:	c6 85 ef d0 ff ff e0 	mov    BYTE PTR [rbp-0x2f11],0xe0
    9471:	c6 85 f0 d0 ff ff 34 	mov    BYTE PTR [rbp-0x2f10],0x34
    9478:	c6 85 f1 d0 ff ff ff 	mov    BYTE PTR [rbp-0x2f0f],0xff
    947f:	c6 85 f2 d0 ff ff 8d 	mov    BYTE PTR [rbp-0x2f0e],0x8d
    9486:	c6 85 f3 d0 ff ff 82 	mov    BYTE PTR [rbp-0x2f0d],0x82
    948d:	c6 85 f4 d0 ff ff f5 	mov    BYTE PTR [rbp-0x2f0c],0xf5
    9494:	c6 85 f5 d0 ff ff 83 	mov    BYTE PTR [rbp-0x2f0b],0x83
    949b:	c6 85 f6 d0 ff ff 12 	mov    BYTE PTR [rbp-0x2f0a],0x12
    94a2:	c6 85 f7 d0 ff ff 13 	mov    BYTE PTR [rbp-0x2f09],0x13
    94a9:	c6 85 f8 d0 ff ff 85 	mov    BYTE PTR [rbp-0x2f08],0x85
    94b0:	c6 85 f9 d0 ff ff f5 	mov    BYTE PTR [rbp-0x2f07],0xf5
    94b7:	c6 85 fa d0 ff ff f9 	mov    BYTE PTR [rbp-0x2f06],0xf9
    94be:	c6 85 fb d0 ff ff 90 	mov    BYTE PTR [rbp-0x2f05],0x90
    94c5:	c6 85 fc d0 ff ff 06 	mov    BYTE PTR [rbp-0x2f04],0x6
    94cc:	c6 85 fd d0 ff ff c4 	mov    BYTE PTR [rbp-0x2f03],0xc4
    94d3:	c6 85 fe d0 ff ff e0 	mov    BYTE PTR [rbp-0x2f02],0xe0
    94da:	c6 85 ff d0 ff ff 24 	mov    BYTE PTR [rbp-0x2f01],0x24
    94e1:	c6 85 00 d1 ff ff f5 	mov    BYTE PTR [rbp-0x2f00],0xf5
    94e8:	c6 85 01 d1 ff ff fd 	mov    BYTE PTR [rbp-0x2eff],0xfd
    94ef:	c6 85 02 d1 ff ff 90 	mov    BYTE PTR [rbp-0x2efe],0x90
    94f6:	c6 85 03 d1 ff ff 06 	mov    BYTE PTR [rbp-0x2efd],0x6
    94fd:	c6 85 04 d1 ff ff c3 	mov    BYTE PTR [rbp-0x2efc],0xc3
    9504:	c6 85 05 d1 ff ff e0 	mov    BYTE PTR [rbp-0x2efb],0xe0
    950b:	c6 85 06 d1 ff ff 34 	mov    BYTE PTR [rbp-0x2efa],0x34
    9512:	c6 85 07 d1 ff ff ff 	mov    BYTE PTR [rbp-0x2ef9],0xff
    9519:	c6 85 08 d1 ff ff 8d 	mov    BYTE PTR [rbp-0x2ef8],0x8d
    9520:	c6 85 09 d1 ff ff 82 	mov    BYTE PTR [rbp-0x2ef7],0x82
    9527:	c6 85 0a d1 ff ff f5 	mov    BYTE PTR [rbp-0x2ef6],0xf5
    952e:	c6 85 0b d1 ff ff 83 	mov    BYTE PTR [rbp-0x2ef5],0x83
    9535:	c6 85 0c d1 ff ff 12 	mov    BYTE PTR [rbp-0x2ef4],0x12
    953c:	c6 85 0d d1 ff ff 13 	mov    BYTE PTR [rbp-0x2ef3],0x13
    9543:	c6 85 0e d1 ff ff 85 	mov    BYTE PTR [rbp-0x2ef2],0x85
    954a:	c6 85 0f d1 ff ff f5 	mov    BYTE PTR [rbp-0x2ef1],0xf5
    9551:	c6 85 10 d1 ff ff fa 	mov    BYTE PTR [rbp-0x2ef0],0xfa
    9558:	c6 85 11 d1 ff ff 90 	mov    BYTE PTR [rbp-0x2eef],0x90
    955f:	c6 85 12 d1 ff ff 06 	mov    BYTE PTR [rbp-0x2eee],0x6
    9566:	c6 85 13 d1 ff ff c4 	mov    BYTE PTR [rbp-0x2eed],0xc4
    956d:	c6 85 14 d1 ff ff e0 	mov    BYTE PTR [rbp-0x2eec],0xe0
    9574:	c6 85 15 d1 ff ff 24 	mov    BYTE PTR [rbp-0x2eeb],0x24
    957b:	c6 85 16 d1 ff ff f4 	mov    BYTE PTR [rbp-0x2eea],0xf4
    9582:	c6 85 17 d1 ff ff fd 	mov    BYTE PTR [rbp-0x2ee9],0xfd
    9589:	c6 85 18 d1 ff ff 90 	mov    BYTE PTR [rbp-0x2ee8],0x90
    9590:	c6 85 19 d1 ff ff 06 	mov    BYTE PTR [rbp-0x2ee7],0x6
    9597:	c6 85 1a d1 ff ff c3 	mov    BYTE PTR [rbp-0x2ee6],0xc3
    959e:	c6 85 1b d1 ff ff e0 	mov    BYTE PTR [rbp-0x2ee5],0xe0
    95a5:	c6 85 1c d1 ff ff 34 	mov    BYTE PTR [rbp-0x2ee4],0x34
    95ac:	c6 85 1d d1 ff ff ff 	mov    BYTE PTR [rbp-0x2ee3],0xff
    95b3:	c6 85 1e d1 ff ff 8d 	mov    BYTE PTR [rbp-0x2ee2],0x8d
    95ba:	c6 85 1f d1 ff ff 82 	mov    BYTE PTR [rbp-0x2ee1],0x82
    95c1:	c6 85 20 d1 ff ff f5 	mov    BYTE PTR [rbp-0x2ee0],0xf5
    95c8:	c6 85 21 d1 ff ff 83 	mov    BYTE PTR [rbp-0x2edf],0x83
    95cf:	c6 85 22 d1 ff ff 12 	mov    BYTE PTR [rbp-0x2ede],0x12
    95d6:	c6 85 23 d1 ff ff 13 	mov    BYTE PTR [rbp-0x2edd],0x13
    95dd:	c6 85 24 d1 ff ff 85 	mov    BYTE PTR [rbp-0x2edc],0x85
    95e4:	c6 85 25 d1 ff ff f5 	mov    BYTE PTR [rbp-0x2edb],0xf5
    95eb:	c6 85 26 d1 ff ff fb 	mov    BYTE PTR [rbp-0x2eda],0xfb
    95f2:	c6 85 27 d1 ff ff 90 	mov    BYTE PTR [rbp-0x2ed9],0x90
    95f9:	c6 85 28 d1 ff ff 06 	mov    BYTE PTR [rbp-0x2ed8],0x6
    9600:	c6 85 29 d1 ff ff c4 	mov    BYTE PTR [rbp-0x2ed7],0xc4
    9607:	c6 85 2a d1 ff ff e0 	mov    BYTE PTR [rbp-0x2ed6],0xe0
    960e:	c6 85 2b d1 ff ff 24 	mov    BYTE PTR [rbp-0x2ed5],0x24
    9615:	c6 85 2c d1 ff ff f3 	mov    BYTE PTR [rbp-0x2ed4],0xf3
    961c:	c6 85 2d d1 ff ff fd 	mov    BYTE PTR [rbp-0x2ed3],0xfd
    9623:	c6 85 2e d1 ff ff 90 	mov    BYTE PTR [rbp-0x2ed2],0x90
    962a:	c6 85 2f d1 ff ff 06 	mov    BYTE PTR [rbp-0x2ed1],0x6
    9631:	c6 85 30 d1 ff ff c3 	mov    BYTE PTR [rbp-0x2ed0],0xc3
    9638:	c6 85 31 d1 ff ff e0 	mov    BYTE PTR [rbp-0x2ecf],0xe0
    963f:	c6 85 32 d1 ff ff 34 	mov    BYTE PTR [rbp-0x2ece],0x34
    9646:	c6 85 33 d1 ff ff ff 	mov    BYTE PTR [rbp-0x2ecd],0xff
    964d:	c6 85 34 d1 ff ff 8d 	mov    BYTE PTR [rbp-0x2ecc],0x8d
    9654:	c6 85 35 d1 ff ff 82 	mov    BYTE PTR [rbp-0x2ecb],0x82
    965b:	c6 85 36 d1 ff ff f5 	mov    BYTE PTR [rbp-0x2eca],0xf5
    9662:	c6 85 37 d1 ff ff 83 	mov    BYTE PTR [rbp-0x2ec9],0x83
    9669:	c6 85 38 d1 ff ff 12 	mov    BYTE PTR [rbp-0x2ec8],0x12
    9670:	c6 85 39 d1 ff ff 13 	mov    BYTE PTR [rbp-0x2ec7],0x13
    9677:	c6 85 3a d1 ff ff 85 	mov    BYTE PTR [rbp-0x2ec6],0x85
    967e:	c6 85 3b d1 ff ff f5 	mov    BYTE PTR [rbp-0x2ec5],0xf5
    9685:	c6 85 3c d1 ff ff fc 	mov    BYTE PTR [rbp-0x2ec4],0xfc
    968c:	c6 85 3d d1 ff ff 90 	mov    BYTE PTR [rbp-0x2ec3],0x90
    9693:	c6 85 3e d1 ff ff 06 	mov    BYTE PTR [rbp-0x2ec2],0x6
    969a:	c6 85 3f d1 ff ff c4 	mov    BYTE PTR [rbp-0x2ec1],0xc4
    96a1:	c6 85 40 d1 ff ff e0 	mov    BYTE PTR [rbp-0x2ec0],0xe0
    96a8:	c6 85 41 d1 ff ff 24 	mov    BYTE PTR [rbp-0x2ebf],0x24
    96af:	c6 85 42 d1 ff ff f2 	mov    BYTE PTR [rbp-0x2ebe],0xf2
    96b6:	c6 85 43 d1 ff ff fd 	mov    BYTE PTR [rbp-0x2ebd],0xfd
    96bd:	c6 85 44 d1 ff ff 90 	mov    BYTE PTR [rbp-0x2ebc],0x90
    96c4:	c6 85 45 d1 ff ff 06 	mov    BYTE PTR [rbp-0x2ebb],0x6
    96cb:	c6 85 46 d1 ff ff c3 	mov    BYTE PTR [rbp-0x2eba],0xc3
    96d2:	c6 85 47 d1 ff ff e0 	mov    BYTE PTR [rbp-0x2eb9],0xe0
    96d9:	c6 85 48 d1 ff ff 34 	mov    BYTE PTR [rbp-0x2eb8],0x34
    96e0:	c6 85 49 d1 ff ff ff 	mov    BYTE PTR [rbp-0x2eb7],0xff
    96e7:	c6 85 4a d1 ff ff 8d 	mov    BYTE PTR [rbp-0x2eb6],0x8d
    96ee:	c6 85 4b d1 ff ff 82 	mov    BYTE PTR [rbp-0x2eb5],0x82
    96f5:	c6 85 4c d1 ff ff f5 	mov    BYTE PTR [rbp-0x2eb4],0xf5
    96fc:	c6 85 4d d1 ff ff 83 	mov    BYTE PTR [rbp-0x2eb3],0x83
    9703:	c6 85 4e d1 ff ff 12 	mov    BYTE PTR [rbp-0x2eb2],0x12
    970a:	c6 85 4f d1 ff ff 13 	mov    BYTE PTR [rbp-0x2eb1],0x13
    9711:	c6 85 50 d1 ff ff 85 	mov    BYTE PTR [rbp-0x2eb0],0x85
    9718:	c6 85 51 d1 ff ff f5 	mov    BYTE PTR [rbp-0x2eaf],0xf5
    971f:	c6 85 52 d1 ff ff fd 	mov    BYTE PTR [rbp-0x2eae],0xfd
    9726:	c6 85 53 d1 ff ff 90 	mov    BYTE PTR [rbp-0x2ead],0x90
    972d:	c6 85 54 d1 ff ff 06 	mov    BYTE PTR [rbp-0x2eac],0x6
    9734:	c6 85 55 d1 ff ff c4 	mov    BYTE PTR [rbp-0x2eab],0xc4
    973b:	c6 85 56 d1 ff ff e0 	mov    BYTE PTR [rbp-0x2eaa],0xe0
    9742:	c6 85 57 d1 ff ff 24 	mov    BYTE PTR [rbp-0x2ea9],0x24
    9749:	c6 85 58 d1 ff ff f1 	mov    BYTE PTR [rbp-0x2ea8],0xf1
    9750:	c6 85 59 d1 ff ff fd 	mov    BYTE PTR [rbp-0x2ea7],0xfd
    9757:	c6 85 5a d1 ff ff 90 	mov    BYTE PTR [rbp-0x2ea6],0x90
    975e:	c6 85 5b d1 ff ff 06 	mov    BYTE PTR [rbp-0x2ea5],0x6
    9765:	c6 85 5c d1 ff ff c3 	mov    BYTE PTR [rbp-0x2ea4],0xc3
    976c:	c6 85 5d d1 ff ff e0 	mov    BYTE PTR [rbp-0x2ea3],0xe0
    9773:	c6 85 5e d1 ff ff 34 	mov    BYTE PTR [rbp-0x2ea2],0x34
    977a:	c6 85 5f d1 ff ff ff 	mov    BYTE PTR [rbp-0x2ea1],0xff
    9781:	c6 85 60 d1 ff ff 8d 	mov    BYTE PTR [rbp-0x2ea0],0x8d
    9788:	c6 85 61 d1 ff ff 82 	mov    BYTE PTR [rbp-0x2e9f],0x82
    978f:	c6 85 62 d1 ff ff f5 	mov    BYTE PTR [rbp-0x2e9e],0xf5
    9796:	c6 85 63 d1 ff ff 83 	mov    BYTE PTR [rbp-0x2e9d],0x83
    979d:	c6 85 64 d1 ff ff 12 	mov    BYTE PTR [rbp-0x2e9c],0x12
    97a4:	c6 85 65 d1 ff ff 13 	mov    BYTE PTR [rbp-0x2e9b],0x13
    97ab:	c6 85 66 d1 ff ff 85 	mov    BYTE PTR [rbp-0x2e9a],0x85
    97b2:	c6 85 67 d1 ff ff f5 	mov    BYTE PTR [rbp-0x2e99],0xf5
    97b9:	c6 85 68 d1 ff ff fe 	mov    BYTE PTR [rbp-0x2e98],0xfe
    97c0:	c6 85 69 d1 ff ff 90 	mov    BYTE PTR [rbp-0x2e97],0x90
    97c7:	c6 85 6a d1 ff ff 06 	mov    BYTE PTR [rbp-0x2e96],0x6
    97ce:	c6 85 6b d1 ff ff c4 	mov    BYTE PTR [rbp-0x2e95],0xc4
    97d5:	c6 85 6c d1 ff ff e0 	mov    BYTE PTR [rbp-0x2e94],0xe0
    97dc:	c6 85 6d d1 ff ff 24 	mov    BYTE PTR [rbp-0x2e93],0x24
    97e3:	c6 85 6e d1 ff ff f0 	mov    BYTE PTR [rbp-0x2e92],0xf0
    97ea:	c6 85 6f d1 ff ff fd 	mov    BYTE PTR [rbp-0x2e91],0xfd
    97f1:	c6 85 70 d1 ff ff 90 	mov    BYTE PTR [rbp-0x2e90],0x90
    97f8:	c6 85 71 d1 ff ff 06 	mov    BYTE PTR [rbp-0x2e8f],0x6
    97ff:	c6 85 72 d1 ff ff c3 	mov    BYTE PTR [rbp-0x2e8e],0xc3
    9806:	c6 85 73 d1 ff ff e0 	mov    BYTE PTR [rbp-0x2e8d],0xe0
    980d:	c6 85 74 d1 ff ff 34 	mov    BYTE PTR [rbp-0x2e8c],0x34
    9814:	c6 85 75 d1 ff ff ff 	mov    BYTE PTR [rbp-0x2e8b],0xff
    981b:	c6 85 76 d1 ff ff 8d 	mov    BYTE PTR [rbp-0x2e8a],0x8d
    9822:	c6 85 77 d1 ff ff 82 	mov    BYTE PTR [rbp-0x2e89],0x82
    9829:	c6 85 78 d1 ff ff f5 	mov    BYTE PTR [rbp-0x2e88],0xf5
    9830:	c6 85 79 d1 ff ff 83 	mov    BYTE PTR [rbp-0x2e87],0x83
    9837:	c6 85 7a d1 ff ff 02 	mov    BYTE PTR [rbp-0x2e86],0x2
    983e:	c6 85 7b d1 ff ff 13 	mov    BYTE PTR [rbp-0x2e85],0x13
    9845:	c6 85 7c d1 ff ff 85 	mov    BYTE PTR [rbp-0x2e84],0x85
    984c:	c6 85 7d d1 ff ff 2f 	mov    BYTE PTR [rbp-0x2e83],0x2f
    9853:	c6 85 7e d1 ff ff f5 	mov    BYTE PTR [rbp-0x2e82],0xf5
    985a:	c6 85 7f d1 ff ff 82 	mov    BYTE PTR [rbp-0x2e81],0x82
    9861:	c6 85 80 d1 ff ff 74 	mov    BYTE PTR [rbp-0x2e80],0x74
    9868:	c6 85 81 d1 ff ff ff 	mov    BYTE PTR [rbp-0x2e7f],0xff
    986f:	c6 85 82 d1 ff ff 3e 	mov    BYTE PTR [rbp-0x2e7e],0x3e
    9876:	c6 85 83 d1 ff ff f5 	mov    BYTE PTR [rbp-0x2e7d],0xf5
    987d:	c6 85 84 d1 ff ff 83 	mov    BYTE PTR [rbp-0x2e7c],0x83
    9884:	c6 85 85 d1 ff ff 22 	mov    BYTE PTR [rbp-0x2e7b],0x22
    988b:	c6 85 86 d1 ff ff 12 	mov    BYTE PTR [rbp-0x2e7a],0x12
    9892:	c6 85 87 d1 ff ff 14 	mov    BYTE PTR [rbp-0x2e79],0x14
    9899:	c6 85 88 d1 ff ff 7f 	mov    BYTE PTR [rbp-0x2e78],0x7f
    98a0:	c6 85 89 d1 ff ff 90 	mov    BYTE PTR [rbp-0x2e77],0x90
    98a7:	c6 85 8a d1 ff ff 06 	mov    BYTE PTR [rbp-0x2e76],0x6
    98ae:	c6 85 8b d1 ff ff d0 	mov    BYTE PTR [rbp-0x2e75],0xd0
    98b5:	c6 85 8c d1 ff ff 12 	mov    BYTE PTR [rbp-0x2e74],0x12
    98bc:	c6 85 8d d1 ff ff 14 	mov    BYTE PTR [rbp-0x2e73],0x14
    98c3:	c6 85 8e d1 ff ff 88 	mov    BYTE PTR [rbp-0x2e72],0x88
    98ca:	c6 85 8f d1 ff ff 90 	mov    BYTE PTR [rbp-0x2e71],0x90
    98d1:	c6 85 90 d1 ff ff 06 	mov    BYTE PTR [rbp-0x2e70],0x6
    98d8:	c6 85 91 d1 ff ff c2 	mov    BYTE PTR [rbp-0x2e6f],0xc2
    98df:	c6 85 92 d1 ff ff e0 	mov    BYTE PTR [rbp-0x2e6e],0xe0
    98e6:	c6 85 93 d1 ff ff ff 	mov    BYTE PTR [rbp-0x2e6d],0xff
    98ed:	c6 85 94 d1 ff ff e4 	mov    BYTE PTR [rbp-0x2e6c],0xe4
    98f4:	c6 85 95 d1 ff ff 90 	mov    BYTE PTR [rbp-0x2e6b],0x90
    98fb:	c6 85 96 d1 ff ff 06 	mov    BYTE PTR [rbp-0x2e6a],0x6
    9902:	c6 85 97 d1 ff ff d3 	mov    BYTE PTR [rbp-0x2e69],0xd3
    9909:	c6 85 98 d1 ff ff f0 	mov    BYTE PTR [rbp-0x2e68],0xf0
    9910:	c6 85 99 d1 ff ff a3 	mov    BYTE PTR [rbp-0x2e67],0xa3
    9917:	c6 85 9a d1 ff ff ef 	mov    BYTE PTR [rbp-0x2e66],0xef
    991e:	c6 85 9b d1 ff ff f0 	mov    BYTE PTR [rbp-0x2e65],0xf0
    9925:	c6 85 9c d1 ff ff 22 	mov    BYTE PTR [rbp-0x2e64],0x22
    992c:	c6 85 9d d1 ff ff 3a 	mov    BYTE PTR [rbp-0x2e63],0x3a
    9933:	c6 85 9e d1 ff ff f5 	mov    BYTE PTR [rbp-0x2e62],0xf5
    993a:	c6 85 9f d1 ff ff 83 	mov    BYTE PTR [rbp-0x2e61],0x83
    9941:	c6 85 a0 d1 ff ff ef 	mov    BYTE PTR [rbp-0x2e60],0xef
    9948:	c6 85 a1 d1 ff ff f0 	mov    BYTE PTR [rbp-0x2e5f],0xf0
    994f:	c6 85 a2 d1 ff ff 90 	mov    BYTE PTR [rbp-0x2e5e],0x90
    9956:	c6 85 a3 d1 ff ff 06 	mov    BYTE PTR [rbp-0x2e5d],0x6
    995d:	c6 85 a4 d1 ff ff bc 	mov    BYTE PTR [rbp-0x2e5c],0xbc
    9964:	c6 85 a5 d1 ff ff e4 	mov    BYTE PTR [rbp-0x2e5b],0xe4
    996b:	c6 85 a6 d1 ff ff 75 	mov    BYTE PTR [rbp-0x2e5a],0x75
    9972:	c6 85 a7 d1 ff ff f0 	mov    BYTE PTR [rbp-0x2e59],0xf0
    9979:	c6 85 a8 d1 ff ff 01 	mov    BYTE PTR [rbp-0x2e58],0x1
    9980:	c6 85 a9 d1 ff ff 02 	mov    BYTE PTR [rbp-0x2e57],0x2
    9987:	c6 85 aa d1 ff ff 14 	mov    BYTE PTR [rbp-0x2e56],0x14
    998e:	c6 85 ab d1 ff ff 1c 	mov    BYTE PTR [rbp-0x2e55],0x1c
    9995:	c6 85 ac d1 ff ff 12 	mov    BYTE PTR [rbp-0x2e54],0x12
    999c:	c6 85 ad d1 ff ff 13 	mov    BYTE PTR [rbp-0x2e53],0x13
    99a3:	c6 85 ae d1 ff ff c4 	mov    BYTE PTR [rbp-0x2e52],0xc4
    99aa:	48 8d 95 a0 cf ff ff 	lea    rdx,[rbp-0x3060]
    99b1:	b8 00 00 00 00       	mov    eax,0x0
    99b6:	b9 21 00 00 00       	mov    ecx,0x21
    99bb:	48 89 d7             	mov    rdi,rdx
    99be:	f3 48 ab             	rep stos QWORD PTR es:[rdi],rax
    99c1:	48 89 fa             	mov    rdx,rdi
    99c4:	89 02                	mov    DWORD PTR [rdx],eax
    99c6:	48 83 c2 04          	add    rdx,0x4
    99ca:	66 89 02             	mov    WORD PTR [rdx],ax
    99cd:	48 83 c2 02          	add    rdx,0x2
    99d1:	c6 85 a1 cf ff ff 58 	mov    BYTE PTR [rbp-0x305f],0x58
    99d8:	c6 85 a2 cf ff ff 95 	mov    BYTE PTR [rbp-0x305e],0x95
    99df:	c6 85 a3 cf ff ff ec 	mov    BYTE PTR [rbp-0x305d],0xec
    99e6:	c6 85 a4 cf ff ff ff 	mov    BYTE PTR [rbp-0x305c],0xff
    99ed:	48 8d 95 90 ce ff ff 	lea    rdx,[rbp-0x3170]
    99f4:	b8 00 00 00 00       	mov    eax,0x0
    99f9:	b9 21 00 00 00       	mov    ecx,0x21
    99fe:	48 89 d7             	mov    rdi,rdx
    9a01:	f3 48 ab             	rep stos QWORD PTR es:[rdi],rax
    9a04:	48 89 fa             	mov    rdx,rdi
    9a07:	89 02                	mov    DWORD PTR [rdx],eax
    9a09:	48 83 c2 04          	add    rdx,0x4
    9a0d:	66 89 02             	mov    WORD PTR [rdx],ax
    9a10:	48 83 c2 02          	add    rdx,0x2
    9a14:	c6 85 90 ce ff ff 90 	mov    BYTE PTR [rbp-0x3170],0x90
    9a1b:	c6 85 91 ce ff ff 06 	mov    BYTE PTR [rbp-0x316f],0x6
    9a22:	c6 85 92 ce ff ff c3 	mov    BYTE PTR [rbp-0x316e],0xc3
    9a29:	c6 85 93 ce ff ff e0 	mov    BYTE PTR [rbp-0x316d],0xe0
    9a30:	c6 85 94 ce ff ff fe 	mov    BYTE PTR [rbp-0x316c],0xfe
    9a37:	c6 85 95 ce ff ff a3 	mov    BYTE PTR [rbp-0x316b],0xa3
    9a3e:	c6 85 96 ce ff ff e0 	mov    BYTE PTR [rbp-0x316a],0xe0
    9a45:	c6 85 97 ce ff ff ff 	mov    BYTE PTR [rbp-0x3169],0xff
    9a4c:	c6 85 98 ce ff ff 22 	mov    BYTE PTR [rbp-0x3168],0x22
    9a53:	c6 85 99 ce ff ff 7b 	mov    BYTE PTR [rbp-0x3167],0x7b
    9a5a:	c6 85 9a ce ff ff 01 	mov    BYTE PTR [rbp-0x3166],0x1
    9a61:	c6 85 9b ce ff ff 7a 	mov    BYTE PTR [rbp-0x3165],0x7a
    9a68:	c6 85 9c ce ff ff 04 	mov    BYTE PTR [rbp-0x3164],0x4
    9a6f:	c6 85 9d ce ff ff 79 	mov    BYTE PTR [rbp-0x3163],0x79
    9a76:	c6 85 9e ce ff ff 48 	mov    BYTE PTR [rbp-0x3162],0x48
    9a7d:	c6 85 9f ce ff ff 90 	mov    BYTE PTR [rbp-0x3161],0x90
    9a84:	c6 85 a0 ce ff ff 06 	mov    BYTE PTR [rbp-0x3160],0x6
    9a8b:	c6 85 a1 ce ff ff c2 	mov    BYTE PTR [rbp-0x315f],0xc2
    9a92:	c6 85 a2 ce ff ff 74 	mov    BYTE PTR [rbp-0x315e],0x74
    9a99:	c6 85 a3 ce ff ff ff 	mov    BYTE PTR [rbp-0x315d],0xff
    9aa0:	c6 85 a4 ce ff ff f0 	mov    BYTE PTR [rbp-0x315c],0xf0
    9aa7:	c6 85 a5 ce ff ff 7f 	mov    BYTE PTR [rbp-0x315b],0x7f
    9aae:	c6 85 a7 ce ff ff 7e 	mov    BYTE PTR [rbp-0x3159],0x7e
    9ab5:	c6 85 a8 ce ff ff 70 	mov    BYTE PTR [rbp-0x3158],0x70
    9abc:	c6 85 a9 ce ff ff 22 	mov    BYTE PTR [rbp-0x3157],0x22
    9ac3:	c6 85 aa ce ff ff ee 	mov    BYTE PTR [rbp-0x3156],0xee
    9aca:	c6 85 ab ce ff ff f0 	mov    BYTE PTR [rbp-0x3155],0xf0
    9ad1:	c6 85 ac ce ff ff a3 	mov    BYTE PTR [rbp-0x3154],0xa3
    9ad8:	c6 85 ad ce ff ff ef 	mov    BYTE PTR [rbp-0x3153],0xef
    9adf:	c6 85 ae ce ff ff f0 	mov    BYTE PTR [rbp-0x3152],0xf0
    9ae6:	c6 85 af ce ff ff a3 	mov    BYTE PTR [rbp-0x3151],0xa3
    9aed:	c6 85 b0 ce ff ff ec 	mov    BYTE PTR [rbp-0x3150],0xec
    9af4:	c6 85 b1 ce ff ff f0 	mov    BYTE PTR [rbp-0x314f],0xf0
    9afb:	c6 85 b2 ce ff ff a3 	mov    BYTE PTR [rbp-0x314e],0xa3
    9b02:	c6 85 b3 ce ff ff ed 	mov    BYTE PTR [rbp-0x314d],0xed
    9b09:	c6 85 b4 ce ff ff f0 	mov    BYTE PTR [rbp-0x314c],0xf0
    9b10:	c6 85 b5 ce ff ff 22 	mov    BYTE PTR [rbp-0x314b],0x22
    9b17:	c6 85 b6 ce ff ff 2d 	mov    BYTE PTR [rbp-0x314a],0x2d
    9b1e:	c6 85 b7 ce ff ff ff 	mov    BYTE PTR [rbp-0x3149],0xff
    9b25:	c6 85 b8 ce ff ff ee 	mov    BYTE PTR [rbp-0x3148],0xee
    9b2c:	c6 85 b9 ce ff ff 3c 	mov    BYTE PTR [rbp-0x3147],0x3c
    9b33:	c6 85 ba ce ff ff fe 	mov    BYTE PTR [rbp-0x3146],0xfe
    9b3a:	c6 85 bb ce ff ff 74 	mov    BYTE PTR [rbp-0x3145],0x74
    9b41:	c6 85 bc ce ff ff 16 	mov    BYTE PTR [rbp-0x3144],0x16
    9b48:	c6 85 bd ce ff ff 2f 	mov    BYTE PTR [rbp-0x3143],0x2f
    9b4f:	c6 85 be ce ff ff f5 	mov    BYTE PTR [rbp-0x3142],0xf5
    9b56:	c6 85 bf ce ff ff 82 	mov    BYTE PTR [rbp-0x3141],0x82
    9b5d:	c6 85 c0 ce ff ff 74 	mov    BYTE PTR [rbp-0x3140],0x74
    9b64:	c6 85 c1 ce ff ff 02 	mov    BYTE PTR [rbp-0x313f],0x2
    9b6b:	c6 85 c2 ce ff ff 3e 	mov    BYTE PTR [rbp-0x313e],0x3e
    9b72:	c6 85 c3 ce ff ff f5 	mov    BYTE PTR [rbp-0x313d],0xf5
    9b79:	c6 85 c4 ce ff ff 83 	mov    BYTE PTR [rbp-0x313c],0x83
    9b80:	c6 85 c5 ce ff ff 22 	mov    BYTE PTR [rbp-0x313b],0x22
    9b87:	c6 85 c6 ce ff ff 7b 	mov    BYTE PTR [rbp-0x313a],0x7b
    9b8e:	c6 85 c7 ce ff ff 01 	mov    BYTE PTR [rbp-0x3139],0x1
    9b95:	c6 85 c8 ce ff ff 7a 	mov    BYTE PTR [rbp-0x3138],0x7a
    9b9c:	c6 85 ca ce ff ff 79 	mov    BYTE PTR [rbp-0x3136],0x79
    9ba3:	c6 85 cb ce ff ff 12 	mov    BYTE PTR [rbp-0x3135],0x12
    9baa:	c6 85 cc ce ff ff 90 	mov    BYTE PTR [rbp-0x3134],0x90
    9bb1:	c6 85 cd ce ff ff 06 	mov    BYTE PTR [rbp-0x3133],0x6
    9bb8:	c6 85 ce ce ff ff c3 	mov    BYTE PTR [rbp-0x3132],0xc3
    9bbf:	c6 85 cf ce ff ff e4 	mov    BYTE PTR [rbp-0x3131],0xe4
    9bc6:	c6 85 d0 ce ff ff f0 	mov    BYTE PTR [rbp-0x3130],0xf0
    9bcd:	c6 85 d1 ce ff ff a3 	mov    BYTE PTR [rbp-0x312f],0xa3
    9bd4:	c6 85 d2 ce ff ff 74 	mov    BYTE PTR [rbp-0x312e],0x74
    9bdb:	c6 85 d3 ce ff ff 18 	mov    BYTE PTR [rbp-0x312d],0x18
    9be2:	c6 85 d4 ce ff ff f0 	mov    BYTE PTR [rbp-0x312c],0xf0
    9be9:	c6 85 d5 ce ff ff 22 	mov    BYTE PTR [rbp-0x312b],0x22
    9bf0:	c6 85 d6 ce ff ff aa 	mov    BYTE PTR [rbp-0x312a],0xaa
    9bf7:	c6 85 d7 ce ff ff 06 	mov    BYTE PTR [rbp-0x3129],0x6
    9bfe:	c6 85 d8 ce ff ff 7b 	mov    BYTE PTR [rbp-0x3128],0x7b
    9c05:	c6 85 d9 ce ff ff 01 	mov    BYTE PTR [rbp-0x3127],0x1
    9c0c:	c6 85 da ce ff ff 90 	mov    BYTE PTR [rbp-0x3126],0x90
    9c13:	c6 85 db ce ff ff 06 	mov    BYTE PTR [rbp-0x3125],0x6
    9c1a:	c6 85 dc ce ff ff d0 	mov    BYTE PTR [rbp-0x3124],0xd0
    9c21:	c6 85 dd ce ff ff 02 	mov    BYTE PTR [rbp-0x3123],0x2
    9c28:	c6 85 de ce ff ff 14 	mov    BYTE PTR [rbp-0x3122],0x14
    9c2f:	c6 85 df ce ff ff 88 	mov    BYTE PTR [rbp-0x3121],0x88
    9c36:	c6 85 e0 ce ff ff e4 	mov    BYTE PTR [rbp-0x3120],0xe4
    9c3d:	c6 85 e1 ce ff ff 90 	mov    BYTE PTR [rbp-0x311f],0x90
    9c44:	c6 85 e2 ce ff ff 06 	mov    BYTE PTR [rbp-0x311e],0x6
    9c4b:	c6 85 e3 ce ff ff bc 	mov    BYTE PTR [rbp-0x311d],0xbc
    9c52:	c6 85 e4 ce ff ff f0 	mov    BYTE PTR [rbp-0x311c],0xf0
    9c59:	c6 85 e5 ce ff ff a3 	mov    BYTE PTR [rbp-0x311b],0xa3
    9c60:	c6 85 e6 ce ff ff f0 	mov    BYTE PTR [rbp-0x311a],0xf0
    9c67:	c6 85 e7 ce ff ff 22 	mov    BYTE PTR [rbp-0x3119],0x22
    9c6e:	c6 85 e8 ce ff ff fd 	mov    BYTE PTR [rbp-0x3118],0xfd
    9c75:	c6 85 e9 ce ff ff e0 	mov    BYTE PTR [rbp-0x3117],0xe0
    9c7c:	c6 85 ea ce ff ff fa 	mov    BYTE PTR [rbp-0x3116],0xfa
    9c83:	c6 85 eb ce ff ff a3 	mov    BYTE PTR [rbp-0x3115],0xa3
    9c8a:	c6 85 ec ce ff ff e0 	mov    BYTE PTR [rbp-0x3114],0xe0
    9c91:	c6 85 ed ce ff ff 2d 	mov    BYTE PTR [rbp-0x3113],0x2d
    9c98:	c6 85 ee ce ff ff f5 	mov    BYTE PTR [rbp-0x3112],0xf5
    9c9f:	c6 85 ef ce ff ff 82 	mov    BYTE PTR [rbp-0x3111],0x82
    9ca6:	c6 85 f0 ce ff ff ea 	mov    BYTE PTR [rbp-0x3110],0xea
    9cad:	c6 85 f1 ce ff ff 3c 	mov    BYTE PTR [rbp-0x310f],0x3c
    9cb4:	c6 85 f2 ce ff ff f5 	mov    BYTE PTR [rbp-0x310e],0xf5
    9cbb:	c6 85 f3 ce ff ff 83 	mov    BYTE PTR [rbp-0x310d],0x83
    9cc2:	c6 85 f4 ce ff ff ef 	mov    BYTE PTR [rbp-0x310c],0xef
    9cc9:	c6 85 f5 ce ff ff f0 	mov    BYTE PTR [rbp-0x310b],0xf0
    9cd0:	c6 85 f6 ce ff ff 22 	mov    BYTE PTR [rbp-0x310a],0x22
    9cd7:	c6 85 f7 ce ff ff 90 	mov    BYTE PTR [rbp-0x3109],0x90
    9cde:	c6 85 f8 ce ff ff 06 	mov    BYTE PTR [rbp-0x3108],0x6
    9ce5:	c6 85 f9 ce ff ff c0 	mov    BYTE PTR [rbp-0x3107],0xc0
    9cec:	c6 85 fa ce ff ff 02 	mov    BYTE PTR [rbp-0x3106],0x2
    9cf3:	c6 85 fb ce ff ff 14 	mov    BYTE PTR [rbp-0x3105],0x14
    9cfa:	c6 85 fc ce ff ff 7f 	mov    BYTE PTR [rbp-0x3104],0x7f
    9d01:	c6 85 fd ce ff ff 90 	mov    BYTE PTR [rbp-0x3103],0x90
    9d08:	c6 85 fe ce ff ff 06 	mov    BYTE PTR [rbp-0x3102],0x6
    9d0f:	c6 85 ff ce ff ff bc 	mov    BYTE PTR [rbp-0x3101],0xbc
    9d16:	c6 85 00 cf ff ff e0 	mov    BYTE PTR [rbp-0x3100],0xe0
    9d1d:	c6 85 01 cf ff ff fe 	mov    BYTE PTR [rbp-0x30ff],0xfe
    9d24:	c6 85 02 cf ff ff a3 	mov    BYTE PTR [rbp-0x30fe],0xa3
    9d2b:	c6 85 03 cf ff ff e0 	mov    BYTE PTR [rbp-0x30fd],0xe0
    9d32:	c6 85 04 cf ff ff 22 	mov    BYTE PTR [rbp-0x30fc],0x22
    9d39:	c6 85 05 cf ff ff 90 	mov    BYTE PTR [rbp-0x30fb],0x90
    9d40:	c6 85 06 cf ff ff 06 	mov    BYTE PTR [rbp-0x30fa],0x6
    9d47:	c6 85 07 cf ff ff c3 	mov    BYTE PTR [rbp-0x30f9],0xc3
    9d4e:	c6 85 08 cf ff ff e0 	mov    BYTE PTR [rbp-0x30f8],0xe0
    9d55:	c6 85 09 cf ff ff fe 	mov    BYTE PTR [rbp-0x30f7],0xfe
    9d5c:	c6 85 0a cf ff ff a3 	mov    BYTE PTR [rbp-0x30f6],0xa3
    9d63:	c6 85 0b cf ff ff e0 	mov    BYTE PTR [rbp-0x30f5],0xe0
    9d6a:	c6 85 0c cf ff ff 22 	mov    BYTE PTR [rbp-0x30f4],0x22
    9d71:	c6 85 0d cf ff ff 74 	mov    BYTE PTR [rbp-0x30f3],0x74
    9d78:	c6 85 0e cf ff ff 22 	mov    BYTE PTR [rbp-0x30f2],0x22
    9d7f:	c6 85 0f cf ff ff 2d 	mov    BYTE PTR [rbp-0x30f1],0x2d
    9d86:	c6 85 10 cf ff ff f5 	mov    BYTE PTR [rbp-0x30f0],0xf5
    9d8d:	c6 85 11 cf ff ff 82 	mov    BYTE PTR [rbp-0x30ef],0x82
    9d94:	c6 85 12 cf ff ff 74 	mov    BYTE PTR [rbp-0x30ee],0x74
    9d9b:	c6 85 14 cf ff ff 3c 	mov    BYTE PTR [rbp-0x30ec],0x3c
    9da2:	c6 85 15 cf ff ff f5 	mov    BYTE PTR [rbp-0x30eb],0xf5
    9da9:	c6 85 16 cf ff ff 83 	mov    BYTE PTR [rbp-0x30ea],0x83
    9db0:	c6 85 17 cf ff ff 22 	mov    BYTE PTR [rbp-0x30e9],0x22
    9db7:	c6 85 18 cf ff ff 90 	mov    BYTE PTR [rbp-0x30e8],0x90
    9dbe:	c6 85 19 cf ff ff 06 	mov    BYTE PTR [rbp-0x30e7],0x6
    9dc5:	c6 85 1a cf ff ff bf 	mov    BYTE PTR [rbp-0x30e6],0xbf
    9dcc:	c6 85 1b cf ff ff 02 	mov    BYTE PTR [rbp-0x30e5],0x2
    9dd3:	c6 85 1c cf ff ff 14 	mov    BYTE PTR [rbp-0x30e4],0x14
    9dda:	c6 85 1d cf ff ff 7f 	mov    BYTE PTR [rbp-0x30e3],0x7f
    9de1:	c6 85 1e cf ff ff 90 	mov    BYTE PTR [rbp-0x30e2],0x90
    9de8:	c6 85 1f cf ff ff 06 	mov    BYTE PTR [rbp-0x30e1],0x6
    9def:	c6 85 20 cf ff ff d5 	mov    BYTE PTR [rbp-0x30e0],0xd5
    9df6:	c6 85 21 cf ff ff 12 	mov    BYTE PTR [rbp-0x30df],0x12
    9dfd:	c6 85 22 cf ff ff 14 	mov    BYTE PTR [rbp-0x30de],0x14
    9e04:	c6 85 23 cf ff ff 88 	mov    BYTE PTR [rbp-0x30dd],0x88
    9e0b:	c6 85 24 cf ff ff 90 	mov    BYTE PTR [rbp-0x30dc],0x90
    9e12:	c6 85 25 cf ff ff 06 	mov    BYTE PTR [rbp-0x30db],0x6
    9e19:	c6 85 26 cf ff ff d5 	mov    BYTE PTR [rbp-0x30da],0xd5
    9e20:	c6 85 27 cf ff ff e0 	mov    BYTE PTR [rbp-0x30d9],0xe0
    9e27:	c6 85 28 cf ff ff 64 	mov    BYTE PTR [rbp-0x30d8],0x64
    9e2e:	c6 85 29 cf ff ff 01 	mov    BYTE PTR [rbp-0x30d7],0x1
    9e35:	c6 85 2a cf ff ff 60 	mov    BYTE PTR [rbp-0x30d6],0x60
    9e3c:	c6 85 2b cf ff ff 03 	mov    BYTE PTR [rbp-0x30d5],0x3
    9e43:	c6 85 2c cf ff ff 02 	mov    BYTE PTR [rbp-0x30d4],0x2
    9e4a:	c6 85 2d cf ff ff 17 	mov    BYTE PTR [rbp-0x30d3],0x17
    9e51:	c6 85 2e cf ff ff 27 	mov    BYTE PTR [rbp-0x30d2],0x27
    9e58:	c6 85 2f cf ff ff 90 	mov    BYTE PTR [rbp-0x30d1],0x90
    9e5f:	c6 85 30 cf ff ff 06 	mov    BYTE PTR [rbp-0x30d0],0x6
    9e66:	c6 85 31 cf ff ff d8 	mov    BYTE PTR [rbp-0x30cf],0xd8
    9e6d:	c6 85 32 cf ff ff e0 	mov    BYTE PTR [rbp-0x30ce],0xe0
    9e74:	c6 85 33 cf ff ff 04 	mov    BYTE PTR [rbp-0x30cd],0x4
    9e7b:	c6 85 34 cf ff ff 70 	mov    BYTE PTR [rbp-0x30cc],0x70
    9e82:	c6 85 35 cf ff ff 03 	mov    BYTE PTR [rbp-0x30cb],0x3
    9e89:	c6 85 36 cf ff ff 02 	mov    BYTE PTR [rbp-0x30ca],0x2
    9e90:	c6 85 37 cf ff ff 16 	mov    BYTE PTR [rbp-0x30c9],0x16
    9e97:	c6 85 38 cf ff ff e1 	mov    BYTE PTR [rbp-0x30c8],0xe1
    9e9e:	c6 85 39 cf ff ff 24 	mov    BYTE PTR [rbp-0x30c7],0x24
    9ea5:	c6 85 3a cf ff ff fe 	mov    BYTE PTR [rbp-0x30c6],0xfe
    9eac:	c6 85 3b cf ff ff 60 	mov    BYTE PTR [rbp-0x30c5],0x60
    9eb3:	c6 85 3c cf ff ff 03 	mov    BYTE PTR [rbp-0x30c4],0x3
    9eba:	c6 85 3d cf ff ff 02 	mov    BYTE PTR [rbp-0x30c3],0x2
    9ec1:	c6 85 3e cf ff ff 17 	mov    BYTE PTR [rbp-0x30c2],0x17
    9ec8:	c6 85 3f cf ff ff d0 	mov    BYTE PTR [rbp-0x30c1],0xd0
    9ecf:	c6 85 40 cf ff ff a8 	mov    BYTE PTR [rbp-0x30c0],0xa8
    9ed6:	c6 85 41 cf ff ff a2 	mov    BYTE PTR [rbp-0x30bf],0xa2
    9edd:	c6 85 42 cf ff ff 85 	mov    BYTE PTR [rbp-0x30be],0x85
    9ee4:	c6 85 44 cf ff ff a2 	mov    BYTE PTR [rbp-0x30bc],0xa2
    9eeb:	c6 85 45 cf ff ff 90 	mov    BYTE PTR [rbp-0x30bb],0x90
    9ef2:	c6 85 46 cf ff ff 06 	mov    BYTE PTR [rbp-0x30ba],0x6
    9ef9:	c6 85 47 cf ff ff db 	mov    BYTE PTR [rbp-0x30b9],0xdb
    9f00:	c6 85 48 cf ff ff e0 	mov    BYTE PTR [rbp-0x30b8],0xe0
    9f07:	c6 85 49 cf ff ff f9 	mov    BYTE PTR [rbp-0x30b7],0xf9
    9f0e:	c6 85 4a cf ff ff a3 	mov    BYTE PTR [rbp-0x30b6],0xa3
    9f15:	c6 85 4b cf ff ff e0 	mov    BYTE PTR [rbp-0x30b5],0xe0
    9f1c:	c6 85 4c cf ff ff fa 	mov    BYTE PTR [rbp-0x30b4],0xfa
    9f23:	c6 85 4d cf ff ff 60 	mov    BYTE PTR [rbp-0x30b3],0x60
    9f2a:	c6 85 4e cf ff ff 01 	mov    BYTE PTR [rbp-0x30b2],0x1
    9f31:	c6 85 4f cf ff ff 09 	mov    BYTE PTR [rbp-0x30b1],0x9
    9f38:	c6 85 50 cf ff ff 90 	mov    BYTE PTR [rbp-0x30b0],0x90
    9f3f:	c6 85 51 cf ff ff 06 	mov    BYTE PTR [rbp-0x30af],0x6
    9f46:	c6 85 52 cf ff ff d6 	mov    BYTE PTR [rbp-0x30ae],0xd6
    9f4d:	c6 85 53 cf ff ff e0 	mov    BYTE PTR [rbp-0x30ad],0xe0
    9f54:	c6 85 54 cf ff ff fb 	mov    BYTE PTR [rbp-0x30ac],0xfb
    9f5b:	c6 85 55 cf ff ff a3 	mov    BYTE PTR [rbp-0x30ab],0xa3
    9f62:	c6 85 56 cf ff ff e0 	mov    BYTE PTR [rbp-0x30aa],0xe0
    9f69:	c6 85 57 cf ff ff f5 	mov    BYTE PTR [rbp-0x30a9],0xf5
    9f70:	c6 85 58 cf ff ff 82 	mov    BYTE PTR [rbp-0x30a8],0x82
    9f77:	c6 85 59 cf ff ff 8b 	mov    BYTE PTR [rbp-0x30a7],0x8b
    9f7e:	c6 85 5a cf ff ff 83 	mov    BYTE PTR [rbp-0x30a6],0x83
    9f85:	c6 85 5b cf ff ff 05 	mov    BYTE PTR [rbp-0x30a5],0x5
    9f8c:	c6 85 5c cf ff ff a2 	mov    BYTE PTR [rbp-0x30a4],0xa2
    9f93:	c6 85 5d cf ff ff 90 	mov    BYTE PTR [rbp-0x30a3],0x90
    9f9a:	c6 85 5e cf ff ff 06 	mov    BYTE PTR [rbp-0x30a2],0x6
    9fa1:	c6 85 5f cf ff ff d9 	mov    BYTE PTR [rbp-0x30a1],0xd9
    9fa8:	c6 85 60 cf ff ff e0 	mov    BYTE PTR [rbp-0x30a0],0xe0
    9faf:	c6 85 61 cf ff ff fb 	mov    BYTE PTR [rbp-0x309f],0xfb
    9fb6:	c6 85 62 cf ff ff a3 	mov    BYTE PTR [rbp-0x309e],0xa3
    9fbd:	c6 85 63 cf ff ff e0 	mov    BYTE PTR [rbp-0x309d],0xe0
    9fc4:	c6 85 64 cf ff ff f5 	mov    BYTE PTR [rbp-0x309c],0xf5
    9fcb:	c6 85 65 cf ff ff 84 	mov    BYTE PTR [rbp-0x309b],0x84
    9fd2:	c6 85 66 cf ff ff 8b 	mov    BYTE PTR [rbp-0x309a],0x8b
    9fd9:	c6 85 67 cf ff ff 85 	mov    BYTE PTR [rbp-0x3099],0x85
    9fe0:	c6 85 68 cf ff ff 05 	mov    BYTE PTR [rbp-0x3098],0x5
    9fe7:	c6 85 69 cf ff ff a2 	mov    BYTE PTR [rbp-0x3097],0xa2
    9fee:	c6 85 6a cf ff ff e0 	mov    BYTE PTR [rbp-0x3096],0xe0
    9ff5:	c6 85 6b cf ff ff fb 	mov    BYTE PTR [rbp-0x3095],0xfb
    9ffc:	c6 85 6c cf ff ff a3 	mov    BYTE PTR [rbp-0x3094],0xa3
    a003:	c6 85 6d cf ff ff 05 	mov    BYTE PTR [rbp-0x3093],0x5
    a00a:	c6 85 6e cf ff ff a2 	mov    BYTE PTR [rbp-0x3092],0xa2
    a011:	c6 85 6f cf ff ff e0 	mov    BYTE PTR [rbp-0x3091],0xe0
    a018:	c6 85 70 cf ff ff a3 	mov    BYTE PTR [rbp-0x3090],0xa3
    a01f:	c6 85 71 cf ff ff 05 	mov    BYTE PTR [rbp-0x308f],0x5
    a026:	c6 85 72 cf ff ff a2 	mov    BYTE PTR [rbp-0x308e],0xa2
    a02d:	c6 85 73 cf ff ff c3 	mov    BYTE PTR [rbp-0x308d],0xc3
    a034:	c6 85 74 cf ff ff 9b 	mov    BYTE PTR [rbp-0x308c],0x9b
    a03b:	c6 85 75 cf ff ff 60 	mov    BYTE PTR [rbp-0x308b],0x60
    a042:	c6 85 76 cf ff ff 05 	mov    BYTE PTR [rbp-0x308a],0x5
    a049:	c6 85 77 cf ff ff af 	mov    BYTE PTR [rbp-0x3089],0xaf
    a050:	c6 85 79 cf ff ff 88 	mov    BYTE PTR [rbp-0x3087],0x88
    a057:	c6 85 7a cf ff ff a2 	mov    BYTE PTR [rbp-0x3086],0xa2
    a05e:	c6 85 7b cf ff ff 22 	mov    BYTE PTR [rbp-0x3085],0x22
    a065:	c6 85 7c cf ff ff da 	mov    BYTE PTR [rbp-0x3084],0xda
    a06c:	c6 85 7d cf ff ff ec 	mov    BYTE PTR [rbp-0x3083],0xec
    a073:	c6 85 7e cf ff ff d9 	mov    BYTE PTR [rbp-0x3082],0xd9
    a07a:	c6 85 7f cf ff ff ea 	mov    BYTE PTR [rbp-0x3081],0xea
    a081:	c6 85 80 cf ff ff 88 	mov    BYTE PTR [rbp-0x3080],0x88
    a088:	c6 85 81 cf ff ff a2 	mov    BYTE PTR [rbp-0x307f],0xa2
    a08f:	c6 85 82 cf ff ff 02 	mov    BYTE PTR [rbp-0x307e],0x2
    a096:	c6 85 83 cf ff ff 17 	mov    BYTE PTR [rbp-0x307d],0x17
    a09d:	c6 85 84 cf ff ff d0 	mov    BYTE PTR [rbp-0x307c],0xd0
    a0a4:	c6 85 85 cf ff ff a8 	mov    BYTE PTR [rbp-0x307b],0xa8
    a0ab:	c6 85 86 cf ff ff a2 	mov    BYTE PTR [rbp-0x307a],0xa2
    a0b2:	c6 85 87 cf ff ff 85 	mov    BYTE PTR [rbp-0x3079],0x85
    a0b9:	c6 85 89 cf ff ff a2 	mov    BYTE PTR [rbp-0x3077],0xa2
    a0c0:	c6 85 8a cf ff ff 90 	mov    BYTE PTR [rbp-0x3076],0x90
    a0c7:	c6 85 8b cf ff ff 06 	mov    BYTE PTR [rbp-0x3075],0x6
    a0ce:	c6 85 8c cf ff ff db 	mov    BYTE PTR [rbp-0x3074],0xdb
    a0d5:	c6 85 8d cf ff ff e0 	mov    BYTE PTR [rbp-0x3073],0xe0
    a0dc:	c6 85 8e cf ff ff f9 	mov    BYTE PTR [rbp-0x3072],0xf9
    a0e3:	48 8d 95 80 cd ff ff 	lea    rdx,[rbp-0x3280]
    a0ea:	b8 00 00 00 00       	mov    eax,0x0
    a0ef:	b9 21 00 00 00       	mov    ecx,0x21
    a0f4:	48 89 d7             	mov    rdi,rdx
    a0f7:	f3 48 ab             	rep stos QWORD PTR es:[rdi],rax
    a0fa:	48 89 fa             	mov    rdx,rdi
    a0fd:	89 02                	mov    DWORD PTR [rdx],eax
    a0ff:	48 83 c2 04          	add    rdx,0x4
    a103:	66 89 02             	mov    WORD PTR [rdx],ax
    a106:	48 83 c2 02          	add    rdx,0x2
    a10a:	c6 85 81 cd ff ff 58 	mov    BYTE PTR [rbp-0x327f],0x58
    a111:	c6 85 82 cd ff ff 96 	mov    BYTE PTR [rbp-0x327e],0x96
    a118:	c6 85 83 cd ff ff eb 	mov    BYTE PTR [rbp-0x327d],0xeb
    a11f:	c6 85 84 cd ff ff ff 	mov    BYTE PTR [rbp-0x327c],0xff
    a126:	48 8d 95 70 cc ff ff 	lea    rdx,[rbp-0x3390]
    a12d:	b8 00 00 00 00       	mov    eax,0x0
    a132:	b9 21 00 00 00       	mov    ecx,0x21
    a137:	48 89 d7             	mov    rdi,rdx
    a13a:	f3 48 ab             	rep stos QWORD PTR es:[rdi],rax
    a13d:	48 89 fa             	mov    rdx,rdi
    a140:	89 02                	mov    DWORD PTR [rdx],eax
    a142:	48 83 c2 04          	add    rdx,0x4
    a146:	66 89 02             	mov    WORD PTR [rdx],ax
    a149:	48 83 c2 02          	add    rdx,0x2
    a14d:	c6 85 70 cc ff ff a3 	mov    BYTE PTR [rbp-0x3390],0xa3
    a154:	c6 85 71 cc ff ff e0 	mov    BYTE PTR [rbp-0x338f],0xe0
    a15b:	c6 85 72 cc ff ff fa 	mov    BYTE PTR [rbp-0x338e],0xfa
    a162:	c6 85 73 cc ff ff 60 	mov    BYTE PTR [rbp-0x338d],0x60
    a169:	c6 85 74 cc ff ff 01 	mov    BYTE PTR [rbp-0x338c],0x1
    a170:	c6 85 75 cc ff ff 09 	mov    BYTE PTR [rbp-0x338b],0x9
    a177:	c6 85 76 cc ff ff 90 	mov    BYTE PTR [rbp-0x338a],0x90
    a17e:	c6 85 77 cc ff ff 06 	mov    BYTE PTR [rbp-0x3389],0x6
    a185:	c6 85 78 cc ff ff d6 	mov    BYTE PTR [rbp-0x3388],0xd6
    a18c:	c6 85 79 cc ff ff e0 	mov    BYTE PTR [rbp-0x3387],0xe0
    a193:	c6 85 7a cc ff ff fb 	mov    BYTE PTR [rbp-0x3386],0xfb
    a19a:	c6 85 7b cc ff ff a3 	mov    BYTE PTR [rbp-0x3385],0xa3
    a1a1:	c6 85 7c cc ff ff e0 	mov    BYTE PTR [rbp-0x3384],0xe0
    a1a8:	c6 85 7d cc ff ff f5 	mov    BYTE PTR [rbp-0x3383],0xf5
    a1af:	c6 85 7e cc ff ff 82 	mov    BYTE PTR [rbp-0x3382],0x82
    a1b6:	c6 85 7f cc ff ff 8b 	mov    BYTE PTR [rbp-0x3381],0x8b
    a1bd:	c6 85 80 cc ff ff 83 	mov    BYTE PTR [rbp-0x3380],0x83
    a1c4:	c6 85 81 cc ff ff 05 	mov    BYTE PTR [rbp-0x337f],0x5
    a1cb:	c6 85 82 cc ff ff a2 	mov    BYTE PTR [rbp-0x337e],0xa2
    a1d2:	c6 85 83 cc ff ff 90 	mov    BYTE PTR [rbp-0x337d],0x90
    a1d9:	c6 85 84 cc ff ff 06 	mov    BYTE PTR [rbp-0x337c],0x6
    a1e0:	c6 85 85 cc ff ff d9 	mov    BYTE PTR [rbp-0x337b],0xd9
    a1e7:	c6 85 86 cc ff ff e0 	mov    BYTE PTR [rbp-0x337a],0xe0
    a1ee:	c6 85 87 cc ff ff fb 	mov    BYTE PTR [rbp-0x3379],0xfb
    a1f5:	c6 85 88 cc ff ff a3 	mov    BYTE PTR [rbp-0x3378],0xa3
    a1fc:	c6 85 89 cc ff ff e0 	mov    BYTE PTR [rbp-0x3377],0xe0
    a203:	c6 85 8a cc ff ff f5 	mov    BYTE PTR [rbp-0x3376],0xf5
    a20a:	c6 85 8b cc ff ff 84 	mov    BYTE PTR [rbp-0x3375],0x84
    a211:	c6 85 8c cc ff ff 8b 	mov    BYTE PTR [rbp-0x3374],0x8b
    a218:	c6 85 8d cc ff ff 85 	mov    BYTE PTR [rbp-0x3373],0x85
    a21f:	c6 85 8e cc ff ff 05 	mov    BYTE PTR [rbp-0x3372],0x5
    a226:	c6 85 8f cc ff ff a2 	mov    BYTE PTR [rbp-0x3371],0xa2
    a22d:	c6 85 90 cc ff ff e0 	mov    BYTE PTR [rbp-0x3370],0xe0
    a234:	c6 85 91 cc ff ff fb 	mov    BYTE PTR [rbp-0x336f],0xfb
    a23b:	c6 85 92 cc ff ff a3 	mov    BYTE PTR [rbp-0x336e],0xa3
    a242:	c6 85 93 cc ff ff 05 	mov    BYTE PTR [rbp-0x336d],0x5
    a249:	c6 85 94 cc ff ff a2 	mov    BYTE PTR [rbp-0x336c],0xa2
    a250:	c6 85 95 cc ff ff e4 	mov    BYTE PTR [rbp-0x336b],0xe4
    a257:	c6 85 96 cc ff ff 93 	mov    BYTE PTR [rbp-0x336a],0x93
    a25e:	c6 85 97 cc ff ff a3 	mov    BYTE PTR [rbp-0x3369],0xa3
    a265:	c6 85 98 cc ff ff 05 	mov    BYTE PTR [rbp-0x3368],0x5
    a26c:	c6 85 99 cc ff ff a2 	mov    BYTE PTR [rbp-0x3367],0xa2
    a273:	c6 85 9a cc ff ff c3 	mov    BYTE PTR [rbp-0x3366],0xc3
    a27a:	c6 85 9b cc ff ff 9b 	mov    BYTE PTR [rbp-0x3365],0x9b
    a281:	c6 85 9c cc ff ff 60 	mov    BYTE PTR [rbp-0x3364],0x60
    a288:	c6 85 9d cc ff ff 05 	mov    BYTE PTR [rbp-0x3363],0x5
    a28f:	c6 85 9e cc ff ff af 	mov    BYTE PTR [rbp-0x3362],0xaf
    a296:	c6 85 a0 cc ff ff 88 	mov    BYTE PTR [rbp-0x3360],0x88
    a29d:	c6 85 a1 cc ff ff a2 	mov    BYTE PTR [rbp-0x335f],0xa2
    a2a4:	c6 85 a2 cc ff ff 22 	mov    BYTE PTR [rbp-0x335e],0x22
    a2ab:	c6 85 a3 cc ff ff da 	mov    BYTE PTR [rbp-0x335d],0xda
    a2b2:	c6 85 a4 cc ff ff eb 	mov    BYTE PTR [rbp-0x335c],0xeb
    a2b9:	c6 85 a5 cc ff ff d9 	mov    BYTE PTR [rbp-0x335b],0xd9
    a2c0:	c6 85 a6 cc ff ff e9 	mov    BYTE PTR [rbp-0x335a],0xe9
    a2c7:	c6 85 a7 cc ff ff 88 	mov    BYTE PTR [rbp-0x3359],0x88
    a2ce:	c6 85 a8 cc ff ff a2 	mov    BYTE PTR [rbp-0x3358],0xa2
    a2d5:	c6 85 a9 cc ff ff 02 	mov    BYTE PTR [rbp-0x3357],0x2
    a2dc:	c6 85 aa cc ff ff 17 	mov    BYTE PTR [rbp-0x3356],0x17
    a2e3:	c6 85 ab cc ff ff d0 	mov    BYTE PTR [rbp-0x3355],0xd0
    a2ea:	c6 85 ac cc ff ff 90 	mov    BYTE PTR [rbp-0x3354],0x90
    a2f1:	c6 85 ad cc ff ff 06 	mov    BYTE PTR [rbp-0x3353],0x6
    a2f8:	c6 85 ae cc ff ff d5 	mov    BYTE PTR [rbp-0x3352],0xd5
    a2ff:	c6 85 af cc ff ff e0 	mov    BYTE PTR [rbp-0x3351],0xe0
    a306:	c6 85 b0 cc ff ff f4 	mov    BYTE PTR [rbp-0x3350],0xf4
    a30d:	c6 85 b1 cc ff ff 60 	mov    BYTE PTR [rbp-0x334f],0x60
    a314:	c6 85 b2 cc ff ff 03 	mov    BYTE PTR [rbp-0x334e],0x3
    a31b:	c6 85 b3 cc ff ff 02 	mov    BYTE PTR [rbp-0x334d],0x2
    a322:	c6 85 b4 cc ff ff 17 	mov    BYTE PTR [rbp-0x334c],0x17
    a329:	c6 85 b5 cc ff ff ce 	mov    BYTE PTR [rbp-0x334b],0xce
    a330:	c6 85 b6 cc ff ff 90 	mov    BYTE PTR [rbp-0x334a],0x90
    a337:	c6 85 b7 cc ff ff 06 	mov    BYTE PTR [rbp-0x3349],0x6
    a33e:	c6 85 b8 cc ff ff d8 	mov    BYTE PTR [rbp-0x3348],0xd8
    a345:	c6 85 b9 cc ff ff e0 	mov    BYTE PTR [rbp-0x3347],0xe0
    a34c:	c6 85 ba cc ff ff 04 	mov    BYTE PTR [rbp-0x3346],0x4
    a353:	c6 85 bb cc ff ff 70 	mov    BYTE PTR [rbp-0x3345],0x70
    a35a:	c6 85 bc cc ff ff 03 	mov    BYTE PTR [rbp-0x3344],0x3
    a361:	c6 85 bd cc ff ff 02 	mov    BYTE PTR [rbp-0x3343],0x2
    a368:	c6 85 be cc ff ff 17 	mov    BYTE PTR [rbp-0x3342],0x17
    a36f:	c6 85 bf cc ff ff 88 	mov    BYTE PTR [rbp-0x3341],0x88
    a376:	c6 85 c0 cc ff ff 24 	mov    BYTE PTR [rbp-0x3340],0x24
    a37d:	c6 85 c1 cc ff ff fe 	mov    BYTE PTR [rbp-0x333f],0xfe
    a384:	c6 85 c2 cc ff ff 60 	mov    BYTE PTR [rbp-0x333e],0x60
    a38b:	c6 85 c3 cc ff ff 03 	mov    BYTE PTR [rbp-0x333d],0x3
    a392:	c6 85 c4 cc ff ff 02 	mov    BYTE PTR [rbp-0x333c],0x2
    a399:	c6 85 c5 cc ff ff 17 	mov    BYTE PTR [rbp-0x333b],0x17
    a3a0:	c6 85 c6 cc ff ff d0 	mov    BYTE PTR [rbp-0x333a],0xd0
    a3a7:	c6 85 c7 cc ff ff a8 	mov    BYTE PTR [rbp-0x3339],0xa8
    a3ae:	c6 85 c8 cc ff ff a2 	mov    BYTE PTR [rbp-0x3338],0xa2
    a3b5:	c6 85 c9 cc ff ff 85 	mov    BYTE PTR [rbp-0x3337],0x85
    a3bc:	c6 85 cb cc ff ff a2 	mov    BYTE PTR [rbp-0x3335],0xa2
    a3c3:	c6 85 cc cc ff ff 90 	mov    BYTE PTR [rbp-0x3334],0x90
    a3ca:	c6 85 cd cc ff ff 06 	mov    BYTE PTR [rbp-0x3333],0x6
    a3d1:	c6 85 ce cc ff ff db 	mov    BYTE PTR [rbp-0x3332],0xdb
    a3d8:	c6 85 cf cc ff ff e0 	mov    BYTE PTR [rbp-0x3331],0xe0
    a3df:	c6 85 d0 cc ff ff f9 	mov    BYTE PTR [rbp-0x3330],0xf9
    a3e6:	c6 85 d1 cc ff ff a3 	mov    BYTE PTR [rbp-0x332f],0xa3
    a3ed:	c6 85 d2 cc ff ff e0 	mov    BYTE PTR [rbp-0x332e],0xe0
    a3f4:	c6 85 d3 cc ff ff fa 	mov    BYTE PTR [rbp-0x332d],0xfa
    a3fb:	c6 85 d4 cc ff ff 60 	mov    BYTE PTR [rbp-0x332c],0x60
    a402:	c6 85 d5 cc ff ff 01 	mov    BYTE PTR [rbp-0x332b],0x1
    a409:	c6 85 d6 cc ff ff 09 	mov    BYTE PTR [rbp-0x332a],0x9
    a410:	c6 85 d7 cc ff ff 90 	mov    BYTE PTR [rbp-0x3329],0x90
    a417:	c6 85 d8 cc ff ff 06 	mov    BYTE PTR [rbp-0x3328],0x6
    a41e:	c6 85 d9 cc ff ff d6 	mov    BYTE PTR [rbp-0x3327],0xd6
    a425:	c6 85 da cc ff ff e0 	mov    BYTE PTR [rbp-0x3326],0xe0
    a42c:	c6 85 db cc ff ff fb 	mov    BYTE PTR [rbp-0x3325],0xfb
    a433:	c6 85 dc cc ff ff a3 	mov    BYTE PTR [rbp-0x3324],0xa3
    a43a:	c6 85 dd cc ff ff e0 	mov    BYTE PTR [rbp-0x3323],0xe0
    a441:	c6 85 de cc ff ff f5 	mov    BYTE PTR [rbp-0x3322],0xf5
    a448:	c6 85 df cc ff ff 82 	mov    BYTE PTR [rbp-0x3321],0x82
    a44f:	c6 85 e0 cc ff ff 8b 	mov    BYTE PTR [rbp-0x3320],0x8b
    a456:	c6 85 e1 cc ff ff 83 	mov    BYTE PTR [rbp-0x331f],0x83
    a45d:	c6 85 e2 cc ff ff 05 	mov    BYTE PTR [rbp-0x331e],0x5
    a464:	c6 85 e3 cc ff ff a2 	mov    BYTE PTR [rbp-0x331d],0xa2
    a46b:	c6 85 e4 cc ff ff 90 	mov    BYTE PTR [rbp-0x331c],0x90
    a472:	c6 85 e5 cc ff ff 06 	mov    BYTE PTR [rbp-0x331b],0x6
    a479:	c6 85 e6 cc ff ff d9 	mov    BYTE PTR [rbp-0x331a],0xd9
    a480:	c6 85 e7 cc ff ff e0 	mov    BYTE PTR [rbp-0x3319],0xe0
    a487:	c6 85 e8 cc ff ff fb 	mov    BYTE PTR [rbp-0x3318],0xfb
    a48e:	c6 85 e9 cc ff ff a3 	mov    BYTE PTR [rbp-0x3317],0xa3
    a495:	c6 85 ea cc ff ff e0 	mov    BYTE PTR [rbp-0x3316],0xe0
    a49c:	c6 85 eb cc ff ff f5 	mov    BYTE PTR [rbp-0x3315],0xf5
    a4a3:	c6 85 ec cc ff ff 84 	mov    BYTE PTR [rbp-0x3314],0x84
    a4aa:	c6 85 ed cc ff ff 8b 	mov    BYTE PTR [rbp-0x3313],0x8b
    a4b1:	c6 85 ee cc ff ff 85 	mov    BYTE PTR [rbp-0x3312],0x85
    a4b8:	c6 85 ef cc ff ff 05 	mov    BYTE PTR [rbp-0x3311],0x5
    a4bf:	c6 85 f0 cc ff ff a2 	mov    BYTE PTR [rbp-0x3310],0xa2
    a4c6:	c6 85 f1 cc ff ff e4 	mov    BYTE PTR [rbp-0x330f],0xe4
    a4cd:	c6 85 f2 cc ff ff 93 	mov    BYTE PTR [rbp-0x330e],0x93
    a4d4:	c6 85 f3 cc ff ff fb 	mov    BYTE PTR [rbp-0x330d],0xfb
    a4db:	c6 85 f4 cc ff ff a3 	mov    BYTE PTR [rbp-0x330c],0xa3
    a4e2:	c6 85 f5 cc ff ff 05 	mov    BYTE PTR [rbp-0x330b],0x5
    a4e9:	c6 85 f6 cc ff ff a2 	mov    BYTE PTR [rbp-0x330a],0xa2
    a4f0:	c6 85 f7 cc ff ff e0 	mov    BYTE PTR [rbp-0x3309],0xe0
    a4f7:	c6 85 f8 cc ff ff a3 	mov    BYTE PTR [rbp-0x3308],0xa3
    a4fe:	c6 85 f9 cc ff ff 05 	mov    BYTE PTR [rbp-0x3307],0x5
    a505:	c6 85 fa cc ff ff a2 	mov    BYTE PTR [rbp-0x3306],0xa2
    a50c:	c6 85 fb cc ff ff c3 	mov    BYTE PTR [rbp-0x3305],0xc3
    a513:	c6 85 fc cc ff ff 9b 	mov    BYTE PTR [rbp-0x3304],0x9b
    a51a:	c6 85 fd cc ff ff 60 	mov    BYTE PTR [rbp-0x3303],0x60
    a521:	c6 85 fe cc ff ff 05 	mov    BYTE PTR [rbp-0x3302],0x5
    a528:	c6 85 ff cc ff ff af 	mov    BYTE PTR [rbp-0x3301],0xaf
    a52f:	c6 85 01 cd ff ff 88 	mov    BYTE PTR [rbp-0x32ff],0x88
    a536:	c6 85 02 cd ff ff a2 	mov    BYTE PTR [rbp-0x32fe],0xa2
    a53d:	c6 85 03 cd ff ff 22 	mov    BYTE PTR [rbp-0x32fd],0x22
    a544:	c6 85 04 cd ff ff da 	mov    BYTE PTR [rbp-0x32fc],0xda
    a54b:	c6 85 05 cd ff ff eb 	mov    BYTE PTR [rbp-0x32fb],0xeb
    a552:	c6 85 06 cd ff ff d9 	mov    BYTE PTR [rbp-0x32fa],0xd9
    a559:	c6 85 07 cd ff ff e9 	mov    BYTE PTR [rbp-0x32f9],0xe9
    a560:	c6 85 08 cd ff ff 88 	mov    BYTE PTR [rbp-0x32f8],0x88
    a567:	c6 85 09 cd ff ff a2 	mov    BYTE PTR [rbp-0x32f7],0xa2
    a56e:	c6 85 0a cd ff ff 02 	mov    BYTE PTR [rbp-0x32f6],0x2
    a575:	c6 85 0b cd ff ff 17 	mov    BYTE PTR [rbp-0x32f5],0x17
    a57c:	c6 85 0c cd ff ff d0 	mov    BYTE PTR [rbp-0x32f4],0xd0
    a583:	c6 85 0d cd ff ff a8 	mov    BYTE PTR [rbp-0x32f3],0xa8
    a58a:	c6 85 0e cd ff ff a2 	mov    BYTE PTR [rbp-0x32f2],0xa2
    a591:	c6 85 0f cd ff ff 85 	mov    BYTE PTR [rbp-0x32f1],0x85
    a598:	c6 85 11 cd ff ff a2 	mov    BYTE PTR [rbp-0x32ef],0xa2
    a59f:	c6 85 12 cd ff ff 90 	mov    BYTE PTR [rbp-0x32ee],0x90
    a5a6:	c6 85 13 cd ff ff 06 	mov    BYTE PTR [rbp-0x32ed],0x6
    a5ad:	c6 85 14 cd ff ff db 	mov    BYTE PTR [rbp-0x32ec],0xdb
    a5b4:	c6 85 15 cd ff ff e0 	mov    BYTE PTR [rbp-0x32eb],0xe0
    a5bb:	c6 85 16 cd ff ff f9 	mov    BYTE PTR [rbp-0x32ea],0xf9
    a5c2:	c6 85 17 cd ff ff a3 	mov    BYTE PTR [rbp-0x32e9],0xa3
    a5c9:	c6 85 18 cd ff ff e0 	mov    BYTE PTR [rbp-0x32e8],0xe0
    a5d0:	c6 85 19 cd ff ff fa 	mov    BYTE PTR [rbp-0x32e7],0xfa
    a5d7:	c6 85 1a cd ff ff 60 	mov    BYTE PTR [rbp-0x32e6],0x60
    a5de:	c6 85 1b cd ff ff 01 	mov    BYTE PTR [rbp-0x32e5],0x1
    a5e5:	c6 85 1c cd ff ff 09 	mov    BYTE PTR [rbp-0x32e4],0x9
    a5ec:	c6 85 1d cd ff ff 90 	mov    BYTE PTR [rbp-0x32e3],0x90
    a5f3:	c6 85 1e cd ff ff 06 	mov    BYTE PTR [rbp-0x32e2],0x6
    a5fa:	c6 85 1f cd ff ff d6 	mov    BYTE PTR [rbp-0x32e1],0xd6
    a601:	c6 85 20 cd ff ff e0 	mov    BYTE PTR [rbp-0x32e0],0xe0
    a608:	c6 85 21 cd ff ff fb 	mov    BYTE PTR [rbp-0x32df],0xfb
    a60f:	c6 85 22 cd ff ff a3 	mov    BYTE PTR [rbp-0x32de],0xa3
    a616:	c6 85 23 cd ff ff e0 	mov    BYTE PTR [rbp-0x32dd],0xe0
    a61d:	c6 85 24 cd ff ff f5 	mov    BYTE PTR [rbp-0x32dc],0xf5
    a624:	c6 85 25 cd ff ff 82 	mov    BYTE PTR [rbp-0x32db],0x82
    a62b:	c6 85 26 cd ff ff 8b 	mov    BYTE PTR [rbp-0x32da],0x8b
    a632:	c6 85 27 cd ff ff 83 	mov    BYTE PTR [rbp-0x32d9],0x83
    a639:	c6 85 28 cd ff ff 05 	mov    BYTE PTR [rbp-0x32d8],0x5
    a640:	c6 85 29 cd ff ff a2 	mov    BYTE PTR [rbp-0x32d7],0xa2
    a647:	c6 85 2a cd ff ff 90 	mov    BYTE PTR [rbp-0x32d6],0x90
    a64e:	c6 85 2b cd ff ff 06 	mov    BYTE PTR [rbp-0x32d5],0x6
    a655:	c6 85 2c cd ff ff d9 	mov    BYTE PTR [rbp-0x32d4],0xd9
    a65c:	c6 85 2d cd ff ff e0 	mov    BYTE PTR [rbp-0x32d3],0xe0
    a663:	c6 85 2e cd ff ff fb 	mov    BYTE PTR [rbp-0x32d2],0xfb
    a66a:	c6 85 2f cd ff ff a3 	mov    BYTE PTR [rbp-0x32d1],0xa3
    a671:	c6 85 30 cd ff ff e0 	mov    BYTE PTR [rbp-0x32d0],0xe0
    a678:	c6 85 31 cd ff ff f5 	mov    BYTE PTR [rbp-0x32cf],0xf5
    a67f:	c6 85 32 cd ff ff 84 	mov    BYTE PTR [rbp-0x32ce],0x84
    a686:	c6 85 33 cd ff ff 8b 	mov    BYTE PTR [rbp-0x32cd],0x8b
    a68d:	c6 85 34 cd ff ff 85 	mov    BYTE PTR [rbp-0x32cc],0x85
    a694:	c6 85 35 cd ff ff 05 	mov    BYTE PTR [rbp-0x32cb],0x5
    a69b:	c6 85 36 cd ff ff a2 	mov    BYTE PTR [rbp-0x32ca],0xa2
    a6a2:	c6 85 37 cd ff ff e4 	mov    BYTE PTR [rbp-0x32c9],0xe4
    a6a9:	c6 85 38 cd ff ff 93 	mov    BYTE PTR [rbp-0x32c8],0x93
    a6b0:	c6 85 39 cd ff ff fb 	mov    BYTE PTR [rbp-0x32c7],0xfb
    a6b7:	c6 85 3a cd ff ff a3 	mov    BYTE PTR [rbp-0x32c6],0xa3
    a6be:	c6 85 3b cd ff ff 05 	mov    BYTE PTR [rbp-0x32c5],0x5
    a6c5:	c6 85 3c cd ff ff a2 	mov    BYTE PTR [rbp-0x32c4],0xa2
    a6cc:	c6 85 3d cd ff ff e4 	mov    BYTE PTR [rbp-0x32c3],0xe4
    a6d3:	c6 85 3e cd ff ff 93 	mov    BYTE PTR [rbp-0x32c2],0x93
    a6da:	c6 85 3f cd ff ff a3 	mov    BYTE PTR [rbp-0x32c1],0xa3
    a6e1:	c6 85 40 cd ff ff 05 	mov    BYTE PTR [rbp-0x32c0],0x5
    a6e8:	c6 85 41 cd ff ff a2 	mov    BYTE PTR [rbp-0x32bf],0xa2
    a6ef:	c6 85 42 cd ff ff c3 	mov    BYTE PTR [rbp-0x32be],0xc3
    a6f6:	c6 85 43 cd ff ff 9b 	mov    BYTE PTR [rbp-0x32bd],0x9b
    a6fd:	c6 85 44 cd ff ff 60 	mov    BYTE PTR [rbp-0x32bc],0x60
    a704:	c6 85 45 cd ff ff 05 	mov    BYTE PTR [rbp-0x32bb],0x5
    a70b:	c6 85 46 cd ff ff af 	mov    BYTE PTR [rbp-0x32ba],0xaf
    a712:	c6 85 48 cd ff ff 88 	mov    BYTE PTR [rbp-0x32b8],0x88
    a719:	c6 85 49 cd ff ff a2 	mov    BYTE PTR [rbp-0x32b7],0xa2
    a720:	c6 85 4a cd ff ff 22 	mov    BYTE PTR [rbp-0x32b6],0x22
    a727:	c6 85 4b cd ff ff da 	mov    BYTE PTR [rbp-0x32b5],0xda
    a72e:	c6 85 4c cd ff ff ea 	mov    BYTE PTR [rbp-0x32b4],0xea
    a735:	c6 85 4d cd ff ff d9 	mov    BYTE PTR [rbp-0x32b3],0xd9
    a73c:	c6 85 4e cd ff ff e8 	mov    BYTE PTR [rbp-0x32b2],0xe8
    a743:	c6 85 4f cd ff ff 88 	mov    BYTE PTR [rbp-0x32b1],0x88
    a74a:	c6 85 50 cd ff ff a2 	mov    BYTE PTR [rbp-0x32b0],0xa2
    a751:	c6 85 51 cd ff ff 80 	mov    BYTE PTR [rbp-0x32af],0x80
    a758:	c6 85 52 cd ff ff 02 	mov    BYTE PTR [rbp-0x32ae],0x2
    a75f:	c6 85 53 cd ff ff 80 	mov    BYTE PTR [rbp-0x32ad],0x80
    a766:	c6 85 54 cd ff ff fe 	mov    BYTE PTR [rbp-0x32ac],0xfe
    a76d:	c6 85 55 cd ff ff 7f 	mov    BYTE PTR [rbp-0x32ab],0x7f
    a774:	c6 85 56 cd ff ff 01 	mov    BYTE PTR [rbp-0x32aa],0x1
    a77b:	c6 85 57 cd ff ff 22 	mov    BYTE PTR [rbp-0x32a9],0x22
    a782:	c6 85 58 cd ff ff 12 	mov    BYTE PTR [rbp-0x32a8],0x12
    a789:	c6 85 59 cd ff ff 16 	mov    BYTE PTR [rbp-0x32a7],0x16
    a790:	c6 85 5a cd ff ff 3c 	mov    BYTE PTR [rbp-0x32a6],0x3c
    a797:	c6 85 5b cd ff ff fd 	mov    BYTE PTR [rbp-0x32a5],0xfd
    a79e:	c6 85 5c cd ff ff fc 	mov    BYTE PTR [rbp-0x32a4],0xfc
    a7a5:	c6 85 5d cd ff ff 12 	mov    BYTE PTR [rbp-0x32a3],0x12
    a7ac:	c6 85 5e cd ff ff 16 	mov    BYTE PTR [rbp-0x32a2],0x16
    a7b3:	c6 85 5f cd ff ff 3d 	mov    BYTE PTR [rbp-0x32a1],0x3d
    a7ba:	c6 85 60 cd ff ff 12 	mov    BYTE PTR [rbp-0x32a0],0x12
    a7c1:	c6 85 61 cd ff ff 1d 	mov    BYTE PTR [rbp-0x329f],0x1d
    a7c8:	c6 85 62 cd ff ff df 	mov    BYTE PTR [rbp-0x329e],0xdf
    a7cf:	c6 85 63 cd ff ff 90 	mov    BYTE PTR [rbp-0x329d],0x90
    a7d6:	c6 85 64 cd ff ff 06 	mov    BYTE PTR [rbp-0x329c],0x6
    a7dd:	c6 85 65 cd ff ff bc 	mov    BYTE PTR [rbp-0x329b],0xbc
    a7e4:	c6 85 66 cd ff ff e0 	mov    BYTE PTR [rbp-0x329a],0xe0
    a7eb:	c6 85 67 cd ff ff fa 	mov    BYTE PTR [rbp-0x3299],0xfa
    a7f2:	c6 85 68 cd ff ff a3 	mov    BYTE PTR [rbp-0x3298],0xa3
    a7f9:	c6 85 69 cd ff ff e0 	mov    BYTE PTR [rbp-0x3297],0xe0
    a800:	c6 85 6a cd ff ff 24 	mov    BYTE PTR [rbp-0x3296],0x24
    a807:	c6 85 6b cd ff ff 16 	mov    BYTE PTR [rbp-0x3295],0x16
    a80e:	c6 85 6c cd ff ff f5 	mov    BYTE PTR [rbp-0x3294],0xf5
    a815:	c6 85 6d cd ff ff 82 	mov    BYTE PTR [rbp-0x3293],0x82
    a81c:	c6 85 6e cd ff ff 74 	mov    BYTE PTR [rbp-0x3292],0x74
    a823:	48 8d 95 60 cb ff ff 	lea    rdx,[rbp-0x34a0]
    a82a:	b8 00 00 00 00       	mov    eax,0x0
    a82f:	b9 21 00 00 00       	mov    ecx,0x21
    a834:	48 89 d7             	mov    rdi,rdx
    a837:	f3 48 ab             	rep stos QWORD PTR es:[rdi],rax
    a83a:	48 89 fa             	mov    rdx,rdi
    a83d:	89 02                	mov    DWORD PTR [rdx],eax
    a83f:	48 83 c2 04          	add    rdx,0x4
    a843:	66 89 02             	mov    WORD PTR [rdx],ax
    a846:	48 83 c2 02          	add    rdx,0x2
    a84a:	c6 85 61 cb ff ff 58 	mov    BYTE PTR [rbp-0x349f],0x58
    a851:	c6 85 62 cb ff ff 97 	mov    BYTE PTR [rbp-0x349e],0x97
    a858:	c6 85 63 cb ff ff ea 	mov    BYTE PTR [rbp-0x349d],0xea
    a85f:	c6 85 64 cb ff ff ff 	mov    BYTE PTR [rbp-0x349c],0xff
    a866:	48 8d 95 50 ca ff ff 	lea    rdx,[rbp-0x35b0]
    a86d:	b8 00 00 00 00       	mov    eax,0x0
    a872:	b9 21 00 00 00       	mov    ecx,0x21
    a877:	48 89 d7             	mov    rdi,rdx
    a87a:	f3 48 ab             	rep stos QWORD PTR es:[rdi],rax
    a87d:	48 89 fa             	mov    rdx,rdi
    a880:	89 02                	mov    DWORD PTR [rdx],eax
    a882:	48 83 c2 04          	add    rdx,0x4
    a886:	66 89 02             	mov    WORD PTR [rdx],ax
    a889:	48 83 c2 02          	add    rdx,0x2
    a88d:	c6 85 50 ca ff ff 02 	mov    BYTE PTR [rbp-0x35b0],0x2
    a894:	c6 85 51 ca ff ff 12 	mov    BYTE PTR [rbp-0x35af],0x12
    a89b:	c6 85 52 ca ff ff 15 	mov    BYTE PTR [rbp-0x35ae],0x15
    a8a2:	c6 85 53 ca ff ff da 	mov    BYTE PTR [rbp-0x35ad],0xda
    a8a9:	c6 85 54 ca ff ff c3 	mov    BYTE PTR [rbp-0x35ac],0xc3
    a8b0:	c6 85 55 ca ff ff 90 	mov    BYTE PTR [rbp-0x35ab],0x90
    a8b7:	c6 85 56 ca ff ff 06 	mov    BYTE PTR [rbp-0x35aa],0x6
    a8be:	c6 85 57 ca ff ff bd 	mov    BYTE PTR [rbp-0x35a9],0xbd
    a8c5:	c6 85 58 ca ff ff e0 	mov    BYTE PTR [rbp-0x35a8],0xe0
    a8cc:	c6 85 59 ca ff ff 94 	mov    BYTE PTR [rbp-0x35a7],0x94
    a8d3:	c6 85 5a ca ff ff 30 	mov    BYTE PTR [rbp-0x35a6],0x30
    a8da:	c6 85 5b ca ff ff 90 	mov    BYTE PTR [rbp-0x35a5],0x90
    a8e1:	c6 85 5c ca ff ff 06 	mov    BYTE PTR [rbp-0x35a4],0x6
    a8e8:	c6 85 5d ca ff ff bc 	mov    BYTE PTR [rbp-0x35a3],0xbc
    a8ef:	c6 85 5e ca ff ff e0 	mov    BYTE PTR [rbp-0x35a2],0xe0
    a8f6:	c6 85 5f ca ff ff 64 	mov    BYTE PTR [rbp-0x35a1],0x64
    a8fd:	c6 85 60 ca ff ff 80 	mov    BYTE PTR [rbp-0x35a0],0x80
    a904:	c6 85 61 ca ff ff 94 	mov    BYTE PTR [rbp-0x359f],0x94
    a90b:	c6 85 62 ca ff ff 80 	mov    BYTE PTR [rbp-0x359e],0x80
    a912:	c6 85 63 ca ff ff 40 	mov    BYTE PTR [rbp-0x359d],0x40
    a919:	c6 85 64 ca ff ff dc 	mov    BYTE PTR [rbp-0x359c],0xdc
    a920:	c6 85 65 ca ff ff 90 	mov    BYTE PTR [rbp-0x359b],0x90
    a927:	c6 85 67 ca ff ff 10 	mov    BYTE PTR [rbp-0x3599],0x10
    a92e:	c6 85 68 ca ff ff e0 	mov    BYTE PTR [rbp-0x3598],0xe0
    a935:	c6 85 69 ca ff ff ff 	mov    BYTE PTR [rbp-0x3597],0xff
    a93c:	c6 85 6a ca ff ff 7e 	mov    BYTE PTR [rbp-0x3596],0x7e
    a943:	c6 85 6c ca ff ff 64 	mov    BYTE PTR [rbp-0x3594],0x64
    a94a:	c6 85 6d ca ff ff 80 	mov    BYTE PTR [rbp-0x3593],0x80
    a951:	c6 85 6e ca ff ff 70 	mov    BYTE PTR [rbp-0x3592],0x70
    a958:	c6 85 6f ca ff ff 05 	mov    BYTE PTR [rbp-0x3591],0x5
    a95f:	c6 85 70 ca ff ff fc 	mov    BYTE PTR [rbp-0x3590],0xfc
    a966:	c6 85 71 ca ff ff 7d 	mov    BYTE PTR [rbp-0x358f],0x7d
    a96d:	c6 85 72 ca ff ff 20 	mov    BYTE PTR [rbp-0x358e],0x20
    a974:	c6 85 73 ca ff ff 80 	mov    BYTE PTR [rbp-0x358d],0x80
    a97b:	c6 85 74 ca ff ff 14 	mov    BYTE PTR [rbp-0x358c],0x14
    a982:	c6 85 75 ca ff ff ef 	mov    BYTE PTR [rbp-0x358b],0xef
    a989:	c6 85 76 ca ff ff 64 	mov    BYTE PTR [rbp-0x358a],0x64
    a990:	c6 85 77 ca ff ff 81 	mov    BYTE PTR [rbp-0x3589],0x81
    a997:	c6 85 78 ca ff ff 4e 	mov    BYTE PTR [rbp-0x3588],0x4e
    a99e:	c6 85 79 ca ff ff 70 	mov    BYTE PTR [rbp-0x3587],0x70
    a9a5:	c6 85 7a ca ff ff 05 	mov    BYTE PTR [rbp-0x3586],0x5
    a9ac:	c6 85 7b ca ff ff fc 	mov    BYTE PTR [rbp-0x3585],0xfc
    a9b3:	c6 85 7c ca ff ff 7d 	mov    BYTE PTR [rbp-0x3584],0x7d
    a9ba:	c6 85 7d ca ff ff 30 	mov    BYTE PTR [rbp-0x3583],0x30
    a9c1:	c6 85 7e ca ff ff 80 	mov    BYTE PTR [rbp-0x3582],0x80
    a9c8:	c6 85 7f ca ff ff 09 	mov    BYTE PTR [rbp-0x3581],0x9
    a9cf:	c6 85 80 ca ff ff ef 	mov    BYTE PTR [rbp-0x3580],0xef
    a9d6:	c6 85 81 ca ff ff 64 	mov    BYTE PTR [rbp-0x357f],0x64
    a9dd:	c6 85 82 ca ff ff 82 	mov    BYTE PTR [rbp-0x357e],0x82
    a9e4:	c6 85 83 ca ff ff 4e 	mov    BYTE PTR [rbp-0x357d],0x4e
    a9eb:	c6 85 84 ca ff ff 70 	mov    BYTE PTR [rbp-0x357c],0x70
    a9f2:	c6 85 85 ca ff ff 03 	mov    BYTE PTR [rbp-0x357b],0x3
    a9f9:	c6 85 86 ca ff ff fc 	mov    BYTE PTR [rbp-0x357a],0xfc
    aa00:	c6 85 87 ca ff ff 7d 	mov    BYTE PTR [rbp-0x3579],0x7d
    aa07:	c6 85 88 ca ff ff 40 	mov    BYTE PTR [rbp-0x3578],0x40
    aa0e:	c6 85 89 ca ff ff 12 	mov    BYTE PTR [rbp-0x3577],0x12
    aa15:	c6 85 8a ca ff ff 16 	mov    BYTE PTR [rbp-0x3576],0x16
    aa1c:	c6 85 8b ca ff ff 3c 	mov    BYTE PTR [rbp-0x3575],0x3c
    aa23:	c6 85 8c ca ff ff 12 	mov    BYTE PTR [rbp-0x3574],0x12
    aa2a:	c6 85 8d ca ff ff 16 	mov    BYTE PTR [rbp-0x3573],0x16
    aa31:	c6 85 8e ca ff ff 59 	mov    BYTE PTR [rbp-0x3572],0x59
    aa38:	c6 85 8f ca ff ff ff 	mov    BYTE PTR [rbp-0x3571],0xff
    aa3f:	c6 85 90 ca ff ff c3 	mov    BYTE PTR [rbp-0x3570],0xc3
    aa46:	c6 85 91 ca ff ff 94 	mov    BYTE PTR [rbp-0x356f],0x94
    aa4d:	c6 85 92 ca ff ff 10 	mov    BYTE PTR [rbp-0x356e],0x10
    aa54:	c6 85 93 ca ff ff ee 	mov    BYTE PTR [rbp-0x356d],0xee
    aa5b:	c6 85 94 ca ff ff 64 	mov    BYTE PTR [rbp-0x356c],0x64
    aa62:	c6 85 95 ca ff ff 80 	mov    BYTE PTR [rbp-0x356b],0x80
    aa69:	c6 85 96 ca ff ff 94 	mov    BYTE PTR [rbp-0x356a],0x94
    aa70:	c6 85 97 ca ff ff 80 	mov    BYTE PTR [rbp-0x3569],0x80
    aa77:	c6 85 98 ca ff ff 50 	mov    BYTE PTR [rbp-0x3568],0x50
    aa7e:	c6 85 99 ca ff ff 24 	mov    BYTE PTR [rbp-0x3567],0x24
    aa85:	c6 85 9a ca ff ff ef 	mov    BYTE PTR [rbp-0x3566],0xef
    aa8c:	c6 85 9b ca ff ff 2d 	mov    BYTE PTR [rbp-0x3565],0x2d
    aa93:	c6 85 9c ca ff ff ff 	mov    BYTE PTR [rbp-0x3564],0xff
    aa9a:	c6 85 9d ca ff ff ee 	mov    BYTE PTR [rbp-0x3563],0xee
    aaa1:	c6 85 9e ca ff ff 3c 	mov    BYTE PTR [rbp-0x3562],0x3c
    aaa8:	c6 85 9f ca ff ff fe 	mov    BYTE PTR [rbp-0x3561],0xfe
    aaaf:	c6 85 a0 ca ff ff 74 	mov    BYTE PTR [rbp-0x3560],0x74
    aab6:	c6 85 a1 ca ff ff 48 	mov    BYTE PTR [rbp-0x355f],0x48
    aabd:	c6 85 a2 ca ff ff 2f 	mov    BYTE PTR [rbp-0x355e],0x2f
    aac4:	c6 85 a3 ca ff ff f5 	mov    BYTE PTR [rbp-0x355d],0xf5
    aacb:	c6 85 a4 ca ff ff 82 	mov    BYTE PTR [rbp-0x355c],0x82
    aad2:	c6 85 a5 ca ff ff 74 	mov    BYTE PTR [rbp-0x355b],0x74
    aad9:	c6 85 a6 ca ff ff 04 	mov    BYTE PTR [rbp-0x355a],0x4
    aae0:	c6 85 a7 ca ff ff 3e 	mov    BYTE PTR [rbp-0x3559],0x3e
    aae7:	c6 85 a8 ca ff ff f5 	mov    BYTE PTR [rbp-0x3558],0xf5
    aaee:	c6 85 a9 ca ff ff 83 	mov    BYTE PTR [rbp-0x3557],0x83
    aaf5:	c6 85 aa ca ff ff e0 	mov    BYTE PTR [rbp-0x3556],0xe0
    aafc:	c6 85 ab ca ff ff ff 	mov    BYTE PTR [rbp-0x3555],0xff
    ab03:	c6 85 ac ca ff ff 90 	mov    BYTE PTR [rbp-0x3554],0x90
    ab0a:	c6 85 ad ca ff ff 06 	mov    BYTE PTR [rbp-0x3553],0x6
    ab11:	c6 85 ae ca ff ff bc 	mov    BYTE PTR [rbp-0x3552],0xbc
    ab18:	c6 85 af ca ff ff e0 	mov    BYTE PTR [rbp-0x3551],0xe0
    ab1f:	c6 85 b0 ca ff ff fa 	mov    BYTE PTR [rbp-0x3550],0xfa
    ab26:	c6 85 b1 ca ff ff a3 	mov    BYTE PTR [rbp-0x354f],0xa3
    ab2d:	c6 85 b2 ca ff ff e0 	mov    BYTE PTR [rbp-0x354e],0xe0
    ab34:	c6 85 b3 ca ff ff 24 	mov    BYTE PTR [rbp-0x354d],0x24
    ab3b:	c6 85 b4 ca ff ff 12 	mov    BYTE PTR [rbp-0x354c],0x12
    ab42:	c6 85 b5 ca ff ff f5 	mov    BYTE PTR [rbp-0x354b],0xf5
    ab49:	c6 85 b6 ca ff ff 82 	mov    BYTE PTR [rbp-0x354a],0x82
    ab50:	c6 85 b7 ca ff ff 74 	mov    BYTE PTR [rbp-0x3549],0x74
    ab57:	c6 85 b9 ca ff ff 12 	mov    BYTE PTR [rbp-0x3547],0x12
    ab5e:	c6 85 ba ca ff ff 15 	mov    BYTE PTR [rbp-0x3546],0x15
    ab65:	c6 85 bb ca ff ff da 	mov    BYTE PTR [rbp-0x3545],0xda
    ab6c:	c6 85 bc ca ff ff 80 	mov    BYTE PTR [rbp-0x3544],0x80
    ab73:	c6 85 bd ca ff ff ce 	mov    BYTE PTR [rbp-0x3543],0xce
    ab7a:	c6 85 be ca ff ff 12 	mov    BYTE PTR [rbp-0x3542],0x12
    ab81:	c6 85 bf ca ff ff 16 	mov    BYTE PTR [rbp-0x3541],0x16
    ab88:	c6 85 c0 ca ff ff 3c 	mov    BYTE PTR [rbp-0x3540],0x3c
    ab8f:	c6 85 c1 ca ff ff e4 	mov    BYTE PTR [rbp-0x353f],0xe4
    ab96:	c6 85 c2 ca ff ff fc 	mov    BYTE PTR [rbp-0x353e],0xfc
    ab9d:	c6 85 c3 ca ff ff fd 	mov    BYTE PTR [rbp-0x353d],0xfd
    aba4:	c6 85 c4 ca ff ff 12 	mov    BYTE PTR [rbp-0x353c],0x12
    abab:	c6 85 c5 ca ff ff 16 	mov    BYTE PTR [rbp-0x353b],0x16
    abb2:	c6 85 c6 ca ff ff 59 	mov    BYTE PTR [rbp-0x353a],0x59
    abb9:	c6 85 c7 ca ff ff 78 	mov    BYTE PTR [rbp-0x3539],0x78
    abc0:	c6 85 c8 ca ff ff 03 	mov    BYTE PTR [rbp-0x3538],0x3
    abc7:	c6 85 c9 ca ff ff c3 	mov    BYTE PTR [rbp-0x3537],0xc3
    abce:	c6 85 ca ca ff ff 33 	mov    BYTE PTR [rbp-0x3536],0x33
    abd5:	c6 85 cb ca ff ff ce 	mov    BYTE PTR [rbp-0x3535],0xce
    abdc:	c6 85 cc ca ff ff 33 	mov    BYTE PTR [rbp-0x3534],0x33
    abe3:	c6 85 cd ca ff ff ce 	mov    BYTE PTR [rbp-0x3533],0xce
    abea:	c6 85 ce ca ff ff d8 	mov    BYTE PTR [rbp-0x3532],0xd8
    abf1:	c6 85 cf ca ff ff f9 	mov    BYTE PTR [rbp-0x3531],0xf9
    abf8:	c6 85 d0 ca ff ff 12 	mov    BYTE PTR [rbp-0x3530],0x12
    abff:	c6 85 d1 ca ff ff 16 	mov    BYTE PTR [rbp-0x352f],0x16
    ac06:	c6 85 d2 ca ff ff 12 	mov    BYTE PTR [rbp-0x352e],0x12
    ac0d:	c6 85 d3 ca ff ff e0 	mov    BYTE PTR [rbp-0x352d],0xe0
    ac14:	c6 85 d4 ca ff ff ff 	mov    BYTE PTR [rbp-0x352c],0xff
    ac1b:	c6 85 d5 ca ff ff 12 	mov    BYTE PTR [rbp-0x352b],0x12
    ac22:	c6 85 d6 ca ff ff 16 	mov    BYTE PTR [rbp-0x352a],0x16
    ac29:	c6 85 d7 ca ff ff 69 	mov    BYTE PTR [rbp-0x3529],0x69
    ac30:	c6 85 d8 ca ff ff ef 	mov    BYTE PTR [rbp-0x3528],0xef
    ac37:	c6 85 d9 ca ff ff f0 	mov    BYTE PTR [rbp-0x3527],0xf0
    ac3e:	c6 85 da ca ff ff 0d 	mov    BYTE PTR [rbp-0x3526],0xd
    ac45:	c6 85 db ca ff ff bd 	mov    BYTE PTR [rbp-0x3525],0xbd
    ac4c:	c6 85 dd ca ff ff 01 	mov    BYTE PTR [rbp-0x3523],0x1
    ac53:	c6 85 de ca ff ff 0c 	mov    BYTE PTR [rbp-0x3522],0xc
    ac5a:	c6 85 df ca ff ff ed 	mov    BYTE PTR [rbp-0x3521],0xed
    ac61:	c6 85 e0 ca ff ff 64 	mov    BYTE PTR [rbp-0x3520],0x64
    ac68:	c6 85 e1 ca ff ff 08 	mov    BYTE PTR [rbp-0x351f],0x8
    ac6f:	c6 85 e2 ca ff ff 4c 	mov    BYTE PTR [rbp-0x351e],0x4c
    ac76:	c6 85 e3 ca ff ff 70 	mov    BYTE PTR [rbp-0x351d],0x70
    ac7d:	c6 85 e4 ca ff ff df 	mov    BYTE PTR [rbp-0x351c],0xdf
    ac84:	c6 85 e5 ca ff ff 12 	mov    BYTE PTR [rbp-0x351b],0x12
    ac8b:	c6 85 e6 ca ff ff 16 	mov    BYTE PTR [rbp-0x351a],0x16
    ac92:	c6 85 e7 ca ff ff 22 	mov    BYTE PTR [rbp-0x3519],0x22
    ac99:	c6 85 e8 ca ff ff 7d 	mov    BYTE PTR [rbp-0x3518],0x7d
    aca0:	c6 85 e9 ca ff ff 01 	mov    BYTE PTR [rbp-0x3517],0x1
    aca7:	c6 85 ea ca ff ff 7f 	mov    BYTE PTR [rbp-0x3516],0x7f
    acae:	c6 85 eb ca ff ff 01 	mov    BYTE PTR [rbp-0x3515],0x1
    acb5:	c6 85 ec ca ff ff 12 	mov    BYTE PTR [rbp-0x3514],0x12
    acbc:	c6 85 ed ca ff ff 11 	mov    BYTE PTR [rbp-0x3513],0x11
    acc3:	c6 85 ee ca ff ff e5 	mov    BYTE PTR [rbp-0x3512],0xe5
    acca:	c6 85 ef ca ff ff 12 	mov    BYTE PTR [rbp-0x3511],0x12
    acd1:	c6 85 f0 ca ff ff 16 	mov    BYTE PTR [rbp-0x3510],0x16
    acd8:	c6 85 f1 ca ff ff 22 	mov    BYTE PTR [rbp-0x350f],0x22
    acdf:	c6 85 f2 ca ff ff 7d 	mov    BYTE PTR [rbp-0x350e],0x7d
    ace6:	c6 85 f3 ca ff ff 10 	mov    BYTE PTR [rbp-0x350d],0x10
    aced:	c6 85 f4 ca ff ff 7f 	mov    BYTE PTR [rbp-0x350c],0x7f
    acf4:	c6 85 f5 ca ff ff 01 	mov    BYTE PTR [rbp-0x350b],0x1
    acfb:	c6 85 f6 ca ff ff 12 	mov    BYTE PTR [rbp-0x350a],0x12
    ad02:	c6 85 f7 ca ff ff 11 	mov    BYTE PTR [rbp-0x3509],0x11
    ad09:	c6 85 f8 ca ff ff e5 	mov    BYTE PTR [rbp-0x3508],0xe5
    ad10:	c6 85 f9 ca ff ff e4 	mov    BYTE PTR [rbp-0x3507],0xe4
    ad17:	c6 85 fa ca ff ff fc 	mov    BYTE PTR [rbp-0x3506],0xfc
    ad1e:	c6 85 fb ca ff ff fd 	mov    BYTE PTR [rbp-0x3505],0xfd
    ad25:	c6 85 fc ca ff ff 12 	mov    BYTE PTR [rbp-0x3504],0x12
    ad2c:	c6 85 fd ca ff ff 16 	mov    BYTE PTR [rbp-0x3503],0x16
    ad33:	c6 85 fe ca ff ff 69 	mov    BYTE PTR [rbp-0x3502],0x69
    ad3a:	c6 85 ff ca ff ff e0 	mov    BYTE PTR [rbp-0x3501],0xe0
    ad41:	c6 85 00 cb ff ff fb 	mov    BYTE PTR [rbp-0x3500],0xfb
    ad48:	c6 85 01 cb ff ff 12 	mov    BYTE PTR [rbp-0x34ff],0x12
    ad4f:	c6 85 02 cb ff ff 16 	mov    BYTE PTR [rbp-0x34fe],0x16
    ad56:	c6 85 03 cb ff ff 59 	mov    BYTE PTR [rbp-0x34fd],0x59
    ad5d:	c6 85 04 cb ff ff 78 	mov    BYTE PTR [rbp-0x34fc],0x78
    ad64:	c6 85 05 cb ff ff 03 	mov    BYTE PTR [rbp-0x34fb],0x3
    ad6b:	c6 85 06 cb ff ff c3 	mov    BYTE PTR [rbp-0x34fa],0xc3
    ad72:	c6 85 07 cb ff ff 33 	mov    BYTE PTR [rbp-0x34f9],0x33
    ad79:	c6 85 08 cb ff ff ce 	mov    BYTE PTR [rbp-0x34f8],0xce
    ad80:	c6 85 09 cb ff ff 33 	mov    BYTE PTR [rbp-0x34f7],0x33
    ad87:	c6 85 0a cb ff ff ce 	mov    BYTE PTR [rbp-0x34f6],0xce
    ad8e:	c6 85 0b cb ff ff d8 	mov    BYTE PTR [rbp-0x34f5],0xd8
    ad95:	c6 85 0c cb ff ff f9 	mov    BYTE PTR [rbp-0x34f4],0xf9
    ad9c:	c6 85 0d cb ff ff 12 	mov    BYTE PTR [rbp-0x34f3],0x12
    ada3:	c6 85 0e cb ff ff 16 	mov    BYTE PTR [rbp-0x34f2],0x16
    adaa:	c6 85 0f cb ff ff 12 	mov    BYTE PTR [rbp-0x34f1],0x12
    adb1:	c6 85 10 cb ff ff eb 	mov    BYTE PTR [rbp-0x34f0],0xeb
    adb8:	c6 85 11 cb ff ff f0 	mov    BYTE PTR [rbp-0x34ef],0xf0
    adbf:	c6 85 12 cb ff ff 0d 	mov    BYTE PTR [rbp-0x34ee],0xd
    adc6:	c6 85 13 cb ff ff bd 	mov    BYTE PTR [rbp-0x34ed],0xbd
    adcd:	c6 85 15 cb ff ff 01 	mov    BYTE PTR [rbp-0x34eb],0x1
    add4:	c6 85 16 cb ff ff 0c 	mov    BYTE PTR [rbp-0x34ea],0xc
    addb:	c6 85 17 cb ff ff ed 	mov    BYTE PTR [rbp-0x34e9],0xed
    ade2:	c6 85 18 cb ff ff 64 	mov    BYTE PTR [rbp-0x34e8],0x64
    ade9:	c6 85 19 cb ff ff 08 	mov    BYTE PTR [rbp-0x34e7],0x8
    adf0:	c6 85 1a cb ff ff 4c 	mov    BYTE PTR [rbp-0x34e6],0x4c
    adf7:	c6 85 1b cb ff ff 70 	mov    BYTE PTR [rbp-0x34e5],0x70
    adfe:	c6 85 1c cb ff ff df 	mov    BYTE PTR [rbp-0x34e4],0xdf
    ae05:	c6 85 1d cb ff ff 12 	mov    BYTE PTR [rbp-0x34e3],0x12
    ae0c:	c6 85 1e cb ff ff 15 	mov    BYTE PTR [rbp-0x34e2],0x15
    ae13:	c6 85 1f cb ff ff df 	mov    BYTE PTR [rbp-0x34e1],0xdf
    ae1a:	c6 85 20 cb ff ff c3 	mov    BYTE PTR [rbp-0x34e0],0xc3
    ae21:	c6 85 21 cb ff ff 90 	mov    BYTE PTR [rbp-0x34df],0x90
    ae28:	c6 85 22 cb ff ff 06 	mov    BYTE PTR [rbp-0x34de],0x6
    ae2f:	c6 85 23 cb ff ff bd 	mov    BYTE PTR [rbp-0x34dd],0xbd
    ae36:	c6 85 24 cb ff ff e0 	mov    BYTE PTR [rbp-0x34dc],0xe0
    ae3d:	c6 85 25 cb ff ff 94 	mov    BYTE PTR [rbp-0x34db],0x94
    ae44:	c6 85 26 cb ff ff 06 	mov    BYTE PTR [rbp-0x34da],0x6
    ae4b:	c6 85 27 cb ff ff 90 	mov    BYTE PTR [rbp-0x34d9],0x90
    ae52:	c6 85 28 cb ff ff 06 	mov    BYTE PTR [rbp-0x34d8],0x6
    ae59:	c6 85 29 cb ff ff bc 	mov    BYTE PTR [rbp-0x34d7],0xbc
    ae60:	c6 85 2a cb ff ff e0 	mov    BYTE PTR [rbp-0x34d6],0xe0
    ae67:	c6 85 2b cb ff ff 64 	mov    BYTE PTR [rbp-0x34d5],0x64
    ae6e:	c6 85 2c cb ff ff 80 	mov    BYTE PTR [rbp-0x34d4],0x80
    ae75:	c6 85 2d cb ff ff 94 	mov    BYTE PTR [rbp-0x34d3],0x94
    ae7c:	c6 85 2e cb ff ff 80 	mov    BYTE PTR [rbp-0x34d2],0x80
    ae83:	c6 85 2f cb ff ff 40 	mov    BYTE PTR [rbp-0x34d1],0x40
    ae8a:	c6 85 30 cb ff ff 90 	mov    BYTE PTR [rbp-0x34d0],0x90
    ae91:	c6 85 31 cb ff ff 22 	mov    BYTE PTR [rbp-0x34cf],0x22
    ae98:	c6 85 32 cb ff ff 90 	mov    BYTE PTR [rbp-0x34ce],0x90
    ae9f:	c6 85 33 cb ff ff 06 	mov    BYTE PTR [rbp-0x34cd],0x6
    aea6:	c6 85 34 cb ff ff a8 	mov    BYTE PTR [rbp-0x34cc],0xa8
    aead:	c6 85 35 cb ff ff e0 	mov    BYTE PTR [rbp-0x34cb],0xe0
    aeb4:	c6 85 36 cb ff ff fe 	mov    BYTE PTR [rbp-0x34ca],0xfe
    aebb:	c6 85 37 cb ff ff a3 	mov    BYTE PTR [rbp-0x34c9],0xa3
    aec2:	c6 85 38 cb ff ff e0 	mov    BYTE PTR [rbp-0x34c8],0xe0
    aec9:	c6 85 39 cb ff ff 24 	mov    BYTE PTR [rbp-0x34c7],0x24
    aed0:	c6 85 3a cb ff ff 12 	mov    BYTE PTR [rbp-0x34c6],0x12
    aed7:	c6 85 3b cb ff ff f5 	mov    BYTE PTR [rbp-0x34c5],0xf5
    aede:	c6 85 3c cb ff ff 82 	mov    BYTE PTR [rbp-0x34c4],0x82
    aee5:	c6 85 3d cb ff ff 74 	mov    BYTE PTR [rbp-0x34c3],0x74
    aeec:	c6 85 3f cb ff ff 3e 	mov    BYTE PTR [rbp-0x34c1],0x3e
    aef3:	c6 85 40 cb ff ff f5 	mov    BYTE PTR [rbp-0x34c0],0xf5
    aefa:	c6 85 41 cb ff ff 83 	mov    BYTE PTR [rbp-0x34bf],0x83
    af01:	c6 85 42 cb ff ff e0 	mov    BYTE PTR [rbp-0x34be],0xe0
    af08:	c6 85 43 cb ff ff 22 	mov    BYTE PTR [rbp-0x34bd],0x22
    af0f:	c6 85 44 cb ff ff f0 	mov    BYTE PTR [rbp-0x34bc],0xf0
    af16:	c6 85 45 cb ff ff a3 	mov    BYTE PTR [rbp-0x34bb],0xa3
    af1d:	c6 85 46 cb ff ff 74 	mov    BYTE PTR [rbp-0x34ba],0x74
    af24:	c6 85 47 cb ff ff 23 	mov    BYTE PTR [rbp-0x34b9],0x23
    af2b:	c6 85 48 cb ff ff f0 	mov    BYTE PTR [rbp-0x34b8],0xf0
    af32:	c6 85 49 cb ff ff 74 	mov    BYTE PTR [rbp-0x34b7],0x74
    af39:	c6 85 4a cb ff ff 07 	mov    BYTE PTR [rbp-0x34b6],0x7
    af40:	c6 85 4b cb ff ff a3 	mov    BYTE PTR [rbp-0x34b5],0xa3
    af47:	c6 85 4c cb ff ff f0 	mov    BYTE PTR [rbp-0x34b4],0xf0
    af4e:	c6 85 4d cb ff ff e4 	mov    BYTE PTR [rbp-0x34b3],0xe4
    af55:	c6 85 4e cb ff ff a3 	mov    BYTE PTR [rbp-0x34b2],0xa3
    af5c:	48 8d 95 40 c9 ff ff 	lea    rdx,[rbp-0x36c0]
    af63:	b8 00 00 00 00       	mov    eax,0x0
    af68:	b9 21 00 00 00       	mov    ecx,0x21
    af6d:	48 89 d7             	mov    rdi,rdx
    af70:	f3 48 ab             	rep stos QWORD PTR es:[rdi],rax
    af73:	48 89 fa             	mov    rdx,rdi
    af76:	89 02                	mov    DWORD PTR [rdx],eax
    af78:	48 83 c2 04          	add    rdx,0x4
    af7c:	66 89 02             	mov    WORD PTR [rdx],ax
    af7f:	48 83 c2 02          	add    rdx,0x2
    af83:	c6 85 41 c9 ff ff 58 	mov    BYTE PTR [rbp-0x36bf],0x58
    af8a:	c6 85 42 c9 ff ff 98 	mov    BYTE PTR [rbp-0x36be],0x98
    af91:	c6 85 43 c9 ff ff e9 	mov    BYTE PTR [rbp-0x36bd],0xe9
    af98:	c6 85 44 c9 ff ff ff 	mov    BYTE PTR [rbp-0x36bc],0xff
    af9f:	48 8d 95 30 c8 ff ff 	lea    rdx,[rbp-0x37d0]
    afa6:	b8 00 00 00 00       	mov    eax,0x0
    afab:	b9 21 00 00 00       	mov    ecx,0x21
    afb0:	48 89 d7             	mov    rdi,rdx
    afb3:	f3 48 ab             	rep stos QWORD PTR es:[rdi],rax
    afb6:	48 89 fa             	mov    rdx,rdi
    afb9:	89 02                	mov    DWORD PTR [rdx],eax
    afbb:	48 83 c2 04          	add    rdx,0x4
    afbf:	66 89 02             	mov    WORD PTR [rdx],ax
    afc2:	48 83 c2 02          	add    rdx,0x2
    afc6:	c6 85 30 c8 ff ff f0 	mov    BYTE PTR [rbp-0x37d0],0xf0
    afcd:	c6 85 31 c8 ff ff a3 	mov    BYTE PTR [rbp-0x37cf],0xa3
    afd4:	c6 85 32 c8 ff ff f0 	mov    BYTE PTR [rbp-0x37ce],0xf0
    afdb:	c6 85 33 c8 ff ff a3 	mov    BYTE PTR [rbp-0x37cd],0xa3
    afe2:	c6 85 34 c8 ff ff f0 	mov    BYTE PTR [rbp-0x37cc],0xf0
    afe9:	c6 85 35 c8 ff ff 22 	mov    BYTE PTR [rbp-0x37cb],0x22
    aff0:	c6 85 36 c8 ff ff f0 	mov    BYTE PTR [rbp-0x37ca],0xf0
    aff7:	c6 85 37 c8 ff ff a3 	mov    BYTE PTR [rbp-0x37c9],0xa3
    affe:	c6 85 38 c8 ff ff 74 	mov    BYTE PTR [rbp-0x37c8],0x74
    b005:	c6 85 39 c8 ff ff 30 	mov    BYTE PTR [rbp-0x37c7],0x30
    b00c:	c6 85 3a c8 ff ff f0 	mov    BYTE PTR [rbp-0x37c6],0xf0
    b013:	c6 85 3b c8 ff ff a3 	mov    BYTE PTR [rbp-0x37c5],0xa3
    b01a:	c6 85 3c c8 ff ff 74 	mov    BYTE PTR [rbp-0x37c4],0x74
    b021:	c6 85 3d c8 ff ff 02 	mov    BYTE PTR [rbp-0x37c3],0x2
    b028:	c6 85 3e c8 ff ff f0 	mov    BYTE PTR [rbp-0x37c2],0xf0
    b02f:	c6 85 3f c8 ff ff 22 	mov    BYTE PTR [rbp-0x37c1],0x22
    b036:	c6 85 40 c8 ff ff e0 	mov    BYTE PTR [rbp-0x37c0],0xe0
    b03d:	c6 85 41 c8 ff ff 24 	mov    BYTE PTR [rbp-0x37bf],0x24
    b044:	c6 85 42 c8 ff ff 16 	mov    BYTE PTR [rbp-0x37be],0x16
    b04b:	c6 85 43 c8 ff ff f5 	mov    BYTE PTR [rbp-0x37bd],0xf5
    b052:	c6 85 44 c8 ff ff 82 	mov    BYTE PTR [rbp-0x37bc],0x82
    b059:	c6 85 45 c8 ff ff e4 	mov    BYTE PTR [rbp-0x37bb],0xe4
    b060:	c6 85 46 c8 ff ff 34 	mov    BYTE PTR [rbp-0x37ba],0x34
    b067:	c6 85 47 c8 ff ff 02 	mov    BYTE PTR [rbp-0x37b9],0x2
    b06e:	c6 85 48 c8 ff ff f5 	mov    BYTE PTR [rbp-0x37b8],0xf5
    b075:	c6 85 49 c8 ff ff 83 	mov    BYTE PTR [rbp-0x37b7],0x83
    b07c:	c6 85 4a c8 ff ff e0 	mov    BYTE PTR [rbp-0x37b6],0xe0
    b083:	c6 85 4b c8 ff ff ff 	mov    BYTE PTR [rbp-0x37b5],0xff
    b08a:	c6 85 4c c8 ff ff 90 	mov    BYTE PTR [rbp-0x37b4],0x90
    b091:	c6 85 4d c8 ff ff 02 	mov    BYTE PTR [rbp-0x37b3],0x2
    b098:	c6 85 4e c8 ff ff 07 	mov    BYTE PTR [rbp-0x37b2],0x7
    b09f:	c6 85 4f c8 ff ff e0 	mov    BYTE PTR [rbp-0x37b1],0xe0
    b0a6:	c6 85 50 c8 ff ff 2f 	mov    BYTE PTR [rbp-0x37b0],0x2f
    b0ad:	c6 85 51 c8 ff ff f0 	mov    BYTE PTR [rbp-0x37af],0xf0
    b0b4:	c6 85 52 c8 ff ff 90 	mov    BYTE PTR [rbp-0x37ae],0x90
    b0bb:	c6 85 53 c8 ff ff 02 	mov    BYTE PTR [rbp-0x37ad],0x2
    b0c2:	c6 85 54 c8 ff ff 06 	mov    BYTE PTR [rbp-0x37ac],0x6
    b0c9:	c6 85 55 c8 ff ff e0 	mov    BYTE PTR [rbp-0x37ab],0xe0
    b0d0:	c6 85 56 c8 ff ff 04 	mov    BYTE PTR [rbp-0x37aa],0x4
    b0d7:	c6 85 57 c8 ff ff f0 	mov    BYTE PTR [rbp-0x37a9],0xf0
    b0de:	c6 85 58 c8 ff ff 22 	mov    BYTE PTR [rbp-0x37a8],0x22
    b0e5:	c6 85 59 c8 ff ff ff 	mov    BYTE PTR [rbp-0x37a7],0xff
    b0ec:	c6 85 5a c8 ff ff e0 	mov    BYTE PTR [rbp-0x37a6],0xe0
    b0f3:	c6 85 5b c8 ff ff 5f 	mov    BYTE PTR [rbp-0x37a5],0x5f
    b0fa:	c6 85 5c c8 ff ff 94 	mov    BYTE PTR [rbp-0x37a4],0x94
    b101:	c6 85 5e c8 ff ff 74 	mov    BYTE PTR [rbp-0x37a2],0x74
    b108:	c6 85 5f c8 ff ff 80 	mov    BYTE PTR [rbp-0x37a1],0x80
    b10f:	c6 85 60 c8 ff ff 94 	mov    BYTE PTR [rbp-0x37a0],0x94
    b116:	c6 85 61 c8 ff ff 80 	mov    BYTE PTR [rbp-0x379f],0x80
    b11d:	c6 85 62 c8 ff ff 22 	mov    BYTE PTR [rbp-0x379e],0x22
    b124:	c6 85 63 c8 ff ff 90 	mov    BYTE PTR [rbp-0x379d],0x90
    b12b:	c6 85 64 c8 ff ff 06 	mov    BYTE PTR [rbp-0x379c],0x6
    b132:	c6 85 65 c8 ff ff c2 	mov    BYTE PTR [rbp-0x379b],0xc2
    b139:	c6 85 66 c8 ff ff 74 	mov    BYTE PTR [rbp-0x379a],0x74
    b140:	c6 85 67 c8 ff ff ff 	mov    BYTE PTR [rbp-0x3799],0xff
    b147:	c6 85 68 c8 ff ff 7b 	mov    BYTE PTR [rbp-0x3798],0x7b
    b14e:	c6 85 69 c8 ff ff 01 	mov    BYTE PTR [rbp-0x3797],0x1
    b155:	c6 85 6a c8 ff ff 7a 	mov    BYTE PTR [rbp-0x3796],0x7a
    b15c:	c6 85 6b c8 ff ff 04 	mov    BYTE PTR [rbp-0x3795],0x4
    b163:	c6 85 6c c8 ff ff 79 	mov    BYTE PTR [rbp-0x3794],0x79
    b16a:	c6 85 6d c8 ff ff 48 	mov    BYTE PTR [rbp-0x3793],0x48
    b171:	c6 85 6e c8 ff ff f0 	mov    BYTE PTR [rbp-0x3792],0xf0
    b178:	c6 85 6f c8 ff ff 22 	mov    BYTE PTR [rbp-0x3791],0x22
    b17f:	c6 85 70 c8 ff ff 90 	mov    BYTE PTR [rbp-0x3790],0x90
    b186:	c6 85 71 c8 ff ff 06 	mov    BYTE PTR [rbp-0x378f],0x6
    b18d:	c6 85 72 c8 ff ff a8 	mov    BYTE PTR [rbp-0x378e],0xa8
    b194:	c6 85 73 c8 ff ff e4 	mov    BYTE PTR [rbp-0x378d],0xe4
    b19b:	c6 85 74 c8 ff ff 75 	mov    BYTE PTR [rbp-0x378c],0x75
    b1a2:	c6 85 75 c8 ff ff f0 	mov    BYTE PTR [rbp-0x378b],0xf0
    b1a9:	c6 85 76 c8 ff ff 01 	mov    BYTE PTR [rbp-0x378a],0x1
    b1b0:	c6 85 77 c8 ff ff 02 	mov    BYTE PTR [rbp-0x3789],0x2
    b1b7:	c6 85 78 c8 ff ff 14 	mov    BYTE PTR [rbp-0x3788],0x14
    b1be:	c6 85 79 c8 ff ff 1c 	mov    BYTE PTR [rbp-0x3787],0x1c
    b1c5:	c6 85 7a c8 ff ff e4 	mov    BYTE PTR [rbp-0x3786],0xe4
    b1cc:	c6 85 7b c8 ff ff 90 	mov    BYTE PTR [rbp-0x3785],0x90
    b1d3:	c6 85 7c c8 ff ff 06 	mov    BYTE PTR [rbp-0x3784],0x6
    b1da:	c6 85 7d c8 ff ff a8 	mov    BYTE PTR [rbp-0x3783],0xa8
    b1e1:	c6 85 7e c8 ff ff f0 	mov    BYTE PTR [rbp-0x3782],0xf0
    b1e8:	c6 85 7f c8 ff ff a3 	mov    BYTE PTR [rbp-0x3781],0xa3
    b1ef:	c6 85 80 c8 ff ff f0 	mov    BYTE PTR [rbp-0x3780],0xf0
    b1f6:	c6 85 81 c8 ff ff 22 	mov    BYTE PTR [rbp-0x377f],0x22
    b1fd:	c6 85 82 c8 ff ff 7b 	mov    BYTE PTR [rbp-0x377e],0x7b
    b204:	c6 85 83 c8 ff ff 01 	mov    BYTE PTR [rbp-0x377d],0x1
    b20b:	c6 85 84 c8 ff ff 7a 	mov    BYTE PTR [rbp-0x377c],0x7a
    b212:	c6 85 86 c8 ff ff 79 	mov    BYTE PTR [rbp-0x377a],0x79
    b219:	c6 85 87 c8 ff ff 12 	mov    BYTE PTR [rbp-0x3779],0x12
    b220:	c6 85 88 c8 ff ff 90 	mov    BYTE PTR [rbp-0x3778],0x90
    b227:	c6 85 89 c8 ff ff 06 	mov    BYTE PTR [rbp-0x3777],0x6
    b22e:	c6 85 8a c8 ff ff c3 	mov    BYTE PTR [rbp-0x3776],0xc3
    b235:	c6 85 8b c8 ff ff e4 	mov    BYTE PTR [rbp-0x3775],0xe4
    b23c:	c6 85 8c c8 ff ff f0 	mov    BYTE PTR [rbp-0x3774],0xf0
    b243:	c6 85 8d c8 ff ff a3 	mov    BYTE PTR [rbp-0x3773],0xa3
    b24a:	c6 85 8e c8 ff ff 74 	mov    BYTE PTR [rbp-0x3772],0x74
    b251:	c6 85 8f c8 ff ff 18 	mov    BYTE PTR [rbp-0x3771],0x18
    b258:	c6 85 90 c8 ff ff f0 	mov    BYTE PTR [rbp-0x3770],0xf0
    b25f:	c6 85 91 c8 ff ff 22 	mov    BYTE PTR [rbp-0x376f],0x22
    b266:	c6 85 92 c8 ff ff 74 	mov    BYTE PTR [rbp-0x376e],0x74
    b26d:	c6 85 93 c8 ff ff 31 	mov    BYTE PTR [rbp-0x376d],0x31
    b274:	c6 85 94 c8 ff ff f0 	mov    BYTE PTR [rbp-0x376c],0xf0
    b27b:	c6 85 95 c8 ff ff a3 	mov    BYTE PTR [rbp-0x376b],0xa3
    b282:	c6 85 96 c8 ff ff 74 	mov    BYTE PTR [rbp-0x376a],0x74
    b289:	c6 85 97 c8 ff ff 02 	mov    BYTE PTR [rbp-0x3769],0x2
    b290:	c6 85 98 c8 ff ff f0 	mov    BYTE PTR [rbp-0x3768],0xf0
    b297:	c6 85 99 c8 ff ff 22 	mov    BYTE PTR [rbp-0x3767],0x22
    b29e:	c6 85 9a c8 ff ff f0 	mov    BYTE PTR [rbp-0x3766],0xf0
    b2a5:	c6 85 9b c8 ff ff a3 	mov    BYTE PTR [rbp-0x3765],0xa3
    b2ac:	c6 85 9c c8 ff ff 74 	mov    BYTE PTR [rbp-0x3764],0x74
    b2b3:	c6 85 9d c8 ff ff 20 	mov    BYTE PTR [rbp-0x3763],0x20
    b2ba:	c6 85 9e c8 ff ff f0 	mov    BYTE PTR [rbp-0x3762],0xf0
    b2c1:	c6 85 9f c8 ff ff a3 	mov    BYTE PTR [rbp-0x3761],0xa3
    b2c8:	c6 85 a0 c8 ff ff 22 	mov    BYTE PTR [rbp-0x3760],0x22
    b2cf:	c6 85 a1 c8 ff ff 90 	mov    BYTE PTR [rbp-0x375f],0x90
    b2d6:	c6 85 a2 c8 ff ff 02 	mov    BYTE PTR [rbp-0x375e],0x2
    b2dd:	c6 85 a3 c8 ff ff 06 	mov    BYTE PTR [rbp-0x375d],0x6
    b2e4:	c6 85 a4 c8 ff ff e0 	mov    BYTE PTR [rbp-0x375c],0xe0
    b2eb:	c6 85 a5 c8 ff ff c3 	mov    BYTE PTR [rbp-0x375b],0xc3
    b2f2:	c6 85 a6 c8 ff ff 94 	mov    BYTE PTR [rbp-0x375a],0x94
    b2f9:	c6 85 a7 c8 ff ff 2f 	mov    BYTE PTR [rbp-0x3759],0x2f
    b300:	c6 85 a8 c8 ff ff 74 	mov    BYTE PTR [rbp-0x3758],0x74
    b307:	c6 85 a9 c8 ff ff 80 	mov    BYTE PTR [rbp-0x3757],0x80
    b30e:	c6 85 aa c8 ff ff 94 	mov    BYTE PTR [rbp-0x3756],0x94
    b315:	c6 85 ab c8 ff ff 80 	mov    BYTE PTR [rbp-0x3755],0x80
    b31c:	c6 85 ac c8 ff ff 22 	mov    BYTE PTR [rbp-0x3754],0x22
    b323:	c6 85 ad c8 ff ff 90 	mov    BYTE PTR [rbp-0x3753],0x90
    b32a:	c6 85 af c8 ff ff 0f 	mov    BYTE PTR [rbp-0x3751],0xf
    b331:	c6 85 b0 c8 ff ff e0 	mov    BYTE PTR [rbp-0x3750],0xe0
    b338:	c6 85 b1 c8 ff ff ff 	mov    BYTE PTR [rbp-0x374f],0xff
    b33f:	c6 85 b2 c8 ff ff 90 	mov    BYTE PTR [rbp-0x374e],0x90
    b346:	c6 85 b3 c8 ff ff 02 	mov    BYTE PTR [rbp-0x374d],0x2
    b34d:	c6 85 b4 c8 ff ff 12 	mov    BYTE PTR [rbp-0x374c],0x12
    b354:	c6 85 b5 c8 ff ff e0 	mov    BYTE PTR [rbp-0x374b],0xe0
    b35b:	c6 85 b6 c8 ff ff 6f 	mov    BYTE PTR [rbp-0x374a],0x6f
    b362:	c6 85 b7 c8 ff ff 22 	mov    BYTE PTR [rbp-0x3749],0x22
    b369:	c6 85 b8 c8 ff ff a3 	mov    BYTE PTR [rbp-0x3748],0xa3
    b370:	c6 85 b9 c8 ff ff f0 	mov    BYTE PTR [rbp-0x3747],0xf0
    b377:	c6 85 ba c8 ff ff a3 	mov    BYTE PTR [rbp-0x3746],0xa3
    b37e:	c6 85 bb c8 ff ff 74 	mov    BYTE PTR [rbp-0x3745],0x74
    b385:	c6 85 bc c8 ff ff 0b 	mov    BYTE PTR [rbp-0x3744],0xb
    b38c:	c6 85 bd c8 ff ff f0 	mov    BYTE PTR [rbp-0x3743],0xf0
    b393:	c6 85 be c8 ff ff 90 	mov    BYTE PTR [rbp-0x3742],0x90
    b39a:	c6 85 bf c8 ff ff 06 	mov    BYTE PTR [rbp-0x3741],0x6
    b3a1:	c6 85 c0 c8 ff ff dd 	mov    BYTE PTR [rbp-0x3740],0xdd
    b3a8:	c6 85 c1 c8 ff ff e0 	mov    BYTE PTR [rbp-0x373f],0xe0
    b3af:	c6 85 c2 c8 ff ff 22 	mov    BYTE PTR [rbp-0x373e],0x22
    b3b6:	c6 85 c3 c8 ff ff 90 	mov    BYTE PTR [rbp-0x373d],0x90
    b3bd:	c6 85 c5 c8 ff ff 10 	mov    BYTE PTR [rbp-0x373b],0x10
    b3c4:	c6 85 c6 c8 ff ff e0 	mov    BYTE PTR [rbp-0x373a],0xe0
    b3cb:	c6 85 c7 c8 ff ff ff 	mov    BYTE PTR [rbp-0x3739],0xff
    b3d2:	c6 85 c8 c8 ff ff 90 	mov    BYTE PTR [rbp-0x3738],0x90
    b3d9:	c6 85 c9 c8 ff ff 02 	mov    BYTE PTR [rbp-0x3737],0x2
    b3e0:	c6 85 ca c8 ff ff 15 	mov    BYTE PTR [rbp-0x3736],0x15
    b3e7:	c6 85 cb c8 ff ff e0 	mov    BYTE PTR [rbp-0x3735],0xe0
    b3ee:	c6 85 cc c8 ff ff 22 	mov    BYTE PTR [rbp-0x3734],0x22
    b3f5:	c6 85 cd c8 ff ff f0 	mov    BYTE PTR [rbp-0x3733],0xf0
    b3fc:	c6 85 ce c8 ff ff a3 	mov    BYTE PTR [rbp-0x3732],0xa3
    b403:	c6 85 cf c8 ff ff 74 	mov    BYTE PTR [rbp-0x3731],0x74
    b40a:	c6 85 d0 c8 ff ff 2f 	mov    BYTE PTR [rbp-0x3730],0x2f
    b411:	c6 85 d1 c8 ff ff f0 	mov    BYTE PTR [rbp-0x372f],0xf0
    b418:	c6 85 d2 c8 ff ff a3 	mov    BYTE PTR [rbp-0x372e],0xa3
    b41f:	c6 85 d3 c8 ff ff 22 	mov    BYTE PTR [rbp-0x372d],0x22
    b426:	c6 85 d4 c8 ff ff f0 	mov    BYTE PTR [rbp-0x372c],0xf0
    b42d:	c6 85 d5 c8 ff ff a3 	mov    BYTE PTR [rbp-0x372b],0xa3
    b434:	c6 85 d6 c8 ff ff 74 	mov    BYTE PTR [rbp-0x372a],0x74
    b43b:	c6 85 d7 c8 ff ff 01 	mov    BYTE PTR [rbp-0x3729],0x1
    b442:	c6 85 d8 c8 ff ff f0 	mov    BYTE PTR [rbp-0x3728],0xf0
    b449:	c6 85 d9 c8 ff ff a3 	mov    BYTE PTR [rbp-0x3727],0xa3
    b450:	c6 85 da c8 ff ff 22 	mov    BYTE PTR [rbp-0x3726],0x22
    b457:	c6 85 db c8 ff ff 90 	mov    BYTE PTR [rbp-0x3725],0x90
    b45e:	c6 85 dc c8 ff ff 06 	mov    BYTE PTR [rbp-0x3724],0x6
    b465:	c6 85 dd c8 ff ff ac 	mov    BYTE PTR [rbp-0x3723],0xac
    b46c:	c6 85 de c8 ff ff 02 	mov    BYTE PTR [rbp-0x3722],0x2
    b473:	c6 85 df c8 ff ff 14 	mov    BYTE PTR [rbp-0x3721],0x14
    b47a:	c6 85 e0 c8 ff ff 67 	mov    BYTE PTR [rbp-0x3720],0x67
    b481:	c6 85 e1 c8 ff ff e4 	mov    BYTE PTR [rbp-0x371f],0xe4
    b488:	c6 85 e2 c8 ff ff 90 	mov    BYTE PTR [rbp-0x371e],0x90
    b48f:	c6 85 e3 c8 ff ff 02 	mov    BYTE PTR [rbp-0x371d],0x2
    b496:	c6 85 e4 c8 ff ff 07 	mov    BYTE PTR [rbp-0x371c],0x7
    b49d:	c6 85 e5 c8 ff ff f0 	mov    BYTE PTR [rbp-0x371b],0xf0
    b4a4:	c6 85 e6 c8 ff ff 90 	mov    BYTE PTR [rbp-0x371a],0x90
    b4ab:	c6 85 e7 c8 ff ff 02 	mov    BYTE PTR [rbp-0x3719],0x2
    b4b2:	c6 85 e8 c8 ff ff 06 	mov    BYTE PTR [rbp-0x3718],0x6
    b4b9:	c6 85 e9 c8 ff ff f0 	mov    BYTE PTR [rbp-0x3717],0xf0
    b4c0:	c6 85 ea c8 ff ff 22 	mov    BYTE PTR [rbp-0x3716],0x22
    b4c7:	c6 85 eb c8 ff ff 7b 	mov    BYTE PTR [rbp-0x3715],0x7b
    b4ce:	c6 85 ec c8 ff ff 01 	mov    BYTE PTR [rbp-0x3714],0x1
    b4d5:	c6 85 ed c8 ff ff 7a 	mov    BYTE PTR [rbp-0x3713],0x7a
    b4dc:	c6 85 ee c8 ff ff 04 	mov    BYTE PTR [rbp-0x3712],0x4
    b4e3:	c6 85 ef c8 ff ff 79 	mov    BYTE PTR [rbp-0x3711],0x79
    b4ea:	c6 85 f0 c8 ff ff 48 	mov    BYTE PTR [rbp-0x3710],0x48
    b4f1:	c6 85 f1 c8 ff ff 90 	mov    BYTE PTR [rbp-0x370f],0x90
    b4f8:	c6 85 f2 c8 ff ff 06 	mov    BYTE PTR [rbp-0x370e],0x6
    b4ff:	c6 85 f3 c8 ff ff c2 	mov    BYTE PTR [rbp-0x370d],0xc2
    b506:	c6 85 f4 c8 ff ff 22 	mov    BYTE PTR [rbp-0x370c],0x22
    b50d:	c6 85 f5 c8 ff ff 90 	mov    BYTE PTR [rbp-0x370b],0x90
    b514:	c6 85 f6 c8 ff ff 06 	mov    BYTE PTR [rbp-0x370a],0x6
    b51b:	c6 85 f7 c8 ff ff cd 	mov    BYTE PTR [rbp-0x3709],0xcd
    b522:	c6 85 f8 c8 ff ff 12 	mov    BYTE PTR [rbp-0x3708],0x12
    b529:	c6 85 f9 c8 ff ff 16 	mov    BYTE PTR [rbp-0x3707],0x16
    b530:	c6 85 fa c8 ff ff 06 	mov    BYTE PTR [rbp-0x3706],0x6
    b537:	c6 85 fb c8 ff ff 12 	mov    BYTE PTR [rbp-0x3705],0x12
    b53e:	c6 85 fc c8 ff ff 16 	mov    BYTE PTR [rbp-0x3704],0x16
    b545:	c6 85 fd c8 ff ff 0b 	mov    BYTE PTR [rbp-0x3703],0xb
    b54c:	c6 85 fe c8 ff ff e4 	mov    BYTE PTR [rbp-0x3702],0xe4
    b553:	c6 85 ff c8 ff ff a3 	mov    BYTE PTR [rbp-0x3701],0xa3
    b55a:	c6 85 00 c9 ff ff f0 	mov    BYTE PTR [rbp-0x3700],0xf0
    b561:	c6 85 01 c9 ff ff a3 	mov    BYTE PTR [rbp-0x36ff],0xa3
    b568:	c6 85 02 c9 ff ff f0 	mov    BYTE PTR [rbp-0x36fe],0xf0
    b56f:	c6 85 03 c9 ff ff c3 	mov    BYTE PTR [rbp-0x36fd],0xc3
    b576:	c6 85 04 c9 ff ff 90 	mov    BYTE PTR [rbp-0x36fc],0x90
    b57d:	c6 85 05 c9 ff ff 06 	mov    BYTE PTR [rbp-0x36fb],0x6
    b584:	c6 85 06 c9 ff ff d3 	mov    BYTE PTR [rbp-0x36fa],0xd3
    b58b:	c6 85 07 c9 ff ff e0 	mov    BYTE PTR [rbp-0x36f9],0xe0
    b592:	c6 85 08 c9 ff ff 94 	mov    BYTE PTR [rbp-0x36f8],0x94
    b599:	c6 85 09 c9 ff ff 02 	mov    BYTE PTR [rbp-0x36f7],0x2
    b5a0:	c6 85 0a c9 ff ff 40 	mov    BYTE PTR [rbp-0x36f6],0x40
    b5a7:	c6 85 0b c9 ff ff 03 	mov    BYTE PTR [rbp-0x36f5],0x3
    b5ae:	c6 85 0c c9 ff ff 02 	mov    BYTE PTR [rbp-0x36f4],0x2
    b5b5:	c6 85 0d c9 ff ff 1a 	mov    BYTE PTR [rbp-0x36f3],0x1a
    b5bc:	c6 85 0e c9 ff ff 7e 	mov    BYTE PTR [rbp-0x36f2],0x7e
    b5c3:	c6 85 0f c9 ff ff e0 	mov    BYTE PTR [rbp-0x36f1],0xe0
    b5ca:	c6 85 10 c9 ff ff fe 	mov    BYTE PTR [rbp-0x36f0],0xfe
    b5d1:	c6 85 11 c9 ff ff a3 	mov    BYTE PTR [rbp-0x36ef],0xa3
    b5d8:	c6 85 12 c9 ff ff e0 	mov    BYTE PTR [rbp-0x36ee],0xe0
    b5df:	c6 85 13 c9 ff ff ff 	mov    BYTE PTR [rbp-0x36ed],0xff
    b5e6:	c6 85 14 c9 ff ff fd 	mov    BYTE PTR [rbp-0x36ec],0xfd
    b5ed:	c6 85 15 c9 ff ff 90 	mov    BYTE PTR [rbp-0x36eb],0x90
    b5f4:	c6 85 16 c9 ff ff 06 	mov    BYTE PTR [rbp-0x36ea],0x6
    b5fb:	c6 85 17 c9 ff ff d1 	mov    BYTE PTR [rbp-0x36e9],0xd1
    b602:	c6 85 18 c9 ff ff e0 	mov    BYTE PTR [rbp-0x36e8],0xe0
    b609:	c6 85 19 c9 ff ff fa 	mov    BYTE PTR [rbp-0x36e7],0xfa
    b610:	c6 85 1a c9 ff ff a3 	mov    BYTE PTR [rbp-0x36e6],0xa3
    b617:	c6 85 1b c9 ff ff e0 	mov    BYTE PTR [rbp-0x36e5],0xe0
    b61e:	c6 85 1c c9 ff ff fb 	mov    BYTE PTR [rbp-0x36e4],0xfb
    b625:	c6 85 1d c9 ff ff 2d 	mov    BYTE PTR [rbp-0x36e3],0x2d
    b62c:	c6 85 1e c9 ff ff 90 	mov    BYTE PTR [rbp-0x36e2],0x90
    b633:	c6 85 1f c9 ff ff 12 	mov    BYTE PTR [rbp-0x36e1],0x12
    b63a:	c6 85 20 c9 ff ff 35 	mov    BYTE PTR [rbp-0x36e0],0x35
    b641:	c6 85 21 c9 ff ff f0 	mov    BYTE PTR [rbp-0x36df],0xf0
    b648:	c6 85 22 c9 ff ff eb 	mov    BYTE PTR [rbp-0x36de],0xeb
    b64f:	c6 85 23 c9 ff ff 2f 	mov    BYTE PTR [rbp-0x36dd],0x2f
    b656:	c6 85 24 c9 ff ff ea 	mov    BYTE PTR [rbp-0x36dc],0xea
    b65d:	c6 85 25 c9 ff ff 3e 	mov    BYTE PTR [rbp-0x36db],0x3e
    b664:	c6 85 26 c9 ff ff a3 	mov    BYTE PTR [rbp-0x36da],0xa3
    b66b:	c6 85 27 c9 ff ff f0 	mov    BYTE PTR [rbp-0x36d9],0xf0
    b672:	c6 85 28 c9 ff ff 90 	mov    BYTE PTR [rbp-0x36d8],0x90
    b679:	c6 85 29 c9 ff ff 12 	mov    BYTE PTR [rbp-0x36d7],0x12
    b680:	c6 85 2a c9 ff ff 33 	mov    BYTE PTR [rbp-0x36d6],0x33
    b687:	c6 85 2b c9 ff ff e4 	mov    BYTE PTR [rbp-0x36d5],0xe4
    b68e:	c6 85 2c c9 ff ff f0 	mov    BYTE PTR [rbp-0x36d4],0xf0
    b695:	c6 85 2d c9 ff ff a3 	mov    BYTE PTR [rbp-0x36d3],0xa3
    b69c:	c6 85 2e c9 ff ff 04 	mov    BYTE PTR [rbp-0x36d2],0x4
    b6a3:	48 8d 95 20 c7 ff ff 	lea    rdx,[rbp-0x38e0]
    b6aa:	b8 00 00 00 00       	mov    eax,0x0
    b6af:	b9 21 00 00 00       	mov    ecx,0x21
    b6b4:	48 89 d7             	mov    rdi,rdx
    b6b7:	f3 48 ab             	rep stos QWORD PTR es:[rdi],rax
    b6ba:	48 89 fa             	mov    rdx,rdi
    b6bd:	89 02                	mov    DWORD PTR [rdx],eax
    b6bf:	48 83 c2 04          	add    rdx,0x4
    b6c3:	66 89 02             	mov    WORD PTR [rdx],ax
    b6c6:	48 83 c2 02          	add    rdx,0x2
    b6ca:	c6 85 21 c7 ff ff 58 	mov    BYTE PTR [rbp-0x38df],0x58
    b6d1:	c6 85 22 c7 ff ff 99 	mov    BYTE PTR [rbp-0x38de],0x99
    b6d8:	c6 85 23 c7 ff ff e8 	mov    BYTE PTR [rbp-0x38dd],0xe8
    b6df:	c6 85 24 c7 ff ff ff 	mov    BYTE PTR [rbp-0x38dc],0xff
    b6e6:	48 8d 95 10 c6 ff ff 	lea    rdx,[rbp-0x39f0]
    b6ed:	b8 00 00 00 00       	mov    eax,0x0
    b6f2:	b9 21 00 00 00       	mov    ecx,0x21
    b6f7:	48 89 d7             	mov    rdi,rdx
    b6fa:	f3 48 ab             	rep stos QWORD PTR es:[rdi],rax
    b6fd:	48 89 fa             	mov    rdx,rdi
    b700:	89 02                	mov    DWORD PTR [rdx],eax
    b702:	48 83 c2 04          	add    rdx,0x4
    b706:	66 89 02             	mov    WORD PTR [rdx],ax
    b709:	48 83 c2 02          	add    rdx,0x2
    b70d:	c6 85 10 c6 ff ff f0 	mov    BYTE PTR [rbp-0x39f0],0xf0
    b714:	c6 85 11 c6 ff ff 75 	mov    BYTE PTR [rbp-0x39ef],0x75
    b71b:	c6 85 12 c6 ff ff eb 	mov    BYTE PTR [rbp-0x39ee],0xeb
    b722:	c6 85 13 c6 ff ff 40 	mov    BYTE PTR [rbp-0x39ed],0x40
    b729:	c6 85 14 c6 ff ff 75 	mov    BYTE PTR [rbp-0x39ec],0x75
    b730:	c6 85 15 c6 ff ff e9 	mov    BYTE PTR [rbp-0x39eb],0xe9
    b737:	c6 85 16 c6 ff ff aa 	mov    BYTE PTR [rbp-0x39ea],0xaa
    b73e:	c6 85 17 c6 ff ff 75 	mov    BYTE PTR [rbp-0x39e9],0x75
    b745:	c6 85 18 c6 ff ff ea 	mov    BYTE PTR [rbp-0x39e8],0xea
    b74c:	c6 85 19 c6 ff ff 55 	mov    BYTE PTR [rbp-0x39e7],0x55
    b753:	c6 85 1a c6 ff ff 90 	mov    BYTE PTR [rbp-0x39e6],0x90
    b75a:	c6 85 1b c6 ff ff 06 	mov    BYTE PTR [rbp-0x39e5],0x6
    b761:	c6 85 1c c6 ff ff d3 	mov    BYTE PTR [rbp-0x39e4],0xd3
    b768:	c6 85 1d c6 ff ff e0 	mov    BYTE PTR [rbp-0x39e3],0xe0
    b76f:	c6 85 1e c6 ff ff fe 	mov    BYTE PTR [rbp-0x39e2],0xfe
    b776:	c6 85 1f c6 ff ff a3 	mov    BYTE PTR [rbp-0x39e1],0xa3
    b77d:	c6 85 20 c6 ff ff e0 	mov    BYTE PTR [rbp-0x39e0],0xe0
    b784:	c6 85 21 c6 ff ff ff 	mov    BYTE PTR [rbp-0x39df],0xff
    b78b:	c6 85 22 c6 ff ff 90 	mov    BYTE PTR [rbp-0x39de],0x90
    b792:	c6 85 23 c6 ff ff 06 	mov    BYTE PTR [rbp-0x39dd],0x6
    b799:	c6 85 24 c6 ff ff cf 	mov    BYTE PTR [rbp-0x39dc],0xcf
    b7a0:	c6 85 25 c6 ff ff e0 	mov    BYTE PTR [rbp-0x39db],0xe0
    b7a7:	c6 85 26 c6 ff ff fc 	mov    BYTE PTR [rbp-0x39da],0xfc
    b7ae:	c6 85 27 c6 ff ff a3 	mov    BYTE PTR [rbp-0x39d9],0xa3
    b7b5:	c6 85 28 c6 ff ff e0 	mov    BYTE PTR [rbp-0x39d8],0xe0
    b7bc:	c6 85 29 c6 ff ff 2f 	mov    BYTE PTR [rbp-0x39d7],0x2f
    b7c3:	c6 85 2a c6 ff ff f5 	mov    BYTE PTR [rbp-0x39d6],0xf5
    b7ca:	c6 85 2b c6 ff ff 82 	mov    BYTE PTR [rbp-0x39d5],0x82
    b7d1:	c6 85 2c c6 ff ff ec 	mov    BYTE PTR [rbp-0x39d4],0xec
    b7d8:	c6 85 2d c6 ff ff 3e 	mov    BYTE PTR [rbp-0x39d3],0x3e
    b7df:	c6 85 2e c6 ff ff f5 	mov    BYTE PTR [rbp-0x39d2],0xf5
    b7e6:	c6 85 2f c6 ff ff 83 	mov    BYTE PTR [rbp-0x39d1],0x83
    b7ed:	c6 85 30 c6 ff ff e0 	mov    BYTE PTR [rbp-0x39d0],0xe0
    b7f4:	c6 85 31 c6 ff ff ff 	mov    BYTE PTR [rbp-0x39cf],0xff
    b7fb:	c6 85 32 c6 ff ff 90 	mov    BYTE PTR [rbp-0x39ce],0x90
    b802:	c6 85 33 c6 ff ff 06 	mov    BYTE PTR [rbp-0x39cd],0x6
    b809:	c6 85 34 c6 ff ff d3 	mov    BYTE PTR [rbp-0x39cc],0xd3
    b810:	c6 85 35 c6 ff ff e0 	mov    BYTE PTR [rbp-0x39cb],0xe0
    b817:	c6 85 36 c6 ff ff fc 	mov    BYTE PTR [rbp-0x39ca],0xfc
    b81e:	c6 85 37 c6 ff ff a3 	mov    BYTE PTR [rbp-0x39c9],0xa3
    b825:	c6 85 38 c6 ff ff e0 	mov    BYTE PTR [rbp-0x39c8],0xe0
    b82c:	c6 85 39 c6 ff ff 90 	mov    BYTE PTR [rbp-0x39c7],0x90
    b833:	c6 85 3a c6 ff ff 06 	mov    BYTE PTR [rbp-0x39c6],0x6
    b83a:	c6 85 3b c6 ff ff cd 	mov    BYTE PTR [rbp-0x39c5],0xcd
    b841:	c6 85 3c c6 ff ff 12 	mov    BYTE PTR [rbp-0x39c4],0x12
    b848:	c6 85 3d c6 ff ff 16 	mov    BYTE PTR [rbp-0x39c3],0x16
    b84f:	c6 85 3e c6 ff ff 44 	mov    BYTE PTR [rbp-0x39c2],0x44
    b856:	c6 85 3f c6 ff ff 30 	mov    BYTE PTR [rbp-0x39c1],0x30
    b85d:	c6 85 40 c6 ff ff e8 	mov    BYTE PTR [rbp-0x39c0],0xe8
    b864:	c6 85 41 c6 ff ff fd 	mov    BYTE PTR [rbp-0x39bf],0xfd
    b86b:	c6 85 42 c6 ff ff c2 	mov    BYTE PTR [rbp-0x39be],0xc2
    b872:	c6 85 43 c6 ff ff e8 	mov    BYTE PTR [rbp-0x39bd],0xe8
    b879:	c6 85 44 c6 ff ff 30 	mov    BYTE PTR [rbp-0x39bc],0x30
    b880:	c6 85 45 c6 ff ff e9 	mov    BYTE PTR [rbp-0x39bb],0xe9
    b887:	c6 85 46 c6 ff ff 05 	mov    BYTE PTR [rbp-0x39ba],0x5
    b88e:	c6 85 47 c6 ff ff c2 	mov    BYTE PTR [rbp-0x39b9],0xc2
    b895:	c6 85 48 c6 ff ff e9 	mov    BYTE PTR [rbp-0x39b8],0xe9
    b89c:	c6 85 49 c6 ff ff 7f 	mov    BYTE PTR [rbp-0x39b7],0x7f
    b8a3:	c6 85 4a c6 ff ff 06 	mov    BYTE PTR [rbp-0x39b6],0x6
    b8aa:	c6 85 4b c6 ff ff 22 	mov    BYTE PTR [rbp-0x39b5],0x22
    b8b1:	c6 85 4c c6 ff ff 90 	mov    BYTE PTR [rbp-0x39b4],0x90
    b8b8:	c6 85 4d c6 ff ff 06 	mov    BYTE PTR [rbp-0x39b3],0x6
    b8bf:	c6 85 4e c6 ff ff d3 	mov    BYTE PTR [rbp-0x39b2],0xd3
    b8c6:	c6 85 4f c6 ff ff e0 	mov    BYTE PTR [rbp-0x39b1],0xe0
    b8cd:	c6 85 50 c6 ff ff fe 	mov    BYTE PTR [rbp-0x39b0],0xfe
    b8d4:	c6 85 51 c6 ff ff a3 	mov    BYTE PTR [rbp-0x39af],0xa3
    b8db:	c6 85 52 c6 ff ff e0 	mov    BYTE PTR [rbp-0x39ae],0xe0
    b8e2:	c6 85 53 c6 ff ff ff 	mov    BYTE PTR [rbp-0x39ad],0xff
    b8e9:	c6 85 54 c6 ff ff 90 	mov    BYTE PTR [rbp-0x39ac],0x90
    b8f0:	c6 85 55 c6 ff ff 06 	mov    BYTE PTR [rbp-0x39ab],0x6
    b8f7:	c6 85 56 c6 ff ff ce 	mov    BYTE PTR [rbp-0x39aa],0xce
    b8fe:	c6 85 57 c6 ff ff e0 	mov    BYTE PTR [rbp-0x39a9],0xe0
    b905:	c6 85 58 c6 ff ff 2f 	mov    BYTE PTR [rbp-0x39a8],0x2f
    b90c:	c6 85 59 c6 ff ff ff 	mov    BYTE PTR [rbp-0x39a7],0xff
    b913:	c6 85 5a c6 ff ff 90 	mov    BYTE PTR [rbp-0x39a6],0x90
    b91a:	c6 85 5b c6 ff ff 06 	mov    BYTE PTR [rbp-0x39a5],0x6
    b921:	c6 85 5c c6 ff ff cd 	mov    BYTE PTR [rbp-0x39a4],0xcd
    b928:	c6 85 5d c6 ff ff e0 	mov    BYTE PTR [rbp-0x39a3],0xe0
    b92f:	c6 85 5e c6 ff ff 3e 	mov    BYTE PTR [rbp-0x39a2],0x3e
    b936:	c6 85 5f c6 ff ff fa 	mov    BYTE PTR [rbp-0x39a1],0xfa
    b93d:	c6 85 60 c6 ff ff a9 	mov    BYTE PTR [rbp-0x39a0],0xa9
    b944:	c6 85 61 c6 ff ff 07 	mov    BYTE PTR [rbp-0x399f],0x7
    b94b:	c6 85 62 c6 ff ff 7b 	mov    BYTE PTR [rbp-0x399e],0x7b
    b952:	c6 85 63 c6 ff ff 01 	mov    BYTE PTR [rbp-0x399d],0x1
    b959:	c6 85 64 c6 ff ff c0 	mov    BYTE PTR [rbp-0x399c],0xc0
    b960:	c6 85 65 c6 ff ff 02 	mov    BYTE PTR [rbp-0x399b],0x2
    b967:	c6 85 66 c6 ff ff c0 	mov    BYTE PTR [rbp-0x399a],0xc0
    b96e:	c6 85 67 c6 ff ff 01 	mov    BYTE PTR [rbp-0x3999],0x1
    b975:	c6 85 68 c6 ff ff 90 	mov    BYTE PTR [rbp-0x3998],0x90
    b97c:	c6 85 69 c6 ff ff 06 	mov    BYTE PTR [rbp-0x3997],0x6
    b983:	c6 85 6a c6 ff ff d3 	mov    BYTE PTR [rbp-0x3996],0xd3
    b98a:	c6 85 6b c6 ff ff a3 	mov    BYTE PTR [rbp-0x3995],0xa3
    b991:	c6 85 6c c6 ff ff e0 	mov    BYTE PTR [rbp-0x3994],0xe0
    b998:	c6 85 6d c6 ff ff ff 	mov    BYTE PTR [rbp-0x3993],0xff
    b99f:	c6 85 6e c6 ff ff 90 	mov    BYTE PTR [rbp-0x3992],0x90
    b9a6:	c6 85 6f c6 ff ff 06 	mov    BYTE PTR [rbp-0x3991],0x6
    b9ad:	c6 85 70 c6 ff ff d0 	mov    BYTE PTR [rbp-0x3990],0xd0
    b9b4:	c6 85 71 c6 ff ff e0 	mov    BYTE PTR [rbp-0x398f],0xe0
    b9bb:	c6 85 72 c6 ff ff 2f 	mov    BYTE PTR [rbp-0x398e],0x2f
    b9c2:	c6 85 73 c6 ff ff ff 	mov    BYTE PTR [rbp-0x398d],0xff
    b9c9:	c6 85 74 c6 ff ff 90 	mov    BYTE PTR [rbp-0x398c],0x90
    b9d0:	c6 85 75 c6 ff ff 06 	mov    BYTE PTR [rbp-0x398b],0x6
    b9d7:	c6 85 76 c6 ff ff cf 	mov    BYTE PTR [rbp-0x398a],0xcf
    b9de:	c6 85 77 c6 ff ff e0 	mov    BYTE PTR [rbp-0x3989],0xe0
    b9e5:	c6 85 78 c6 ff ff 3e 	mov    BYTE PTR [rbp-0x3988],0x3e
    b9ec:	c6 85 79 c6 ff ff fa 	mov    BYTE PTR [rbp-0x3987],0xfa
    b9f3:	c6 85 7a c6 ff ff a9 	mov    BYTE PTR [rbp-0x3986],0xa9
    b9fa:	c6 85 7b c6 ff ff 07 	mov    BYTE PTR [rbp-0x3985],0x7
    ba01:	c6 85 7c c6 ff ff 90 	mov    BYTE PTR [rbp-0x3984],0x90
    ba08:	c6 85 7d c6 ff ff 06 	mov    BYTE PTR [rbp-0x3983],0x6
    ba0f:	c6 85 7e c6 ff ff d8 	mov    BYTE PTR [rbp-0x3982],0xd8
    ba16:	c6 85 7f c6 ff ff 12 	mov    BYTE PTR [rbp-0x3981],0x12
    ba1d:	c6 85 80 c6 ff ff 14 	mov    BYTE PTR [rbp-0x3980],0x14
    ba24:	c6 85 81 c6 ff ff 88 	mov    BYTE PTR [rbp-0x397f],0x88
    ba2b:	c6 85 82 c6 ff ff 90 	mov    BYTE PTR [rbp-0x397e],0x90
    ba32:	c6 85 83 c6 ff ff 06 	mov    BYTE PTR [rbp-0x397d],0x6
    ba39:	c6 85 84 c6 ff ff db 	mov    BYTE PTR [rbp-0x397c],0xdb
    ba40:	c6 85 85 c6 ff ff 74 	mov    BYTE PTR [rbp-0x397b],0x74
    ba47:	c6 85 86 c6 ff ff 01 	mov    BYTE PTR [rbp-0x397a],0x1
    ba4e:	c6 85 87 c6 ff ff f0 	mov    BYTE PTR [rbp-0x3979],0xf0
    ba55:	c6 85 88 c6 ff ff a3 	mov    BYTE PTR [rbp-0x3978],0xa3
    ba5c:	c6 85 89 c6 ff ff e4 	mov    BYTE PTR [rbp-0x3977],0xe4
    ba63:	c6 85 8a c6 ff ff f0 	mov    BYTE PTR [rbp-0x3976],0xf0
    ba6a:	c6 85 8b c6 ff ff d0 	mov    BYTE PTR [rbp-0x3975],0xd0
    ba71:	c6 85 8c c6 ff ff 01 	mov    BYTE PTR [rbp-0x3974],0x1
    ba78:	c6 85 8d c6 ff ff d0 	mov    BYTE PTR [rbp-0x3973],0xd0
    ba7f:	c6 85 8e c6 ff ff 02 	mov    BYTE PTR [rbp-0x3972],0x2
    ba86:	c6 85 8f c6 ff ff 12 	mov    BYTE PTR [rbp-0x3971],0x12
    ba8d:	c6 85 90 c6 ff ff 16 	mov    BYTE PTR [rbp-0x3970],0x16
    ba94:	c6 85 91 c6 ff ff 7a 	mov    BYTE PTR [rbp-0x396f],0x7a
    ba9b:	c6 85 92 c6 ff ff ef 	mov    BYTE PTR [rbp-0x396e],0xef
    baa2:	c6 85 93 c6 ff ff 70 	mov    BYTE PTR [rbp-0x396d],0x70
    baa9:	c6 85 94 c6 ff ff 03 	mov    BYTE PTR [rbp-0x396c],0x3
    bab0:	c6 85 95 c6 ff ff 7f 	mov    BYTE PTR [rbp-0x396b],0x7f
    bab7:	c6 85 96 c6 ff ff 0a 	mov    BYTE PTR [rbp-0x396a],0xa
    babe:	c6 85 97 c6 ff ff 22 	mov    BYTE PTR [rbp-0x3969],0x22
    bac5:	c6 85 98 c6 ff ff 90 	mov    BYTE PTR [rbp-0x3968],0x90
    bacc:	c6 85 99 c6 ff ff 06 	mov    BYTE PTR [rbp-0x3967],0x6
    bad3:	c6 85 9a c6 ff ff d3 	mov    BYTE PTR [rbp-0x3966],0xd3
    bada:	c6 85 9b c6 ff ff 74 	mov    BYTE PTR [rbp-0x3965],0x74
    bae1:	c6 85 9c c6 ff ff 01 	mov    BYTE PTR [rbp-0x3964],0x1
    bae8:	c6 85 9d c6 ff ff 75 	mov    BYTE PTR [rbp-0x3963],0x75
    baef:	c6 85 9e c6 ff ff f0 	mov    BYTE PTR [rbp-0x3962],0xf0
    baf6:	c6 85 a0 c6 ff ff 12 	mov    BYTE PTR [rbp-0x3960],0x12
    bafd:	c6 85 a1 c6 ff ff 14 	mov    BYTE PTR [rbp-0x395f],0x14
    bb04:	c6 85 a2 c6 ff ff 1c 	mov    BYTE PTR [rbp-0x395e],0x1c
    bb0b:	c6 85 a3 c6 ff ff 02 	mov    BYTE PTR [rbp-0x395d],0x2
    bb12:	c6 85 a4 c6 ff ff 19 	mov    BYTE PTR [rbp-0x395c],0x19
    bb19:	c6 85 a5 c6 ff ff bc 	mov    BYTE PTR [rbp-0x395b],0xbc
    bb20:	c6 85 a6 c6 ff ff 7f 	mov    BYTE PTR [rbp-0x395a],0x7f
    bb27:	c6 85 a8 c6 ff ff 22 	mov    BYTE PTR [rbp-0x3958],0x22
    bb2e:	c6 85 a9 c6 ff ff 90 	mov    BYTE PTR [rbp-0x3957],0x90
    bb35:	c6 85 aa c6 ff ff 06 	mov    BYTE PTR [rbp-0x3956],0x6
    bb3c:	c6 85 ab c6 ff ff cd 	mov    BYTE PTR [rbp-0x3955],0xcd
    bb43:	c6 85 ac c6 ff ff 12 	mov    BYTE PTR [rbp-0x3954],0x12
    bb4a:	c6 85 ad c6 ff ff 14 	mov    BYTE PTR [rbp-0x3953],0x14
    bb51:	c6 85 ae c6 ff ff 88 	mov    BYTE PTR [rbp-0x3952],0x88
    bb58:	c6 85 af c6 ff ff 90 	mov    BYTE PTR [rbp-0x3951],0x90
    bb5f:	c6 85 b0 c6 ff ff 06 	mov    BYTE PTR [rbp-0x3950],0x6
    bb66:	c6 85 b1 c6 ff ff cd 	mov    BYTE PTR [rbp-0x394f],0xcd
    bb6d:	c6 85 b2 c6 ff ff e0 	mov    BYTE PTR [rbp-0x394e],0xe0
    bb74:	c6 85 b3 c6 ff ff 64 	mov    BYTE PTR [rbp-0x394d],0x64
    bb7b:	c6 85 b4 c6 ff ff 01 	mov    BYTE PTR [rbp-0x394c],0x1
    bb82:	c6 85 b5 c6 ff ff 60 	mov    BYTE PTR [rbp-0x394b],0x60
    bb89:	c6 85 b6 c6 ff ff 03 	mov    BYTE PTR [rbp-0x394a],0x3
    bb90:	c6 85 b7 c6 ff ff 02 	mov    BYTE PTR [rbp-0x3949],0x2
    bb97:	c6 85 b8 c6 ff ff 1b 	mov    BYTE PTR [rbp-0x3948],0x1b
    bb9e:	c6 85 b9 c6 ff ff 15 	mov    BYTE PTR [rbp-0x3947],0x15
    bba5:	c6 85 ba c6 ff ff 90 	mov    BYTE PTR [rbp-0x3946],0x90
    bbac:	c6 85 bb c6 ff ff 06 	mov    BYTE PTR [rbp-0x3945],0x6
    bbb3:	c6 85 bc c6 ff ff d0 	mov    BYTE PTR [rbp-0x3944],0xd0
    bbba:	c6 85 bd c6 ff ff e0 	mov    BYTE PTR [rbp-0x3943],0xe0
    bbc1:	c6 85 be c6 ff ff 04 	mov    BYTE PTR [rbp-0x3942],0x4
    bbc8:	c6 85 bf c6 ff ff 60 	mov    BYTE PTR [rbp-0x3941],0x60
    bbcf:	c6 85 c0 c6 ff ff 41 	mov    BYTE PTR [rbp-0x3940],0x41
    bbd6:	c6 85 c1 c6 ff ff 24 	mov    BYTE PTR [rbp-0x393f],0x24
    bbdd:	c6 85 c2 c6 ff ff fe 	mov    BYTE PTR [rbp-0x393e],0xfe
    bbe4:	c6 85 c3 c6 ff ff 60 	mov    BYTE PTR [rbp-0x393d],0x60
    bbeb:	c6 85 c4 c6 ff ff 03 	mov    BYTE PTR [rbp-0x393c],0x3
    bbf2:	c6 85 c5 c6 ff ff 02 	mov    BYTE PTR [rbp-0x393b],0x2
    bbf9:	c6 85 c6 c6 ff ff 1b 	mov    BYTE PTR [rbp-0x393a],0x1b
    bc00:	c6 85 c7 c6 ff ff 17 	mov    BYTE PTR [rbp-0x3939],0x17
    bc07:	c6 85 c8 c6 ff ff a8 	mov    BYTE PTR [rbp-0x3938],0xa8
    bc0e:	c6 85 c9 c6 ff ff a2 	mov    BYTE PTR [rbp-0x3937],0xa2
    bc15:	c6 85 ca c6 ff ff 85 	mov    BYTE PTR [rbp-0x3936],0x85
    bc1c:	c6 85 cc c6 ff ff a2 	mov    BYTE PTR [rbp-0x3934],0xa2
    bc23:	c6 85 cd c6 ff ff 90 	mov    BYTE PTR [rbp-0x3933],0x90
    bc2a:	c6 85 ce c6 ff ff 06 	mov    BYTE PTR [rbp-0x3932],0x6
    bc31:	c6 85 cf c6 ff ff d3 	mov    BYTE PTR [rbp-0x3931],0xd3
    bc38:	c6 85 d0 c6 ff ff e0 	mov    BYTE PTR [rbp-0x3930],0xe0
    bc3f:	c6 85 d1 c6 ff ff f9 	mov    BYTE PTR [rbp-0x392f],0xf9
    bc46:	c6 85 d2 c6 ff ff a3 	mov    BYTE PTR [rbp-0x392e],0xa3
    bc4d:	c6 85 d3 c6 ff ff e0 	mov    BYTE PTR [rbp-0x392d],0xe0
    bc54:	c6 85 d4 c6 ff ff fa 	mov    BYTE PTR [rbp-0x392c],0xfa
    bc5b:	c6 85 d5 c6 ff ff 60 	mov    BYTE PTR [rbp-0x392b],0x60
    bc62:	c6 85 d6 c6 ff ff 01 	mov    BYTE PTR [rbp-0x392a],0x1
    bc69:	c6 85 d7 c6 ff ff 09 	mov    BYTE PTR [rbp-0x3929],0x9
    bc70:	c6 85 d8 c6 ff ff 90 	mov    BYTE PTR [rbp-0x3928],0x90
    bc77:	c6 85 d9 c6 ff ff 06 	mov    BYTE PTR [rbp-0x3927],0x6
    bc7e:	c6 85 da c6 ff ff ce 	mov    BYTE PTR [rbp-0x3926],0xce
    bc85:	c6 85 db c6 ff ff e0 	mov    BYTE PTR [rbp-0x3925],0xe0
    bc8c:	c6 85 dc c6 ff ff fb 	mov    BYTE PTR [rbp-0x3924],0xfb
    bc93:	c6 85 dd c6 ff ff a3 	mov    BYTE PTR [rbp-0x3923],0xa3
    bc9a:	c6 85 de c6 ff ff e0 	mov    BYTE PTR [rbp-0x3922],0xe0
    bca1:	c6 85 df c6 ff ff f5 	mov    BYTE PTR [rbp-0x3921],0xf5
    bca8:	c6 85 e0 c6 ff ff 82 	mov    BYTE PTR [rbp-0x3920],0x82
    bcaf:	c6 85 e1 c6 ff ff 8b 	mov    BYTE PTR [rbp-0x391f],0x8b
    bcb6:	c6 85 e2 c6 ff ff 83 	mov    BYTE PTR [rbp-0x391e],0x83
    bcbd:	c6 85 e3 c6 ff ff 05 	mov    BYTE PTR [rbp-0x391d],0x5
    bcc4:	c6 85 e4 c6 ff ff a2 	mov    BYTE PTR [rbp-0x391c],0xa2
    bccb:	c6 85 e5 c6 ff ff 90 	mov    BYTE PTR [rbp-0x391b],0x90
    bcd2:	c6 85 e6 c6 ff ff 06 	mov    BYTE PTR [rbp-0x391a],0x6
    bcd9:	c6 85 e7 c6 ff ff d1 	mov    BYTE PTR [rbp-0x3919],0xd1
    bce0:	c6 85 e8 c6 ff ff e0 	mov    BYTE PTR [rbp-0x3918],0xe0
    bce7:	c6 85 e9 c6 ff ff fb 	mov    BYTE PTR [rbp-0x3917],0xfb
    bcee:	c6 85 ea c6 ff ff a3 	mov    BYTE PTR [rbp-0x3916],0xa3
    bcf5:	c6 85 eb c6 ff ff e0 	mov    BYTE PTR [rbp-0x3915],0xe0
    bcfc:	c6 85 ec c6 ff ff f5 	mov    BYTE PTR [rbp-0x3914],0xf5
    bd03:	c6 85 ed c6 ff ff 84 	mov    BYTE PTR [rbp-0x3913],0x84
    bd0a:	c6 85 ee c6 ff ff 8b 	mov    BYTE PTR [rbp-0x3912],0x8b
    bd11:	c6 85 ef c6 ff ff 85 	mov    BYTE PTR [rbp-0x3911],0x85
    bd18:	c6 85 f0 c6 ff ff 75 	mov    BYTE PTR [rbp-0x3910],0x75
    bd1f:	c6 85 f1 c6 ff ff a2 	mov    BYTE PTR [rbp-0x390f],0xa2
    bd26:	c6 85 f2 c6 ff ff 01 	mov    BYTE PTR [rbp-0x390e],0x1
    bd2d:	c6 85 f3 c6 ff ff e0 	mov    BYTE PTR [rbp-0x390d],0xe0
    bd34:	c6 85 f4 c6 ff ff a3 	mov    BYTE PTR [rbp-0x390c],0xa3
    bd3b:	c6 85 f5 c6 ff ff 05 	mov    BYTE PTR [rbp-0x390b],0x5
    bd42:	c6 85 f6 c6 ff ff a2 	mov    BYTE PTR [rbp-0x390a],0xa2
    bd49:	c6 85 f7 c6 ff ff f0 	mov    BYTE PTR [rbp-0x3909],0xf0
    bd50:	c6 85 f8 c6 ff ff a3 	mov    BYTE PTR [rbp-0x3908],0xa3
    bd57:	c6 85 f9 c6 ff ff 05 	mov    BYTE PTR [rbp-0x3907],0x5
    bd5e:	c6 85 fa c6 ff ff a2 	mov    BYTE PTR [rbp-0x3906],0xa2
    bd65:	c6 85 fb c6 ff ff da 	mov    BYTE PTR [rbp-0x3905],0xda
    bd6c:	c6 85 fc c6 ff ff f6 	mov    BYTE PTR [rbp-0x3904],0xf6
    bd73:	c6 85 fd c6 ff ff d9 	mov    BYTE PTR [rbp-0x3903],0xd9
    bd7a:	c6 85 fe c6 ff ff f4 	mov    BYTE PTR [rbp-0x3902],0xf4
    bd81:	c6 85 ff c6 ff ff 88 	mov    BYTE PTR [rbp-0x3901],0x88
    bd88:	c6 85 00 c7 ff ff a2 	mov    BYTE PTR [rbp-0x3900],0xa2
    bd8f:	c6 85 01 c7 ff ff 22 	mov    BYTE PTR [rbp-0x38ff],0x22
    bd96:	c6 85 02 c7 ff ff a8 	mov    BYTE PTR [rbp-0x38fe],0xa8
    bd9d:	c6 85 03 c7 ff ff a2 	mov    BYTE PTR [rbp-0x38fd],0xa2
    bda4:	c6 85 04 c7 ff ff 85 	mov    BYTE PTR [rbp-0x38fc],0x85
    bdab:	c6 85 06 c7 ff ff a2 	mov    BYTE PTR [rbp-0x38fa],0xa2
    bdb2:	c6 85 07 c7 ff ff 90 	mov    BYTE PTR [rbp-0x38f9],0x90
    bdb9:	c6 85 08 c7 ff ff 06 	mov    BYTE PTR [rbp-0x38f8],0x6
    bdc0:	c6 85 09 c7 ff ff d3 	mov    BYTE PTR [rbp-0x38f7],0xd3
    bdc7:	c6 85 0a c7 ff ff e0 	mov    BYTE PTR [rbp-0x38f6],0xe0
    bdce:	c6 85 0b c7 ff ff f9 	mov    BYTE PTR [rbp-0x38f5],0xf9
    bdd5:	c6 85 0c c7 ff ff a3 	mov    BYTE PTR [rbp-0x38f4],0xa3
    bddc:	c6 85 0d c7 ff ff e0 	mov    BYTE PTR [rbp-0x38f3],0xe0
    bde3:	c6 85 0e c7 ff ff fa 	mov    BYTE PTR [rbp-0x38f2],0xfa
    bdea:	48 8d 95 00 c5 ff ff 	lea    rdx,[rbp-0x3b00]
    bdf1:	b8 00 00 00 00       	mov    eax,0x0
    bdf6:	b9 21 00 00 00       	mov    ecx,0x21
    bdfb:	48 89 d7             	mov    rdi,rdx
    bdfe:	f3 48 ab             	rep stos QWORD PTR es:[rdi],rax
    be01:	48 89 fa             	mov    rdx,rdi
    be04:	89 02                	mov    DWORD PTR [rdx],eax
    be06:	48 83 c2 04          	add    rdx,0x4
    be0a:	66 89 02             	mov    WORD PTR [rdx],ax
    be0d:	48 83 c2 02          	add    rdx,0x2
    be11:	c6 85 01 c5 ff ff 58 	mov    BYTE PTR [rbp-0x3aff],0x58
    be18:	c6 85 02 c5 ff ff 9a 	mov    BYTE PTR [rbp-0x3afe],0x9a
    be1f:	c6 85 03 c5 ff ff e7 	mov    BYTE PTR [rbp-0x3afd],0xe7
    be26:	c6 85 04 c5 ff ff ff 	mov    BYTE PTR [rbp-0x3afc],0xff
    be2d:	48 8d 95 f0 c3 ff ff 	lea    rdx,[rbp-0x3c10]
    be34:	b8 00 00 00 00       	mov    eax,0x0
    be39:	b9 21 00 00 00       	mov    ecx,0x21
    be3e:	48 89 d7             	mov    rdi,rdx
    be41:	f3 48 ab             	rep stos QWORD PTR es:[rdi],rax
    be44:	48 89 fa             	mov    rdx,rdi
    be47:	89 02                	mov    DWORD PTR [rdx],eax
    be49:	48 83 c2 04          	add    rdx,0x4
    be4d:	66 89 02             	mov    WORD PTR [rdx],ax
    be50:	48 83 c2 02          	add    rdx,0x2
    be54:	c6 85 f0 c3 ff ff 60 	mov    BYTE PTR [rbp-0x3c10],0x60
    be5b:	c6 85 f1 c3 ff ff 01 	mov    BYTE PTR [rbp-0x3c0f],0x1
    be62:	c6 85 f2 c3 ff ff 09 	mov    BYTE PTR [rbp-0x3c0e],0x9
    be69:	c6 85 f3 c3 ff ff 90 	mov    BYTE PTR [rbp-0x3c0d],0x90
    be70:	c6 85 f4 c3 ff ff 06 	mov    BYTE PTR [rbp-0x3c0c],0x6
    be77:	c6 85 f5 c3 ff ff ce 	mov    BYTE PTR [rbp-0x3c0b],0xce
    be7e:	c6 85 f6 c3 ff ff e0 	mov    BYTE PTR [rbp-0x3c0a],0xe0
    be85:	c6 85 f7 c3 ff ff fb 	mov    BYTE PTR [rbp-0x3c09],0xfb
    be8c:	c6 85 f8 c3 ff ff a3 	mov    BYTE PTR [rbp-0x3c08],0xa3
    be93:	c6 85 f9 c3 ff ff e0 	mov    BYTE PTR [rbp-0x3c07],0xe0
    be9a:	c6 85 fa c3 ff ff f5 	mov    BYTE PTR [rbp-0x3c06],0xf5
    bea1:	c6 85 fb c3 ff ff 82 	mov    BYTE PTR [rbp-0x3c05],0x82
    bea8:	c6 85 fc c3 ff ff 8b 	mov    BYTE PTR [rbp-0x3c04],0x8b
    beaf:	c6 85 fd c3 ff ff 83 	mov    BYTE PTR [rbp-0x3c03],0x83
    beb6:	c6 85 fe c3 ff ff 05 	mov    BYTE PTR [rbp-0x3c02],0x5
    bebd:	c6 85 ff c3 ff ff a2 	mov    BYTE PTR [rbp-0x3c01],0xa2
    bec4:	c6 85 00 c4 ff ff 90 	mov    BYTE PTR [rbp-0x3c00],0x90
    becb:	c6 85 01 c4 ff ff 06 	mov    BYTE PTR [rbp-0x3bff],0x6
    bed2:	c6 85 02 c4 ff ff d1 	mov    BYTE PTR [rbp-0x3bfe],0xd1
    bed9:	c6 85 03 c4 ff ff e0 	mov    BYTE PTR [rbp-0x3bfd],0xe0
    bee0:	c6 85 04 c4 ff ff fb 	mov    BYTE PTR [rbp-0x3bfc],0xfb
    bee7:	c6 85 05 c4 ff ff a3 	mov    BYTE PTR [rbp-0x3bfb],0xa3
    beee:	c6 85 06 c4 ff ff e0 	mov    BYTE PTR [rbp-0x3bfa],0xe0
    bef5:	c6 85 07 c4 ff ff f5 	mov    BYTE PTR [rbp-0x3bf9],0xf5
    befc:	c6 85 08 c4 ff ff 84 	mov    BYTE PTR [rbp-0x3bf8],0x84
    bf03:	c6 85 09 c4 ff ff 8b 	mov    BYTE PTR [rbp-0x3bf7],0x8b
    bf0a:	c6 85 0a c4 ff ff 85 	mov    BYTE PTR [rbp-0x3bf6],0x85
    bf11:	c6 85 0b c4 ff ff 75 	mov    BYTE PTR [rbp-0x3bf5],0x75
    bf18:	c6 85 0c c4 ff ff a2 	mov    BYTE PTR [rbp-0x3bf4],0xa2
    bf1f:	c6 85 0d c4 ff ff 01 	mov    BYTE PTR [rbp-0x3bf3],0x1
    bf26:	c6 85 0e c4 ff ff e4 	mov    BYTE PTR [rbp-0x3bf2],0xe4
    bf2d:	c6 85 0f c4 ff ff 93 	mov    BYTE PTR [rbp-0x3bf1],0x93
    bf34:	c6 85 10 c4 ff ff a3 	mov    BYTE PTR [rbp-0x3bf0],0xa3
    bf3b:	c6 85 11 c4 ff ff 05 	mov    BYTE PTR [rbp-0x3bef],0x5
    bf42:	c6 85 12 c4 ff ff a2 	mov    BYTE PTR [rbp-0x3bee],0xa2
    bf49:	c6 85 13 c4 ff ff f0 	mov    BYTE PTR [rbp-0x3bed],0xf0
    bf50:	c6 85 14 c4 ff ff a3 	mov    BYTE PTR [rbp-0x3bec],0xa3
    bf57:	c6 85 15 c4 ff ff 05 	mov    BYTE PTR [rbp-0x3beb],0x5
    bf5e:	c6 85 16 c4 ff ff a2 	mov    BYTE PTR [rbp-0x3bea],0xa2
    bf65:	c6 85 17 c4 ff ff da 	mov    BYTE PTR [rbp-0x3be9],0xda
    bf6c:	c6 85 18 c4 ff ff f5 	mov    BYTE PTR [rbp-0x3be8],0xf5
    bf73:	c6 85 19 c4 ff ff d9 	mov    BYTE PTR [rbp-0x3be7],0xd9
    bf7a:	c6 85 1a c4 ff ff f3 	mov    BYTE PTR [rbp-0x3be6],0xf3
    bf81:	c6 85 1b c4 ff ff 88 	mov    BYTE PTR [rbp-0x3be5],0x88
    bf88:	c6 85 1c c4 ff ff a2 	mov    BYTE PTR [rbp-0x3be4],0xa2
    bf8f:	c6 85 1d c4 ff ff 22 	mov    BYTE PTR [rbp-0x3be3],0x22
    bf96:	c6 85 1e c4 ff ff 80 	mov    BYTE PTR [rbp-0x3be2],0x80
    bf9d:	c6 85 1f c4 ff ff fe 	mov    BYTE PTR [rbp-0x3be1],0xfe
    bfa4:	c6 85 20 c4 ff ff 22 	mov    BYTE PTR [rbp-0x3be0],0x22
    bfab:	c6 85 21 c4 ff ff 02 	mov    BYTE PTR [rbp-0x3bdf],0x2
    bfb2:	c6 85 22 c4 ff ff 02 	mov    BYTE PTR [rbp-0x3bde],0x2
    bfb9:	c6 85 24 c4 ff ff e4 	mov    BYTE PTR [rbp-0x3bdc],0xe4
    bfc0:	c6 85 25 c4 ff ff 93 	mov    BYTE PTR [rbp-0x3bdb],0x93
    bfc7:	c6 85 26 c4 ff ff a3 	mov    BYTE PTR [rbp-0x3bda],0xa3
    bfce:	c6 85 27 c4 ff ff f8 	mov    BYTE PTR [rbp-0x3bd9],0xf8
    bfd5:	c6 85 28 c4 ff ff e4 	mov    BYTE PTR [rbp-0x3bd8],0xe4
    bfdc:	c6 85 29 c4 ff ff 93 	mov    BYTE PTR [rbp-0x3bd7],0x93
    bfe3:	c6 85 2a c4 ff ff a3 	mov    BYTE PTR [rbp-0x3bd6],0xa3
    bfea:	c6 85 2b c4 ff ff 40 	mov    BYTE PTR [rbp-0x3bd5],0x40
    bff1:	c6 85 2c c4 ff ff 03 	mov    BYTE PTR [rbp-0x3bd4],0x3
    bff8:	c6 85 2d c4 ff ff f6 	mov    BYTE PTR [rbp-0x3bd3],0xf6
    bfff:	c6 85 2e c4 ff ff 80 	mov    BYTE PTR [rbp-0x3bd2],0x80
    c006:	c6 85 2f c4 ff ff 01 	mov    BYTE PTR [rbp-0x3bd1],0x1
    c00d:	c6 85 30 c4 ff ff f2 	mov    BYTE PTR [rbp-0x3bd0],0xf2
    c014:	c6 85 31 c4 ff ff 08 	mov    BYTE PTR [rbp-0x3bcf],0x8
    c01b:	c6 85 32 c4 ff ff df 	mov    BYTE PTR [rbp-0x3bce],0xdf
    c022:	c6 85 33 c4 ff ff f4 	mov    BYTE PTR [rbp-0x3bcd],0xf4
    c029:	c6 85 34 c4 ff ff 80 	mov    BYTE PTR [rbp-0x3bcc],0x80
    c030:	c6 85 35 c4 ff ff 29 	mov    BYTE PTR [rbp-0x3bcb],0x29
    c037:	c6 85 36 c4 ff ff e4 	mov    BYTE PTR [rbp-0x3bca],0xe4
    c03e:	c6 85 37 c4 ff ff 93 	mov    BYTE PTR [rbp-0x3bc9],0x93
    c045:	c6 85 38 c4 ff ff a3 	mov    BYTE PTR [rbp-0x3bc8],0xa3
    c04c:	c6 85 39 c4 ff ff f8 	mov    BYTE PTR [rbp-0x3bc7],0xf8
    c053:	c6 85 3a c4 ff ff 54 	mov    BYTE PTR [rbp-0x3bc6],0x54
    c05a:	c6 85 3b c4 ff ff 07 	mov    BYTE PTR [rbp-0x3bc5],0x7
    c061:	c6 85 3c c4 ff ff 24 	mov    BYTE PTR [rbp-0x3bc4],0x24
    c068:	c6 85 3d c4 ff ff 0c 	mov    BYTE PTR [rbp-0x3bc3],0xc
    c06f:	c6 85 3e c4 ff ff c8 	mov    BYTE PTR [rbp-0x3bc2],0xc8
    c076:	c6 85 3f c4 ff ff c3 	mov    BYTE PTR [rbp-0x3bc1],0xc3
    c07d:	c6 85 40 c4 ff ff 33 	mov    BYTE PTR [rbp-0x3bc0],0x33
    c084:	c6 85 41 c4 ff ff c4 	mov    BYTE PTR [rbp-0x3bbf],0xc4
    c08b:	c6 85 42 c4 ff ff 54 	mov    BYTE PTR [rbp-0x3bbe],0x54
    c092:	c6 85 43 c4 ff ff 0f 	mov    BYTE PTR [rbp-0x3bbd],0xf
    c099:	c6 85 44 c4 ff ff 44 	mov    BYTE PTR [rbp-0x3bbc],0x44
    c0a0:	c6 85 45 c4 ff ff 20 	mov    BYTE PTR [rbp-0x3bbb],0x20
    c0a7:	c6 85 46 c4 ff ff c8 	mov    BYTE PTR [rbp-0x3bba],0xc8
    c0ae:	c6 85 47 c4 ff ff 83 	mov    BYTE PTR [rbp-0x3bb9],0x83
    c0b5:	c6 85 48 c4 ff ff 40 	mov    BYTE PTR [rbp-0x3bb8],0x40
    c0bc:	c6 85 49 c4 ff ff 04 	mov    BYTE PTR [rbp-0x3bb7],0x4
    c0c3:	c6 85 4a c4 ff ff f4 	mov    BYTE PTR [rbp-0x3bb6],0xf4
    c0ca:	c6 85 4b c4 ff ff 56 	mov    BYTE PTR [rbp-0x3bb5],0x56
    c0d1:	c6 85 4c c4 ff ff 80 	mov    BYTE PTR [rbp-0x3bb4],0x80
    c0d8:	c6 85 4d c4 ff ff 01 	mov    BYTE PTR [rbp-0x3bb3],0x1
    c0df:	c6 85 4e c4 ff ff 46 	mov    BYTE PTR [rbp-0x3bb2],0x46
    c0e6:	c6 85 4f c4 ff ff f6 	mov    BYTE PTR [rbp-0x3bb1],0xf6
    c0ed:	c6 85 50 c4 ff ff df 	mov    BYTE PTR [rbp-0x3bb0],0xdf
    c0f4:	c6 85 51 c4 ff ff e4 	mov    BYTE PTR [rbp-0x3baf],0xe4
    c0fb:	c6 85 52 c4 ff ff 80 	mov    BYTE PTR [rbp-0x3bae],0x80
    c102:	c6 85 53 c4 ff ff 0b 	mov    BYTE PTR [rbp-0x3bad],0xb
    c109:	c6 85 54 c4 ff ff 01 	mov    BYTE PTR [rbp-0x3bac],0x1
    c110:	c6 85 55 c4 ff ff 02 	mov    BYTE PTR [rbp-0x3bab],0x2
    c117:	c6 85 56 c4 ff ff 04 	mov    BYTE PTR [rbp-0x3baa],0x4
    c11e:	c6 85 57 c4 ff ff 08 	mov    BYTE PTR [rbp-0x3ba9],0x8
    c125:	c6 85 58 c4 ff ff 10 	mov    BYTE PTR [rbp-0x3ba8],0x10
    c12c:	c6 85 59 c4 ff ff 20 	mov    BYTE PTR [rbp-0x3ba7],0x20
    c133:	c6 85 5a c4 ff ff 40 	mov    BYTE PTR [rbp-0x3ba6],0x40
    c13a:	c6 85 5b c4 ff ff 80 	mov    BYTE PTR [rbp-0x3ba5],0x80
    c141:	c6 85 5c c4 ff ff 90 	mov    BYTE PTR [rbp-0x3ba4],0x90
    c148:	c6 85 5d c4 ff ff 0d 	mov    BYTE PTR [rbp-0x3ba3],0xd
    c14f:	c6 85 5e c4 ff ff 9d 	mov    BYTE PTR [rbp-0x3ba2],0x9d
    c156:	c6 85 5f c4 ff ff e4 	mov    BYTE PTR [rbp-0x3ba1],0xe4
    c15d:	c6 85 60 c4 ff ff 7e 	mov    BYTE PTR [rbp-0x3ba0],0x7e
    c164:	c6 85 61 c4 ff ff 01 	mov    BYTE PTR [rbp-0x3b9f],0x1
    c16b:	c6 85 62 c4 ff ff 93 	mov    BYTE PTR [rbp-0x3b9e],0x93
    c172:	c6 85 63 c4 ff ff 60 	mov    BYTE PTR [rbp-0x3b9d],0x60
    c179:	c6 85 64 c4 ff ff bc 	mov    BYTE PTR [rbp-0x3b9c],0xbc
    c180:	c6 85 65 c4 ff ff a3 	mov    BYTE PTR [rbp-0x3b9b],0xa3
    c187:	c6 85 66 c4 ff ff ff 	mov    BYTE PTR [rbp-0x3b9a],0xff
    c18e:	c6 85 67 c4 ff ff 54 	mov    BYTE PTR [rbp-0x3b99],0x54
    c195:	c6 85 68 c4 ff ff 3f 	mov    BYTE PTR [rbp-0x3b98],0x3f
    c19c:	c6 85 69 c4 ff ff 30 	mov    BYTE PTR [rbp-0x3b97],0x30
    c1a3:	c6 85 6a c4 ff ff e5 	mov    BYTE PTR [rbp-0x3b96],0xe5
    c1aa:	c6 85 6b c4 ff ff 09 	mov    BYTE PTR [rbp-0x3b95],0x9
    c1b1:	c6 85 6c c4 ff ff 54 	mov    BYTE PTR [rbp-0x3b94],0x54
    c1b8:	c6 85 6d c4 ff ff 1f 	mov    BYTE PTR [rbp-0x3b93],0x1f
    c1bf:	c6 85 6e c4 ff ff fe 	mov    BYTE PTR [rbp-0x3b92],0xfe
    c1c6:	c6 85 6f c4 ff ff e4 	mov    BYTE PTR [rbp-0x3b91],0xe4
    c1cd:	c6 85 70 c4 ff ff 93 	mov    BYTE PTR [rbp-0x3b90],0x93
    c1d4:	c6 85 71 c4 ff ff a3 	mov    BYTE PTR [rbp-0x3b8f],0xa3
    c1db:	c6 85 72 c4 ff ff 60 	mov    BYTE PTR [rbp-0x3b8e],0x60
    c1e2:	c6 85 73 c4 ff ff 01 	mov    BYTE PTR [rbp-0x3b8d],0x1
    c1e9:	c6 85 74 c4 ff ff 0e 	mov    BYTE PTR [rbp-0x3b8c],0xe
    c1f0:	c6 85 75 c4 ff ff cf 	mov    BYTE PTR [rbp-0x3b8b],0xcf
    c1f7:	c6 85 76 c4 ff ff 54 	mov    BYTE PTR [rbp-0x3b8a],0x54
    c1fe:	c6 85 77 c4 ff ff c0 	mov    BYTE PTR [rbp-0x3b89],0xc0
    c205:	c6 85 78 c4 ff ff 25 	mov    BYTE PTR [rbp-0x3b88],0x25
    c20c:	c6 85 79 c4 ff ff e0 	mov    BYTE PTR [rbp-0x3b87],0xe0
    c213:	c6 85 7a c4 ff ff 60 	mov    BYTE PTR [rbp-0x3b86],0x60
    c21a:	c6 85 7b c4 ff ff a8 	mov    BYTE PTR [rbp-0x3b85],0xa8
    c221:	c6 85 7c c4 ff ff 40 	mov    BYTE PTR [rbp-0x3b84],0x40
    c228:	c6 85 7d c4 ff ff b8 	mov    BYTE PTR [rbp-0x3b83],0xb8
    c22f:	c6 85 7e c4 ff ff e4 	mov    BYTE PTR [rbp-0x3b82],0xe4
    c236:	c6 85 7f c4 ff ff 93 	mov    BYTE PTR [rbp-0x3b81],0x93
    c23d:	c6 85 80 c4 ff ff a3 	mov    BYTE PTR [rbp-0x3b80],0xa3
    c244:	c6 85 81 c4 ff ff fa 	mov    BYTE PTR [rbp-0x3b7f],0xfa
    c24b:	c6 85 82 c4 ff ff e4 	mov    BYTE PTR [rbp-0x3b7e],0xe4
    c252:	c6 85 83 c4 ff ff 93 	mov    BYTE PTR [rbp-0x3b7d],0x93
    c259:	c6 85 84 c4 ff ff a3 	mov    BYTE PTR [rbp-0x3b7c],0xa3
    c260:	c6 85 85 c4 ff ff f8 	mov    BYTE PTR [rbp-0x3b7b],0xf8
    c267:	c6 85 86 c4 ff ff e4 	mov    BYTE PTR [rbp-0x3b7a],0xe4
    c26e:	c6 85 87 c4 ff ff 93 	mov    BYTE PTR [rbp-0x3b79],0x93
    c275:	c6 85 88 c4 ff ff a3 	mov    BYTE PTR [rbp-0x3b78],0xa3
    c27c:	c6 85 89 c4 ff ff c8 	mov    BYTE PTR [rbp-0x3b77],0xc8
    c283:	c6 85 8a c4 ff ff c5 	mov    BYTE PTR [rbp-0x3b76],0xc5
    c28a:	c6 85 8b c4 ff ff 82 	mov    BYTE PTR [rbp-0x3b75],0x82
    c291:	c6 85 8c c4 ff ff c8 	mov    BYTE PTR [rbp-0x3b74],0xc8
    c298:	c6 85 8d c4 ff ff ca 	mov    BYTE PTR [rbp-0x3b73],0xca
    c29f:	c6 85 8e c4 ff ff c5 	mov    BYTE PTR [rbp-0x3b72],0xc5
    c2a6:	c6 85 8f c4 ff ff 83 	mov    BYTE PTR [rbp-0x3b71],0x83
    c2ad:	c6 85 90 c4 ff ff ca 	mov    BYTE PTR [rbp-0x3b70],0xca
    c2b4:	c6 85 91 c4 ff ff f0 	mov    BYTE PTR [rbp-0x3b6f],0xf0
    c2bb:	c6 85 92 c4 ff ff a3 	mov    BYTE PTR [rbp-0x3b6e],0xa3
    c2c2:	c6 85 93 c4 ff ff c8 	mov    BYTE PTR [rbp-0x3b6d],0xc8
    c2c9:	c6 85 94 c4 ff ff c5 	mov    BYTE PTR [rbp-0x3b6c],0xc5
    c2d0:	c6 85 95 c4 ff ff 82 	mov    BYTE PTR [rbp-0x3b6b],0x82
    c2d7:	c6 85 96 c4 ff ff c8 	mov    BYTE PTR [rbp-0x3b6a],0xc8
    c2de:	c6 85 97 c4 ff ff ca 	mov    BYTE PTR [rbp-0x3b69],0xca
    c2e5:	c6 85 98 c4 ff ff c5 	mov    BYTE PTR [rbp-0x3b68],0xc5
    c2ec:	c6 85 99 c4 ff ff 83 	mov    BYTE PTR [rbp-0x3b67],0x83
    c2f3:	c6 85 9a c4 ff ff ca 	mov    BYTE PTR [rbp-0x3b66],0xca
    c2fa:	c6 85 9b c4 ff ff df 	mov    BYTE PTR [rbp-0x3b65],0xdf
    c301:	c6 85 9c c4 ff ff e9 	mov    BYTE PTR [rbp-0x3b64],0xe9
    c308:	c6 85 9d c4 ff ff de 	mov    BYTE PTR [rbp-0x3b63],0xde
    c30f:	c6 85 9e c4 ff ff e7 	mov    BYTE PTR [rbp-0x3b62],0xe7
    c316:	c6 85 9f c4 ff ff 80 	mov    BYTE PTR [rbp-0x3b61],0x80
    c31d:	c6 85 a0 c4 ff ff be 	mov    BYTE PTR [rbp-0x3b60],0xbe
    c324:	c6 85 a1 c4 ff ff e4 	mov    BYTE PTR [rbp-0x3b5f],0xe4
    c32b:	c6 85 a2 c4 ff ff 90 	mov    BYTE PTR [rbp-0x3b5e],0x90
    c332:	c6 85 a3 c4 ff ff 06 	mov    BYTE PTR [rbp-0x3b5d],0x6
    c339:	c6 85 a4 c4 ff ff bc 	mov    BYTE PTR [rbp-0x3b5c],0xbc
    c340:	c6 85 a5 c4 ff ff f0 	mov    BYTE PTR [rbp-0x3b5b],0xf0
    c347:	c6 85 a6 c4 ff ff 7b 	mov    BYTE PTR [rbp-0x3b5a],0x7b
    c34e:	c6 85 a7 c4 ff ff 01 	mov    BYTE PTR [rbp-0x3b59],0x1
    c355:	c6 85 a8 c4 ff ff 7a 	mov    BYTE PTR [rbp-0x3b58],0x7a
    c35c:	c6 85 a9 c4 ff ff 04 	mov    BYTE PTR [rbp-0x3b57],0x4
    c363:	c6 85 aa c4 ff ff 79 	mov    BYTE PTR [rbp-0x3b56],0x79
    c36a:	c6 85 ab c4 ff ff 48 	mov    BYTE PTR [rbp-0x3b55],0x48
    c371:	c6 85 ac c4 ff ff 90 	mov    BYTE PTR [rbp-0x3b54],0x90
    c378:	c6 85 ad c4 ff ff 06 	mov    BYTE PTR [rbp-0x3b53],0x6
    c37f:	c6 85 ae c4 ff ff c2 	mov    BYTE PTR [rbp-0x3b52],0xc2
    c386:	c6 85 af c4 ff ff f0 	mov    BYTE PTR [rbp-0x3b51],0xf0
    c38d:	c6 85 b0 c4 ff ff a3 	mov    BYTE PTR [rbp-0x3b50],0xa3
    c394:	c6 85 b1 c4 ff ff f0 	mov    BYTE PTR [rbp-0x3b4f],0xf0
    c39b:	c6 85 b2 c4 ff ff fd 	mov    BYTE PTR [rbp-0x3b4e],0xfd
    c3a2:	c6 85 b3 c4 ff ff 7c 	mov    BYTE PTR [rbp-0x3b4d],0x7c
    c3a9:	c6 85 b4 c4 ff ff 70 	mov    BYTE PTR [rbp-0x3b4c],0x70
    c3b0:	c6 85 b5 c4 ff ff 12 	mov    BYTE PTR [rbp-0x3b4b],0x12
    c3b7:	c6 85 b6 c4 ff ff 1d 	mov    BYTE PTR [rbp-0x3b4a],0x1d
    c3be:	c6 85 b7 c4 ff ff 4e 	mov    BYTE PTR [rbp-0x3b49],0x4e
    c3c5:	c6 85 b8 c4 ff ff 90 	mov    BYTE PTR [rbp-0x3b48],0x90
    c3cc:	c6 85 b9 c4 ff ff 04 	mov    BYTE PTR [rbp-0x3b47],0x4
    c3d3:	c6 85 ba c4 ff ff 48 	mov    BYTE PTR [rbp-0x3b46],0x48
    c3da:	c6 85 bb c4 ff ff e0 	mov    BYTE PTR [rbp-0x3b45],0xe0
    c3e1:	c6 85 bc c4 ff ff f4 	mov    BYTE PTR [rbp-0x3b44],0xf4
    c3e8:	c6 85 bd c4 ff ff 70 	mov    BYTE PTR [rbp-0x3b43],0x70
    c3ef:	c6 85 be c4 ff ff 38 	mov    BYTE PTR [rbp-0x3b42],0x38
    c3f6:	c6 85 bf c4 ff ff 90 	mov    BYTE PTR [rbp-0x3b41],0x90
    c3fd:	c6 85 c0 c4 ff ff 06 	mov    BYTE PTR [rbp-0x3b40],0x6
    c404:	c6 85 c1 c4 ff ff bc 	mov    BYTE PTR [rbp-0x3b3f],0xbc
    c40b:	c6 85 c2 c4 ff ff f0 	mov    BYTE PTR [rbp-0x3b3e],0xf0
    c412:	c6 85 c3 c4 ff ff 90 	mov    BYTE PTR [rbp-0x3b3d],0x90
    c419:	c6 85 c4 c4 ff ff 06 	mov    BYTE PTR [rbp-0x3b3c],0x6
    c420:	c6 85 c5 c4 ff ff bc 	mov    BYTE PTR [rbp-0x3b3b],0xbc
    c427:	c6 85 c6 c4 ff ff e0 	mov    BYTE PTR [rbp-0x3b3a],0xe0
    c42e:	c6 85 c7 c4 ff ff c3 	mov    BYTE PTR [rbp-0x3b39],0xc3
    c435:	c6 85 c8 c4 ff ff 94 	mov    BYTE PTR [rbp-0x3b38],0x94
    c43c:	c6 85 c9 c4 ff ff 55 	mov    BYTE PTR [rbp-0x3b37],0x55
    c443:	c6 85 ca c4 ff ff 74 	mov    BYTE PTR [rbp-0x3b36],0x74
    c44a:	c6 85 cb c4 ff ff 80 	mov    BYTE PTR [rbp-0x3b35],0x80
    c451:	c6 85 cc c4 ff ff 94 	mov    BYTE PTR [rbp-0x3b34],0x94
    c458:	c6 85 cd c4 ff ff 80 	mov    BYTE PTR [rbp-0x3b33],0x80
    c45f:	c6 85 ce c4 ff ff 50 	mov    BYTE PTR [rbp-0x3b32],0x50
    c466:	c6 85 cf c4 ff ff 21 	mov    BYTE PTR [rbp-0x3b31],0x21
    c46d:	c6 85 d0 c4 ff ff e0 	mov    BYTE PTR [rbp-0x3b30],0xe0
    c474:	c6 85 d1 c4 ff ff ff 	mov    BYTE PTR [rbp-0x3b2f],0xff
    c47b:	c6 85 d2 c4 ff ff 24 	mov    BYTE PTR [rbp-0x3b2e],0x24
    c482:	c6 85 d3 c4 ff ff 12 	mov    BYTE PTR [rbp-0x3b2d],0x12
    c489:	c6 85 d4 c4 ff ff f5 	mov    BYTE PTR [rbp-0x3b2c],0xf5
    c490:	c6 85 d5 c4 ff ff 82 	mov    BYTE PTR [rbp-0x3b2b],0x82
    c497:	c6 85 d6 c4 ff ff e4 	mov    BYTE PTR [rbp-0x3b2a],0xe4
    c49e:	c6 85 d7 c4 ff ff 34 	mov    BYTE PTR [rbp-0x3b29],0x34
    c4a5:	c6 85 d9 c4 ff ff f5 	mov    BYTE PTR [rbp-0x3b27],0xf5
    c4ac:	c6 85 da c4 ff ff 83 	mov    BYTE PTR [rbp-0x3b26],0x83
    c4b3:	c6 85 db c4 ff ff e0 	mov    BYTE PTR [rbp-0x3b25],0xe0
    c4ba:	c6 85 dc c4 ff ff fe 	mov    BYTE PTR [rbp-0x3b24],0xfe
    c4c1:	c6 85 dd c4 ff ff 74 	mov    BYTE PTR [rbp-0x3b23],0x74
    c4c8:	c6 85 de c4 ff ff 48 	mov    BYTE PTR [rbp-0x3b22],0x48
    c4cf:	c6 85 df c4 ff ff 2f 	mov    BYTE PTR [rbp-0x3b21],0x2f
    c4d6:	c6 85 e0 c4 ff ff f5 	mov    BYTE PTR [rbp-0x3b20],0xf5
    c4dd:	c6 85 e1 c4 ff ff 82 	mov    BYTE PTR [rbp-0x3b1f],0x82
    c4e4:	c6 85 e2 c4 ff ff e4 	mov    BYTE PTR [rbp-0x3b1e],0xe4
    c4eb:	c6 85 e3 c4 ff ff 34 	mov    BYTE PTR [rbp-0x3b1d],0x34
    c4f2:	c6 85 e4 c4 ff ff 04 	mov    BYTE PTR [rbp-0x3b1c],0x4
    c4f9:	c6 85 e5 c4 ff ff f5 	mov    BYTE PTR [rbp-0x3b1b],0xf5
    c500:	c6 85 e6 c4 ff ff 83 	mov    BYTE PTR [rbp-0x3b1a],0x83
    c507:	c6 85 e7 c4 ff ff ee 	mov    BYTE PTR [rbp-0x3b19],0xee
    c50e:	c6 85 e8 c4 ff ff f0 	mov    BYTE PTR [rbp-0x3b18],0xf0
    c515:	c6 85 e9 c4 ff ff 90 	mov    BYTE PTR [rbp-0x3b17],0x90
    c51c:	c6 85 ea c4 ff ff 06 	mov    BYTE PTR [rbp-0x3b16],0x6
    c523:	c6 85 eb c4 ff ff bc 	mov    BYTE PTR [rbp-0x3b15],0xbc
    c52a:	c6 85 ec c4 ff ff e0 	mov    BYTE PTR [rbp-0x3b14],0xe0
    c531:	c6 85 ed c4 ff ff 04 	mov    BYTE PTR [rbp-0x3b13],0x4
    c538:	c6 85 ee c4 ff ff f0 	mov    BYTE PTR [rbp-0x3b12],0xf0
    c53f:	48 8d 95 e0 c2 ff ff 	lea    rdx,[rbp-0x3d20]
    c546:	b8 00 00 00 00       	mov    eax,0x0
    c54b:	b9 21 00 00 00       	mov    ecx,0x21
    c550:	48 89 d7             	mov    rdi,rdx
    c553:	f3 48 ab             	rep stos QWORD PTR es:[rdi],rax
    c556:	48 89 fa             	mov    rdx,rdi
    c559:	89 02                	mov    DWORD PTR [rdx],eax
    c55b:	48 83 c2 04          	add    rdx,0x4
    c55f:	66 89 02             	mov    WORD PTR [rdx],ax
    c562:	48 83 c2 02          	add    rdx,0x2
    c566:	c6 85 e1 c2 ff ff 58 	mov    BYTE PTR [rbp-0x3d1f],0x58
    c56d:	c6 85 e2 c2 ff ff 9b 	mov    BYTE PTR [rbp-0x3d1e],0x9b
    c574:	c6 85 e3 c2 ff ff e6 	mov    BYTE PTR [rbp-0x3d1d],0xe6
    c57b:	c6 85 e4 c2 ff ff ff 	mov    BYTE PTR [rbp-0x3d1c],0xff
    c582:	48 8d 95 d0 c1 ff ff 	lea    rdx,[rbp-0x3e30]
    c589:	b8 00 00 00 00       	mov    eax,0x0
    c58e:	b9 21 00 00 00       	mov    ecx,0x21
    c593:	48 89 d7             	mov    rdi,rdx
    c596:	f3 48 ab             	rep stos QWORD PTR es:[rdi],rax
    c599:	48 89 fa             	mov    rdx,rdi
    c59c:	89 02                	mov    DWORD PTR [rdx],eax
    c59e:	48 83 c2 04          	add    rdx,0x4
    c5a2:	66 89 02             	mov    WORD PTR [rdx],ax
    c5a5:	48 83 c2 02          	add    rdx,0x2
    c5a9:	c6 85 d0 c1 ff ff 80 	mov    BYTE PTR [rbp-0x3e30],0x80
    c5b0:	c6 85 d1 c1 ff ff d2 	mov    BYTE PTR [rbp-0x3e2f],0xd2
    c5b7:	c6 85 d2 c1 ff ff 12 	mov    BYTE PTR [rbp-0x3e2e],0x12
    c5be:	c6 85 d3 c1 ff ff 15 	mov    BYTE PTR [rbp-0x3e2d],0x15
    c5c5:	c6 85 d4 c1 ff ff f5 	mov    BYTE PTR [rbp-0x3e2c],0xf5
    c5cc:	c6 85 d5 c1 ff ff 12 	mov    BYTE PTR [rbp-0x3e2b],0x12
    c5d3:	c6 85 d6 c1 ff ff 10 	mov    BYTE PTR [rbp-0x3e2a],0x10
    c5da:	c6 85 d7 c1 ff ff 42 	mov    BYTE PTR [rbp-0x3e29],0x42
    c5e1:	c6 85 d8 c1 ff ff e4 	mov    BYTE PTR [rbp-0x3e28],0xe4
    c5e8:	c6 85 d9 c1 ff ff 90 	mov    BYTE PTR [rbp-0x3e27],0x90
    c5ef:	c6 85 da c1 ff ff 06 	mov    BYTE PTR [rbp-0x3e26],0x6
    c5f6:	c6 85 db c1 ff ff bc 	mov    BYTE PTR [rbp-0x3e25],0xbc
    c5fd:	c6 85 dc c1 ff ff f0 	mov    BYTE PTR [rbp-0x3e24],0xf0
    c604:	c6 85 dd c1 ff ff 90 	mov    BYTE PTR [rbp-0x3e23],0x90
    c60b:	c6 85 de c1 ff ff 06 	mov    BYTE PTR [rbp-0x3e22],0x6
    c612:	c6 85 df c1 ff ff bc 	mov    BYTE PTR [rbp-0x3e21],0xbc
    c619:	c6 85 e0 c1 ff ff e0 	mov    BYTE PTR [rbp-0x3e20],0xe0
    c620:	c6 85 e1 c1 ff ff ff 	mov    BYTE PTR [rbp-0x3e1f],0xff
    c627:	c6 85 e2 c1 ff ff c3 	mov    BYTE PTR [rbp-0x3e1e],0xc3
    c62e:	c6 85 e3 c1 ff ff 94 	mov    BYTE PTR [rbp-0x3e1d],0x94
    c635:	c6 85 e4 c1 ff ff 55 	mov    BYTE PTR [rbp-0x3e1c],0x55
    c63c:	c6 85 e5 c1 ff ff 74 	mov    BYTE PTR [rbp-0x3e1b],0x74
    c643:	c6 85 e6 c1 ff ff 80 	mov    BYTE PTR [rbp-0x3e1a],0x80
    c64a:	c6 85 e7 c1 ff ff 94 	mov    BYTE PTR [rbp-0x3e19],0x94
    c651:	c6 85 e8 c1 ff ff 80 	mov    BYTE PTR [rbp-0x3e18],0x80
    c658:	c6 85 e9 c1 ff ff 50 	mov    BYTE PTR [rbp-0x3e17],0x50
    c65f:	c6 85 ea c1 ff ff 14 	mov    BYTE PTR [rbp-0x3e16],0x14
    c666:	c6 85 eb c1 ff ff 74 	mov    BYTE PTR [rbp-0x3e15],0x74
    c66d:	c6 85 ec c1 ff ff 12 	mov    BYTE PTR [rbp-0x3e14],0x12
    c674:	c6 85 ed c1 ff ff 2f 	mov    BYTE PTR [rbp-0x3e13],0x2f
    c67b:	c6 85 ee c1 ff ff f5 	mov    BYTE PTR [rbp-0x3e12],0xf5
    c682:	c6 85 ef c1 ff ff 82 	mov    BYTE PTR [rbp-0x3e11],0x82
    c689:	c6 85 f0 c1 ff ff e4 	mov    BYTE PTR [rbp-0x3e10],0xe4
    c690:	c6 85 f1 c1 ff ff 34 	mov    BYTE PTR [rbp-0x3e0f],0x34
    c697:	c6 85 f3 c1 ff ff f5 	mov    BYTE PTR [rbp-0x3e0d],0xf5
    c69e:	c6 85 f4 c1 ff ff 83 	mov    BYTE PTR [rbp-0x3e0c],0x83
    c6a5:	c6 85 f5 c1 ff ff e4 	mov    BYTE PTR [rbp-0x3e0b],0xe4
    c6ac:	c6 85 f6 c1 ff ff f0 	mov    BYTE PTR [rbp-0x3e0a],0xf0
    c6b3:	c6 85 f7 c1 ff ff 90 	mov    BYTE PTR [rbp-0x3e09],0x90
    c6ba:	c6 85 f8 c1 ff ff 06 	mov    BYTE PTR [rbp-0x3e08],0x6
    c6c1:	c6 85 f9 c1 ff ff bc 	mov    BYTE PTR [rbp-0x3e07],0xbc
    c6c8:	c6 85 fa c1 ff ff e0 	mov    BYTE PTR [rbp-0x3e06],0xe0
    c6cf:	c6 85 fb c1 ff ff 04 	mov    BYTE PTR [rbp-0x3e05],0x4
    c6d6:	c6 85 fc c1 ff ff f0 	mov    BYTE PTR [rbp-0x3e04],0xf0
    c6dd:	c6 85 fd c1 ff ff 80 	mov    BYTE PTR [rbp-0x3e03],0x80
    c6e4:	c6 85 fe c1 ff ff de 	mov    BYTE PTR [rbp-0x3e02],0xde
    c6eb:	c6 85 ff c1 ff ff 22 	mov    BYTE PTR [rbp-0x3e01],0x22
    c6f2:	c6 85 00 c2 ff ff 90 	mov    BYTE PTR [rbp-0x3e00],0x90
    c6f9:	c6 85 01 c2 ff ff 06 	mov    BYTE PTR [rbp-0x3dff],0x6
    c700:	c6 85 02 c2 ff ff bc 	mov    BYTE PTR [rbp-0x3dfe],0xbc
    c707:	c6 85 03 c2 ff ff 12 	mov    BYTE PTR [rbp-0x3dfd],0x12
    c70e:	c6 85 04 c2 ff ff 16 	mov    BYTE PTR [rbp-0x3dfc],0x16
    c715:	c6 85 05 c2 ff ff 06 	mov    BYTE PTR [rbp-0x3dfb],0x6
    c71c:	c6 85 06 c2 ff ff a3 	mov    BYTE PTR [rbp-0x3dfa],0xa3
    c723:	c6 85 07 c2 ff ff ea 	mov    BYTE PTR [rbp-0x3df9],0xea
    c72a:	c6 85 08 c2 ff ff f0 	mov    BYTE PTR [rbp-0x3df8],0xf0
    c731:	c6 85 09 c2 ff ff a3 	mov    BYTE PTR [rbp-0x3df7],0xa3
    c738:	c6 85 0a c2 ff ff eb 	mov    BYTE PTR [rbp-0x3df6],0xeb
    c73f:	c6 85 0b c2 ff ff f0 	mov    BYTE PTR [rbp-0x3df5],0xf0
    c746:	c6 85 0c c2 ff ff e4 	mov    BYTE PTR [rbp-0x3df4],0xe4
    c74d:	c6 85 0d c2 ff ff a3 	mov    BYTE PTR [rbp-0x3df3],0xa3
    c754:	c6 85 0e c2 ff ff f0 	mov    BYTE PTR [rbp-0x3df2],0xf0
    c75b:	c6 85 0f c2 ff ff a3 	mov    BYTE PTR [rbp-0x3df1],0xa3
    c762:	c6 85 10 c2 ff ff f0 	mov    BYTE PTR [rbp-0x3df0],0xf0
    c769:	c6 85 11 c2 ff ff 90 	mov    BYTE PTR [rbp-0x3def],0x90
    c770:	c6 85 12 c2 ff ff 06 	mov    BYTE PTR [rbp-0x3dee],0x6
    c777:	c6 85 13 c2 ff ff c0 	mov    BYTE PTR [rbp-0x3ded],0xc0
    c77e:	c6 85 14 c2 ff ff e0 	mov    BYTE PTR [rbp-0x3dec],0xe0
    c785:	c6 85 15 c2 ff ff fe 	mov    BYTE PTR [rbp-0x3deb],0xfe
    c78c:	c6 85 16 c2 ff ff a3 	mov    BYTE PTR [rbp-0x3dea],0xa3
    c793:	c6 85 17 c2 ff ff e0 	mov    BYTE PTR [rbp-0x3de9],0xe0
    c79a:	c6 85 18 c2 ff ff ff 	mov    BYTE PTR [rbp-0x3de8],0xff
    c7a1:	c6 85 19 c2 ff ff a3 	mov    BYTE PTR [rbp-0x3de7],0xa3
    c7a8:	c6 85 1a c2 ff ff e0 	mov    BYTE PTR [rbp-0x3de6],0xe0
    c7af:	c6 85 1b c2 ff ff fc 	mov    BYTE PTR [rbp-0x3de5],0xfc
    c7b6:	c6 85 1c c2 ff ff a3 	mov    BYTE PTR [rbp-0x3de4],0xa3
    c7bd:	c6 85 1d c2 ff ff e0 	mov    BYTE PTR [rbp-0x3de3],0xe0
    c7c4:	c6 85 1e c2 ff ff fd 	mov    BYTE PTR [rbp-0x3de2],0xfd
    c7cb:	c6 85 1f c2 ff ff c3 	mov    BYTE PTR [rbp-0x3de1],0xc3
    c7d2:	c6 85 20 c2 ff ff 9f 	mov    BYTE PTR [rbp-0x3de0],0x9f
    c7d9:	c6 85 21 c2 ff ff ec 	mov    BYTE PTR [rbp-0x3ddf],0xec
    c7e0:	c6 85 22 c2 ff ff 9e 	mov    BYTE PTR [rbp-0x3dde],0x9e
    c7e7:	c6 85 23 c2 ff ff 50 	mov    BYTE PTR [rbp-0x3ddd],0x50
    c7ee:	c6 85 24 c2 ff ff 3b 	mov    BYTE PTR [rbp-0x3ddc],0x3b
    c7f5:	c6 85 25 c2 ff ff 75 	mov    BYTE PTR [rbp-0x3ddb],0x75
    c7fc:	c6 85 26 c2 ff ff eb 	mov    BYTE PTR [rbp-0x3dda],0xeb
    c803:	c6 85 27 c2 ff ff 01 	mov    BYTE PTR [rbp-0x3dd9],0x1
    c80a:	c6 85 28 c2 ff ff 75 	mov    BYTE PTR [rbp-0x3dd8],0x75
    c811:	c6 85 29 c2 ff ff e9 	mov    BYTE PTR [rbp-0x3dd7],0xe9
    c818:	c6 85 2a c2 ff ff aa 	mov    BYTE PTR [rbp-0x3dd6],0xaa
    c81f:	c6 85 2b c2 ff ff 75 	mov    BYTE PTR [rbp-0x3dd5],0x75
    c826:	c6 85 2c c2 ff ff ea 	mov    BYTE PTR [rbp-0x3dd4],0xea
    c82d:	c6 85 2d c2 ff ff 55 	mov    BYTE PTR [rbp-0x3dd3],0x55
    c834:	c6 85 2e c2 ff ff 90 	mov    BYTE PTR [rbp-0x3dd2],0x90
    c83b:	c6 85 2f c2 ff ff 06 	mov    BYTE PTR [rbp-0x3dd1],0x6
    c842:	c6 85 30 c2 ff ff be 	mov    BYTE PTR [rbp-0x3dd0],0xbe
    c849:	c6 85 31 c2 ff ff e0 	mov    BYTE PTR [rbp-0x3dcf],0xe0
    c850:	c6 85 32 c2 ff ff fe 	mov    BYTE PTR [rbp-0x3dce],0xfe
    c857:	c6 85 33 c2 ff ff a3 	mov    BYTE PTR [rbp-0x3dcd],0xa3
    c85e:	c6 85 34 c2 ff ff e0 	mov    BYTE PTR [rbp-0x3dcc],0xe0
    c865:	c6 85 35 c2 ff ff 2d 	mov    BYTE PTR [rbp-0x3dcb],0x2d
    c86c:	c6 85 36 c2 ff ff f5 	mov    BYTE PTR [rbp-0x3dca],0xf5
    c873:	c6 85 37 c2 ff ff 82 	mov    BYTE PTR [rbp-0x3dc9],0x82
    c87a:	c6 85 38 c2 ff ff ee 	mov    BYTE PTR [rbp-0x3dc8],0xee
    c881:	c6 85 39 c2 ff ff 3c 	mov    BYTE PTR [rbp-0x3dc7],0x3c
    c888:	c6 85 3a c2 ff ff f5 	mov    BYTE PTR [rbp-0x3dc6],0xf5
    c88f:	c6 85 3b c2 ff ff 83 	mov    BYTE PTR [rbp-0x3dc5],0x83
    c896:	c6 85 3c c2 ff ff e0 	mov    BYTE PTR [rbp-0x3dc4],0xe0
    c89d:	c6 85 3d c2 ff ff ff 	mov    BYTE PTR [rbp-0x3dc3],0xff
    c8a4:	c6 85 3e c2 ff ff 90 	mov    BYTE PTR [rbp-0x3dc2],0x90
    c8ab:	c6 85 3f c2 ff ff 06 	mov    BYTE PTR [rbp-0x3dc1],0x6
    c8b2:	c6 85 40 c2 ff ff c2 	mov    BYTE PTR [rbp-0x3dc0],0xc2
    c8b9:	c6 85 41 c2 ff ff e0 	mov    BYTE PTR [rbp-0x3dbf],0xe0
    c8c0:	c6 85 42 c2 ff ff fc 	mov    BYTE PTR [rbp-0x3dbe],0xfc
    c8c7:	c6 85 43 c2 ff ff a3 	mov    BYTE PTR [rbp-0x3dbd],0xa3
    c8ce:	c6 85 44 c2 ff ff e0 	mov    BYTE PTR [rbp-0x3dbc],0xe0
    c8d5:	c6 85 45 c2 ff ff 90 	mov    BYTE PTR [rbp-0x3dbb],0x90
    c8dc:	c6 85 46 c2 ff ff 06 	mov    BYTE PTR [rbp-0x3dba],0x6
    c8e3:	c6 85 47 c2 ff ff bc 	mov    BYTE PTR [rbp-0x3db9],0xbc
    c8ea:	c6 85 48 c2 ff ff 12 	mov    BYTE PTR [rbp-0x3db8],0x12
    c8f1:	c6 85 49 c2 ff ff 16 	mov    BYTE PTR [rbp-0x3db7],0x16
    c8f8:	c6 85 4a c2 ff ff 44 	mov    BYTE PTR [rbp-0x3db6],0x44
    c8ff:	c6 85 4b c2 ff ff 30 	mov    BYTE PTR [rbp-0x3db5],0x30
    c906:	c6 85 4c c2 ff ff e8 	mov    BYTE PTR [rbp-0x3db4],0xe8
    c90d:	c6 85 4d c2 ff ff fd 	mov    BYTE PTR [rbp-0x3db3],0xfd
    c914:	c6 85 4e c2 ff ff c2 	mov    BYTE PTR [rbp-0x3db2],0xc2
    c91b:	c6 85 4f c2 ff ff e8 	mov    BYTE PTR [rbp-0x3db1],0xe8
    c922:	c6 85 50 c2 ff ff 30 	mov    BYTE PTR [rbp-0x3db0],0x30
    c929:	c6 85 51 c2 ff ff e9 	mov    BYTE PTR [rbp-0x3daf],0xe9
    c930:	c6 85 52 c2 ff ff 05 	mov    BYTE PTR [rbp-0x3dae],0x5
    c937:	c6 85 53 c2 ff ff c2 	mov    BYTE PTR [rbp-0x3dad],0xc2
    c93e:	c6 85 54 c2 ff ff e9 	mov    BYTE PTR [rbp-0x3dac],0xe9
    c945:	c6 85 55 c2 ff ff 7f 	mov    BYTE PTR [rbp-0x3dab],0x7f
    c94c:	c6 85 56 c2 ff ff 06 	mov    BYTE PTR [rbp-0x3daa],0x6
    c953:	c6 85 57 c2 ff ff 22 	mov    BYTE PTR [rbp-0x3da9],0x22
    c95a:	c6 85 58 c2 ff ff 90 	mov    BYTE PTR [rbp-0x3da8],0x90
    c961:	c6 85 59 c2 ff ff 06 	mov    BYTE PTR [rbp-0x3da7],0x6
    c968:	c6 85 5a c2 ff ff c2 	mov    BYTE PTR [rbp-0x3da6],0xc2
    c96f:	c6 85 5b c2 ff ff 12 	mov    BYTE PTR [rbp-0x3da5],0x12
    c976:	c6 85 5c c2 ff ff 15 	mov    BYTE PTR [rbp-0x3da4],0x15
    c97d:	c6 85 5d c2 ff ff e2 	mov    BYTE PTR [rbp-0x3da3],0xe2
    c984:	c6 85 5e c2 ff ff 80 	mov    BYTE PTR [rbp-0x3da2],0x80
    c98b:	c6 85 5f c2 ff ff b1 	mov    BYTE PTR [rbp-0x3da1],0xb1
    c992:	c6 85 60 c2 ff ff 7f 	mov    BYTE PTR [rbp-0x3da0],0x7f
    c999:	c6 85 62 c2 ff ff 22 	mov    BYTE PTR [rbp-0x3d9e],0x22
    c9a0:	c6 85 63 c2 ff ff 7e 	mov    BYTE PTR [rbp-0x3d9d],0x7e
    c9a7:	c6 85 64 c2 ff ff 1f 	mov    BYTE PTR [rbp-0x3d9c],0x1f
    c9ae:	c6 85 65 c2 ff ff e4 	mov    BYTE PTR [rbp-0x3d9b],0xe4
    c9b5:	c6 85 66 c2 ff ff fc 	mov    BYTE PTR [rbp-0x3d9a],0xfc
    c9bc:	c6 85 67 c2 ff ff 90 	mov    BYTE PTR [rbp-0x3d99],0x90
    c9c3:	c6 85 68 c2 ff ff 19 	mov    BYTE PTR [rbp-0x3d98],0x19
    c9ca:	c6 85 69 c2 ff ff 27 	mov    BYTE PTR [rbp-0x3d97],0x27
    c9d1:	c6 85 6a c2 ff ff f0 	mov    BYTE PTR [rbp-0x3d96],0xf0
    c9d8:	c6 85 6b c2 ff ff 90 	mov    BYTE PTR [rbp-0x3d95],0x90
    c9df:	c6 85 6c c2 ff ff 19 	mov    BYTE PTR [rbp-0x3d94],0x19
    c9e6:	c6 85 6d c2 ff ff 26 	mov    BYTE PTR [rbp-0x3d93],0x26
    c9ed:	c6 85 6e c2 ff ff f0 	mov    BYTE PTR [rbp-0x3d92],0xf0
    c9f4:	c6 85 6f c2 ff ff 7d 	mov    BYTE PTR [rbp-0x3d91],0x7d
    c9fb:	c6 85 70 c2 ff ff 3f 	mov    BYTE PTR [rbp-0x3d90],0x3f
    ca02:	c6 85 71 c2 ff ff 90 	mov    BYTE PTR [rbp-0x3d8f],0x90
    ca09:	c6 85 72 c2 ff ff 19 	mov    BYTE PTR [rbp-0x3d8e],0x19
    ca10:	c6 85 73 c2 ff ff 23 	mov    BYTE PTR [rbp-0x3d8d],0x23
    ca17:	c6 85 74 c2 ff ff ed 	mov    BYTE PTR [rbp-0x3d8c],0xed
    ca1e:	c6 85 75 c2 ff ff f0 	mov    BYTE PTR [rbp-0x3d8b],0xf0
    ca25:	c6 85 76 c2 ff ff 90 	mov    BYTE PTR [rbp-0x3d8a],0x90
    ca2c:	c6 85 77 c2 ff ff 19 	mov    BYTE PTR [rbp-0x3d89],0x19
    ca33:	c6 85 78 c2 ff ff 21 	mov    BYTE PTR [rbp-0x3d88],0x21
    ca3a:	c6 85 79 c2 ff ff f0 	mov    BYTE PTR [rbp-0x3d87],0xf0
    ca41:	c6 85 7a c2 ff ff ee 	mov    BYTE PTR [rbp-0x3d86],0xee
    ca48:	c6 85 7b c2 ff ff 90 	mov    BYTE PTR [rbp-0x3d85],0x90
    ca4f:	c6 85 7c c2 ff ff 19 	mov    BYTE PTR [rbp-0x3d84],0x19
    ca56:	c6 85 7d c2 ff ff 24 	mov    BYTE PTR [rbp-0x3d83],0x24
    ca5d:	c6 85 7e c2 ff ff f0 	mov    BYTE PTR [rbp-0x3d82],0xf0
    ca64:	c6 85 7f c2 ff ff 90 	mov    BYTE PTR [rbp-0x3d81],0x90
    ca6b:	c6 85 80 c2 ff ff 19 	mov    BYTE PTR [rbp-0x3d80],0x19
    ca72:	c6 85 81 c2 ff ff 22 	mov    BYTE PTR [rbp-0x3d7f],0x22
    ca79:	c6 85 82 c2 ff ff f0 	mov    BYTE PTR [rbp-0x3d7e],0xf0
    ca80:	c6 85 83 c2 ff ff 90 	mov    BYTE PTR [rbp-0x3d7d],0x90
    ca87:	c6 85 84 c2 ff ff 19 	mov    BYTE PTR [rbp-0x3d7c],0x19
    ca8e:	c6 85 85 c2 ff ff 25 	mov    BYTE PTR [rbp-0x3d7b],0x25
    ca95:	c6 85 86 c2 ff ff e0 	mov    BYTE PTR [rbp-0x3d7a],0xe0
    ca9c:	c6 85 87 c2 ff ff 44 	mov    BYTE PTR [rbp-0x3d79],0x44
    caa3:	c6 85 88 c2 ff ff 01 	mov    BYTE PTR [rbp-0x3d78],0x1
    caaa:	c6 85 89 c2 ff ff f0 	mov    BYTE PTR [rbp-0x3d77],0xf0
    cab1:	c6 85 8a c2 ff ff 90 	mov    BYTE PTR [rbp-0x3d76],0x90
    cab8:	c6 85 8b c2 ff ff 19 	mov    BYTE PTR [rbp-0x3d75],0x19
    cabf:	c6 85 8c c2 ff ff 20 	mov    BYTE PTR [rbp-0x3d74],0x20
    cac6:	c6 85 8d c2 ff ff e0 	mov    BYTE PTR [rbp-0x3d73],0xe0
    cacd:	c6 85 8e c2 ff ff 54 	mov    BYTE PTR [rbp-0x3d72],0x54
    cad4:	c6 85 8f c2 ff ff f9 	mov    BYTE PTR [rbp-0x3d71],0xf9
    cadb:	c6 85 90 c2 ff ff f0 	mov    BYTE PTR [rbp-0x3d70],0xf0
    cae2:	c6 85 91 c2 ff ff e0 	mov    BYTE PTR [rbp-0x3d6f],0xe0
    cae9:	c6 85 92 c2 ff ff 44 	mov    BYTE PTR [rbp-0x3d6e],0x44
    caf0:	c6 85 93 c2 ff ff 01 	mov    BYTE PTR [rbp-0x3d6d],0x1
    caf7:	c6 85 94 c2 ff ff f0 	mov    BYTE PTR [rbp-0x3d6c],0xf0
    cafe:	c6 85 95 c2 ff ff e4 	mov    BYTE PTR [rbp-0x3d6b],0xe4
    cb05:	c6 85 96 c2 ff ff fd 	mov    BYTE PTR [rbp-0x3d6a],0xfd
    cb0c:	c6 85 98 c2 ff ff 0d 	mov    BYTE PTR [rbp-0x3d68],0xd
    cb13:	c6 85 99 c2 ff ff bd 	mov    BYTE PTR [rbp-0x3d67],0xbd
    cb1a:	c6 85 9b c2 ff ff 01 	mov    BYTE PTR [rbp-0x3d65],0x1
    cb21:	c6 85 9c c2 ff ff 0c 	mov    BYTE PTR [rbp-0x3d64],0xc
    cb28:	c6 85 9d c2 ff ff ed 	mov    BYTE PTR [rbp-0x3d63],0xed
    cb2f:	c6 85 9e c2 ff ff 64 	mov    BYTE PTR [rbp-0x3d62],0x64
    cb36:	c6 85 9f c2 ff ff 14 	mov    BYTE PTR [rbp-0x3d61],0x14
    cb3d:	c6 85 a0 c2 ff ff 4c 	mov    BYTE PTR [rbp-0x3d60],0x4c
    cb44:	c6 85 a1 c2 ff ff 70 	mov    BYTE PTR [rbp-0x3d5f],0x70
    cb4b:	c6 85 a2 c2 ff ff f4 	mov    BYTE PTR [rbp-0x3d5e],0xf4
    cb52:	c6 85 a3 c2 ff ff 90 	mov    BYTE PTR [rbp-0x3d5d],0x90
    cb59:	c6 85 a4 c2 ff ff 19 	mov    BYTE PTR [rbp-0x3d5c],0x19
    cb60:	c6 85 a5 c2 ff ff 20 	mov    BYTE PTR [rbp-0x3d5b],0x20
    cb67:	c6 85 a6 c2 ff ff e0 	mov    BYTE PTR [rbp-0x3d5a],0xe0
    cb6e:	c6 85 a7 c2 ff ff 54 	mov    BYTE PTR [rbp-0x3d59],0x54
    cb75:	c6 85 a8 c2 ff ff fe 	mov    BYTE PTR [rbp-0x3d58],0xfe
    cb7c:	c6 85 a9 c2 ff ff f0 	mov    BYTE PTR [rbp-0x3d57],0xf0
    cb83:	c6 85 aa c2 ff ff e4 	mov    BYTE PTR [rbp-0x3d56],0xe4
    cb8a:	c6 85 ab c2 ff ff fc 	mov    BYTE PTR [rbp-0x3d55],0xfc
    cb91:	c6 85 ac c2 ff ff fd 	mov    BYTE PTR [rbp-0x3d54],0xfd
    cb98:	c6 85 ae c2 ff ff 0d 	mov    BYTE PTR [rbp-0x3d52],0xd
    cb9f:	c6 85 af c2 ff ff bd 	mov    BYTE PTR [rbp-0x3d51],0xbd
    cba6:	c6 85 b1 c2 ff ff 01 	mov    BYTE PTR [rbp-0x3d4f],0x1
    cbad:	c6 85 b2 c2 ff ff 0c 	mov    BYTE PTR [rbp-0x3d4e],0xc
    cbb4:	c6 85 b3 c2 ff ff ed 	mov    BYTE PTR [rbp-0x3d4d],0xed
    cbbb:	c6 85 b4 c2 ff ff 64 	mov    BYTE PTR [rbp-0x3d4c],0x64
    cbc2:	c6 85 b5 c2 ff ff 0a 	mov    BYTE PTR [rbp-0x3d4b],0xa
    cbc9:	c6 85 b6 c2 ff ff 4c 	mov    BYTE PTR [rbp-0x3d4a],0x4c
    cbd0:	c6 85 b7 c2 ff ff 70 	mov    BYTE PTR [rbp-0x3d49],0x70
    cbd7:	c6 85 b8 c2 ff ff f4 	mov    BYTE PTR [rbp-0x3d48],0xf4
    cbde:	c6 85 b9 c2 ff ff 22 	mov    BYTE PTR [rbp-0x3d47],0x22
    cbe5:	c6 85 ba c2 ff ff 7e 	mov    BYTE PTR [rbp-0x3d46],0x7e
    cbec:	c6 85 bb c2 ff ff 01 	mov    BYTE PTR [rbp-0x3d45],0x1
    cbf3:	c6 85 bc c2 ff ff 7f 	mov    BYTE PTR [rbp-0x3d44],0x7f
    cbfa:	c6 85 be c2 ff ff 90 	mov    BYTE PTR [rbp-0x3d42],0x90
    cc01:	c6 85 bf c2 ff ff 04 	mov    BYTE PTR [rbp-0x3d41],0x4
    cc08:	c6 85 c0 c2 ff ff 48 	mov    BYTE PTR [rbp-0x3d40],0x48
    cc0f:	c6 85 c1 c2 ff ff 74 	mov    BYTE PTR [rbp-0x3d3f],0x74
    cc16:	c6 85 c2 c2 ff ff ff 	mov    BYTE PTR [rbp-0x3d3e],0xff
    cc1d:	c6 85 c3 c2 ff ff f0 	mov    BYTE PTR [rbp-0x3d3d],0xf0
    cc24:	c6 85 c4 c2 ff ff a3 	mov    BYTE PTR [rbp-0x3d3c],0xa3
    cc2b:	c6 85 c5 c2 ff ff df 	mov    BYTE PTR [rbp-0x3d3b],0xdf
    cc32:	c6 85 c6 c2 ff ff fc 	mov    BYTE PTR [rbp-0x3d3a],0xfc
    cc39:	c6 85 c7 c2 ff ff de 	mov    BYTE PTR [rbp-0x3d39],0xde
    cc40:	c6 85 c8 c2 ff ff fa 	mov    BYTE PTR [rbp-0x3d38],0xfa
    cc47:	c6 85 c9 c2 ff ff 12 	mov    BYTE PTR [rbp-0x3d37],0x12
    cc4e:	c6 85 ca c2 ff ff 15 	mov    BYTE PTR [rbp-0x3d36],0x15
    cc55:	c6 85 cb c2 ff ff f5 	mov    BYTE PTR [rbp-0x3d35],0xf5
    cc5c:	c6 85 cc c2 ff ff 12 	mov    BYTE PTR [rbp-0x3d34],0x12
    cc63:	c6 85 cd c2 ff ff 10 	mov    BYTE PTR [rbp-0x3d33],0x10
    cc6a:	c6 85 ce c2 ff ff 42 	mov    BYTE PTR [rbp-0x3d32],0x42
    cc71:	48 8d 95 c0 c0 ff ff 	lea    rdx,[rbp-0x3f40]
    cc78:	b8 00 00 00 00       	mov    eax,0x0
    cc7d:	b9 21 00 00 00       	mov    ecx,0x21
    cc82:	48 89 d7             	mov    rdi,rdx
    cc85:	f3 48 ab             	rep stos QWORD PTR es:[rdi],rax
    cc88:	48 89 fa             	mov    rdx,rdi
    cc8b:	89 02                	mov    DWORD PTR [rdx],eax
    cc8d:	48 83 c2 04          	add    rdx,0x4
    cc91:	66 89 02             	mov    WORD PTR [rdx],ax
    cc94:	48 83 c2 02          	add    rdx,0x2
    cc98:	c6 85 c1 c0 ff ff 58 	mov    BYTE PTR [rbp-0x3f3f],0x58
    cc9f:	c6 85 c2 c0 ff ff 9c 	mov    BYTE PTR [rbp-0x3f3e],0x9c
    cca6:	c6 85 c3 c0 ff ff e5 	mov    BYTE PTR [rbp-0x3f3d],0xe5
    ccad:	c6 85 c4 c0 ff ff ff 	mov    BYTE PTR [rbp-0x3f3c],0xff
    ccb4:	48 8d 95 b0 bf ff ff 	lea    rdx,[rbp-0x4050]
    ccbb:	b8 00 00 00 00       	mov    eax,0x0
    ccc0:	b9 21 00 00 00       	mov    ecx,0x21
    ccc5:	48 89 d7             	mov    rdi,rdx
    ccc8:	f3 48 ab             	rep stos QWORD PTR es:[rdi],rax
    cccb:	48 89 fa             	mov    rdx,rdi
    ccce:	89 02                	mov    DWORD PTR [rdx],eax
    ccd0:	48 83 c2 04          	add    rdx,0x4
    ccd4:	66 89 02             	mov    WORD PTR [rdx],ax
    ccd7:	48 83 c2 02          	add    rdx,0x2
    ccdb:	c6 85 b0 bf ff ff e4 	mov    BYTE PTR [rbp-0x4050],0xe4
    cce2:	c6 85 b1 bf ff ff f5 	mov    BYTE PTR [rbp-0x404f],0xf5
    cce9:	c6 85 b2 bf ff ff a8 	mov    BYTE PTR [rbp-0x404e],0xa8
    ccf0:	c6 85 b3 bf ff ff 75 	mov    BYTE PTR [rbp-0x404d],0x75
    ccf7:	c6 85 b4 bf ff ff c3 	mov    BYTE PTR [rbp-0x404c],0xc3
    ccfe:	c6 85 b5 bf ff ff 01 	mov    BYTE PTR [rbp-0x404b],0x1
    cd05:	c6 85 b6 bf ff ff 75 	mov    BYTE PTR [rbp-0x404a],0x75
    cd0c:	c6 85 b7 bf ff ff b0 	mov    BYTE PTR [rbp-0x4049],0xb0
    cd13:	c6 85 b8 bf ff ff 06 	mov    BYTE PTR [rbp-0x4048],0x6
    cd1a:	c6 85 b9 bf ff ff 90 	mov    BYTE PTR [rbp-0x4047],0x90
    cd21:	c6 85 ba bf ff ff 04 	mov    BYTE PTR [rbp-0x4046],0x4
    cd28:	c6 85 bb bf ff ff 46 	mov    BYTE PTR [rbp-0x4045],0x46
    cd2f:	c6 85 bc bf ff ff 74 	mov    BYTE PTR [rbp-0x4044],0x74
    cd36:	c6 85 bd bf ff ff 80 	mov    BYTE PTR [rbp-0x4043],0x80
    cd3d:	c6 85 be bf ff ff f0 	mov    BYTE PTR [rbp-0x4042],0xf0
    cd44:	c6 85 bf bf ff ff a3 	mov    BYTE PTR [rbp-0x4041],0xa3
    cd4b:	c6 85 c0 bf ff ff e4 	mov    BYTE PTR [rbp-0x4040],0xe4
    cd52:	c6 85 c1 bf ff ff f0 	mov    BYTE PTR [rbp-0x403f],0xf0
    cd59:	c6 85 c2 bf ff ff 90 	mov    BYTE PTR [rbp-0x403e],0x90
    cd60:	c6 85 c3 bf ff ff 04 	mov    BYTE PTR [rbp-0x403d],0x4
    cd67:	c6 85 c4 bf ff ff 46 	mov    BYTE PTR [rbp-0x403c],0x46
    cd6e:	c6 85 c5 bf ff ff e0 	mov    BYTE PTR [rbp-0x403b],0xe0
    cd75:	c6 85 c6 bf ff ff fe 	mov    BYTE PTR [rbp-0x403a],0xfe
    cd7c:	c6 85 c7 bf ff ff a3 	mov    BYTE PTR [rbp-0x4039],0xa3
    cd83:	c6 85 c8 bf ff ff e0 	mov    BYTE PTR [rbp-0x4038],0xe0
    cd8a:	c6 85 c9 bf ff ff ff 	mov    BYTE PTR [rbp-0x4037],0xff
    cd91:	c6 85 ca bf ff ff 12 	mov    BYTE PTR [rbp-0x4036],0x12
    cd98:	c6 85 cb bf ff ff 1d 	mov    BYTE PTR [rbp-0x4035],0x1d
    cd9f:	c6 85 cc bf ff ff 83 	mov    BYTE PTR [rbp-0x4034],0x83
    cda6:	c6 85 cd bf ff ff 90 	mov    BYTE PTR [rbp-0x4033],0x90
    cdad:	c6 85 ce bf ff ff 04 	mov    BYTE PTR [rbp-0x4032],0x4
    cdb4:	c6 85 cf bf ff ff 46 	mov    BYTE PTR [rbp-0x4031],0x46
    cdbb:	c6 85 d0 bf ff ff e0 	mov    BYTE PTR [rbp-0x4030],0xe0
    cdc2:	c6 85 d1 bf ff ff fe 	mov    BYTE PTR [rbp-0x402f],0xfe
    cdc9:	c6 85 d2 bf ff ff a3 	mov    BYTE PTR [rbp-0x402e],0xa3
    cdd0:	c6 85 d3 bf ff ff e0 	mov    BYTE PTR [rbp-0x402d],0xe0
    cdd7:	c6 85 d4 bf ff ff ff 	mov    BYTE PTR [rbp-0x402c],0xff
    cdde:	c6 85 d5 bf ff ff 7c 	mov    BYTE PTR [rbp-0x402b],0x7c
    cde5:	c6 85 d6 bf ff ff 06 	mov    BYTE PTR [rbp-0x402a],0x6
    cdec:	c6 85 d7 bf ff ff 7d 	mov    BYTE PTR [rbp-0x4029],0x7d
    cdf3:	c6 85 d8 bf ff ff 48 	mov    BYTE PTR [rbp-0x4028],0x48
    cdfa:	c6 85 d9 bf ff ff 7b 	mov    BYTE PTR [rbp-0x4027],0x7b
    ce01:	c6 85 da bf ff ff 60 	mov    BYTE PTR [rbp-0x4026],0x60
    ce08:	c6 85 db bf ff ff 7a 	mov    BYTE PTR [rbp-0x4025],0x7a
    ce0f:	c6 85 dd bf ff ff 02 	mov    BYTE PTR [rbp-0x4023],0x2
    ce16:	c6 85 de bf ff ff 1c 	mov    BYTE PTR [rbp-0x4022],0x1c
    ce1d:	c6 85 df bf ff ff 16 	mov    BYTE PTR [rbp-0x4021],0x16
    ce24:	c6 85 e0 bf ff ff 53 	mov    BYTE PTR [rbp-0x4020],0x53
    ce2b:	c6 85 e1 bf ff ff e1 	mov    BYTE PTR [rbp-0x401f],0xe1
    ce32:	c6 85 e2 bf ff ff fe 	mov    BYTE PTR [rbp-0x401e],0xfe
    ce39:	c6 85 e3 bf ff ff ed 	mov    BYTE PTR [rbp-0x401d],0xed
    ce40:	c6 85 e4 bf ff ff 4c 	mov    BYTE PTR [rbp-0x401c],0x4c
    ce47:	c6 85 e5 bf ff ff 70 	mov    BYTE PTR [rbp-0x401b],0x70
    ce4e:	c6 85 e6 bf ff ff 03 	mov    BYTE PTR [rbp-0x401a],0x3
    ce55:	c6 85 e7 bf ff ff 7c 	mov    BYTE PTR [rbp-0x4019],0x7c
    ce5c:	c6 85 e8 bf ff ff 01 	mov    BYTE PTR [rbp-0x4018],0x1
    ce63:	c6 85 e9 bf ff ff fd 	mov    BYTE PTR [rbp-0x4017],0xfd
    ce6a:	c6 85 ea bf ff ff d3 	mov    BYTE PTR [rbp-0x4016],0xd3
    ce71:	c6 85 eb bf ff ff ed 	mov    BYTE PTR [rbp-0x4015],0xed
    ce78:	c6 85 ec bf ff ff 94 	mov    BYTE PTR [rbp-0x4014],0x94
    ce7f:	c6 85 ee bf ff ff ec 	mov    BYTE PTR [rbp-0x4012],0xec
    ce86:	c6 85 ef bf ff ff 94 	mov    BYTE PTR [rbp-0x4011],0x94
    ce8d:	c6 85 f1 bf ff ff 40 	mov    BYTE PTR [rbp-0x400f],0x40
    ce94:	c6 85 f2 bf ff ff 22 	mov    BYTE PTR [rbp-0x400e],0x22
    ce9b:	c6 85 f3 bf ff ff 7f 	mov    BYTE PTR [rbp-0x400d],0x7f
    cea2:	c6 85 f4 bf ff ff 05 	mov    BYTE PTR [rbp-0x400c],0x5
    cea9:	c6 85 f5 bf ff ff ae 	mov    BYTE PTR [rbp-0x400b],0xae
    ceb0:	c6 85 f6 bf ff ff 07 	mov    BYTE PTR [rbp-0x400a],0x7
    ceb7:	c6 85 f7 bf ff ff 1f 	mov    BYTE PTR [rbp-0x4009],0x1f
    cebe:	c6 85 f8 bf ff ff ee 	mov    BYTE PTR [rbp-0x4008],0xee
    cec5:	c6 85 f9 bf ff ff 60 	mov    BYTE PTR [rbp-0x4007],0x60
    cecc:	c6 85 fa bf ff ff 07 	mov    BYTE PTR [rbp-0x4006],0x7
    ced3:	c6 85 00 c0 ff ff 80 	mov    BYTE PTR [rbp-0x4000],0x80
    ceda:	c6 85 01 c0 ff ff f3 	mov    BYTE PTR [rbp-0x3fff],0xf3
    cee1:	c6 85 02 c0 ff ff e5 	mov    BYTE PTR [rbp-0x3ffe],0xe5
    cee8:	c6 85 03 c0 ff ff e2 	mov    BYTE PTR [rbp-0x3ffd],0xe2
    ceef:	c6 85 04 c0 ff ff 12 	mov    BYTE PTR [rbp-0x3ffc],0x12
    cef6:	c6 85 05 c0 ff ff 13 	mov    BYTE PTR [rbp-0x3ffb],0x13
    cefd:	c6 85 06 c0 ff ff b2 	mov    BYTE PTR [rbp-0x3ffa],0xb2
    cf04:	c6 85 07 c0 ff ff 74 	mov    BYTE PTR [rbp-0x3ff9],0x74
    cf0b:	c6 85 08 c0 ff ff 01 	mov    BYTE PTR [rbp-0x3ff8],0x1
    cf12:	c6 85 09 c0 ff ff 29 	mov    BYTE PTR [rbp-0x3ff7],0x29
    cf19:	c6 85 0a c0 ff ff f9 	mov    BYTE PTR [rbp-0x3ff6],0xf9
    cf20:	c6 85 0b c0 ff ff e4 	mov    BYTE PTR [rbp-0x3ff5],0xe4
    cf27:	c6 85 0c c0 ff ff 3a 	mov    BYTE PTR [rbp-0x3ff4],0x3a
    cf2e:	c6 85 0d c0 ff ff fa 	mov    BYTE PTR [rbp-0x3ff3],0xfa
    cf35:	c6 85 0e c0 ff ff ed 	mov    BYTE PTR [rbp-0x3ff2],0xed
    cf3c:	c6 85 0f c0 ff ff 1d 	mov    BYTE PTR [rbp-0x3ff1],0x1d
    cf43:	c6 85 10 c0 ff ff 70 	mov    BYTE PTR [rbp-0x3ff0],0x70
    cf4a:	c6 85 11 c0 ff ff d8 	mov    BYTE PTR [rbp-0x3fef],0xd8
    cf51:	c6 85 12 c0 ff ff 1c 	mov    BYTE PTR [rbp-0x3fee],0x1c
    cf58:	c6 85 13 c0 ff ff 80 	mov    BYTE PTR [rbp-0x3fed],0x80
    cf5f:	c6 85 14 c0 ff ff d5 	mov    BYTE PTR [rbp-0x3fec],0xd5
    cf66:	c6 85 15 c0 ff ff 43 	mov    BYTE PTR [rbp-0x3feb],0x43
    cf6d:	c6 85 16 c0 ff ff e1 	mov    BYTE PTR [rbp-0x3fea],0xe1
    cf74:	c6 85 17 c0 ff ff 01 	mov    BYTE PTR [rbp-0x3fe9],0x1
    cf7b:	c6 85 18 c0 ff ff 22 	mov    BYTE PTR [rbp-0x3fe8],0x22
    cf82:	c6 85 19 c0 ff ff 90 	mov    BYTE PTR [rbp-0x3fe7],0x90
    cf89:	c6 85 1a c0 ff ff 06 	mov    BYTE PTR [rbp-0x3fe6],0x6
    cf90:	c6 85 1b c0 ff ff c2 	mov    BYTE PTR [rbp-0x3fe5],0xc2
    cf97:	c6 85 1c c0 ff ff e0 	mov    BYTE PTR [rbp-0x3fe4],0xe0
    cf9e:	c6 85 1d c0 ff ff 70 	mov    BYTE PTR [rbp-0x3fe3],0x70
    cfa5:	c6 85 1e c0 ff ff 02 	mov    BYTE PTR [rbp-0x3fe2],0x2
    cfac:	c6 85 1f c0 ff ff a3 	mov    BYTE PTR [rbp-0x3fe1],0xa3
    cfb3:	c6 85 20 c0 ff ff e0 	mov    BYTE PTR [rbp-0x3fe0],0xe0
    cfba:	c6 85 21 c0 ff ff 70 	mov    BYTE PTR [rbp-0x3fdf],0x70
    cfc1:	c6 85 22 c0 ff ff 08 	mov    BYTE PTR [rbp-0x3fde],0x8
    cfc8:	c6 85 23 c0 ff ff 90 	mov    BYTE PTR [rbp-0x3fdd],0x90
    cfcf:	c6 85 24 c0 ff ff 06 	mov    BYTE PTR [rbp-0x3fdc],0x6
    cfd6:	c6 85 25 c0 ff ff c2 	mov    BYTE PTR [rbp-0x3fdb],0xc2
    cfdd:	c6 85 26 c0 ff ff 04 	mov    BYTE PTR [rbp-0x3fda],0x4
    cfe4:	c6 85 27 c0 ff ff f0 	mov    BYTE PTR [rbp-0x3fd9],0xf0
    cfeb:	c6 85 28 c0 ff ff a3 	mov    BYTE PTR [rbp-0x3fd8],0xa3
    cff2:	c6 85 29 c0 ff ff e4 	mov    BYTE PTR [rbp-0x3fd7],0xe4
    cff9:	c6 85 2a c0 ff ff f0 	mov    BYTE PTR [rbp-0x3fd6],0xf0
    d000:	c6 85 2b c0 ff ff c0 	mov    BYTE PTR [rbp-0x3fd5],0xc0
    d007:	c6 85 2c c0 ff ff 03 	mov    BYTE PTR [rbp-0x3fd4],0x3
    d00e:	c6 85 2d c0 ff ff c0 	mov    BYTE PTR [rbp-0x3fd3],0xc0
    d015:	c6 85 2e c0 ff ff 02 	mov    BYTE PTR [rbp-0x3fd2],0x2
    d01c:	c6 85 2f c0 ff ff c0 	mov    BYTE PTR [rbp-0x3fd1],0xc0
    d023:	c6 85 30 c0 ff ff 01 	mov    BYTE PTR [rbp-0x3fd0],0x1
    d02a:	c6 85 31 c0 ff ff ae 	mov    BYTE PTR [rbp-0x3fcf],0xae
    d031:	c6 85 32 c0 ff ff 04 	mov    BYTE PTR [rbp-0x3fce],0x4
    d038:	c6 85 33 c0 ff ff af 	mov    BYTE PTR [rbp-0x3fcd],0xaf
    d03f:	c6 85 34 c0 ff ff 05 	mov    BYTE PTR [rbp-0x3fcc],0x5
    d046:	c6 85 35 c0 ff ff a9 	mov    BYTE PTR [rbp-0x3fcb],0xa9
    d04d:	c6 85 36 c0 ff ff 07 	mov    BYTE PTR [rbp-0x3fca],0x7
    d054:	c6 85 37 c0 ff ff 12 	mov    BYTE PTR [rbp-0x3fc9],0x12
    d05b:	c6 85 38 c0 ff ff 16 	mov    BYTE PTR [rbp-0x3fc8],0x16
    d062:	c6 85 39 c0 ff ff 32 	mov    BYTE PTR [rbp-0x3fc7],0x32
    d069:	c6 85 3a c0 ff ff 90 	mov    BYTE PTR [rbp-0x3fc6],0x90
    d070:	c6 85 3b c0 ff ff 06 	mov    BYTE PTR [rbp-0x3fc5],0x6
    d077:	c6 85 3c c0 ff ff c2 	mov    BYTE PTR [rbp-0x3fc4],0xc2
    d07e:	c6 85 3d c0 ff ff e0 	mov    BYTE PTR [rbp-0x3fc3],0xe0
    d085:	c6 85 3e c0 ff ff ff 	mov    BYTE PTR [rbp-0x3fc2],0xff
    d08c:	c6 85 3f c0 ff ff a3 	mov    BYTE PTR [rbp-0x3fc1],0xa3
    d093:	c6 85 40 c0 ff ff e0 	mov    BYTE PTR [rbp-0x3fc0],0xe0
    d09a:	c6 85 41 c0 ff ff cf 	mov    BYTE PTR [rbp-0x3fbf],0xcf
    d0a1:	c6 85 42 c0 ff ff 12 	mov    BYTE PTR [rbp-0x3fbe],0x12
    d0a8:	c6 85 43 c0 ff ff 15 	mov    BYTE PTR [rbp-0x3fbd],0x15
    d0af:	c6 85 44 c0 ff ff d2 	mov    BYTE PTR [rbp-0x3fbc],0xd2
    d0b6:	c6 85 45 c0 ff ff d0 	mov    BYTE PTR [rbp-0x3fbb],0xd0
    d0bd:	c6 85 46 c0 ff ff 01 	mov    BYTE PTR [rbp-0x3fba],0x1
    d0c4:	c6 85 47 c0 ff ff d0 	mov    BYTE PTR [rbp-0x3fb9],0xd0
    d0cb:	c6 85 48 c0 ff ff 02 	mov    BYTE PTR [rbp-0x3fb8],0x2
    d0d2:	c6 85 49 c0 ff ff d0 	mov    BYTE PTR [rbp-0x3fb7],0xd0
    d0d9:	c6 85 4a c0 ff ff 03 	mov    BYTE PTR [rbp-0x3fb6],0x3
    d0e0:	c6 85 4b c0 ff ff 02 	mov    BYTE PTR [rbp-0x3fb5],0x2
    d0e7:	c6 85 4c c0 ff ff 1a 	mov    BYTE PTR [rbp-0x3fb4],0x1a
    d0ee:	c6 85 4d c0 ff ff 81 	mov    BYTE PTR [rbp-0x3fb3],0x81
    d0f5:	c6 85 4e c0 ff ff 8f 	mov    BYTE PTR [rbp-0x3fb2],0x8f
    d0fc:	c6 85 4f c0 ff ff 82 	mov    BYTE PTR [rbp-0x3fb1],0x82
    d103:	c6 85 50 c0 ff ff 8e 	mov    BYTE PTR [rbp-0x3fb0],0x8e
    d10a:	c6 85 51 c0 ff ff 83 	mov    BYTE PTR [rbp-0x3faf],0x83
    d111:	c6 85 52 c0 ff ff e4 	mov    BYTE PTR [rbp-0x3fae],0xe4
    d118:	c6 85 53 c0 ff ff ff 	mov    BYTE PTR [rbp-0x3fad],0xff
    d11f:	c6 85 54 c0 ff ff 75 	mov    BYTE PTR [rbp-0x3fac],0x75
    d126:	c6 85 55 c0 ff ff eb 	mov    BYTE PTR [rbp-0x3fab],0xeb
    d12d:	c6 85 56 c0 ff ff 11 	mov    BYTE PTR [rbp-0x3faa],0x11
    d134:	c6 85 57 c0 ff ff 75 	mov    BYTE PTR [rbp-0x3fa9],0x75
    d13b:	c6 85 58 c0 ff ff e9 	mov    BYTE PTR [rbp-0x3fa8],0xe9
    d142:	c6 85 59 c0 ff ff 55 	mov    BYTE PTR [rbp-0x3fa7],0x55
    d149:	c6 85 5a c0 ff ff 75 	mov    BYTE PTR [rbp-0x3fa6],0x75
    d150:	c6 85 5b c0 ff ff ea 	mov    BYTE PTR [rbp-0x3fa5],0xea
    d157:	c6 85 5c c0 ff ff aa 	mov    BYTE PTR [rbp-0x3fa4],0xaa
    d15e:	c6 85 5d c0 ff ff 74 	mov    BYTE PTR [rbp-0x3fa3],0x74
    d165:	c6 85 5e c0 ff ff ff 	mov    BYTE PTR [rbp-0x3fa2],0xff
    d16c:	c6 85 5f c0 ff ff f0 	mov    BYTE PTR [rbp-0x3fa1],0xf0
    d173:	c6 85 60 c0 ff ff 30 	mov    BYTE PTR [rbp-0x3fa0],0x30
    d17a:	c6 85 61 c0 ff ff e8 	mov    BYTE PTR [rbp-0x3f9f],0xe8
    d181:	c6 85 62 c0 ff ff fd 	mov    BYTE PTR [rbp-0x3f9e],0xfd
    d188:	c6 85 63 c0 ff ff c2 	mov    BYTE PTR [rbp-0x3f9d],0xc2
    d18f:	c6 85 64 c0 ff ff e8 	mov    BYTE PTR [rbp-0x3f9c],0xe8
    d196:	c6 85 65 c0 ff ff 30 	mov    BYTE PTR [rbp-0x3f9b],0x30
    d19d:	c6 85 66 c0 ff ff e9 	mov    BYTE PTR [rbp-0x3f9a],0xe9
    d1a4:	c6 85 67 c0 ff ff 05 	mov    BYTE PTR [rbp-0x3f99],0x5
    d1ab:	c6 85 68 c0 ff ff c2 	mov    BYTE PTR [rbp-0x3f98],0xc2
    d1b2:	c6 85 69 c0 ff ff e9 	mov    BYTE PTR [rbp-0x3f97],0xe9
    d1b9:	c6 85 6a c0 ff ff 7f 	mov    BYTE PTR [rbp-0x3f96],0x7f
    d1c0:	c6 85 6b c0 ff ff 06 	mov    BYTE PTR [rbp-0x3f95],0x6
    d1c7:	c6 85 6c c0 ff ff 22 	mov    BYTE PTR [rbp-0x3f94],0x22
    d1ce:	c6 85 6d c0 ff ff 30 	mov    BYTE PTR [rbp-0x3f93],0x30
    d1d5:	c6 85 6e c0 ff ff ea 	mov    BYTE PTR [rbp-0x3f92],0xea
    d1dc:	c6 85 6f c0 ff ff 0d 	mov    BYTE PTR [rbp-0x3f91],0xd
    d1e3:	c6 85 70 c0 ff ff c2 	mov    BYTE PTR [rbp-0x3f90],0xc2
    d1ea:	c6 85 71 c0 ff ff ea 	mov    BYTE PTR [rbp-0x3f8f],0xea
    d1f1:	c6 85 72 c0 ff ff ef 	mov    BYTE PTR [rbp-0x3f8e],0xef
    d1f8:	c6 85 73 c0 ff ff 64 	mov    BYTE PTR [rbp-0x3f8d],0x64
    d1ff:	c6 85 74 c0 ff ff 02 	mov    BYTE PTR [rbp-0x3f8c],0x2
    d206:	c6 85 75 c0 ff ff 70 	mov    BYTE PTR [rbp-0x3f8b],0x70
    d20d:	c6 85 76 c0 ff ff 03 	mov    BYTE PTR [rbp-0x3f8a],0x3
    d214:	c6 85 77 c0 ff ff 7f 	mov    BYTE PTR [rbp-0x3f89],0x7f
    d21b:	c6 85 78 c0 ff ff 0a 	mov    BYTE PTR [rbp-0x3f88],0xa
    d222:	c6 85 79 c0 ff ff 22 	mov    BYTE PTR [rbp-0x3f87],0x22
    d229:	c6 85 7a c0 ff ff 0f 	mov    BYTE PTR [rbp-0x3f86],0xf
    d230:	c6 85 7b c0 ff ff 80 	mov    BYTE PTR [rbp-0x3f85],0x80
    d237:	c6 85 7c c0 ff ff da 	mov    BYTE PTR [rbp-0x3f84],0xda
    d23e:	c6 85 7d c0 ff ff 7f 	mov    BYTE PTR [rbp-0x3f83],0x7f
    d245:	c6 85 7f c0 ff ff 22 	mov    BYTE PTR [rbp-0x3f81],0x22
    d24c:	c6 85 80 c0 ff ff ae 	mov    BYTE PTR [rbp-0x3f80],0xae
    d253:	c6 85 81 c0 ff ff 07 	mov    BYTE PTR [rbp-0x3f7f],0x7
    d25a:	c6 85 82 c0 ff ff ee 	mov    BYTE PTR [rbp-0x3f7e],0xee
    d261:	c6 85 83 c0 ff ff fd 	mov    BYTE PTR [rbp-0x3f7d],0xfd
    d268:	c6 85 84 c0 ff ff 33 	mov    BYTE PTR [rbp-0x3f7c],0x33
    d26f:	c6 85 85 c0 ff ff 95 	mov    BYTE PTR [rbp-0x3f7b],0x95
    d276:	c6 85 86 c0 ff ff e0 	mov    BYTE PTR [rbp-0x3f7a],0xe0
    d27d:	c6 85 87 c0 ff ff 4d 	mov    BYTE PTR [rbp-0x3f79],0x4d
    d284:	c6 85 88 c0 ff ff 70 	mov    BYTE PTR [rbp-0x3f78],0x70
    d28b:	c6 85 89 c0 ff ff 09 	mov    BYTE PTR [rbp-0x3f77],0x9
    d292:	c6 85 8a c0 ff ff 7f 	mov    BYTE PTR [rbp-0x3f76],0x7f
    d299:	c6 85 8b c0 ff ff 90 	mov    BYTE PTR [rbp-0x3f75],0x90
    d2a0:	c6 85 8c c0 ff ff 12 	mov    BYTE PTR [rbp-0x3f74],0x12
    d2a7:	c6 85 8d c0 ff ff 1d 	mov    BYTE PTR [rbp-0x3f73],0x1d
    d2ae:	c6 85 8e c0 ff ff d3 	mov    BYTE PTR [rbp-0x3f72],0xd3
    d2b5:	c6 85 8f c0 ff ff e4 	mov    BYTE PTR [rbp-0x3f71],0xe4
    d2bc:	c6 85 90 c0 ff ff ff 	mov    BYTE PTR [rbp-0x3f70],0xff
    d2c3:	c6 85 91 c0 ff ff 80 	mov    BYTE PTR [rbp-0x3f6f],0x80
    d2ca:	c6 85 92 c0 ff ff 07 	mov    BYTE PTR [rbp-0x3f6e],0x7
    d2d1:	c6 85 93 c0 ff ff 7f 	mov    BYTE PTR [rbp-0x3f6d],0x7f
    d2d8:	c6 85 94 c0 ff ff 98 	mov    BYTE PTR [rbp-0x3f6c],0x98
    d2df:	c6 85 95 c0 ff ff 12 	mov    BYTE PTR [rbp-0x3f6b],0x12
    d2e6:	c6 85 96 c0 ff ff 1d 	mov    BYTE PTR [rbp-0x3f6a],0x1d
    d2ed:	c6 85 97 c0 ff ff d3 	mov    BYTE PTR [rbp-0x3f69],0xd3
    d2f4:	c6 85 98 c0 ff ff af 	mov    BYTE PTR [rbp-0x3f68],0xaf
    d2fb:	c6 85 99 c0 ff ff 06 	mov    BYTE PTR [rbp-0x3f67],0x6
    d302:	c6 85 9a c0 ff ff 12 	mov    BYTE PTR [rbp-0x3f66],0x12
    d309:	c6 85 9b c0 ff ff 1d 	mov    BYTE PTR [rbp-0x3f65],0x1d
    d310:	c6 85 9c c0 ff ff d3 	mov    BYTE PTR [rbp-0x3f64],0xd3
    d317:	c6 85 9d c0 ff ff 22 	mov    BYTE PTR [rbp-0x3f63],0x22
    d31e:	c6 85 9e c0 ff ff 75 	mov    BYTE PTR [rbp-0x3f62],0x75
    d325:	c6 85 9f c0 ff ff df 	mov    BYTE PTR [rbp-0x3f61],0xdf
    d32c:	c6 85 a0 c0 ff ff 20 	mov    BYTE PTR [rbp-0x3f60],0x20
    d333:	c6 85 a1 c0 ff ff 8f 	mov    BYTE PTR [rbp-0x3f5f],0x8f
    d33a:	c6 85 a2 c0 ff ff d9 	mov    BYTE PTR [rbp-0x3f5e],0xd9
    d341:	c6 85 a3 c0 ff ff 30 	mov    BYTE PTR [rbp-0x3f5d],0x30
    d348:	c6 85 a4 c0 ff ff d8 	mov    BYTE PTR [rbp-0x3f5c],0xd8
    d34f:	c6 85 a5 c0 ff ff fd 	mov    BYTE PTR [rbp-0x3f5b],0xfd
    d356:	c6 85 a6 c0 ff ff e4 	mov    BYTE PTR [rbp-0x3f5a],0xe4
    d35d:	c6 85 a7 c0 ff ff f5 	mov    BYTE PTR [rbp-0x3f59],0xf5
    d364:	c6 85 a8 c0 ff ff df 	mov    BYTE PTR [rbp-0x3f58],0xdf
    d36b:	c6 85 a9 c0 ff ff 22 	mov    BYTE PTR [rbp-0x3f57],0x22
    d372:	c6 85 aa c0 ff ff e4 	mov    BYTE PTR [rbp-0x3f56],0xe4
    d379:	c6 85 ab c0 ff ff f5 	mov    BYTE PTR [rbp-0x3f55],0xf5
    d380:	c6 85 ac c0 ff ff df 	mov    BYTE PTR [rbp-0x3f54],0xdf
    d387:	c6 85 ad c0 ff ff e5 	mov    BYTE PTR [rbp-0x3f53],0xe5
    d38e:	c6 85 ae c0 ff ff d8 	mov    BYTE PTR [rbp-0x3f52],0xd8
    d395:	48 8d 95 a0 be ff ff 	lea    rdx,[rbp-0x4160]
    d39c:	b8 00 00 00 00       	mov    eax,0x0
    d3a1:	b9 21 00 00 00       	mov    ecx,0x21
    d3a6:	48 89 d7             	mov    rdi,rdx
    d3a9:	f3 48 ab             	rep stos QWORD PTR es:[rdi],rax
    d3ac:	48 89 fa             	mov    rdx,rdi
    d3af:	89 02                	mov    DWORD PTR [rdx],eax
    d3b1:	48 83 c2 04          	add    rdx,0x4
    d3b5:	66 89 02             	mov    WORD PTR [rdx],ax
    d3b8:	48 83 c2 02          	add    rdx,0x2
    d3bc:	c6 85 a1 be ff ff 58 	mov    BYTE PTR [rbp-0x415f],0x58
    d3c3:	c6 85 a2 be ff ff 9d 	mov    BYTE PTR [rbp-0x415e],0x9d
    d3ca:	c6 85 a3 be ff ff e4 	mov    BYTE PTR [rbp-0x415d],0xe4
    d3d1:	c6 85 a4 be ff ff 1c 	mov    BYTE PTR [rbp-0x415c],0x1c
    d3d8:	48 8d 95 90 bd ff ff 	lea    rdx,[rbp-0x4270]
    d3df:	b8 00 00 00 00       	mov    eax,0x0
    d3e4:	b9 21 00 00 00       	mov    ecx,0x21
    d3e9:	48 89 d7             	mov    rdi,rdx
    d3ec:	f3 48 ab             	rep stos QWORD PTR es:[rdi],rax
    d3ef:	48 89 fa             	mov    rdx,rdi
    d3f2:	89 02                	mov    DWORD PTR [rdx],eax
    d3f4:	48 83 c2 04          	add    rdx,0x4
    d3f8:	66 89 02             	mov    WORD PTR [rdx],ax
    d3fb:	48 83 c2 02          	add    rdx,0x2
    d3ff:	c6 85 90 bd ff ff 30 	mov    BYTE PTR [rbp-0x4270],0x30
    d406:	c6 85 91 bd ff ff e1 	mov    BYTE PTR [rbp-0x426f],0xe1
    d40d:	c6 85 92 bd ff ff fb 	mov    BYTE PTR [rbp-0x426e],0xfb
    d414:	c6 85 93 bd ff ff af 	mov    BYTE PTR [rbp-0x426d],0xaf
    d41b:	c6 85 94 bd ff ff d9 	mov    BYTE PTR [rbp-0x426c],0xd9
    d422:	c6 85 95 bd ff ff 22 	mov    BYTE PTR [rbp-0x426b],0x22
    d429:	c6 85 96 bd ff ff c2 	mov    BYTE PTR [rbp-0x426a],0xc2
    d430:	c6 85 97 bd ff ff a8 	mov    BYTE PTR [rbp-0x4269],0xa8
    d437:	c6 85 98 bd ff ff 32 	mov    BYTE PTR [rbp-0x4268],0x32
    d43e:	c6 85 99 bd ff ff c2 	mov    BYTE PTR [rbp-0x4267],0xc2
    d445:	c6 85 9a bd ff ff a9 	mov    BYTE PTR [rbp-0x4266],0xa9
    d44c:	c6 85 9b bd ff ff 32 	mov    BYTE PTR [rbp-0x4265],0x32
    d453:	c6 85 9c bd ff ff c2 	mov    BYTE PTR [rbp-0x4264],0xc2
    d45a:	c6 85 9d bd ff ff aa 	mov    BYTE PTR [rbp-0x4263],0xaa
    d461:	c6 85 9e bd ff ff 32 	mov    BYTE PTR [rbp-0x4262],0x32
    d468:	c6 85 9f bd ff ff c2 	mov    BYTE PTR [rbp-0x4261],0xc2
    d46f:	c6 85 a0 bd ff ff ab 	mov    BYTE PTR [rbp-0x4260],0xab
    d476:	c6 85 a1 bd ff ff 32 	mov    BYTE PTR [rbp-0x425f],0x32
    d47d:	c6 85 a2 bd ff ff c2 	mov    BYTE PTR [rbp-0x425e],0xc2
    d484:	c6 85 a3 bd ff ff ac 	mov    BYTE PTR [rbp-0x425d],0xac
    d48b:	c6 85 a4 bd ff ff 32 	mov    BYTE PTR [rbp-0x425c],0x32
    d492:	c6 85 a5 bd ff ff c2 	mov    BYTE PTR [rbp-0x425b],0xc2
    d499:	c6 85 a6 bd ff ff ad 	mov    BYTE PTR [rbp-0x425a],0xad
    d4a0:	c6 85 a7 bd ff ff 32 	mov    BYTE PTR [rbp-0x4259],0x32
    d4a7:	c6 85 a8 bd ff ff c2 	mov    BYTE PTR [rbp-0x4258],0xc2
    d4ae:	c6 85 a9 bd ff ff ae 	mov    BYTE PTR [rbp-0x4257],0xae
    d4b5:	c6 85 aa bd ff ff 32 	mov    BYTE PTR [rbp-0x4256],0x32
    d4bc:	c6 85 ab bd ff ff ff 	mov    BYTE PTR [rbp-0x4255],0xff
    d4c3:	48 8d 95 80 bc ff ff 	lea    rdx,[rbp-0x4380]
    d4ca:	b8 00 00 00 00       	mov    eax,0x0
    d4cf:	b9 21 00 00 00       	mov    ecx,0x21
    d4d4:	48 89 d7             	mov    rdi,rdx
    d4d7:	f3 48 ab             	rep stos QWORD PTR es:[rdi],rax
    d4da:	48 89 fa             	mov    rdx,rdi
    d4dd:	89 02                	mov    DWORD PTR [rdx],eax
    d4df:	48 83 c2 04          	add    rdx,0x4
    d4e3:	66 89 02             	mov    WORD PTR [rdx],ax
    d4e6:	48 83 c2 02          	add    rdx,0x2
    d4ea:	c6 85 81 bc ff ff 50 	mov    BYTE PTR [rbp-0x437f],0x50
    d4f1:	c6 85 83 bc ff ff 06 	mov    BYTE PTR [rbp-0x437d],0x6
    d4f8:	48 8d 95 70 bb ff ff 	lea    rdx,[rbp-0x4490]
    d4ff:	b8 00 00 00 00       	mov    eax,0x0
    d504:	b9 21 00 00 00       	mov    ecx,0x21
    d509:	48 89 d7             	mov    rdi,rdx
    d50c:	f3 48 ab             	rep stos QWORD PTR es:[rdi],rax
    d50f:	48 89 fa             	mov    rdx,rdi
    d512:	89 02                	mov    DWORD PTR [rdx],eax
    d514:	48 83 c2 04          	add    rdx,0x4
    d518:	66 89 02             	mov    WORD PTR [rdx],ax
    d51b:	48 83 c2 02          	add    rdx,0x2
    d51f:	c6 85 71 bb ff ff 58 	mov    BYTE PTR [rbp-0x448f],0x58
    d526:	c6 85 72 bb ff ff 80 	mov    BYTE PTR [rbp-0x448e],0x80
    d52d:	c6 85 73 bb ff ff 80 	mov    BYTE PTR [rbp-0x448d],0x80
    d534:	c6 85 74 bb ff ff 80 	mov    BYTE PTR [rbp-0x448c],0x80
    d53b:	48 8d 95 60 ba ff ff 	lea    rdx,[rbp-0x45a0]
    d542:	b8 00 00 00 00       	mov    eax,0x0
    d547:	b9 21 00 00 00       	mov    ecx,0x21
    d54c:	48 89 d7             	mov    rdi,rdx
    d54f:	f3 48 ab             	rep stos QWORD PTR es:[rdi],rax
    d552:	48 89 fa             	mov    rdx,rdi
    d555:	89 02                	mov    DWORD PTR [rdx],eax
    d557:	48 83 c2 04          	add    rdx,0x4
    d55b:	66 89 02             	mov    WORD PTR [rdx],ax
    d55e:	48 83 c2 02          	add    rdx,0x2
    d562:	c6 85 60 ba ff ff 54 	mov    BYTE PTR [rbp-0x45a0],0x54
    d569:	c6 85 61 ba ff ff 1f 	mov    BYTE PTR [rbp-0x459f],0x1f
    d570:	c6 85 62 ba ff ff ff 	mov    BYTE PTR [rbp-0x459e],0xff
    d577:	c6 85 63 ba ff ff ef 	mov    BYTE PTR [rbp-0x459d],0xef
    d57e:	c6 85 64 ba ff ff 60 	mov    BYTE PTR [rbp-0x459c],0x60
    d585:	c6 85 65 ba ff ff 01 	mov    BYTE PTR [rbp-0x459b],0x1
    d58c:	c6 85 66 ba ff ff 0e 	mov    BYTE PTR [rbp-0x459a],0xe
    d593:	c6 85 67 ba ff ff e4 	mov    BYTE PTR [rbp-0x4599],0xe4
    d59a:	c6 85 68 ba ff ff 93 	mov    BYTE PTR [rbp-0x4598],0x93
    d5a1:	c6 85 69 ba ff ff fa 	mov    BYTE PTR [rbp-0x4597],0xfa
    d5a8:	c6 85 6a ba ff ff a3 	mov    BYTE PTR [rbp-0x4596],0xa3
    d5af:	c6 85 6b ba ff ff e4 	mov    BYTE PTR [rbp-0x4595],0xe4
    d5b6:	c6 85 6c ba ff ff 93 	mov    BYTE PTR [rbp-0x4594],0x93
    d5bd:	c6 85 6d ba ff ff f8 	mov    BYTE PTR [rbp-0x4593],0xf8
    d5c4:	c6 85 6e ba ff ff e4 	mov    BYTE PTR [rbp-0x4592],0xe4
    d5cb:	c6 85 6f ba ff ff a3 	mov    BYTE PTR [rbp-0x4591],0xa3
    d5d2:	c6 85 70 ba ff ff e4 	mov    BYTE PTR [rbp-0x4590],0xe4
    d5d9:	c6 85 71 ba ff ff 93 	mov    BYTE PTR [rbp-0x458f],0x93
    d5e0:	c6 85 72 ba ff ff a3 	mov    BYTE PTR [rbp-0x458e],0xa3
    d5e7:	c6 85 73 ba ff ff fb 	mov    BYTE PTR [rbp-0x458d],0xfb
    d5ee:	c6 85 74 ba ff ff c8 	mov    BYTE PTR [rbp-0x458c],0xc8
    d5f5:	c6 85 75 ba ff ff c5 	mov    BYTE PTR [rbp-0x458b],0xc5
    d5fc:	c6 85 76 ba ff ff 82 	mov    BYTE PTR [rbp-0x458a],0x82
    d603:	c6 85 77 ba ff ff c8 	mov    BYTE PTR [rbp-0x4589],0xc8
    d60a:	c6 85 78 ba ff ff ca 	mov    BYTE PTR [rbp-0x4588],0xca
    d611:	c6 85 79 ba ff ff c5 	mov    BYTE PTR [rbp-0x4587],0xc5
    d618:	c6 85 7a ba ff ff 83 	mov    BYTE PTR [rbp-0x4586],0x83
    d61f:	c6 85 7b ba ff ff ca 	mov    BYTE PTR [rbp-0x4585],0xca
    d626:	c6 85 7c ba ff ff eb 	mov    BYTE PTR [rbp-0x4584],0xeb
    d62d:	c6 85 7d ba ff ff f0 	mov    BYTE PTR [rbp-0x4583],0xf0
    d634:	c6 85 7e ba ff ff a3 	mov    BYTE PTR [rbp-0x4582],0xa3
    d63b:	c6 85 7f ba ff ff c8 	mov    BYTE PTR [rbp-0x4581],0xc8
    d642:	c6 85 80 ba ff ff c5 	mov    BYTE PTR [rbp-0x4580],0xc5
    d649:	c6 85 81 ba ff ff 82 	mov    BYTE PTR [rbp-0x457f],0x82
    d650:	c6 85 82 ba ff ff c8 	mov    BYTE PTR [rbp-0x457e],0xc8
    d657:	c6 85 83 ba ff ff ca 	mov    BYTE PTR [rbp-0x457d],0xca
    d65e:	c6 85 84 ba ff ff c5 	mov    BYTE PTR [rbp-0x457c],0xc5
    d665:	c6 85 85 ba ff ff 83 	mov    BYTE PTR [rbp-0x457b],0x83
    d66c:	c6 85 86 ba ff ff ca 	mov    BYTE PTR [rbp-0x457a],0xca
    d673:	c6 85 87 ba ff ff df 	mov    BYTE PTR [rbp-0x4579],0xdf
    d67a:	c6 85 88 ba ff ff e7 	mov    BYTE PTR [rbp-0x4578],0xe7
    d681:	c6 85 89 ba ff ff de 	mov    BYTE PTR [rbp-0x4577],0xde
    d688:	c6 85 8a ba ff ff e5 	mov    BYTE PTR [rbp-0x4576],0xe5
    d68f:	c6 85 8b ba ff ff 80 	mov    BYTE PTR [rbp-0x4575],0x80
    d696:	c6 85 8c ba ff ff b1 	mov    BYTE PTR [rbp-0x4574],0xb1
    d69d:	c6 85 8d ba ff ff ee 	mov    BYTE PTR [rbp-0x4573],0xee
    d6a4:	c6 85 8e ba ff ff 54 	mov    BYTE PTR [rbp-0x4572],0x54
    d6ab:	c6 85 8f ba ff ff 1f 	mov    BYTE PTR [rbp-0x4571],0x1f
    d6b2:	c6 85 90 ba ff ff fe 	mov    BYTE PTR [rbp-0x4570],0xfe
    d6b9:	c6 85 91 ba ff ff 80 	mov    BYTE PTR [rbp-0x456f],0x80
    d6c0:	c6 85 92 ba ff ff 04 	mov    BYTE PTR [rbp-0x456e],0x4
    d6c7:	c6 85 93 ba ff ff ef 	mov    BYTE PTR [rbp-0x456d],0xef
    d6ce:	c6 85 94 ba ff ff 54 	mov    BYTE PTR [rbp-0x456c],0x54
    d6d5:	c6 85 95 ba ff ff 1f 	mov    BYTE PTR [rbp-0x456b],0x1f
    d6dc:	c6 85 96 ba ff ff ff 	mov    BYTE PTR [rbp-0x456a],0xff
    d6e3:	c6 85 97 ba ff ff 0e 	mov    BYTE PTR [rbp-0x4569],0xe
    d6ea:	c6 85 98 ba ff ff e4 	mov    BYTE PTR [rbp-0x4568],0xe4
    d6f1:	c6 85 99 ba ff ff 93 	mov    BYTE PTR [rbp-0x4567],0x93
    d6f8:	c6 85 9a ba ff ff f8 	mov    BYTE PTR [rbp-0x4566],0xf8
    d6ff:	c6 85 9b ba ff ff a3 	mov    BYTE PTR [rbp-0x4565],0xa3
    d706:	c6 85 9c ba ff ff e4 	mov    BYTE PTR [rbp-0x4564],0xe4
    d70d:	c6 85 9d ba ff ff 93 	mov    BYTE PTR [rbp-0x4563],0x93
    d714:	c6 85 9e ba ff ff a3 	mov    BYTE PTR [rbp-0x4562],0xa3
    d71b:	c6 85 9f ba ff ff f6 	mov    BYTE PTR [rbp-0x4561],0xf6
    d722:	c6 85 a0 ba ff ff 08 	mov    BYTE PTR [rbp-0x4560],0x8
    d729:	c6 85 a1 ba ff ff df 	mov    BYTE PTR [rbp-0x455f],0xdf
    d730:	c6 85 a2 ba ff ff f9 	mov    BYTE PTR [rbp-0x455e],0xf9
    d737:	c6 85 a3 ba ff ff de 	mov    BYTE PTR [rbp-0x455d],0xde
    d73e:	c6 85 a4 ba ff ff f7 	mov    BYTE PTR [rbp-0x455c],0xf7
    d745:	c6 85 a5 ba ff ff 80 	mov    BYTE PTR [rbp-0x455b],0x80
    d74c:	c6 85 a6 ba ff ff 97 	mov    BYTE PTR [rbp-0x455a],0x97
    d753:	c6 85 a7 ba ff ff 75 	mov    BYTE PTR [rbp-0x4559],0x75
    d75a:	c6 85 a8 ba ff ff 81 	mov    BYTE PTR [rbp-0x4558],0x81
    d761:	c6 85 a9 ba ff ff 07 	mov    BYTE PTR [rbp-0x4557],0x7
    d768:	c6 85 aa ba ff ff 02 	mov    BYTE PTR [rbp-0x4556],0x2
    d76f:	c6 85 ab ba ff ff 02 	mov    BYTE PTR [rbp-0x4555],0x2
    d776:	c6 85 ad ba ff ff ff 	mov    BYTE PTR [rbp-0x4553],0xff
    d77d:	c6 85 ae ba ff ff ff 	mov    BYTE PTR [rbp-0x4552],0xff
    d784:	c6 85 af ba ff ff ff 	mov    BYTE PTR [rbp-0x4551],0xff
    d78b:	c6 85 b0 ba ff ff ff 	mov    BYTE PTR [rbp-0x4550],0xff
    d792:	c6 85 b1 ba ff ff ff 	mov    BYTE PTR [rbp-0x454f],0xff
    d799:	c6 85 b2 ba ff ff ff 	mov    BYTE PTR [rbp-0x454e],0xff
    d7a0:	c6 85 b3 ba ff ff ff 	mov    BYTE PTR [rbp-0x454d],0xff
    d7a7:	c6 85 b4 ba ff ff ff 	mov    BYTE PTR [rbp-0x454c],0xff
    d7ae:	c6 85 b5 ba ff ff ff 	mov    BYTE PTR [rbp-0x454b],0xff
    d7b5:	c6 85 b6 ba ff ff ff 	mov    BYTE PTR [rbp-0x454a],0xff
    d7bc:	c6 85 b7 ba ff ff ff 	mov    BYTE PTR [rbp-0x4549],0xff
    d7c3:	c6 85 b8 ba ff ff ff 	mov    BYTE PTR [rbp-0x4548],0xff
    d7ca:	c6 85 b9 ba ff ff ff 	mov    BYTE PTR [rbp-0x4547],0xff
    d7d1:	c6 85 ba ba ff ff ff 	mov    BYTE PTR [rbp-0x4546],0xff
    d7d8:	c6 85 bb ba ff ff ff 	mov    BYTE PTR [rbp-0x4545],0xff
    d7df:	c6 85 bc ba ff ff ff 	mov    BYTE PTR [rbp-0x4544],0xff
    d7e6:	c6 85 bd ba ff ff ff 	mov    BYTE PTR [rbp-0x4543],0xff
    d7ed:	c6 85 be ba ff ff ff 	mov    BYTE PTR [rbp-0x4542],0xff
    d7f4:	c6 85 bf ba ff ff ff 	mov    BYTE PTR [rbp-0x4541],0xff
    d7fb:	c6 85 c0 ba ff ff ff 	mov    BYTE PTR [rbp-0x4540],0xff
    d802:	c6 85 c1 ba ff ff ff 	mov    BYTE PTR [rbp-0x453f],0xff
    d809:	c6 85 c2 ba ff ff ff 	mov    BYTE PTR [rbp-0x453e],0xff
    d810:	c6 85 c3 ba ff ff ff 	mov    BYTE PTR [rbp-0x453d],0xff
    d817:	c6 85 c4 ba ff ff ff 	mov    BYTE PTR [rbp-0x453c],0xff
    d81e:	c6 85 c5 ba ff ff ff 	mov    BYTE PTR [rbp-0x453b],0xff
    d825:	c6 85 c6 ba ff ff ff 	mov    BYTE PTR [rbp-0x453a],0xff
    d82c:	c6 85 c7 ba ff ff ff 	mov    BYTE PTR [rbp-0x4539],0xff
    d833:	c6 85 c8 ba ff ff ff 	mov    BYTE PTR [rbp-0x4538],0xff
    d83a:	c6 85 c9 ba ff ff ff 	mov    BYTE PTR [rbp-0x4537],0xff
    d841:	c6 85 ca ba ff ff ff 	mov    BYTE PTR [rbp-0x4536],0xff
    d848:	c6 85 cb ba ff ff ff 	mov    BYTE PTR [rbp-0x4535],0xff
    d84f:	c6 85 cc ba ff ff ff 	mov    BYTE PTR [rbp-0x4534],0xff
    d856:	c6 85 cd ba ff ff ff 	mov    BYTE PTR [rbp-0x4533],0xff
    d85d:	c6 85 ce ba ff ff ff 	mov    BYTE PTR [rbp-0x4532],0xff
    d864:	c6 85 cf ba ff ff ff 	mov    BYTE PTR [rbp-0x4531],0xff
    d86b:	c6 85 d0 ba ff ff ff 	mov    BYTE PTR [rbp-0x4530],0xff
    d872:	c6 85 d1 ba ff ff ff 	mov    BYTE PTR [rbp-0x452f],0xff
    d879:	c6 85 d2 ba ff ff ff 	mov    BYTE PTR [rbp-0x452e],0xff
    d880:	c6 85 d3 ba ff ff ff 	mov    BYTE PTR [rbp-0x452d],0xff
    d887:	c6 85 d4 ba ff ff ff 	mov    BYTE PTR [rbp-0x452c],0xff
    d88e:	c6 85 d5 ba ff ff ff 	mov    BYTE PTR [rbp-0x452b],0xff
    d895:	c6 85 d6 ba ff ff ff 	mov    BYTE PTR [rbp-0x452a],0xff
    d89c:	c6 85 d7 ba ff ff ff 	mov    BYTE PTR [rbp-0x4529],0xff
    d8a3:	c6 85 d8 ba ff ff ff 	mov    BYTE PTR [rbp-0x4528],0xff
    d8aa:	c6 85 d9 ba ff ff ff 	mov    BYTE PTR [rbp-0x4527],0xff
    d8b1:	c6 85 da ba ff ff ff 	mov    BYTE PTR [rbp-0x4526],0xff
    d8b8:	c6 85 db ba ff ff ff 	mov    BYTE PTR [rbp-0x4525],0xff
    d8bf:	c6 85 dc ba ff ff ff 	mov    BYTE PTR [rbp-0x4524],0xff
    d8c6:	c6 85 dd ba ff ff ff 	mov    BYTE PTR [rbp-0x4523],0xff
    d8cd:	c6 85 de ba ff ff ff 	mov    BYTE PTR [rbp-0x4522],0xff
    d8d4:	c6 85 df ba ff ff ff 	mov    BYTE PTR [rbp-0x4521],0xff
    d8db:	48 8d 95 50 b9 ff ff 	lea    rdx,[rbp-0x46b0]
    d8e2:	b8 00 00 00 00       	mov    eax,0x0
    d8e7:	b9 21 00 00 00       	mov    ecx,0x21
    d8ec:	48 89 d7             	mov    rdi,rdx
    d8ef:	f3 48 ab             	rep stos QWORD PTR es:[rdi],rax
    d8f2:	48 89 fa             	mov    rdx,rdi
    d8f5:	89 02                	mov    DWORD PTR [rdx],eax
    d8f7:	48 83 c2 04          	add    rdx,0x4
    d8fb:	66 89 02             	mov    WORD PTR [rdx],ax
    d8fe:	48 83 c2 02          	add    rdx,0x2
    d902:	c6 85 51 b9 ff ff 58 	mov    BYTE PTR [rbp-0x46af],0x58
    d909:	c6 85 52 b9 ff ff 81 	mov    BYTE PTR [rbp-0x46ae],0x81
    d910:	c6 85 54 b9 ff ff 80 	mov    BYTE PTR [rbp-0x46ac],0x80
    d917:	48 8d 95 40 b8 ff ff 	lea    rdx,[rbp-0x47c0]
    d91e:	b8 00 00 00 00       	mov    eax,0x0
    d923:	b9 21 00 00 00       	mov    ecx,0x21
    d928:	48 89 d7             	mov    rdi,rdx
    d92b:	f3 48 ab             	rep stos QWORD PTR es:[rdi],rax
    d92e:	48 89 fa             	mov    rdx,rdi
    d931:	89 02                	mov    DWORD PTR [rdx],eax
    d933:	48 83 c2 04          	add    rdx,0x4
    d937:	66 89 02             	mov    WORD PTR [rdx],ax
    d93a:	48 83 c2 02          	add    rdx,0x2
    d93e:	c6 85 40 b8 ff ff ff 	mov    BYTE PTR [rbp-0x47c0],0xff
    d945:	c6 85 41 b8 ff ff ff 	mov    BYTE PTR [rbp-0x47bf],0xff
    d94c:	c6 85 42 b8 ff ff ff 	mov    BYTE PTR [rbp-0x47be],0xff
    d953:	c6 85 43 b8 ff ff ff 	mov    BYTE PTR [rbp-0x47bd],0xff
    d95a:	c6 85 44 b8 ff ff ff 	mov    BYTE PTR [rbp-0x47bc],0xff
    d961:	c6 85 45 b8 ff ff ff 	mov    BYTE PTR [rbp-0x47bb],0xff
    d968:	c6 85 46 b8 ff ff ff 	mov    BYTE PTR [rbp-0x47ba],0xff
    d96f:	c6 85 47 b8 ff ff ff 	mov    BYTE PTR [rbp-0x47b9],0xff
    d976:	c6 85 48 b8 ff ff ff 	mov    BYTE PTR [rbp-0x47b8],0xff
    d97d:	c6 85 49 b8 ff ff ff 	mov    BYTE PTR [rbp-0x47b7],0xff
    d984:	c6 85 4a b8 ff ff ff 	mov    BYTE PTR [rbp-0x47b6],0xff
    d98b:	c6 85 4b b8 ff ff ff 	mov    BYTE PTR [rbp-0x47b5],0xff
    d992:	c6 85 4c b8 ff ff ff 	mov    BYTE PTR [rbp-0x47b4],0xff
    d999:	c6 85 4d b8 ff ff ff 	mov    BYTE PTR [rbp-0x47b3],0xff
    d9a0:	c6 85 4e b8 ff ff ff 	mov    BYTE PTR [rbp-0x47b2],0xff
    d9a7:	c6 85 4f b8 ff ff ff 	mov    BYTE PTR [rbp-0x47b1],0xff
    d9ae:	c6 85 50 b8 ff ff ff 	mov    BYTE PTR [rbp-0x47b0],0xff
    d9b5:	c6 85 51 b8 ff ff ff 	mov    BYTE PTR [rbp-0x47af],0xff
    d9bc:	c6 85 52 b8 ff ff ff 	mov    BYTE PTR [rbp-0x47ae],0xff
    d9c3:	c6 85 53 b8 ff ff ff 	mov    BYTE PTR [rbp-0x47ad],0xff
    d9ca:	c6 85 54 b8 ff ff ff 	mov    BYTE PTR [rbp-0x47ac],0xff
    d9d1:	c6 85 55 b8 ff ff ff 	mov    BYTE PTR [rbp-0x47ab],0xff
    d9d8:	c6 85 56 b8 ff ff ff 	mov    BYTE PTR [rbp-0x47aa],0xff
    d9df:	c6 85 57 b8 ff ff ff 	mov    BYTE PTR [rbp-0x47a9],0xff
    d9e6:	c6 85 58 b8 ff ff ff 	mov    BYTE PTR [rbp-0x47a8],0xff
    d9ed:	c6 85 59 b8 ff ff ff 	mov    BYTE PTR [rbp-0x47a7],0xff
    d9f4:	c6 85 5a b8 ff ff ff 	mov    BYTE PTR [rbp-0x47a6],0xff
    d9fb:	c6 85 5b b8 ff ff ff 	mov    BYTE PTR [rbp-0x47a5],0xff
    da02:	c6 85 5c b8 ff ff ff 	mov    BYTE PTR [rbp-0x47a4],0xff
    da09:	c6 85 5d b8 ff ff ff 	mov    BYTE PTR [rbp-0x47a3],0xff
    da10:	c6 85 5e b8 ff ff ff 	mov    BYTE PTR [rbp-0x47a2],0xff
    da17:	c6 85 5f b8 ff ff ff 	mov    BYTE PTR [rbp-0x47a1],0xff
    da1e:	c6 85 60 b8 ff ff ff 	mov    BYTE PTR [rbp-0x47a0],0xff
    da25:	c6 85 61 b8 ff ff ff 	mov    BYTE PTR [rbp-0x479f],0xff
    da2c:	c6 85 62 b8 ff ff ff 	mov    BYTE PTR [rbp-0x479e],0xff
    da33:	c6 85 63 b8 ff ff ff 	mov    BYTE PTR [rbp-0x479d],0xff
    da3a:	c6 85 64 b8 ff ff ff 	mov    BYTE PTR [rbp-0x479c],0xff
    da41:	c6 85 65 b8 ff ff ff 	mov    BYTE PTR [rbp-0x479b],0xff
    da48:	c6 85 66 b8 ff ff ff 	mov    BYTE PTR [rbp-0x479a],0xff
    da4f:	c6 85 67 b8 ff ff ff 	mov    BYTE PTR [rbp-0x4799],0xff
    da56:	c6 85 68 b8 ff ff ff 	mov    BYTE PTR [rbp-0x4798],0xff
    da5d:	c6 85 69 b8 ff ff ff 	mov    BYTE PTR [rbp-0x4797],0xff
    da64:	c6 85 6a b8 ff ff ff 	mov    BYTE PTR [rbp-0x4796],0xff
    da6b:	c6 85 6b b8 ff ff ff 	mov    BYTE PTR [rbp-0x4795],0xff
    da72:	c6 85 6c b8 ff ff ff 	mov    BYTE PTR [rbp-0x4794],0xff
    da79:	c6 85 6d b8 ff ff ff 	mov    BYTE PTR [rbp-0x4793],0xff
    da80:	c6 85 6e b8 ff ff ff 	mov    BYTE PTR [rbp-0x4792],0xff
    da87:	c6 85 6f b8 ff ff ff 	mov    BYTE PTR [rbp-0x4791],0xff
    da8e:	c6 85 70 b8 ff ff ff 	mov    BYTE PTR [rbp-0x4790],0xff
    da95:	c6 85 71 b8 ff ff ff 	mov    BYTE PTR [rbp-0x478f],0xff
    da9c:	c6 85 72 b8 ff ff ff 	mov    BYTE PTR [rbp-0x478e],0xff
    daa3:	c6 85 73 b8 ff ff ff 	mov    BYTE PTR [rbp-0x478d],0xff
    daaa:	c6 85 74 b8 ff ff ff 	mov    BYTE PTR [rbp-0x478c],0xff
    dab1:	c6 85 75 b8 ff ff ff 	mov    BYTE PTR [rbp-0x478b],0xff
    dab8:	c6 85 76 b8 ff ff ff 	mov    BYTE PTR [rbp-0x478a],0xff
    dabf:	c6 85 77 b8 ff ff ff 	mov    BYTE PTR [rbp-0x4789],0xff
    dac6:	c6 85 78 b8 ff ff ff 	mov    BYTE PTR [rbp-0x4788],0xff
    dacd:	c6 85 79 b8 ff ff ff 	mov    BYTE PTR [rbp-0x4787],0xff
    dad4:	c6 85 7a b8 ff ff ff 	mov    BYTE PTR [rbp-0x4786],0xff
    dadb:	c6 85 7b b8 ff ff ff 	mov    BYTE PTR [rbp-0x4785],0xff
    dae2:	c6 85 7c b8 ff ff ff 	mov    BYTE PTR [rbp-0x4784],0xff
    dae9:	c6 85 7d b8 ff ff ff 	mov    BYTE PTR [rbp-0x4783],0xff
    daf0:	c6 85 7e b8 ff ff ff 	mov    BYTE PTR [rbp-0x4782],0xff
    daf7:	c6 85 7f b8 ff ff ff 	mov    BYTE PTR [rbp-0x4781],0xff
    dafe:	c6 85 80 b8 ff ff ff 	mov    BYTE PTR [rbp-0x4780],0xff
    db05:	c6 85 81 b8 ff ff ff 	mov    BYTE PTR [rbp-0x477f],0xff
    db0c:	c6 85 82 b8 ff ff ff 	mov    BYTE PTR [rbp-0x477e],0xff
    db13:	c6 85 83 b8 ff ff ff 	mov    BYTE PTR [rbp-0x477d],0xff
    db1a:	c6 85 84 b8 ff ff ff 	mov    BYTE PTR [rbp-0x477c],0xff
    db21:	c6 85 85 b8 ff ff ff 	mov    BYTE PTR [rbp-0x477b],0xff
    db28:	c6 85 86 b8 ff ff ff 	mov    BYTE PTR [rbp-0x477a],0xff
    db2f:	c6 85 87 b8 ff ff ff 	mov    BYTE PTR [rbp-0x4779],0xff
    db36:	c6 85 88 b8 ff ff ff 	mov    BYTE PTR [rbp-0x4778],0xff
    db3d:	c6 85 89 b8 ff ff ff 	mov    BYTE PTR [rbp-0x4777],0xff
    db44:	c6 85 8a b8 ff ff ff 	mov    BYTE PTR [rbp-0x4776],0xff
    db4b:	c6 85 8b b8 ff ff ff 	mov    BYTE PTR [rbp-0x4775],0xff
    db52:	c6 85 8c b8 ff ff ff 	mov    BYTE PTR [rbp-0x4774],0xff
    db59:	c6 85 8d b8 ff ff ff 	mov    BYTE PTR [rbp-0x4773],0xff
    db60:	c6 85 8e b8 ff ff ff 	mov    BYTE PTR [rbp-0x4772],0xff
    db67:	c6 85 8f b8 ff ff ff 	mov    BYTE PTR [rbp-0x4771],0xff
    db6e:	c6 85 90 b8 ff ff ff 	mov    BYTE PTR [rbp-0x4770],0xff
    db75:	c6 85 91 b8 ff ff ff 	mov    BYTE PTR [rbp-0x476f],0xff
    db7c:	c6 85 92 b8 ff ff ff 	mov    BYTE PTR [rbp-0x476e],0xff
    db83:	c6 85 93 b8 ff ff ff 	mov    BYTE PTR [rbp-0x476d],0xff
    db8a:	c6 85 94 b8 ff ff ff 	mov    BYTE PTR [rbp-0x476c],0xff
    db91:	c6 85 95 b8 ff ff ff 	mov    BYTE PTR [rbp-0x476b],0xff
    db98:	c6 85 96 b8 ff ff ff 	mov    BYTE PTR [rbp-0x476a],0xff
    db9f:	c6 85 97 b8 ff ff ff 	mov    BYTE PTR [rbp-0x4769],0xff
    dba6:	c6 85 98 b8 ff ff ff 	mov    BYTE PTR [rbp-0x4768],0xff
    dbad:	c6 85 99 b8 ff ff ff 	mov    BYTE PTR [rbp-0x4767],0xff
    dbb4:	c6 85 9a b8 ff ff ff 	mov    BYTE PTR [rbp-0x4766],0xff
    dbbb:	c6 85 9b b8 ff ff ff 	mov    BYTE PTR [rbp-0x4765],0xff
    dbc2:	c6 85 9c b8 ff ff ff 	mov    BYTE PTR [rbp-0x4764],0xff
    dbc9:	c6 85 9d b8 ff ff ff 	mov    BYTE PTR [rbp-0x4763],0xff
    dbd0:	c6 85 9e b8 ff ff ff 	mov    BYTE PTR [rbp-0x4762],0xff
    dbd7:	c6 85 9f b8 ff ff ff 	mov    BYTE PTR [rbp-0x4761],0xff
    dbde:	c6 85 a0 b8 ff ff ff 	mov    BYTE PTR [rbp-0x4760],0xff
    dbe5:	c6 85 a1 b8 ff ff ff 	mov    BYTE PTR [rbp-0x475f],0xff
    dbec:	c6 85 a2 b8 ff ff ff 	mov    BYTE PTR [rbp-0x475e],0xff
    dbf3:	c6 85 a3 b8 ff ff ff 	mov    BYTE PTR [rbp-0x475d],0xff
    dbfa:	c6 85 a4 b8 ff ff ff 	mov    BYTE PTR [rbp-0x475c],0xff
    dc01:	c6 85 a5 b8 ff ff ff 	mov    BYTE PTR [rbp-0x475b],0xff
    dc08:	c6 85 a6 b8 ff ff ff 	mov    BYTE PTR [rbp-0x475a],0xff
    dc0f:	c6 85 a7 b8 ff ff ff 	mov    BYTE PTR [rbp-0x4759],0xff
    dc16:	c6 85 a8 b8 ff ff ff 	mov    BYTE PTR [rbp-0x4758],0xff
    dc1d:	c6 85 a9 b8 ff ff ff 	mov    BYTE PTR [rbp-0x4757],0xff
    dc24:	c6 85 aa b8 ff ff ff 	mov    BYTE PTR [rbp-0x4756],0xff
    dc2b:	c6 85 ab b8 ff ff ff 	mov    BYTE PTR [rbp-0x4755],0xff
    dc32:	c6 85 ac b8 ff ff ff 	mov    BYTE PTR [rbp-0x4754],0xff
    dc39:	c6 85 ad b8 ff ff ff 	mov    BYTE PTR [rbp-0x4753],0xff
    dc40:	c6 85 ae b8 ff ff ff 	mov    BYTE PTR [rbp-0x4752],0xff
    dc47:	c6 85 af b8 ff ff ff 	mov    BYTE PTR [rbp-0x4751],0xff
    dc4e:	c6 85 b0 b8 ff ff ff 	mov    BYTE PTR [rbp-0x4750],0xff
    dc55:	c6 85 b1 b8 ff ff ff 	mov    BYTE PTR [rbp-0x474f],0xff
    dc5c:	c6 85 b2 b8 ff ff ff 	mov    BYTE PTR [rbp-0x474e],0xff
    dc63:	c6 85 b3 b8 ff ff ff 	mov    BYTE PTR [rbp-0x474d],0xff
    dc6a:	c6 85 b4 b8 ff ff ff 	mov    BYTE PTR [rbp-0x474c],0xff
    dc71:	c6 85 b5 b8 ff ff ff 	mov    BYTE PTR [rbp-0x474b],0xff
    dc78:	c6 85 b6 b8 ff ff ff 	mov    BYTE PTR [rbp-0x474a],0xff
    dc7f:	c6 85 b7 b8 ff ff ff 	mov    BYTE PTR [rbp-0x4749],0xff
    dc86:	c6 85 b8 b8 ff ff ff 	mov    BYTE PTR [rbp-0x4748],0xff
    dc8d:	c6 85 b9 b8 ff ff ff 	mov    BYTE PTR [rbp-0x4747],0xff
    dc94:	c6 85 ba b8 ff ff ff 	mov    BYTE PTR [rbp-0x4746],0xff
    dc9b:	c6 85 bb b8 ff ff ff 	mov    BYTE PTR [rbp-0x4745],0xff
    dca2:	c6 85 bc b8 ff ff ff 	mov    BYTE PTR [rbp-0x4744],0xff
    dca9:	c6 85 bd b8 ff ff ff 	mov    BYTE PTR [rbp-0x4743],0xff
    dcb0:	c6 85 be b8 ff ff ff 	mov    BYTE PTR [rbp-0x4742],0xff
    dcb7:	c6 85 bf b8 ff ff ff 	mov    BYTE PTR [rbp-0x4741],0xff
    dcbe:	48 8d 95 30 b7 ff ff 	lea    rdx,[rbp-0x48d0]
    dcc5:	b8 00 00 00 00       	mov    eax,0x0
    dcca:	b9 21 00 00 00       	mov    ecx,0x21
    dccf:	48 89 d7             	mov    rdi,rdx
    dcd2:	f3 48 ab             	rep stos QWORD PTR es:[rdi],rax
    dcd5:	48 89 fa             	mov    rdx,rdi
    dcd8:	89 02                	mov    DWORD PTR [rdx],eax
    dcda:	48 83 c2 04          	add    rdx,0x4
    dcde:	66 89 02             	mov    WORD PTR [rdx],ax
    dce1:	48 83 c2 02          	add    rdx,0x2
    dce5:	c6 85 31 b7 ff ff 58 	mov    BYTE PTR [rbp-0x48cf],0x58
    dcec:	c6 85 32 b7 ff ff 81 	mov    BYTE PTR [rbp-0x48ce],0x81
    dcf3:	c6 85 33 b7 ff ff 80 	mov    BYTE PTR [rbp-0x48cd],0x80
    dcfa:	c6 85 34 b7 ff ff 80 	mov    BYTE PTR [rbp-0x48cc],0x80
    dd01:	48 8d 95 20 b6 ff ff 	lea    rdx,[rbp-0x49e0]
    dd08:	b8 00 00 00 00       	mov    eax,0x0
    dd0d:	b9 21 00 00 00       	mov    ecx,0x21
    dd12:	48 89 d7             	mov    rdi,rdx
    dd15:	f3 48 ab             	rep stos QWORD PTR es:[rdi],rax
    dd18:	48 89 fa             	mov    rdx,rdi
    dd1b:	89 02                	mov    DWORD PTR [rdx],eax
    dd1d:	48 83 c2 04          	add    rdx,0x4
    dd21:	66 89 02             	mov    WORD PTR [rdx],ax
    dd24:	48 83 c2 02          	add    rdx,0x2
    dd28:	c6 85 20 b6 ff ff ff 	mov    BYTE PTR [rbp-0x49e0],0xff
    dd2f:	c6 85 21 b6 ff ff ff 	mov    BYTE PTR [rbp-0x49df],0xff
    dd36:	c6 85 22 b6 ff ff ff 	mov    BYTE PTR [rbp-0x49de],0xff
    dd3d:	c6 85 23 b6 ff ff ff 	mov    BYTE PTR [rbp-0x49dd],0xff
    dd44:	c6 85 24 b6 ff ff ff 	mov    BYTE PTR [rbp-0x49dc],0xff
    dd4b:	c6 85 25 b6 ff ff ff 	mov    BYTE PTR [rbp-0x49db],0xff
    dd52:	c6 85 26 b6 ff ff ff 	mov    BYTE PTR [rbp-0x49da],0xff
    dd59:	c6 85 27 b6 ff ff ff 	mov    BYTE PTR [rbp-0x49d9],0xff
    dd60:	c6 85 28 b6 ff ff ff 	mov    BYTE PTR [rbp-0x49d8],0xff
    dd67:	c6 85 29 b6 ff ff ff 	mov    BYTE PTR [rbp-0x49d7],0xff
    dd6e:	c6 85 2a b6 ff ff ff 	mov    BYTE PTR [rbp-0x49d6],0xff
    dd75:	c6 85 2b b6 ff ff ff 	mov    BYTE PTR [rbp-0x49d5],0xff
    dd7c:	c6 85 2c b6 ff ff ff 	mov    BYTE PTR [rbp-0x49d4],0xff
    dd83:	c6 85 2d b6 ff ff ff 	mov    BYTE PTR [rbp-0x49d3],0xff
    dd8a:	c6 85 2e b6 ff ff ff 	mov    BYTE PTR [rbp-0x49d2],0xff
    dd91:	c6 85 2f b6 ff ff ff 	mov    BYTE PTR [rbp-0x49d1],0xff
    dd98:	c6 85 30 b6 ff ff ff 	mov    BYTE PTR [rbp-0x49d0],0xff
    dd9f:	c6 85 31 b6 ff ff ff 	mov    BYTE PTR [rbp-0x49cf],0xff
    dda6:	c6 85 32 b6 ff ff ff 	mov    BYTE PTR [rbp-0x49ce],0xff
    ddad:	c6 85 33 b6 ff ff ff 	mov    BYTE PTR [rbp-0x49cd],0xff
    ddb4:	c6 85 34 b6 ff ff ff 	mov    BYTE PTR [rbp-0x49cc],0xff
    ddbb:	c6 85 35 b6 ff ff ff 	mov    BYTE PTR [rbp-0x49cb],0xff
    ddc2:	c6 85 36 b6 ff ff ff 	mov    BYTE PTR [rbp-0x49ca],0xff
    ddc9:	c6 85 37 b6 ff ff ff 	mov    BYTE PTR [rbp-0x49c9],0xff
    ddd0:	c6 85 38 b6 ff ff ff 	mov    BYTE PTR [rbp-0x49c8],0xff
    ddd7:	c6 85 39 b6 ff ff ff 	mov    BYTE PTR [rbp-0x49c7],0xff
    ddde:	c6 85 3a b6 ff ff ff 	mov    BYTE PTR [rbp-0x49c6],0xff
    dde5:	c6 85 3b b6 ff ff ff 	mov    BYTE PTR [rbp-0x49c5],0xff
    ddec:	c6 85 3c b6 ff ff ff 	mov    BYTE PTR [rbp-0x49c4],0xff
    ddf3:	c6 85 3d b6 ff ff ff 	mov    BYTE PTR [rbp-0x49c3],0xff
    ddfa:	c6 85 3e b6 ff ff ff 	mov    BYTE PTR [rbp-0x49c2],0xff
    de01:	c6 85 3f b6 ff ff ff 	mov    BYTE PTR [rbp-0x49c1],0xff
    de08:	c6 85 40 b6 ff ff ff 	mov    BYTE PTR [rbp-0x49c0],0xff
    de0f:	c6 85 41 b6 ff ff ff 	mov    BYTE PTR [rbp-0x49bf],0xff
    de16:	c6 85 42 b6 ff ff ff 	mov    BYTE PTR [rbp-0x49be],0xff
    de1d:	c6 85 43 b6 ff ff ff 	mov    BYTE PTR [rbp-0x49bd],0xff
    de24:	c6 85 44 b6 ff ff ff 	mov    BYTE PTR [rbp-0x49bc],0xff
    de2b:	c6 85 45 b6 ff ff ff 	mov    BYTE PTR [rbp-0x49bb],0xff
    de32:	c6 85 46 b6 ff ff ff 	mov    BYTE PTR [rbp-0x49ba],0xff
    de39:	c6 85 47 b6 ff ff ff 	mov    BYTE PTR [rbp-0x49b9],0xff
    de40:	c6 85 48 b6 ff ff ff 	mov    BYTE PTR [rbp-0x49b8],0xff
    de47:	c6 85 49 b6 ff ff ff 	mov    BYTE PTR [rbp-0x49b7],0xff
    de4e:	c6 85 4a b6 ff ff ff 	mov    BYTE PTR [rbp-0x49b6],0xff
    de55:	c6 85 4b b6 ff ff ff 	mov    BYTE PTR [rbp-0x49b5],0xff
    de5c:	c6 85 4c b6 ff ff ff 	mov    BYTE PTR [rbp-0x49b4],0xff
    de63:	c6 85 4d b6 ff ff ff 	mov    BYTE PTR [rbp-0x49b3],0xff
    de6a:	c6 85 4e b6 ff ff ff 	mov    BYTE PTR [rbp-0x49b2],0xff
    de71:	c6 85 4f b6 ff ff ff 	mov    BYTE PTR [rbp-0x49b1],0xff
    de78:	c6 85 50 b6 ff ff ff 	mov    BYTE PTR [rbp-0x49b0],0xff
    de7f:	c6 85 51 b6 ff ff ff 	mov    BYTE PTR [rbp-0x49af],0xff
    de86:	c6 85 52 b6 ff ff ff 	mov    BYTE PTR [rbp-0x49ae],0xff
    de8d:	c6 85 53 b6 ff ff ff 	mov    BYTE PTR [rbp-0x49ad],0xff
    de94:	c6 85 54 b6 ff ff ff 	mov    BYTE PTR [rbp-0x49ac],0xff
    de9b:	c6 85 55 b6 ff ff ff 	mov    BYTE PTR [rbp-0x49ab],0xff
    dea2:	c6 85 56 b6 ff ff ff 	mov    BYTE PTR [rbp-0x49aa],0xff
    dea9:	c6 85 57 b6 ff ff ff 	mov    BYTE PTR [rbp-0x49a9],0xff
    deb0:	c6 85 58 b6 ff ff ff 	mov    BYTE PTR [rbp-0x49a8],0xff
    deb7:	c6 85 59 b6 ff ff ff 	mov    BYTE PTR [rbp-0x49a7],0xff
    debe:	c6 85 5a b6 ff ff ff 	mov    BYTE PTR [rbp-0x49a6],0xff
    dec5:	c6 85 5b b6 ff ff ff 	mov    BYTE PTR [rbp-0x49a5],0xff
    decc:	c6 85 5c b6 ff ff ff 	mov    BYTE PTR [rbp-0x49a4],0xff
    ded3:	c6 85 5d b6 ff ff ff 	mov    BYTE PTR [rbp-0x49a3],0xff
    deda:	c6 85 5e b6 ff ff ff 	mov    BYTE PTR [rbp-0x49a2],0xff
    dee1:	c6 85 5f b6 ff ff ff 	mov    BYTE PTR [rbp-0x49a1],0xff
    dee8:	c6 85 60 b6 ff ff ff 	mov    BYTE PTR [rbp-0x49a0],0xff
    deef:	c6 85 61 b6 ff ff ff 	mov    BYTE PTR [rbp-0x499f],0xff
    def6:	c6 85 62 b6 ff ff ff 	mov    BYTE PTR [rbp-0x499e],0xff
    defd:	c6 85 63 b6 ff ff ff 	mov    BYTE PTR [rbp-0x499d],0xff
    df04:	c6 85 64 b6 ff ff ff 	mov    BYTE PTR [rbp-0x499c],0xff
    df0b:	c6 85 65 b6 ff ff ff 	mov    BYTE PTR [rbp-0x499b],0xff
    df12:	c6 85 66 b6 ff ff ff 	mov    BYTE PTR [rbp-0x499a],0xff
    df19:	c6 85 67 b6 ff ff ff 	mov    BYTE PTR [rbp-0x4999],0xff
    df20:	c6 85 68 b6 ff ff ff 	mov    BYTE PTR [rbp-0x4998],0xff
    df27:	c6 85 69 b6 ff ff ff 	mov    BYTE PTR [rbp-0x4997],0xff
    df2e:	c6 85 6a b6 ff ff ff 	mov    BYTE PTR [rbp-0x4996],0xff
    df35:	c6 85 6b b6 ff ff ff 	mov    BYTE PTR [rbp-0x4995],0xff
    df3c:	c6 85 6c b6 ff ff ff 	mov    BYTE PTR [rbp-0x4994],0xff
    df43:	c6 85 6d b6 ff ff ff 	mov    BYTE PTR [rbp-0x4993],0xff
    df4a:	c6 85 6e b6 ff ff ff 	mov    BYTE PTR [rbp-0x4992],0xff
    df51:	c6 85 6f b6 ff ff ff 	mov    BYTE PTR [rbp-0x4991],0xff
    df58:	c6 85 70 b6 ff ff ff 	mov    BYTE PTR [rbp-0x4990],0xff
    df5f:	c6 85 71 b6 ff ff ff 	mov    BYTE PTR [rbp-0x498f],0xff
    df66:	c6 85 72 b6 ff ff ff 	mov    BYTE PTR [rbp-0x498e],0xff
    df6d:	c6 85 73 b6 ff ff ff 	mov    BYTE PTR [rbp-0x498d],0xff
    df74:	c6 85 74 b6 ff ff ff 	mov    BYTE PTR [rbp-0x498c],0xff
    df7b:	c6 85 75 b6 ff ff ff 	mov    BYTE PTR [rbp-0x498b],0xff
    df82:	c6 85 76 b6 ff ff ff 	mov    BYTE PTR [rbp-0x498a],0xff
    df89:	c6 85 77 b6 ff ff ff 	mov    BYTE PTR [rbp-0x4989],0xff
    df90:	c6 85 78 b6 ff ff ff 	mov    BYTE PTR [rbp-0x4988],0xff
    df97:	c6 85 79 b6 ff ff ff 	mov    BYTE PTR [rbp-0x4987],0xff
    df9e:	c6 85 7a b6 ff ff ff 	mov    BYTE PTR [rbp-0x4986],0xff
    dfa5:	c6 85 7b b6 ff ff ff 	mov    BYTE PTR [rbp-0x4985],0xff
    dfac:	c6 85 7c b6 ff ff ff 	mov    BYTE PTR [rbp-0x4984],0xff
    dfb3:	c6 85 7d b6 ff ff ff 	mov    BYTE PTR [rbp-0x4983],0xff
    dfba:	c6 85 7e b6 ff ff ff 	mov    BYTE PTR [rbp-0x4982],0xff
    dfc1:	c6 85 7f b6 ff ff ff 	mov    BYTE PTR [rbp-0x4981],0xff
    dfc8:	c6 85 80 b6 ff ff ff 	mov    BYTE PTR [rbp-0x4980],0xff
    dfcf:	c6 85 81 b6 ff ff ff 	mov    BYTE PTR [rbp-0x497f],0xff
    dfd6:	c6 85 82 b6 ff ff ff 	mov    BYTE PTR [rbp-0x497e],0xff
    dfdd:	c6 85 83 b6 ff ff ff 	mov    BYTE PTR [rbp-0x497d],0xff
    dfe4:	c6 85 84 b6 ff ff ff 	mov    BYTE PTR [rbp-0x497c],0xff
    dfeb:	c6 85 85 b6 ff ff ff 	mov    BYTE PTR [rbp-0x497b],0xff
    dff2:	c6 85 86 b6 ff ff ff 	mov    BYTE PTR [rbp-0x497a],0xff
    dff9:	c6 85 87 b6 ff ff ff 	mov    BYTE PTR [rbp-0x4979],0xff
    e000:	c6 85 88 b6 ff ff ff 	mov    BYTE PTR [rbp-0x4978],0xff
    e007:	c6 85 89 b6 ff ff ff 	mov    BYTE PTR [rbp-0x4977],0xff
    e00e:	c6 85 8a b6 ff ff ff 	mov    BYTE PTR [rbp-0x4976],0xff
    e015:	c6 85 8b b6 ff ff ff 	mov    BYTE PTR [rbp-0x4975],0xff
    e01c:	c6 85 8c b6 ff ff ff 	mov    BYTE PTR [rbp-0x4974],0xff
    e023:	c6 85 8d b6 ff ff ff 	mov    BYTE PTR [rbp-0x4973],0xff
    e02a:	c6 85 8e b6 ff ff ff 	mov    BYTE PTR [rbp-0x4972],0xff
    e031:	c6 85 8f b6 ff ff ff 	mov    BYTE PTR [rbp-0x4971],0xff
    e038:	c6 85 90 b6 ff ff ff 	mov    BYTE PTR [rbp-0x4970],0xff
    e03f:	c6 85 91 b6 ff ff ff 	mov    BYTE PTR [rbp-0x496f],0xff
    e046:	c6 85 92 b6 ff ff ff 	mov    BYTE PTR [rbp-0x496e],0xff
    e04d:	c6 85 93 b6 ff ff ff 	mov    BYTE PTR [rbp-0x496d],0xff
    e054:	c6 85 94 b6 ff ff ff 	mov    BYTE PTR [rbp-0x496c],0xff
    e05b:	c6 85 95 b6 ff ff ff 	mov    BYTE PTR [rbp-0x496b],0xff
    e062:	c6 85 96 b6 ff ff ff 	mov    BYTE PTR [rbp-0x496a],0xff
    e069:	c6 85 97 b6 ff ff ff 	mov    BYTE PTR [rbp-0x4969],0xff
    e070:	c6 85 98 b6 ff ff ff 	mov    BYTE PTR [rbp-0x4968],0xff
    e077:	c6 85 99 b6 ff ff ff 	mov    BYTE PTR [rbp-0x4967],0xff
    e07e:	c6 85 9a b6 ff ff ff 	mov    BYTE PTR [rbp-0x4966],0xff
    e085:	c6 85 9b b6 ff ff ff 	mov    BYTE PTR [rbp-0x4965],0xff
    e08c:	c6 85 9c b6 ff ff ff 	mov    BYTE PTR [rbp-0x4964],0xff
    e093:	c6 85 9d b6 ff ff ff 	mov    BYTE PTR [rbp-0x4963],0xff
    e09a:	c6 85 9e b6 ff ff ff 	mov    BYTE PTR [rbp-0x4962],0xff
    e0a1:	c6 85 9f b6 ff ff ff 	mov    BYTE PTR [rbp-0x4961],0xff
    e0a8:	48 8d 95 10 b5 ff ff 	lea    rdx,[rbp-0x4af0]
    e0af:	b8 00 00 00 00       	mov    eax,0x0
    e0b4:	b9 21 00 00 00       	mov    ecx,0x21
    e0b9:	48 89 d7             	mov    rdi,rdx
    e0bc:	f3 48 ab             	rep stos QWORD PTR es:[rdi],rax
    e0bf:	48 89 fa             	mov    rdx,rdi
    e0c2:	89 02                	mov    DWORD PTR [rdx],eax
    e0c4:	48 83 c2 04          	add    rdx,0x4
    e0c8:	66 89 02             	mov    WORD PTR [rdx],ax
    e0cb:	48 83 c2 02          	add    rdx,0x2
    e0cf:	c6 85 11 b5 ff ff 58 	mov    BYTE PTR [rbp-0x4aef],0x58
    e0d6:	c6 85 12 b5 ff ff 80 	mov    BYTE PTR [rbp-0x4aee],0x80
    e0dd:	c6 85 14 b5 ff ff 80 	mov    BYTE PTR [rbp-0x4aec],0x80
    e0e4:	48 8d 95 00 b4 ff ff 	lea    rdx,[rbp-0x4c00]
    e0eb:	b8 00 00 00 00       	mov    eax,0x0
    e0f0:	b9 21 00 00 00       	mov    ecx,0x21
    e0f5:	48 89 d7             	mov    rdi,rdx
    e0f8:	f3 48 ab             	rep stos QWORD PTR es:[rdi],rax
    e0fb:	48 89 fa             	mov    rdx,rdi
    e0fe:	89 02                	mov    DWORD PTR [rdx],eax
    e100:	48 83 c2 04          	add    rdx,0x4
    e104:	66 89 02             	mov    WORD PTR [rdx],ax
    e107:	48 83 c2 02          	add    rdx,0x2
    e10b:	c6 85 00 b4 ff ff 02 	mov    BYTE PTR [rbp-0x4c00],0x2
    e112:	c6 85 02 b4 ff ff 3b 	mov    BYTE PTR [rbp-0x4bfe],0x3b
    e119:	c6 85 03 b4 ff ff 02 	mov    BYTE PTR [rbp-0x4bfd],0x2
    e120:	c6 85 04 b4 ff ff 1d 	mov    BYTE PTR [rbp-0x4bfc],0x1d
    e127:	c6 85 05 b4 ff ff ea 	mov    BYTE PTR [rbp-0x4bfb],0xea
    e12e:	c6 85 06 b4 ff ff 32 	mov    BYTE PTR [rbp-0x4bfa],0x32
    e135:	c6 85 0b b4 ff ff 02 	mov    BYTE PTR [rbp-0x4bf5],0x2
    e13c:	c6 85 0c b4 ff ff 1d 	mov    BYTE PTR [rbp-0x4bf4],0x1d
    e143:	c6 85 0d b4 ff ff ed 	mov    BYTE PTR [rbp-0x4bf3],0xed
    e14a:	c6 85 0e b4 ff ff 32 	mov    BYTE PTR [rbp-0x4bf2],0x32
    e151:	c6 85 13 b4 ff ff 02 	mov    BYTE PTR [rbp-0x4bed],0x2
    e158:	c6 85 14 b4 ff ff 1d 	mov    BYTE PTR [rbp-0x4bec],0x1d
    e15f:	c6 85 15 b4 ff ff f0 	mov    BYTE PTR [rbp-0x4beb],0xf0
    e166:	c6 85 16 b4 ff ff 32 	mov    BYTE PTR [rbp-0x4bea],0x32
    e16d:	c6 85 1b b4 ff ff 02 	mov    BYTE PTR [rbp-0x4be5],0x2
    e174:	c6 85 1c b4 ff ff 1d 	mov    BYTE PTR [rbp-0x4be4],0x1d
    e17b:	c6 85 1d b4 ff ff f3 	mov    BYTE PTR [rbp-0x4be3],0xf3
    e182:	c6 85 1e b4 ff ff 32 	mov    BYTE PTR [rbp-0x4be2],0x32
    e189:	c6 85 23 b4 ff ff 02 	mov    BYTE PTR [rbp-0x4bdd],0x2
    e190:	c6 85 24 b4 ff ff 1d 	mov    BYTE PTR [rbp-0x4bdc],0x1d
    e197:	c6 85 25 b4 ff ff f6 	mov    BYTE PTR [rbp-0x4bdb],0xf6
    e19e:	c6 85 26 b4 ff ff 32 	mov    BYTE PTR [rbp-0x4bda],0x32
    e1a5:	c6 85 2b b4 ff ff 02 	mov    BYTE PTR [rbp-0x4bd5],0x2
    e1ac:	c6 85 2c b4 ff ff 1d 	mov    BYTE PTR [rbp-0x4bd4],0x1d
    e1b3:	c6 85 2d b4 ff ff f9 	mov    BYTE PTR [rbp-0x4bd3],0xf9
    e1ba:	c6 85 2e b4 ff ff 32 	mov    BYTE PTR [rbp-0x4bd2],0x32
    e1c1:	c6 85 33 b4 ff ff 02 	mov    BYTE PTR [rbp-0x4bcd],0x2
    e1c8:	c6 85 34 b4 ff ff 1d 	mov    BYTE PTR [rbp-0x4bcc],0x1d
    e1cf:	c6 85 35 b4 ff ff fc 	mov    BYTE PTR [rbp-0x4bcb],0xfc
    e1d6:	c6 85 36 b4 ff ff 32 	mov    BYTE PTR [rbp-0x4bca],0x32
    e1dd:	c6 85 3b b4 ff ff 75 	mov    BYTE PTR [rbp-0x4bc5],0x75
    e1e4:	c6 85 3c b4 ff ff 8f 	mov    BYTE PTR [rbp-0x4bc4],0x8f
    e1eb:	c6 85 3d b4 ff ff 80 	mov    BYTE PTR [rbp-0x4bc3],0x80
    e1f2:	c6 85 3e b4 ff ff 78 	mov    BYTE PTR [rbp-0x4bc2],0x78
    e1f9:	c6 85 3f b4 ff ff ff 	mov    BYTE PTR [rbp-0x4bc1],0xff
    e200:	c6 85 40 b4 ff ff e4 	mov    BYTE PTR [rbp-0x4bc0],0xe4
    e207:	c6 85 41 b4 ff ff f6 	mov    BYTE PTR [rbp-0x4bbf],0xf6
    e20e:	c6 85 42 b4 ff ff d8 	mov    BYTE PTR [rbp-0x4bbe],0xd8
    e215:	c6 85 43 b4 ff ff fd 	mov    BYTE PTR [rbp-0x4bbd],0xfd
    e21c:	c6 85 44 b4 ff ff 90 	mov    BYTE PTR [rbp-0x4bbc],0x90
    e223:	c6 85 47 b4 ff ff 7f 	mov    BYTE PTR [rbp-0x4bb9],0x7f
    e22a:	c6 85 48 b4 ff ff a8 	mov    BYTE PTR [rbp-0x4bb8],0xa8
    e231:	c6 85 49 b4 ff ff 7e 	mov    BYTE PTR [rbp-0x4bb7],0x7e
    e238:	c6 85 4a b4 ff ff 06 	mov    BYTE PTR [rbp-0x4bb6],0x6
    e23f:	c6 85 4b b4 ff ff ef 	mov    BYTE PTR [rbp-0x4bb5],0xef
    e246:	c6 85 4c b4 ff ff 70 	mov    BYTE PTR [rbp-0x4bb4],0x70
    e24d:	c6 85 4d b4 ff ff 03 	mov    BYTE PTR [rbp-0x4bb3],0x3
    e254:	c6 85 4e b4 ff ff ee 	mov    BYTE PTR [rbp-0x4bb2],0xee
    e25b:	c6 85 4f b4 ff ff 60 	mov    BYTE PTR [rbp-0x4bb1],0x60
    e262:	c6 85 50 b4 ff ff 08 	mov    BYTE PTR [rbp-0x4bb0],0x8
    e269:	c6 85 51 b4 ff ff 0e 	mov    BYTE PTR [rbp-0x4baf],0xe
    e270:	c6 85 52 b4 ff ff e4 	mov    BYTE PTR [rbp-0x4bae],0xe4
    e277:	c6 85 53 b4 ff ff f0 	mov    BYTE PTR [rbp-0x4bad],0xf0
    e27e:	c6 85 54 b4 ff ff a3 	mov    BYTE PTR [rbp-0x4bac],0xa3
    e285:	c6 85 55 b4 ff ff df 	mov    BYTE PTR [rbp-0x4bab],0xdf
    e28c:	c6 85 56 b4 ff ff fc 	mov    BYTE PTR [rbp-0x4baa],0xfc
    e293:	c6 85 57 b4 ff ff de 	mov    BYTE PTR [rbp-0x4ba9],0xde
    e29a:	c6 85 58 b4 ff ff fa 	mov    BYTE PTR [rbp-0x4ba8],0xfa
    e2a1:	c6 85 59 b4 ff ff 90 	mov    BYTE PTR [rbp-0x4ba7],0x90
    e2a8:	c6 85 5a b4 ff ff 0d 	mov    BYTE PTR [rbp-0x4ba6],0xd
    e2af:	c6 85 5b b4 ff ff 9d 	mov    BYTE PTR [rbp-0x4ba5],0x9d
    e2b6:	c6 85 5c b4 ff ff 7e 	mov    BYTE PTR [rbp-0x4ba4],0x7e
    e2bd:	c6 85 5e b4 ff ff e4 	mov    BYTE PTR [rbp-0x4ba2],0xe4
    e2c4:	c6 85 5f b4 ff ff 93 	mov    BYTE PTR [rbp-0x4ba1],0x93
    e2cb:	c6 85 60 b4 ff ff 60 	mov    BYTE PTR [rbp-0x4ba0],0x60
    e2d2:	c6 85 61 b4 ff ff 65 	mov    BYTE PTR [rbp-0x4b9f],0x65
    e2d9:	c6 85 62 b4 ff ff a3 	mov    BYTE PTR [rbp-0x4b9e],0xa3
    e2e0:	c6 85 63 b4 ff ff ff 	mov    BYTE PTR [rbp-0x4b9d],0xff
    e2e7:	c6 85 64 b4 ff ff 54 	mov    BYTE PTR [rbp-0x4b9c],0x54
    e2ee:	c6 85 65 b4 ff ff 3f 	mov    BYTE PTR [rbp-0x4b9b],0x3f
    e2f5:	c6 85 66 b4 ff ff 30 	mov    BYTE PTR [rbp-0x4b9a],0x30
    e2fc:	c6 85 67 b4 ff ff e5 	mov    BYTE PTR [rbp-0x4b99],0xe5
    e303:	c6 85 68 b4 ff ff 11 	mov    BYTE PTR [rbp-0x4b98],0x11
    e30a:	c6 85 69 b4 ff ff ef 	mov    BYTE PTR [rbp-0x4b97],0xef
    e311:	c6 85 6a b4 ff ff fe 	mov    BYTE PTR [rbp-0x4b96],0xfe
    e318:	c6 85 6b b4 ff ff e4 	mov    BYTE PTR [rbp-0x4b95],0xe4
    e31f:	c6 85 6c b4 ff ff 93 	mov    BYTE PTR [rbp-0x4b94],0x93
    e326:	c6 85 6d b4 ff ff a3 	mov    BYTE PTR [rbp-0x4b93],0xa3
    e32d:	c6 85 6e b4 ff ff ff 	mov    BYTE PTR [rbp-0x4b92],0xff
    e334:	c6 85 6f b4 ff ff ee 	mov    BYTE PTR [rbp-0x4b91],0xee
    e33b:	c6 85 70 b4 ff ff 54 	mov    BYTE PTR [rbp-0x4b90],0x54
    e342:	c6 85 71 b4 ff ff 7f 	mov    BYTE PTR [rbp-0x4b8f],0x7f
    e349:	c6 85 72 b4 ff ff 30 	mov    BYTE PTR [rbp-0x4b8e],0x30
    e350:	c6 85 73 b4 ff ff e6 	mov    BYTE PTR [rbp-0x4b8d],0xe6
    e357:	c6 85 74 b4 ff ff 38 	mov    BYTE PTR [rbp-0x4b8c],0x38
    e35e:	c6 85 75 b4 ff ff 54 	mov    BYTE PTR [rbp-0x4b8b],0x54
    e365:	c6 85 76 b4 ff ff 1f 	mov    BYTE PTR [rbp-0x4b8a],0x1f
    e36c:	c6 85 77 b4 ff ff fe 	mov    BYTE PTR [rbp-0x4b89],0xfe
    e373:	c6 85 78 b4 ff ff 80 	mov    BYTE PTR [rbp-0x4b88],0x80
    e37a:	c6 85 79 b4 ff ff 09 	mov    BYTE PTR [rbp-0x4b87],0x9
    e381:	c6 85 7a b4 ff ff ef 	mov    BYTE PTR [rbp-0x4b86],0xef
    e388:	c6 85 7b b4 ff ff 54 	mov    BYTE PTR [rbp-0x4b85],0x54
    e38f:	c6 85 7c b4 ff ff 7f 	mov    BYTE PTR [rbp-0x4b84],0x7f
    e396:	c6 85 7d b4 ff ff 30 	mov    BYTE PTR [rbp-0x4b83],0x30
    e39d:	c6 85 7e b4 ff ff e6 	mov    BYTE PTR [rbp-0x4b82],0xe6
    e3a4:	c6 85 7f b4 ff ff 33 	mov    BYTE PTR [rbp-0x4b81],0x33
    e3ab:	48 8b 85 b0 b3 ff ff 	mov    rax,QWORD PTR [rbp-0x4c50]
    e3b2:	48 83 c0 08          	add    rax,0x8
    e3b6:	48 8b 00             	mov    rax,QWORD PTR [rax]
    e3b9:	ba 01 00 00 00       	mov    edx,0x1
    e3be:	48 89 c6             	mov    rsi,rax
    e3c1:	48 8d 3d f8 3c 00 00 	lea    rdi,[rip+0x3cf8]        # 120c0 <com>
    e3c8:	e8 f3 2c ff ff       	call   10c0 <strncat@plt>
    e3cd:	be 02 01 00 00       	mov    esi,0x102
    e3d2:	48 89 c7             	mov    rdi,rax
    e3d5:	b8 00 00 00 00       	mov    eax,0x0
    e3da:	e8 31 2d ff ff       	call   1110 <open@plt>
    e3df:	89 05 1b 3d 00 00    	mov    DWORD PTR [rip+0x3d1b],eax        # 12100 <fd>
    e3e5:	8b 05 15 3d 00 00    	mov    eax,DWORD PTR [rip+0x3d15]        # 12100 <fd>
    e3eb:	83 f8 ff             	cmp    eax,0xffffffff
    e3ee:	75 27                	jne    e417 <main+0xd07e>
    e3f0:	48 8b 85 b0 b3 ff ff 	mov    rax,QWORD PTR [rbp-0x4c50]
    e3f7:	48 83 c0 08          	add    rax,0x8
    e3fb:	48 8b 00             	mov    rax,QWORD PTR [rax]
    e3fe:	48 89 c6             	mov    rsi,rax
    e401:	48 8d 3d 12 1e 00 00 	lea    rdi,[rip+0x1e12]        # 1021a <_IO_stdin_used+0x21a>
    e408:	b8 00 00 00 00       	mov    eax,0x0
    e40d:	e8 8e 2c ff ff       	call   10a0 <printf@plt>
    e412:	e9 a6 12 00 00       	jmp    f6bd <main+0xe324>
    e417:	8b 05 e3 3c 00 00    	mov    eax,DWORD PTR [rip+0x3ce3]        # 12100 <fd>
    e41d:	48 8d 95 c0 b3 ff ff 	lea    rdx,[rbp-0x4c40]
    e424:	48 89 d6             	mov    rsi,rdx
    e427:	89 c7                	mov    edi,eax
    e429:	e8 c2 2c ff ff       	call   10f0 <tcgetattr@plt>
    e42e:	48 8d 85 c0 b3 ff ff 	lea    rax,[rbp-0x4c40]
    e435:	be 0d 00 00 00       	mov    esi,0xd
    e43a:	48 89 c7             	mov    rdi,rax
    e43d:	e8 ee 2c ff ff       	call   1130 <cfsetispeed@plt>
    e442:	48 8d 85 c0 b3 ff ff 	lea    rax,[rbp-0x4c40]
    e449:	be 0d 00 00 00       	mov    esi,0xd
    e44e:	48 89 c7             	mov    rdi,rax
    e451:	e8 3a 2c ff ff       	call   1090 <cfsetospeed@plt>
    e456:	c6 85 d6 b3 ff ff 05 	mov    BYTE PTR [rbp-0x4c2a],0x5
    e45d:	c6 85 d7 b3 ff ff 00 	mov    BYTE PTR [rbp-0x4c29],0x0
    e464:	8b 85 c8 b3 ff ff    	mov    eax,DWORD PTR [rbp-0x4c38]
    e46a:	80 cc 01             	or     ah,0x1
    e46d:	89 85 c8 b3 ff ff    	mov    DWORD PTR [rbp-0x4c38],eax
    e473:	8b 85 c8 b3 ff ff    	mov    eax,DWORD PTR [rbp-0x4c38]
    e479:	83 c8 40             	or     eax,0x40
    e47c:	89 85 c8 b3 ff ff    	mov    DWORD PTR [rbp-0x4c38],eax
    e482:	8b 85 c8 b3 ff ff    	mov    eax,DWORD PTR [rbp-0x4c38]
    e488:	83 e0 cf             	and    eax,0xffffffcf
    e48b:	89 85 c8 b3 ff ff    	mov    DWORD PTR [rbp-0x4c38],eax
    e491:	8b 85 c8 b3 ff ff    	mov    eax,DWORD PTR [rbp-0x4c38]
    e497:	83 c8 30             	or     eax,0x30
    e49a:	89 85 c8 b3 ff ff    	mov    DWORD PTR [rbp-0x4c38],eax
    e4a0:	c7 85 cc b3 ff ff 00 	mov    DWORD PTR [rbp-0x4c34],0x0
    e4a7:	00 00 00 
    e4aa:	8b 85 c4 b3 ff ff    	mov    eax,DWORD PTR [rbp-0x4c3c]
    e4b0:	83 e0 fe             	and    eax,0xfffffffe
    e4b3:	89 85 c4 b3 ff ff    	mov    DWORD PTR [rbp-0x4c3c],eax
    e4b9:	c7 85 c0 b3 ff ff 00 	mov    DWORD PTR [rbp-0x4c40],0x0
    e4c0:	00 00 00 
    e4c3:	8b 85 c0 b3 ff ff    	mov    eax,DWORD PTR [rbp-0x4c40]
    e4c9:	25 3f fe ff ff       	and    eax,0xfffffe3f
    e4ce:	89 85 c0 b3 ff ff    	mov    DWORD PTR [rbp-0x4c40],eax
    e4d4:	8b 05 26 3c 00 00    	mov    eax,DWORD PTR [rip+0x3c26]        # 12100 <fd>
    e4da:	48 8d 95 c0 b3 ff ff 	lea    rdx,[rbp-0x4c40]
    e4e1:	be 00 00 00 00       	mov    esi,0x0
    e4e6:	89 c7                	mov    edi,eax
    e4e8:	e8 13 2c ff ff       	call   1100 <tcsetattr@plt>
    e4ed:	e8 63 2d ff ff       	call   1255 <reset_card>
    e4f2:	48 8d 3d 30 1d 00 00 	lea    rdi,[rip+0x1d30]        # 10229 <_IO_stdin_used+0x229>
    e4f9:	b8 00 00 00 00       	mov    eax,0x0
    e4fe:	e8 9d 2b ff ff       	call   10a0 <printf@plt>
    e503:	bf 07 00 00 00       	mov    edi,0x7
    e508:	e8 f9 2d ff ff       	call   1306 <ReadData>
    e50d:	0f b6 05 dd 3b 00 00 	movzx  eax,BYTE PTR [rip+0x3bdd]        # 120f1 <rx+0x1>
    e514:	3c 24                	cmp    al,0x24
    e516:	0f 85 9e 02 00 00    	jne    e7ba <main+0xd421>
    e51c:	0f b6 05 cf 3b 00 00 	movzx  eax,BYTE PTR [rip+0x3bcf]        # 120f2 <rx+0x2>
    e523:	84 c0                	test   al,al
    e525:	0f 85 8f 02 00 00    	jne    e7ba <main+0xd421>
    e52b:	0f b6 05 c1 3b 00 00 	movzx  eax,BYTE PTR [rip+0x3bc1]        # 120f3 <rx+0x3>
    e532:	3c 30                	cmp    al,0x30
    e534:	0f 85 80 02 00 00    	jne    e7ba <main+0xd421>
    e53a:	0f b6 05 b3 3b 00 00 	movzx  eax,BYTE PTR [rip+0x3bb3]        # 120f4 <rx+0x4>
    e541:	3c 42                	cmp    al,0x42
    e543:	0f 85 71 02 00 00    	jne    e7ba <main+0xd421>
    e549:	48 8d 3d e8 1c 00 00 	lea    rdi,[rip+0x1ce8]        # 10238 <_IO_stdin_used+0x238>
    e550:	e8 fb 2a ff ff       	call   1050 <puts@plt>
    e555:	bf 50 c3 00 00       	mov    edi,0xc350
    e55a:	e8 f1 2b ff ff       	call   1150 <usleep@plt>
    e55f:	8b 05 9b 3b 00 00    	mov    eax,DWORD PTR [rip+0x3b9b]        # 12100 <fd>
    e565:	48 8d 8d 7c ff ff ff 	lea    rcx,[rbp-0x84]
    e56c:	ba 04 00 00 00       	mov    edx,0x4
    e571:	48 89 ce             	mov    rsi,rcx
    e574:	89 c7                	mov    edi,eax
    e576:	e8 f5 2a ff ff       	call   1070 <write@plt>
    e57b:	bf 04 00 00 00       	mov    edi,0x4
    e580:	e8 81 2d ff ff       	call   1306 <ReadData>
    e585:	bf 09 00 00 00       	mov    edi,0x9
    e58a:	e8 77 2d ff ff       	call   1306 <ReadData>
    e58f:	48 8d 3d c3 1c 00 00 	lea    rdi,[rip+0x1cc3]        # 10259 <_IO_stdin_used+0x259>
    e596:	b8 00 00 00 00       	mov    eax,0x0
    e59b:	e8 00 2b ff ff       	call   10a0 <printf@plt>
    e5a0:	0f b6 05 49 3b 00 00 	movzx  eax,BYTE PTR [rip+0x3b49]        # 120f0 <rx>
    e5a7:	0f b6 c0             	movzx  eax,al
    e5aa:	c1 e0 18             	shl    eax,0x18
    e5ad:	48 98                	cdqe
    e5af:	48 89 45 f8          	mov    QWORD PTR [rbp-0x8],rax
    e5b3:	0f b6 05 37 3b 00 00 	movzx  eax,BYTE PTR [rip+0x3b37]        # 120f1 <rx+0x1>
    e5ba:	0f b6 c0             	movzx  eax,al
    e5bd:	c1 e0 10             	shl    eax,0x10
    e5c0:	48 98                	cdqe
    e5c2:	48 01 45 f8          	add    QWORD PTR [rbp-0x8],rax
    e5c6:	0f b6 05 25 3b 00 00 	movzx  eax,BYTE PTR [rip+0x3b25]        # 120f2 <rx+0x2>
    e5cd:	0f b6 c0             	movzx  eax,al
    e5d0:	c1 e0 08             	shl    eax,0x8
    e5d3:	48 98                	cdqe
    e5d5:	48 01 45 f8          	add    QWORD PTR [rbp-0x8],rax
    e5d9:	0f b6 05 13 3b 00 00 	movzx  eax,BYTE PTR [rip+0x3b13]        # 120f3 <rx+0x3>
    e5e0:	0f b6 c0             	movzx  eax,al
    e5e3:	48 01 45 f8          	add    QWORD PTR [rbp-0x8],rax
    e5e7:	c6 05 f6 3a 00 00 00 	mov    BYTE PTR [rip+0x3af6],0x0        # 120e4 <i>
    e5ee:	eb 62                	jmp    e652 <main+0xd2b9>
    e5f0:	0f b6 05 ed 3a 00 00 	movzx  eax,BYTE PTR [rip+0x3aed]        # 120e4 <i>
    e5f7:	0f b6 c0             	movzx  eax,al
    e5fa:	48 98                	cdqe
    e5fc:	48 8d 15 ed 3a 00 00 	lea    rdx,[rip+0x3aed]        # 120f0 <rx>
    e603:	0f b6 04 10          	movzx  eax,BYTE PTR [rax+rdx*1]
    e607:	3c 0f                	cmp    al,0xf
    e609:	77 0a                	ja     e615 <main+0xd27c>
    e60b:	bf 30 00 00 00       	mov    edi,0x30
    e610:	e8 1b 2a ff ff       	call   1030 <putchar@plt>
    e615:	0f b6 05 c8 3a 00 00 	movzx  eax,BYTE PTR [rip+0x3ac8]        # 120e4 <i>
    e61c:	0f b6 c0             	movzx  eax,al
    e61f:	48 98                	cdqe
    e621:	48 8d 15 c8 3a 00 00 	lea    rdx,[rip+0x3ac8]        # 120f0 <rx>
    e628:	0f b6 04 10          	movzx  eax,BYTE PTR [rax+rdx*1]
    e62c:	0f b6 c0             	movzx  eax,al
    e62f:	89 c6                	mov    esi,eax
    e631:	48 8d 3d 27 1c 00 00 	lea    rdi,[rip+0x1c27]        # 1025f <_IO_stdin_used+0x25f>
    e638:	b8 00 00 00 00       	mov    eax,0x0
    e63d:	e8 5e 2a ff ff       	call   10a0 <printf@plt>
    e642:	0f b6 05 9b 3a 00 00 	movzx  eax,BYTE PTR [rip+0x3a9b]        # 120e4 <i>
    e649:	83 c0 01             	add    eax,0x1
    e64c:	88 05 92 3a 00 00    	mov    BYTE PTR [rip+0x3a92],al        # 120e4 <i>
    e652:	0f b6 05 8b 3a 00 00 	movzx  eax,BYTE PTR [rip+0x3a8b]        # 120e4 <i>
    e659:	3c 03                	cmp    al,0x3
    e65b:	76 93                	jbe    e5f0 <main+0xd257>
    e65d:	48 8b 45 f8          	mov    rax,QWORD PTR [rbp-0x8]
    e661:	48 89 c6             	mov    rsi,rax
    e664:	48 8d 3d f8 1b 00 00 	lea    rdi,[rip+0x1bf8]        # 10263 <_IO_stdin_used+0x263>
    e66b:	b8 00 00 00 00       	mov    eax,0x0
    e670:	e8 2b 2a ff ff       	call   10a0 <printf@plt>
    e675:	48 8d 3d ee 1b 00 00 	lea    rdi,[rip+0x1bee]        # 1026a <_IO_stdin_used+0x26a>
    e67c:	b8 00 00 00 00       	mov    eax,0x0
    e681:	e8 1a 2a ff ff       	call   10a0 <printf@plt>
    e686:	c6 05 57 3a 00 00 05 	mov    BYTE PTR [rip+0x3a57],0x5        # 120e4 <i>
    e68d:	eb 62                	jmp    e6f1 <main+0xd358>
    e68f:	0f b6 05 4e 3a 00 00 	movzx  eax,BYTE PTR [rip+0x3a4e]        # 120e4 <i>
    e696:	0f b6 c0             	movzx  eax,al
    e699:	48 98                	cdqe
    e69b:	48 8d 15 4e 3a 00 00 	lea    rdx,[rip+0x3a4e]        # 120f0 <rx>
    e6a2:	0f b6 04 10          	movzx  eax,BYTE PTR [rax+rdx*1]
    e6a6:	3c 0f                	cmp    al,0xf
    e6a8:	77 0a                	ja     e6b4 <main+0xd31b>
    e6aa:	bf 30 00 00 00       	mov    edi,0x30
    e6af:	e8 7c 29 ff ff       	call   1030 <putchar@plt>
    e6b4:	0f b6 05 29 3a 00 00 	movzx  eax,BYTE PTR [rip+0x3a29]        # 120e4 <i>
    e6bb:	0f b6 c0             	movzx  eax,al
    e6be:	48 98                	cdqe
    e6c0:	48 8d 15 29 3a 00 00 	lea    rdx,[rip+0x3a29]        # 120f0 <rx>
    e6c7:	0f b6 04 10          	movzx  eax,BYTE PTR [rax+rdx*1]
    e6cb:	0f b6 c0             	movzx  eax,al
    e6ce:	89 c6                	mov    esi,eax
    e6d0:	48 8d 3d 88 1b 00 00 	lea    rdi,[rip+0x1b88]        # 1025f <_IO_stdin_used+0x25f>
    e6d7:	b8 00 00 00 00       	mov    eax,0x0
    e6dc:	e8 bf 29 ff ff       	call   10a0 <printf@plt>
    e6e1:	0f b6 05 fc 39 00 00 	movzx  eax,BYTE PTR [rip+0x39fc]        # 120e4 <i>
    e6e8:	83 c0 01             	add    eax,0x1
    e6eb:	88 05 f3 39 00 00    	mov    BYTE PTR [rip+0x39f3],al        # 120e4 <i>
    e6f1:	0f b6 05 ec 39 00 00 	movzx  eax,BYTE PTR [rip+0x39ec]        # 120e4 <i>
    e6f8:	3c 07                	cmp    al,0x7
    e6fa:	76 93                	jbe    e68f <main+0xd2f6>
    e6fc:	48 8d 3d 70 1b 00 00 	lea    rdi,[rip+0x1b70]        # 10273 <_IO_stdin_used+0x273>
    e703:	b8 00 00 00 00       	mov    eax,0x0
    e708:	e8 93 29 ff ff       	call   10a0 <printf@plt>
    e70d:	0f b6 05 e0 39 00 00 	movzx  eax,BYTE PTR [rip+0x39e0]        # 120f4 <rx+0x4>
    e714:	3c 0f                	cmp    al,0xf
    e716:	77 0a                	ja     e722 <main+0xd389>
    e718:	bf 30 00 00 00       	mov    edi,0x30
    e71d:	e8 0e 29 ff ff       	call   1030 <putchar@plt>
    e722:	0f b6 05 cb 39 00 00 	movzx  eax,BYTE PTR [rip+0x39cb]        # 120f4 <rx+0x4>
    e729:	0f b6 c0             	movzx  eax,al
    e72c:	89 c6                	mov    esi,eax
    e72e:	48 8d 3d 49 1b 00 00 	lea    rdi,[rip+0x1b49]        # 1027e <_IO_stdin_used+0x27e>
    e735:	b8 00 00 00 00       	mov    eax,0x0
    e73a:	e8 61 29 ff ff       	call   10a0 <printf@plt>
    e73f:	48 8d 3d 3b 1b 00 00 	lea    rdi,[rip+0x1b3b]        # 10281 <_IO_stdin_used+0x281>
    e746:	b8 00 00 00 00       	mov    eax,0x0
    e74b:	e8 50 29 ff ff       	call   10a0 <printf@plt>
    e750:	0f b6 05 a1 39 00 00 	movzx  eax,BYTE PTR [rip+0x39a1]        # 120f8 <rx+0x8>
    e757:	3c 01                	cmp    al,0x1
    e759:	75 13                	jne    e76e <main+0xd3d5>
    e75b:	48 8d 3d 2d 1b 00 00 	lea    rdi,[rip+0x1b2d]        # 1028f <_IO_stdin_used+0x28f>
    e762:	b8 00 00 00 00       	mov    eax,0x0
    e767:	e8 34 29 ff ff       	call   10a0 <printf@plt>
    e76c:	eb 11                	jmp    e77f <main+0xd3e6>
    e76e:	48 8d 3d 22 1b 00 00 	lea    rdi,[rip+0x1b22]        # 10297 <_IO_stdin_used+0x297>
    e775:	b8 00 00 00 00       	mov    eax,0x0
    e77a:	e8 21 29 ff ff       	call   10a0 <printf@plt>
    e77f:	48 8d 3d 1a 1b 00 00 	lea    rdi,[rip+0x1b1a]        # 102a0 <_IO_stdin_used+0x2a0>
    e786:	b8 00 00 00 00       	mov    eax,0x0
    e78b:	e8 10 29 ff ff       	call   10a0 <printf@plt>
    e790:	48 8d 3d 31 1b 00 00 	lea    rdi,[rip+0x1b31]        # 102c8 <_IO_stdin_used+0x2c8>
    e797:	e8 b4 28 ff ff       	call   1050 <puts@plt>
    e79c:	48 8d 3d 5d 1b 00 00 	lea    rdi,[rip+0x1b5d]        # 10300 <_IO_stdin_used+0x300>
    e7a3:	e8 a8 28 ff ff       	call   1050 <puts@plt>
    e7a8:	8b 05 52 39 00 00    	mov    eax,DWORD PTR [rip+0x3952]        # 12100 <fd>
    e7ae:	89 c7                	mov    edi,eax
    e7b0:	e8 1b 29 ff ff       	call   10d0 <close@plt>
    e7b5:	e9 03 0f 00 00       	jmp    f6bd <main+0xe324>
    e7ba:	0f b6 05 30 39 00 00 	movzx  eax,BYTE PTR [rip+0x3930]        # 120f1 <rx+0x1>
    e7c1:	3c 1f                	cmp    al,0x1f
    e7c3:	75 46                	jne    e80b <main+0xd472>
    e7c5:	0f b6 05 26 39 00 00 	movzx  eax,BYTE PTR [rip+0x3926]        # 120f2 <rx+0x2>
    e7cc:	3c 96                	cmp    al,0x96
    e7ce:	75 3b                	jne    e80b <main+0xd472>
    e7d0:	0f b6 05 1c 39 00 00 	movzx  eax,BYTE PTR [rip+0x391c]        # 120f3 <rx+0x3>
    e7d7:	3c 38                	cmp    al,0x38
    e7d9:	75 30                	jne    e80b <main+0xd472>
    e7db:	0f b6 05 12 39 00 00 	movzx  eax,BYTE PTR [rip+0x3912]        # 120f4 <rx+0x4>
    e7e2:	3c 05                	cmp    al,0x5
    e7e4:	75 25                	jne    e80b <main+0xd472>
    e7e6:	48 8d 3d 33 1b 00 00 	lea    rdi,[rip+0x1b33]        # 10320 <_IO_stdin_used+0x320>
    e7ed:	e8 5e 28 ff ff       	call   1050 <puts@plt>
    e7f2:	bf 0b 00 00 00       	mov    edi,0xb
    e7f7:	e8 0a 2b ff ff       	call   1306 <ReadData>
    e7fc:	83 bd bc b3 ff ff 02 	cmp    DWORD PTR [rbp-0x4c44],0x2
    e803:	0f 84 b3 0e 00 00    	je     f6bc <main+0xe323>
    e809:	eb 1e                	jmp    e829 <main+0xd490>
    e80b:	48 8d 3d 4a 1b 00 00 	lea    rdi,[rip+0x1b4a]        # 1035c <_IO_stdin_used+0x35c>
    e812:	e8 39 28 ff ff       	call   1050 <puts@plt>
    e817:	8b 05 e3 38 00 00    	mov    eax,DWORD PTR [rip+0x38e3]        # 12100 <fd>
    e81d:	89 c7                	mov    edi,eax
    e81f:	e8 ac 28 ff ff       	call   10d0 <close@plt>
    e824:	e9 94 0e 00 00       	jmp    f6bd <main+0xe324>
    e829:	bf a0 86 01 00       	mov    edi,0x186a0
    e82e:	e8 1d 29 ff ff       	call   1150 <usleep@plt>
    e833:	48 8d 3d 2e 1b 00 00 	lea    rdi,[rip+0x1b2e]        # 10368 <_IO_stdin_used+0x368>
    e83a:	b8 00 00 00 00       	mov    eax,0x0
    e83f:	e8 5c 28 ff ff       	call   10a0 <printf@plt>
    e844:	8b 05 b6 38 00 00    	mov    eax,DWORD PTR [rip+0x38b6]        # 12100 <fd>
    e84a:	48 8d 8d 72 ff ff ff 	lea    rcx,[rbp-0x8e]
    e851:	ba 04 00 00 00       	mov    edx,0x4
    e856:	48 89 ce             	mov    rsi,rcx
    e859:	89 c7                	mov    edi,eax
    e85b:	e8 10 28 ff ff       	call   1070 <write@plt>
    e860:	bf 04 00 00 00       	mov    edi,0x4
    e865:	e8 9c 2a ff ff       	call   1306 <ReadData>
    e86a:	c6 05 7f 38 00 00 00 	mov    BYTE PTR [rip+0x387f],0x0        # 120f0 <rx>
    e871:	bf 04 00 00 00       	mov    edi,0x4
    e876:	e8 8b 2a ff ff       	call   1306 <ReadData>
    e87b:	0f b6 05 6e 38 00 00 	movzx  eax,BYTE PTR [rip+0x386e]        # 120f0 <rx>
    e882:	3c ff                	cmp    al,0xff
    e884:	74 23                	je     e8a9 <main+0xd510>
    e886:	48 8d 3d fb 1a 00 00 	lea    rdi,[rip+0x1afb]        # 10388 <_IO_stdin_used+0x388>
    e88d:	b8 00 00 00 00       	mov    eax,0x0
    e892:	e8 09 28 ff ff       	call   10a0 <printf@plt>
    e897:	8b 05 63 38 00 00    	mov    eax,DWORD PTR [rip+0x3863]        # 12100 <fd>
    e89d:	89 c7                	mov    edi,eax
    e89f:	e8 2c 28 ff ff       	call   10d0 <close@plt>
    e8a4:	e9 14 0e 00 00       	jmp    f6bd <main+0xe324>
    e8a9:	bf 10 27 00 00       	mov    edi,0x2710
    e8ae:	e8 9d 28 ff ff       	call   1150 <usleep@plt>
    e8b3:	48 8d 85 c0 b3 ff ff 	lea    rax,[rbp-0x4c40]
    e8ba:	be 03 10 00 00       	mov    esi,0x1003
    e8bf:	48 89 c7             	mov    rdi,rax
    e8c2:	e8 69 28 ff ff       	call   1130 <cfsetispeed@plt>
    e8c7:	48 8d 85 c0 b3 ff ff 	lea    rax,[rbp-0x4c40]
    e8ce:	be 03 10 00 00       	mov    esi,0x1003
    e8d3:	48 89 c7             	mov    rdi,rax
    e8d6:	e8 b5 27 ff ff       	call   1090 <cfsetospeed@plt>
    e8db:	8b 05 1f 38 00 00    	mov    eax,DWORD PTR [rip+0x381f]        # 12100 <fd>
    e8e1:	48 8d 95 c0 b3 ff ff 	lea    rdx,[rbp-0x4c40]
    e8e8:	be 00 00 00 00       	mov    esi,0x0
    e8ed:	89 c7                	mov    edi,eax
    e8ef:	e8 0c 28 ff ff       	call   1100 <tcsetattr@plt>
    e8f4:	48 8d 3d 92 1a 00 00 	lea    rdi,[rip+0x1a92]        # 1038d <_IO_stdin_used+0x38d>
    e8fb:	e8 50 27 ff ff       	call   1050 <puts@plt>
    e900:	8b 05 fa 37 00 00    	mov    eax,DWORD PTR [rip+0x37fa]        # 12100 <fd>
    e906:	48 8d 8d 60 fe ff ff 	lea    rcx,[rbp-0x1a0]
    e90d:	ba 05 00 00 00       	mov    edx,0x5
    e912:	48 89 ce             	mov    rsi,rcx
    e915:	89 c7                	mov    edi,eax
    e917:	e8 54 27 ff ff       	call   1070 <write@plt>
    e91c:	bf b8 0b 00 00       	mov    edi,0xbb8
    e921:	e8 2a 28 ff ff       	call   1150 <usleep@plt>
    e926:	bf 2e 00 00 00       	mov    edi,0x2e
    e92b:	e8 00 27 ff ff       	call   1030 <putchar@plt>
    e930:	8b 05 ca 37 00 00    	mov    eax,DWORD PTR [rip+0x37ca]        # 12100 <fd>
    e936:	48 8d 8d 50 fd ff ff 	lea    rcx,[rbp-0x2b0]
    e93d:	ba 05 00 00 00       	mov    edx,0x5
    e942:	48 89 ce             	mov    rsi,rcx
    e945:	89 c7                	mov    edi,eax
    e947:	e8 24 27 ff ff       	call   1070 <write@plt>
    e94c:	bf b8 0b 00 00       	mov    edi,0xbb8
    e951:	e8 fa 27 ff ff       	call   1150 <usleep@plt>
    e956:	bf 2e 00 00 00       	mov    edi,0x2e
    e95b:	e8 d0 26 ff ff       	call   1030 <putchar@plt>
    e960:	8b 05 9a 37 00 00    	mov    eax,DWORD PTR [rip+0x379a]        # 12100 <fd>
    e966:	48 8d 8d 40 fc ff ff 	lea    rcx,[rbp-0x3c0]
    e96d:	ba 02 00 00 00       	mov    edx,0x2
    e972:	48 89 ce             	mov    rsi,rcx
    e975:	89 c7                	mov    edi,eax
    e977:	e8 f4 26 ff ff       	call   1070 <write@plt>
    e97c:	bf 60 ea 00 00       	mov    edi,0xea60
    e981:	e8 ca 27 ff ff       	call   1150 <usleep@plt>
    e986:	bf 2e 00 00 00       	mov    edi,0x2e
    e98b:	e8 a0 26 ff ff       	call   1030 <putchar@plt>
    e990:	8b 05 6a 37 00 00    	mov    eax,DWORD PTR [rip+0x376a]        # 12100 <fd>
    e996:	48 8d 8d 30 fb ff ff 	lea    rcx,[rbp-0x4d0]
    e99d:	ba 05 00 00 00       	mov    edx,0x5
    e9a2:	48 89 ce             	mov    rsi,rcx
    e9a5:	89 c7                	mov    edi,eax
    e9a7:	e8 c4 26 ff ff       	call   1070 <write@plt>
    e9ac:	bf b8 0b 00 00       	mov    edi,0xbb8
    e9b1:	e8 9a 27 ff ff       	call   1150 <usleep@plt>
    e9b6:	bf 2e 00 00 00       	mov    edi,0x2e
    e9bb:	e8 70 26 ff ff       	call   1030 <putchar@plt>
    e9c0:	8b 05 3a 37 00 00    	mov    eax,DWORD PTR [rip+0x373a]        # 12100 <fd>
    e9c6:	48 8d 8d 20 fa ff ff 	lea    rcx,[rbp-0x5e0]
    e9cd:	ba 05 00 00 00       	mov    edx,0x5
    e9d2:	48 89 ce             	mov    rsi,rcx
    e9d5:	89 c7                	mov    edi,eax
    e9d7:	e8 94 26 ff ff       	call   1070 <write@plt>
    e9dc:	bf b8 0b 00 00       	mov    edi,0xbb8
    e9e1:	e8 6a 27 ff ff       	call   1150 <usleep@plt>
    e9e6:	bf 2e 00 00 00       	mov    edi,0x2e
    e9eb:	e8 40 26 ff ff       	call   1030 <putchar@plt>
    e9f0:	8b 05 0a 37 00 00    	mov    eax,DWORD PTR [rip+0x370a]        # 12100 <fd>
    e9f6:	48 8d 8d 10 f9 ff ff 	lea    rcx,[rbp-0x6f0]
    e9fd:	ba ff 00 00 00       	mov    edx,0xff
    ea02:	48 89 ce             	mov    rsi,rcx
    ea05:	89 c7                	mov    edi,eax
    ea07:	e8 64 26 ff ff       	call   1070 <write@plt>
    ea0c:	bf 60 ea 00 00       	mov    edi,0xea60
    ea11:	e8 3a 27 ff ff       	call   1150 <usleep@plt>
    ea16:	bf 2e 00 00 00       	mov    edi,0x2e
    ea1b:	e8 10 26 ff ff       	call   1030 <putchar@plt>
    ea20:	8b 05 da 36 00 00    	mov    eax,DWORD PTR [rip+0x36da]        # 12100 <fd>
    ea26:	48 8d 8d 00 f8 ff ff 	lea    rcx,[rbp-0x800]
    ea2d:	ba 05 00 00 00       	mov    edx,0x5
    ea32:	48 89 ce             	mov    rsi,rcx
    ea35:	89 c7                	mov    edi,eax
    ea37:	e8 34 26 ff ff       	call   1070 <write@plt>
    ea3c:	bf b8 0b 00 00       	mov    edi,0xbb8
    ea41:	e8 0a 27 ff ff       	call   1150 <usleep@plt>
    ea46:	bf 2e 00 00 00       	mov    edi,0x2e
    ea4b:	e8 e0 25 ff ff       	call   1030 <putchar@plt>
    ea50:	8b 05 aa 36 00 00    	mov    eax,DWORD PTR [rip+0x36aa]        # 12100 <fd>
    ea56:	48 8d 8d f0 f6 ff ff 	lea    rcx,[rbp-0x910]
    ea5d:	ba ff 00 00 00       	mov    edx,0xff
    ea62:	48 89 ce             	mov    rsi,rcx
    ea65:	89 c7                	mov    edi,eax
    ea67:	e8 04 26 ff ff       	call   1070 <write@plt>
    ea6c:	bf 60 ea 00 00       	mov    edi,0xea60
    ea71:	e8 da 26 ff ff       	call   1150 <usleep@plt>
    ea76:	bf 2e 00 00 00       	mov    edi,0x2e
    ea7b:	e8 b0 25 ff ff       	call   1030 <putchar@plt>
    ea80:	8b 05 7a 36 00 00    	mov    eax,DWORD PTR [rip+0x367a]        # 12100 <fd>
    ea86:	48 8d 8d e0 f5 ff ff 	lea    rcx,[rbp-0xa20]
    ea8d:	ba 05 00 00 00       	mov    edx,0x5
    ea92:	48 89 ce             	mov    rsi,rcx
    ea95:	89 c7                	mov    edi,eax
    ea97:	e8 d4 25 ff ff       	call   1070 <write@plt>
    ea9c:	bf b8 0b 00 00       	mov    edi,0xbb8
    eaa1:	e8 aa 26 ff ff       	call   1150 <usleep@plt>
    eaa6:	bf 2e 00 00 00       	mov    edi,0x2e
    eaab:	e8 80 25 ff ff       	call   1030 <putchar@plt>
    eab0:	8b 05 4a 36 00 00    	mov    eax,DWORD PTR [rip+0x364a]        # 12100 <fd>
    eab6:	48 8d 8d d0 f4 ff ff 	lea    rcx,[rbp-0xb30]
    eabd:	ba ff 00 00 00       	mov    edx,0xff
    eac2:	48 89 ce             	mov    rsi,rcx
    eac5:	89 c7                	mov    edi,eax
    eac7:	e8 a4 25 ff ff       	call   1070 <write@plt>
    eacc:	bf 60 ea 00 00       	mov    edi,0xea60
    ead1:	e8 7a 26 ff ff       	call   1150 <usleep@plt>
    ead6:	bf 2e 00 00 00       	mov    edi,0x2e
    eadb:	e8 50 25 ff ff       	call   1030 <putchar@plt>
    eae0:	8b 05 1a 36 00 00    	mov    eax,DWORD PTR [rip+0x361a]        # 12100 <fd>
    eae6:	48 8d 8d c0 f3 ff ff 	lea    rcx,[rbp-0xc40]
    eaed:	ba 05 00 00 00       	mov    edx,0x5
    eaf2:	48 89 ce             	mov    rsi,rcx
    eaf5:	89 c7                	mov    edi,eax
    eaf7:	e8 74 25 ff ff       	call   1070 <write@plt>
    eafc:	bf b8 0b 00 00       	mov    edi,0xbb8
    eb01:	e8 4a 26 ff ff       	call   1150 <usleep@plt>
    eb06:	bf 2e 00 00 00       	mov    edi,0x2e
    eb0b:	e8 20 25 ff ff       	call   1030 <putchar@plt>
    eb10:	8b 05 ea 35 00 00    	mov    eax,DWORD PTR [rip+0x35ea]        # 12100 <fd>
    eb16:	48 8d 8d b0 f2 ff ff 	lea    rcx,[rbp-0xd50]
    eb1d:	ba ff 00 00 00       	mov    edx,0xff
    eb22:	48 89 ce             	mov    rsi,rcx
    eb25:	89 c7                	mov    edi,eax
    eb27:	e8 44 25 ff ff       	call   1070 <write@plt>
    eb2c:	bf 60 ea 00 00       	mov    edi,0xea60
    eb31:	e8 1a 26 ff ff       	call   1150 <usleep@plt>
    eb36:	bf 2e 00 00 00       	mov    edi,0x2e
    eb3b:	e8 f0 24 ff ff       	call   1030 <putchar@plt>
    eb40:	8b 05 ba 35 00 00    	mov    eax,DWORD PTR [rip+0x35ba]        # 12100 <fd>
    eb46:	48 8d 8d a0 f1 ff ff 	lea    rcx,[rbp-0xe60]
    eb4d:	ba 05 00 00 00       	mov    edx,0x5
    eb52:	48 89 ce             	mov    rsi,rcx
    eb55:	89 c7                	mov    edi,eax
    eb57:	e8 14 25 ff ff       	call   1070 <write@plt>
    eb5c:	bf b8 0b 00 00       	mov    edi,0xbb8
    eb61:	e8 ea 25 ff ff       	call   1150 <usleep@plt>
    eb66:	bf 2e 00 00 00       	mov    edi,0x2e
    eb6b:	e8 c0 24 ff ff       	call   1030 <putchar@plt>
    eb70:	8b 05 8a 35 00 00    	mov    eax,DWORD PTR [rip+0x358a]        # 12100 <fd>
    eb76:	48 8d 8d 90 f0 ff ff 	lea    rcx,[rbp-0xf70]
    eb7d:	ba ff 00 00 00       	mov    edx,0xff
    eb82:	48 89 ce             	mov    rsi,rcx
    eb85:	89 c7                	mov    edi,eax
    eb87:	e8 e4 24 ff ff       	call   1070 <write@plt>
    eb8c:	bf 60 ea 00 00       	mov    edi,0xea60
    eb91:	e8 ba 25 ff ff       	call   1150 <usleep@plt>
    eb96:	bf 2e 00 00 00       	mov    edi,0x2e
    eb9b:	e8 90 24 ff ff       	call   1030 <putchar@plt>
    eba0:	8b 05 5a 35 00 00    	mov    eax,DWORD PTR [rip+0x355a]        # 12100 <fd>
    eba6:	48 8d 8d 80 ef ff ff 	lea    rcx,[rbp-0x1080]
    ebad:	ba 05 00 00 00       	mov    edx,0x5
    ebb2:	48 89 ce             	mov    rsi,rcx
    ebb5:	89 c7                	mov    edi,eax
    ebb7:	e8 b4 24 ff ff       	call   1070 <write@plt>
    ebbc:	bf b8 0b 00 00       	mov    edi,0xbb8
    ebc1:	e8 8a 25 ff ff       	call   1150 <usleep@plt>
    ebc6:	bf 2e 00 00 00       	mov    edi,0x2e
    ebcb:	e8 60 24 ff ff       	call   1030 <putchar@plt>
    ebd0:	8b 05 2a 35 00 00    	mov    eax,DWORD PTR [rip+0x352a]        # 12100 <fd>
    ebd6:	48 8d 8d 70 ee ff ff 	lea    rcx,[rbp-0x1190]
    ebdd:	ba ff 00 00 00       	mov    edx,0xff
    ebe2:	48 89 ce             	mov    rsi,rcx
    ebe5:	89 c7                	mov    edi,eax
    ebe7:	e8 84 24 ff ff       	call   1070 <write@plt>
    ebec:	bf 60 ea 00 00       	mov    edi,0xea60
    ebf1:	e8 5a 25 ff ff       	call   1150 <usleep@plt>
    ebf6:	bf 2e 00 00 00       	mov    edi,0x2e
    ebfb:	e8 30 24 ff ff       	call   1030 <putchar@plt>
    ec00:	8b 05 fa 34 00 00    	mov    eax,DWORD PTR [rip+0x34fa]        # 12100 <fd>
    ec06:	48 8d 8d 60 ed ff ff 	lea    rcx,[rbp-0x12a0]
    ec0d:	ba 05 00 00 00       	mov    edx,0x5
    ec12:	48 89 ce             	mov    rsi,rcx
    ec15:	89 c7                	mov    edi,eax
    ec17:	e8 54 24 ff ff       	call   1070 <write@plt>
    ec1c:	bf b8 0b 00 00       	mov    edi,0xbb8
    ec21:	e8 2a 25 ff ff       	call   1150 <usleep@plt>
    ec26:	bf 2e 00 00 00       	mov    edi,0x2e
    ec2b:	e8 00 24 ff ff       	call   1030 <putchar@plt>
    ec30:	8b 05 ca 34 00 00    	mov    eax,DWORD PTR [rip+0x34ca]        # 12100 <fd>
    ec36:	48 8d 8d 50 ec ff ff 	lea    rcx,[rbp-0x13b0]
    ec3d:	ba ff 00 00 00       	mov    edx,0xff
    ec42:	48 89 ce             	mov    rsi,rcx
    ec45:	89 c7                	mov    edi,eax
    ec47:	e8 24 24 ff ff       	call   1070 <write@plt>
    ec4c:	bf 60 ea 00 00       	mov    edi,0xea60
    ec51:	e8 fa 24 ff ff       	call   1150 <usleep@plt>
    ec56:	bf 2e 00 00 00       	mov    edi,0x2e
    ec5b:	e8 d0 23 ff ff       	call   1030 <putchar@plt>
    ec60:	8b 05 9a 34 00 00    	mov    eax,DWORD PTR [rip+0x349a]        # 12100 <fd>
    ec66:	48 8d 8d 40 eb ff ff 	lea    rcx,[rbp-0x14c0]
    ec6d:	ba 05 00 00 00       	mov    edx,0x5
    ec72:	48 89 ce             	mov    rsi,rcx
    ec75:	89 c7                	mov    edi,eax
    ec77:	e8 f4 23 ff ff       	call   1070 <write@plt>
    ec7c:	bf b8 0b 00 00       	mov    edi,0xbb8
    ec81:	e8 ca 24 ff ff       	call   1150 <usleep@plt>
    ec86:	bf 2e 00 00 00       	mov    edi,0x2e
    ec8b:	e8 a0 23 ff ff       	call   1030 <putchar@plt>
    ec90:	8b 05 6a 34 00 00    	mov    eax,DWORD PTR [rip+0x346a]        # 12100 <fd>
    ec96:	48 8d 8d 30 ea ff ff 	lea    rcx,[rbp-0x15d0]
    ec9d:	ba ff 00 00 00       	mov    edx,0xff
    eca2:	48 89 ce             	mov    rsi,rcx
    eca5:	89 c7                	mov    edi,eax
    eca7:	e8 c4 23 ff ff       	call   1070 <write@plt>
    ecac:	bf 60 ea 00 00       	mov    edi,0xea60
    ecb1:	e8 9a 24 ff ff       	call   1150 <usleep@plt>
    ecb6:	bf 2e 00 00 00       	mov    edi,0x2e
    ecbb:	e8 70 23 ff ff       	call   1030 <putchar@plt>
    ecc0:	8b 05 3a 34 00 00    	mov    eax,DWORD PTR [rip+0x343a]        # 12100 <fd>
    ecc6:	48 8d 8d 20 e9 ff ff 	lea    rcx,[rbp-0x16e0]
    eccd:	ba 05 00 00 00       	mov    edx,0x5
    ecd2:	48 89 ce             	mov    rsi,rcx
    ecd5:	89 c7                	mov    edi,eax
    ecd7:	e8 94 23 ff ff       	call   1070 <write@plt>
    ecdc:	bf b8 0b 00 00       	mov    edi,0xbb8
    ece1:	e8 6a 24 ff ff       	call   1150 <usleep@plt>
    ece6:	bf 2e 00 00 00       	mov    edi,0x2e
    eceb:	e8 40 23 ff ff       	call   1030 <putchar@plt>
    ecf0:	8b 05 0a 34 00 00    	mov    eax,DWORD PTR [rip+0x340a]        # 12100 <fd>
    ecf6:	48 8d 8d 10 e8 ff ff 	lea    rcx,[rbp-0x17f0]
    ecfd:	ba ff 00 00 00       	mov    edx,0xff
    ed02:	48 89 ce             	mov    rsi,rcx
    ed05:	89 c7                	mov    edi,eax
    ed07:	e8 64 23 ff ff       	call   1070 <write@plt>
    ed0c:	bf 60 ea 00 00       	mov    edi,0xea60
    ed11:	e8 3a 24 ff ff       	call   1150 <usleep@plt>
    ed16:	bf 2e 00 00 00       	mov    edi,0x2e
    ed1b:	e8 10 23 ff ff       	call   1030 <putchar@plt>
    ed20:	8b 05 da 33 00 00    	mov    eax,DWORD PTR [rip+0x33da]        # 12100 <fd>
    ed26:	48 8d 8d 00 e7 ff ff 	lea    rcx,[rbp-0x1900]
    ed2d:	ba 05 00 00 00       	mov    edx,0x5
    ed32:	48 89 ce             	mov    rsi,rcx
    ed35:	89 c7                	mov    edi,eax
    ed37:	e8 34 23 ff ff       	call   1070 <write@plt>
    ed3c:	bf b8 0b 00 00       	mov    edi,0xbb8
    ed41:	e8 0a 24 ff ff       	call   1150 <usleep@plt>
    ed46:	bf 2e 00 00 00       	mov    edi,0x2e
    ed4b:	e8 e0 22 ff ff       	call   1030 <putchar@plt>
    ed50:	8b 05 aa 33 00 00    	mov    eax,DWORD PTR [rip+0x33aa]        # 12100 <fd>
    ed56:	48 8d 8d f0 e5 ff ff 	lea    rcx,[rbp-0x1a10]
    ed5d:	ba ff 00 00 00       	mov    edx,0xff
    ed62:	48 89 ce             	mov    rsi,rcx
    ed65:	89 c7                	mov    edi,eax
    ed67:	e8 04 23 ff ff       	call   1070 <write@plt>
    ed6c:	bf 60 ea 00 00       	mov    edi,0xea60
    ed71:	e8 da 23 ff ff       	call   1150 <usleep@plt>
    ed76:	bf 2e 00 00 00       	mov    edi,0x2e
    ed7b:	e8 b0 22 ff ff       	call   1030 <putchar@plt>
    ed80:	8b 05 7a 33 00 00    	mov    eax,DWORD PTR [rip+0x337a]        # 12100 <fd>
    ed86:	48 8d 8d e0 e4 ff ff 	lea    rcx,[rbp-0x1b20]
    ed8d:	ba 05 00 00 00       	mov    edx,0x5
    ed92:	48 89 ce             	mov    rsi,rcx
    ed95:	89 c7                	mov    edi,eax
    ed97:	e8 d4 22 ff ff       	call   1070 <write@plt>
    ed9c:	bf b8 0b 00 00       	mov    edi,0xbb8
    eda1:	e8 aa 23 ff ff       	call   1150 <usleep@plt>
    eda6:	bf 2e 00 00 00       	mov    edi,0x2e
    edab:	e8 80 22 ff ff       	call   1030 <putchar@plt>
    edb0:	8b 05 4a 33 00 00    	mov    eax,DWORD PTR [rip+0x334a]        # 12100 <fd>
    edb6:	48 8d 8d d0 e3 ff ff 	lea    rcx,[rbp-0x1c30]
    edbd:	ba ff 00 00 00       	mov    edx,0xff
    edc2:	48 89 ce             	mov    rsi,rcx
    edc5:	89 c7                	mov    edi,eax
    edc7:	e8 a4 22 ff ff       	call   1070 <write@plt>
    edcc:	bf 60 ea 00 00       	mov    edi,0xea60
    edd1:	e8 7a 23 ff ff       	call   1150 <usleep@plt>
    edd6:	bf 2e 00 00 00       	mov    edi,0x2e
    eddb:	e8 50 22 ff ff       	call   1030 <putchar@plt>
    ede0:	8b 05 1a 33 00 00    	mov    eax,DWORD PTR [rip+0x331a]        # 12100 <fd>
    ede6:	48 8d 8d c0 e2 ff ff 	lea    rcx,[rbp-0x1d40]
    eded:	ba 05 00 00 00       	mov    edx,0x5
    edf2:	48 89 ce             	mov    rsi,rcx
    edf5:	89 c7                	mov    edi,eax
    edf7:	e8 74 22 ff ff       	call   1070 <write@plt>
    edfc:	bf b8 0b 00 00       	mov    edi,0xbb8
    ee01:	e8 4a 23 ff ff       	call   1150 <usleep@plt>
    ee06:	bf 2e 00 00 00       	mov    edi,0x2e
    ee0b:	e8 20 22 ff ff       	call   1030 <putchar@plt>
    ee10:	8b 05 ea 32 00 00    	mov    eax,DWORD PTR [rip+0x32ea]        # 12100 <fd>
    ee16:	48 8d 8d b0 e1 ff ff 	lea    rcx,[rbp-0x1e50]
    ee1d:	ba ff 00 00 00       	mov    edx,0xff
    ee22:	48 89 ce             	mov    rsi,rcx
    ee25:	89 c7                	mov    edi,eax
    ee27:	e8 44 22 ff ff       	call   1070 <write@plt>
    ee2c:	bf 60 ea 00 00       	mov    edi,0xea60
    ee31:	e8 1a 23 ff ff       	call   1150 <usleep@plt>
    ee36:	bf 2e 00 00 00       	mov    edi,0x2e
    ee3b:	e8 f0 21 ff ff       	call   1030 <putchar@plt>
    ee40:	8b 05 ba 32 00 00    	mov    eax,DWORD PTR [rip+0x32ba]        # 12100 <fd>
    ee46:	48 8d 8d a0 e0 ff ff 	lea    rcx,[rbp-0x1f60]
    ee4d:	ba 05 00 00 00       	mov    edx,0x5
    ee52:	48 89 ce             	mov    rsi,rcx
    ee55:	89 c7                	mov    edi,eax
    ee57:	e8 14 22 ff ff       	call   1070 <write@plt>
    ee5c:	bf b8 0b 00 00       	mov    edi,0xbb8
    ee61:	e8 ea 22 ff ff       	call   1150 <usleep@plt>
    ee66:	bf 2e 00 00 00       	mov    edi,0x2e
    ee6b:	e8 c0 21 ff ff       	call   1030 <putchar@plt>
    ee70:	8b 05 8a 32 00 00    	mov    eax,DWORD PTR [rip+0x328a]        # 12100 <fd>
    ee76:	48 8d 8d 90 df ff ff 	lea    rcx,[rbp-0x2070]
    ee7d:	ba ff 00 00 00       	mov    edx,0xff
    ee82:	48 89 ce             	mov    rsi,rcx
    ee85:	89 c7                	mov    edi,eax
    ee87:	e8 e4 21 ff ff       	call   1070 <write@plt>
    ee8c:	bf 60 ea 00 00       	mov    edi,0xea60
    ee91:	e8 ba 22 ff ff       	call   1150 <usleep@plt>
    ee96:	bf 2e 00 00 00       	mov    edi,0x2e
    ee9b:	e8 90 21 ff ff       	call   1030 <putchar@plt>
    eea0:	8b 05 5a 32 00 00    	mov    eax,DWORD PTR [rip+0x325a]        # 12100 <fd>
    eea6:	48 8d 8d 80 de ff ff 	lea    rcx,[rbp-0x2180]
    eead:	ba 05 00 00 00       	mov    edx,0x5
    eeb2:	48 89 ce             	mov    rsi,rcx
    eeb5:	89 c7                	mov    edi,eax
    eeb7:	e8 b4 21 ff ff       	call   1070 <write@plt>
    eebc:	bf b8 0b 00 00       	mov    edi,0xbb8
    eec1:	e8 8a 22 ff ff       	call   1150 <usleep@plt>
    eec6:	bf 2e 00 00 00       	mov    edi,0x2e
    eecb:	e8 60 21 ff ff       	call   1030 <putchar@plt>
    eed0:	8b 05 2a 32 00 00    	mov    eax,DWORD PTR [rip+0x322a]        # 12100 <fd>
    eed6:	48 8d 8d 70 dd ff ff 	lea    rcx,[rbp-0x2290]
    eedd:	ba ff 00 00 00       	mov    edx,0xff
    eee2:	48 89 ce             	mov    rsi,rcx
    eee5:	89 c7                	mov    edi,eax
    eee7:	e8 84 21 ff ff       	call   1070 <write@plt>
    eeec:	bf 60 ea 00 00       	mov    edi,0xea60
    eef1:	e8 5a 22 ff ff       	call   1150 <usleep@plt>
    eef6:	bf 2e 00 00 00       	mov    edi,0x2e
    eefb:	e8 30 21 ff ff       	call   1030 <putchar@plt>
    ef00:	8b 05 fa 31 00 00    	mov    eax,DWORD PTR [rip+0x31fa]        # 12100 <fd>
    ef06:	48 8d 8d 60 dc ff ff 	lea    rcx,[rbp-0x23a0]
    ef0d:	ba 05 00 00 00       	mov    edx,0x5
    ef12:	48 89 ce             	mov    rsi,rcx
    ef15:	89 c7                	mov    edi,eax
    ef17:	e8 54 21 ff ff       	call   1070 <write@plt>
    ef1c:	bf b8 0b 00 00       	mov    edi,0xbb8
    ef21:	e8 2a 22 ff ff       	call   1150 <usleep@plt>
    ef26:	bf 2e 00 00 00       	mov    edi,0x2e
    ef2b:	e8 00 21 ff ff       	call   1030 <putchar@plt>
    ef30:	8b 05 ca 31 00 00    	mov    eax,DWORD PTR [rip+0x31ca]        # 12100 <fd>
    ef36:	48 8d 8d 50 db ff ff 	lea    rcx,[rbp-0x24b0]
    ef3d:	ba ff 00 00 00       	mov    edx,0xff
    ef42:	48 89 ce             	mov    rsi,rcx
    ef45:	89 c7                	mov    edi,eax
    ef47:	e8 24 21 ff ff       	call   1070 <write@plt>
    ef4c:	bf 60 ea 00 00       	mov    edi,0xea60
    ef51:	e8 fa 21 ff ff       	call   1150 <usleep@plt>
    ef56:	bf 2e 00 00 00       	mov    edi,0x2e
    ef5b:	e8 d0 20 ff ff       	call   1030 <putchar@plt>
    ef60:	8b 05 9a 31 00 00    	mov    eax,DWORD PTR [rip+0x319a]        # 12100 <fd>
    ef66:	48 8d 8d 40 da ff ff 	lea    rcx,[rbp-0x25c0]
    ef6d:	ba 05 00 00 00       	mov    edx,0x5
    ef72:	48 89 ce             	mov    rsi,rcx
    ef75:	89 c7                	mov    edi,eax
    ef77:	e8 f4 20 ff ff       	call   1070 <write@plt>
    ef7c:	bf b8 0b 00 00       	mov    edi,0xbb8
    ef81:	e8 ca 21 ff ff       	call   1150 <usleep@plt>
    ef86:	bf 2e 00 00 00       	mov    edi,0x2e
    ef8b:	e8 a0 20 ff ff       	call   1030 <putchar@plt>
    ef90:	8b 05 6a 31 00 00    	mov    eax,DWORD PTR [rip+0x316a]        # 12100 <fd>
    ef96:	48 8d 8d 30 d9 ff ff 	lea    rcx,[rbp-0x26d0]
    ef9d:	ba ff 00 00 00       	mov    edx,0xff
    efa2:	48 89 ce             	mov    rsi,rcx
    efa5:	89 c7                	mov    edi,eax
    efa7:	e8 c4 20 ff ff       	call   1070 <write@plt>
    efac:	bf 60 ea 00 00       	mov    edi,0xea60
    efb1:	e8 9a 21 ff ff       	call   1150 <usleep@plt>
    efb6:	bf 2e 00 00 00       	mov    edi,0x2e
    efbb:	e8 70 20 ff ff       	call   1030 <putchar@plt>
    efc0:	8b 05 3a 31 00 00    	mov    eax,DWORD PTR [rip+0x313a]        # 12100 <fd>
    efc6:	48 8d 8d 20 d8 ff ff 	lea    rcx,[rbp-0x27e0]
    efcd:	ba 05 00 00 00       	mov    edx,0x5
    efd2:	48 89 ce             	mov    rsi,rcx
    efd5:	89 c7                	mov    edi,eax
    efd7:	e8 94 20 ff ff       	call   1070 <write@plt>
    efdc:	bf b8 0b 00 00       	mov    edi,0xbb8
    efe1:	e8 6a 21 ff ff       	call   1150 <usleep@plt>
    efe6:	bf 2e 00 00 00       	mov    edi,0x2e
    efeb:	e8 40 20 ff ff       	call   1030 <putchar@plt>
    eff0:	8b 05 0a 31 00 00    	mov    eax,DWORD PTR [rip+0x310a]        # 12100 <fd>
    eff6:	48 8d 8d 10 d7 ff ff 	lea    rcx,[rbp-0x28f0]
    effd:	ba ff 00 00 00       	mov    edx,0xff
    f002:	48 89 ce             	mov    rsi,rcx
    f005:	89 c7                	mov    edi,eax
    f007:	e8 64 20 ff ff       	call   1070 <write@plt>
    f00c:	bf 60 ea 00 00       	mov    edi,0xea60
    f011:	e8 3a 21 ff ff       	call   1150 <usleep@plt>
    f016:	bf 2e 00 00 00       	mov    edi,0x2e
    f01b:	e8 10 20 ff ff       	call   1030 <putchar@plt>
    f020:	8b 05 da 30 00 00    	mov    eax,DWORD PTR [rip+0x30da]        # 12100 <fd>
    f026:	48 8d 8d 00 d6 ff ff 	lea    rcx,[rbp-0x2a00]
    f02d:	ba 05 00 00 00       	mov    edx,0x5
    f032:	48 89 ce             	mov    rsi,rcx
    f035:	89 c7                	mov    edi,eax
    f037:	e8 34 20 ff ff       	call   1070 <write@plt>
    f03c:	bf b8 0b 00 00       	mov    edi,0xbb8
    f041:	e8 0a 21 ff ff       	call   1150 <usleep@plt>
    f046:	bf 2e 00 00 00       	mov    edi,0x2e
    f04b:	e8 e0 1f ff ff       	call   1030 <putchar@plt>
    f050:	8b 05 aa 30 00 00    	mov    eax,DWORD PTR [rip+0x30aa]        # 12100 <fd>
    f056:	48 8d 8d f0 d4 ff ff 	lea    rcx,[rbp-0x2b10]
    f05d:	ba ff 00 00 00       	mov    edx,0xff
    f062:	48 89 ce             	mov    rsi,rcx
    f065:	89 c7                	mov    edi,eax
    f067:	e8 04 20 ff ff       	call   1070 <write@plt>
    f06c:	bf 60 ea 00 00       	mov    edi,0xea60
    f071:	e8 da 20 ff ff       	call   1150 <usleep@plt>
    f076:	bf 2e 00 00 00       	mov    edi,0x2e
    f07b:	e8 b0 1f ff ff       	call   1030 <putchar@plt>
    f080:	8b 05 7a 30 00 00    	mov    eax,DWORD PTR [rip+0x307a]        # 12100 <fd>
    f086:	48 8d 8d e0 d3 ff ff 	lea    rcx,[rbp-0x2c20]
    f08d:	ba 05 00 00 00       	mov    edx,0x5
    f092:	48 89 ce             	mov    rsi,rcx
    f095:	89 c7                	mov    edi,eax
    f097:	e8 d4 1f ff ff       	call   1070 <write@plt>
    f09c:	bf b8 0b 00 00       	mov    edi,0xbb8
    f0a1:	e8 aa 20 ff ff       	call   1150 <usleep@plt>
    f0a6:	bf 2e 00 00 00       	mov    edi,0x2e
    f0ab:	e8 80 1f ff ff       	call   1030 <putchar@plt>
    f0b0:	8b 05 4a 30 00 00    	mov    eax,DWORD PTR [rip+0x304a]        # 12100 <fd>
    f0b6:	48 8d 8d d0 d2 ff ff 	lea    rcx,[rbp-0x2d30]
    f0bd:	ba ff 00 00 00       	mov    edx,0xff
    f0c2:	48 89 ce             	mov    rsi,rcx
    f0c5:	89 c7                	mov    edi,eax
    f0c7:	e8 a4 1f ff ff       	call   1070 <write@plt>
    f0cc:	bf 60 ea 00 00       	mov    edi,0xea60
    f0d1:	e8 7a 20 ff ff       	call   1150 <usleep@plt>
    f0d6:	bf 2e 00 00 00       	mov    edi,0x2e
    f0db:	e8 50 1f ff ff       	call   1030 <putchar@plt>
    f0e0:	8b 05 1a 30 00 00    	mov    eax,DWORD PTR [rip+0x301a]        # 12100 <fd>
    f0e6:	48 8d 8d c0 d1 ff ff 	lea    rcx,[rbp-0x2e40]
    f0ed:	ba 05 00 00 00       	mov    edx,0x5
    f0f2:	48 89 ce             	mov    rsi,rcx
    f0f5:	89 c7                	mov    edi,eax
    f0f7:	e8 74 1f ff ff       	call   1070 <write@plt>
    f0fc:	bf b8 0b 00 00       	mov    edi,0xbb8
    f101:	e8 4a 20 ff ff       	call   1150 <usleep@plt>
    f106:	bf 2e 00 00 00       	mov    edi,0x2e
    f10b:	e8 20 1f ff ff       	call   1030 <putchar@plt>
    f110:	8b 05 ea 2f 00 00    	mov    eax,DWORD PTR [rip+0x2fea]        # 12100 <fd>
    f116:	48 8d 8d b0 d0 ff ff 	lea    rcx,[rbp-0x2f50]
    f11d:	ba ff 00 00 00       	mov    edx,0xff
    f122:	48 89 ce             	mov    rsi,rcx
    f125:	89 c7                	mov    edi,eax
    f127:	e8 44 1f ff ff       	call   1070 <write@plt>
    f12c:	bf 60 ea 00 00       	mov    edi,0xea60
    f131:	e8 1a 20 ff ff       	call   1150 <usleep@plt>
    f136:	bf 2e 00 00 00       	mov    edi,0x2e
    f13b:	e8 f0 1e ff ff       	call   1030 <putchar@plt>
    f140:	8b 05 ba 2f 00 00    	mov    eax,DWORD PTR [rip+0x2fba]        # 12100 <fd>
    f146:	48 8d 8d a0 cf ff ff 	lea    rcx,[rbp-0x3060]
    f14d:	ba 05 00 00 00       	mov    edx,0x5
    f152:	48 89 ce             	mov    rsi,rcx
    f155:	89 c7                	mov    edi,eax
    f157:	e8 14 1f ff ff       	call   1070 <write@plt>
    f15c:	bf b8 0b 00 00       	mov    edi,0xbb8
    f161:	e8 ea 1f ff ff       	call   1150 <usleep@plt>
    f166:	bf 2e 00 00 00       	mov    edi,0x2e
    f16b:	e8 c0 1e ff ff       	call   1030 <putchar@plt>
    f170:	8b 05 8a 2f 00 00    	mov    eax,DWORD PTR [rip+0x2f8a]        # 12100 <fd>
    f176:	48 8d 8d 90 ce ff ff 	lea    rcx,[rbp-0x3170]
    f17d:	ba ff 00 00 00       	mov    edx,0xff
    f182:	48 89 ce             	mov    rsi,rcx
    f185:	89 c7                	mov    edi,eax
    f187:	e8 e4 1e ff ff       	call   1070 <write@plt>
    f18c:	bf 60 ea 00 00       	mov    edi,0xea60
    f191:	e8 ba 1f ff ff       	call   1150 <usleep@plt>
    f196:	bf 2e 00 00 00       	mov    edi,0x2e
    f19b:	e8 90 1e ff ff       	call   1030 <putchar@plt>
    f1a0:	8b 05 5a 2f 00 00    	mov    eax,DWORD PTR [rip+0x2f5a]        # 12100 <fd>
    f1a6:	48 8d 8d 80 cd ff ff 	lea    rcx,[rbp-0x3280]
    f1ad:	ba 05 00 00 00       	mov    edx,0x5
    f1b2:	48 89 ce             	mov    rsi,rcx
    f1b5:	89 c7                	mov    edi,eax
    f1b7:	e8 b4 1e ff ff       	call   1070 <write@plt>
    f1bc:	bf b8 0b 00 00       	mov    edi,0xbb8
    f1c1:	e8 8a 1f ff ff       	call   1150 <usleep@plt>
    f1c6:	bf 2e 00 00 00       	mov    edi,0x2e
    f1cb:	e8 60 1e ff ff       	call   1030 <putchar@plt>
    f1d0:	8b 05 2a 2f 00 00    	mov    eax,DWORD PTR [rip+0x2f2a]        # 12100 <fd>
    f1d6:	48 8d 8d 70 cc ff ff 	lea    rcx,[rbp-0x3390]
    f1dd:	ba ff 00 00 00       	mov    edx,0xff
    f1e2:	48 89 ce             	mov    rsi,rcx
    f1e5:	89 c7                	mov    edi,eax
    f1e7:	e8 84 1e ff ff       	call   1070 <write@plt>
    f1ec:	bf 60 ea 00 00       	mov    edi,0xea60
    f1f1:	e8 5a 1f ff ff       	call   1150 <usleep@plt>
    f1f6:	bf 2e 00 00 00       	mov    edi,0x2e
    f1fb:	e8 30 1e ff ff       	call   1030 <putchar@plt>
    f200:	8b 05 fa 2e 00 00    	mov    eax,DWORD PTR [rip+0x2efa]        # 12100 <fd>
    f206:	48 8d 8d 60 cb ff ff 	lea    rcx,[rbp-0x34a0]
    f20d:	ba 05 00 00 00       	mov    edx,0x5
    f212:	48 89 ce             	mov    rsi,rcx
    f215:	89 c7                	mov    edi,eax
    f217:	e8 54 1e ff ff       	call   1070 <write@plt>
    f21c:	bf b8 0b 00 00       	mov    edi,0xbb8
    f221:	e8 2a 1f ff ff       	call   1150 <usleep@plt>
    f226:	bf 2e 00 00 00       	mov    edi,0x2e
    f22b:	e8 00 1e ff ff       	call   1030 <putchar@plt>
    f230:	8b 05 ca 2e 00 00    	mov    eax,DWORD PTR [rip+0x2eca]        # 12100 <fd>
    f236:	48 8d 8d 50 ca ff ff 	lea    rcx,[rbp-0x35b0]
    f23d:	ba ff 00 00 00       	mov    edx,0xff
    f242:	48 89 ce             	mov    rsi,rcx
    f245:	89 c7                	mov    edi,eax
    f247:	e8 24 1e ff ff       	call   1070 <write@plt>
    f24c:	bf 60 ea 00 00       	mov    edi,0xea60
    f251:	e8 fa 1e ff ff       	call   1150 <usleep@plt>
    f256:	bf 2e 00 00 00       	mov    edi,0x2e
    f25b:	e8 d0 1d ff ff       	call   1030 <putchar@plt>
    f260:	8b 05 9a 2e 00 00    	mov    eax,DWORD PTR [rip+0x2e9a]        # 12100 <fd>
    f266:	48 8d 8d 40 c9 ff ff 	lea    rcx,[rbp-0x36c0]
    f26d:	ba 05 00 00 00       	mov    edx,0x5
    f272:	48 89 ce             	mov    rsi,rcx
    f275:	89 c7                	mov    edi,eax
    f277:	e8 f4 1d ff ff       	call   1070 <write@plt>
    f27c:	bf b8 0b 00 00       	mov    edi,0xbb8
    f281:	e8 ca 1e ff ff       	call   1150 <usleep@plt>
    f286:	bf 2e 00 00 00       	mov    edi,0x2e
    f28b:	e8 a0 1d ff ff       	call   1030 <putchar@plt>
    f290:	8b 05 6a 2e 00 00    	mov    eax,DWORD PTR [rip+0x2e6a]        # 12100 <fd>
    f296:	48 8d 8d 30 c8 ff ff 	lea    rcx,[rbp-0x37d0]
    f29d:	ba ff 00 00 00       	mov    edx,0xff
    f2a2:	48 89 ce             	mov    rsi,rcx
    f2a5:	89 c7                	mov    edi,eax
    f2a7:	e8 c4 1d ff ff       	call   1070 <write@plt>
    f2ac:	bf 60 ea 00 00       	mov    edi,0xea60
    f2b1:	e8 9a 1e ff ff       	call   1150 <usleep@plt>
    f2b6:	bf 2e 00 00 00       	mov    edi,0x2e
    f2bb:	e8 70 1d ff ff       	call   1030 <putchar@plt>
    f2c0:	8b 05 3a 2e 00 00    	mov    eax,DWORD PTR [rip+0x2e3a]        # 12100 <fd>
    f2c6:	48 8d 8d 20 c7 ff ff 	lea    rcx,[rbp-0x38e0]
    f2cd:	ba 05 00 00 00       	mov    edx,0x5
    f2d2:	48 89 ce             	mov    rsi,rcx
    f2d5:	89 c7                	mov    edi,eax
    f2d7:	e8 94 1d ff ff       	call   1070 <write@plt>
    f2dc:	bf b8 0b 00 00       	mov    edi,0xbb8
    f2e1:	e8 6a 1e ff ff       	call   1150 <usleep@plt>
    f2e6:	bf 2e 00 00 00       	mov    edi,0x2e
    f2eb:	e8 40 1d ff ff       	call   1030 <putchar@plt>
    f2f0:	8b 05 0a 2e 00 00    	mov    eax,DWORD PTR [rip+0x2e0a]        # 12100 <fd>
    f2f6:	48 8d 8d 10 c6 ff ff 	lea    rcx,[rbp-0x39f0]
    f2fd:	ba ff 00 00 00       	mov    edx,0xff
    f302:	48 89 ce             	mov    rsi,rcx
    f305:	89 c7                	mov    edi,eax
    f307:	e8 64 1d ff ff       	call   1070 <write@plt>
    f30c:	bf 60 ea 00 00       	mov    edi,0xea60
    f311:	e8 3a 1e ff ff       	call   1150 <usleep@plt>
    f316:	bf 2e 00 00 00       	mov    edi,0x2e
    f31b:	e8 10 1d ff ff       	call   1030 <putchar@plt>
    f320:	8b 05 da 2d 00 00    	mov    eax,DWORD PTR [rip+0x2dda]        # 12100 <fd>
    f326:	48 8d 8d 00 c5 ff ff 	lea    rcx,[rbp-0x3b00]
    f32d:	ba 05 00 00 00       	mov    edx,0x5
    f332:	48 89 ce             	mov    rsi,rcx
    f335:	89 c7                	mov    edi,eax
    f337:	e8 34 1d ff ff       	call   1070 <write@plt>
    f33c:	bf b8 0b 00 00       	mov    edi,0xbb8
    f341:	e8 0a 1e ff ff       	call   1150 <usleep@plt>
    f346:	bf 2e 00 00 00       	mov    edi,0x2e
    f34b:	e8 e0 1c ff ff       	call   1030 <putchar@plt>
    f350:	8b 05 aa 2d 00 00    	mov    eax,DWORD PTR [rip+0x2daa]        # 12100 <fd>
    f356:	48 8d 8d f0 c3 ff ff 	lea    rcx,[rbp-0x3c10]
    f35d:	ba ff 00 00 00       	mov    edx,0xff
    f362:	48 89 ce             	mov    rsi,rcx
    f365:	89 c7                	mov    edi,eax
    f367:	e8 04 1d ff ff       	call   1070 <write@plt>
    f36c:	bf 60 ea 00 00       	mov    edi,0xea60
    f371:	e8 da 1d ff ff       	call   1150 <usleep@plt>
    f376:	bf 2e 00 00 00       	mov    edi,0x2e
    f37b:	e8 b0 1c ff ff       	call   1030 <putchar@plt>
    f380:	8b 05 7a 2d 00 00    	mov    eax,DWORD PTR [rip+0x2d7a]        # 12100 <fd>
    f386:	48 8d 8d e0 c2 ff ff 	lea    rcx,[rbp-0x3d20]
    f38d:	ba 05 00 00 00       	mov    edx,0x5
    f392:	48 89 ce             	mov    rsi,rcx
    f395:	89 c7                	mov    edi,eax
    f397:	e8 d4 1c ff ff       	call   1070 <write@plt>
    f39c:	bf b8 0b 00 00       	mov    edi,0xbb8
    f3a1:	e8 aa 1d ff ff       	call   1150 <usleep@plt>
    f3a6:	bf 2e 00 00 00       	mov    edi,0x2e
    f3ab:	e8 80 1c ff ff       	call   1030 <putchar@plt>
    f3b0:	8b 05 4a 2d 00 00    	mov    eax,DWORD PTR [rip+0x2d4a]        # 12100 <fd>
    f3b6:	48 8d 8d d0 c1 ff ff 	lea    rcx,[rbp-0x3e30]
    f3bd:	ba ff 00 00 00       	mov    edx,0xff
    f3c2:	48 89 ce             	mov    rsi,rcx
    f3c5:	89 c7                	mov    edi,eax
    f3c7:	e8 a4 1c ff ff       	call   1070 <write@plt>
    f3cc:	bf 60 ea 00 00       	mov    edi,0xea60
    f3d1:	e8 7a 1d ff ff       	call   1150 <usleep@plt>
    f3d6:	bf 2e 00 00 00       	mov    edi,0x2e
    f3db:	e8 50 1c ff ff       	call   1030 <putchar@plt>
    f3e0:	8b 05 1a 2d 00 00    	mov    eax,DWORD PTR [rip+0x2d1a]        # 12100 <fd>
    f3e6:	48 8d 8d c0 c0 ff ff 	lea    rcx,[rbp-0x3f40]
    f3ed:	ba 05 00 00 00       	mov    edx,0x5
    f3f2:	48 89 ce             	mov    rsi,rcx
    f3f5:	89 c7                	mov    edi,eax
    f3f7:	e8 74 1c ff ff       	call   1070 <write@plt>
    f3fc:	bf b8 0b 00 00       	mov    edi,0xbb8
    f401:	e8 4a 1d ff ff       	call   1150 <usleep@plt>
    f406:	bf 2e 00 00 00       	mov    edi,0x2e
    f40b:	e8 20 1c ff ff       	call   1030 <putchar@plt>
    f410:	8b 05 ea 2c 00 00    	mov    eax,DWORD PTR [rip+0x2cea]        # 12100 <fd>
    f416:	48 8d 8d b0 bf ff ff 	lea    rcx,[rbp-0x4050]
    f41d:	ba ff 00 00 00       	mov    edx,0xff
    f422:	48 89 ce             	mov    rsi,rcx
    f425:	89 c7                	mov    edi,eax
    f427:	e8 44 1c ff ff       	call   1070 <write@plt>
    f42c:	bf 60 ea 00 00       	mov    edi,0xea60
    f431:	e8 1a 1d ff ff       	call   1150 <usleep@plt>
    f436:	bf 2e 00 00 00       	mov    edi,0x2e
    f43b:	e8 f0 1b ff ff       	call   1030 <putchar@plt>
    f440:	8b 05 ba 2c 00 00    	mov    eax,DWORD PTR [rip+0x2cba]        # 12100 <fd>
    f446:	48 8d 8d a0 be ff ff 	lea    rcx,[rbp-0x4160]
    f44d:	ba 05 00 00 00       	mov    edx,0x5
    f452:	48 89 ce             	mov    rsi,rcx
    f455:	89 c7                	mov    edi,eax
    f457:	e8 14 1c ff ff       	call   1070 <write@plt>
    f45c:	bf b8 0b 00 00       	mov    edi,0xbb8
    f461:	e8 ea 1c ff ff       	call   1150 <usleep@plt>
    f466:	bf 2e 00 00 00       	mov    edi,0x2e
    f46b:	e8 c0 1b ff ff       	call   1030 <putchar@plt>
    f470:	8b 05 8a 2c 00 00    	mov    eax,DWORD PTR [rip+0x2c8a]        # 12100 <fd>
    f476:	48 8d 8d 90 bd ff ff 	lea    rcx,[rbp-0x4270]
    f47d:	ba 1c 00 00 00       	mov    edx,0x1c
    f482:	48 89 ce             	mov    rsi,rcx
    f485:	89 c7                	mov    edi,eax
    f487:	e8 e4 1b ff ff       	call   1070 <write@plt>
    f48c:	bf 60 ea 00 00       	mov    edi,0xea60
    f491:	e8 ba 1c ff ff       	call   1150 <usleep@plt>
    f496:	bf 2e 00 00 00       	mov    edi,0x2e
    f49b:	e8 90 1b ff ff       	call   1030 <putchar@plt>
    f4a0:	8b 05 5a 2c 00 00    	mov    eax,DWORD PTR [rip+0x2c5a]        # 12100 <fd>
    f4a6:	48 8d 8d 80 bc ff ff 	lea    rcx,[rbp-0x4380]
    f4ad:	ba 05 00 00 00       	mov    edx,0x5
    f4b2:	48 89 ce             	mov    rsi,rcx
    f4b5:	89 c7                	mov    edi,eax
    f4b7:	e8 b4 1b ff ff       	call   1070 <write@plt>
    f4bc:	bf b8 0b 00 00       	mov    edi,0xbb8
    f4c1:	e8 8a 1c ff ff       	call   1150 <usleep@plt>
    f4c6:	bf 2e 00 00 00       	mov    edi,0x2e
    f4cb:	e8 60 1b ff ff       	call   1030 <putchar@plt>
    f4d0:	8b 05 2a 2c 00 00    	mov    eax,DWORD PTR [rip+0x2c2a]        # 12100 <fd>
    f4d6:	48 8d 8d 70 bb ff ff 	lea    rcx,[rbp-0x4490]
    f4dd:	ba 05 00 00 00       	mov    edx,0x5
    f4e2:	48 89 ce             	mov    rsi,rcx
    f4e5:	89 c7                	mov    edi,eax
    f4e7:	e8 84 1b ff ff       	call   1070 <write@plt>
    f4ec:	bf b8 0b 00 00       	mov    edi,0xbb8
    f4f1:	e8 5a 1c ff ff       	call   1150 <usleep@plt>
    f4f6:	bf 2e 00 00 00       	mov    edi,0x2e
    f4fb:	e8 30 1b ff ff       	call   1030 <putchar@plt>
    f500:	8b 05 fa 2b 00 00    	mov    eax,DWORD PTR [rip+0x2bfa]        # 12100 <fd>
    f506:	48 8d 8d 60 ba ff ff 	lea    rcx,[rbp-0x45a0]
    f50d:	ba 80 00 00 00       	mov    edx,0x80
    f512:	48 89 ce             	mov    rsi,rcx
    f515:	89 c7                	mov    edi,eax
    f517:	e8 54 1b ff ff       	call   1070 <write@plt>
    f51c:	bf 60 ea 00 00       	mov    edi,0xea60
    f521:	e8 2a 1c ff ff       	call   1150 <usleep@plt>
    f526:	bf 2e 00 00 00       	mov    edi,0x2e
    f52b:	e8 00 1b ff ff       	call   1030 <putchar@plt>
    f530:	8b 05 ca 2b 00 00    	mov    eax,DWORD PTR [rip+0x2bca]        # 12100 <fd>
    f536:	48 8d 8d 50 b9 ff ff 	lea    rcx,[rbp-0x46b0]
    f53d:	ba 05 00 00 00       	mov    edx,0x5
    f542:	48 89 ce             	mov    rsi,rcx
    f545:	89 c7                	mov    edi,eax
    f547:	e8 24 1b ff ff       	call   1070 <write@plt>
    f54c:	bf b8 0b 00 00       	mov    edi,0xbb8
    f551:	e8 fa 1b ff ff       	call   1150 <usleep@plt>
    f556:	bf 2e 00 00 00       	mov    edi,0x2e
    f55b:	e8 d0 1a ff ff       	call   1030 <putchar@plt>
    f560:	8b 05 9a 2b 00 00    	mov    eax,DWORD PTR [rip+0x2b9a]        # 12100 <fd>
    f566:	48 8d 8d 40 b8 ff ff 	lea    rcx,[rbp-0x47c0]
    f56d:	ba 80 00 00 00       	mov    edx,0x80
    f572:	48 89 ce             	mov    rsi,rcx
    f575:	89 c7                	mov    edi,eax
    f577:	e8 f4 1a ff ff       	call   1070 <write@plt>
    f57c:	bf 60 ea 00 00       	mov    edi,0xea60
    f581:	e8 ca 1b ff ff       	call   1150 <usleep@plt>
    f586:	bf 2e 00 00 00       	mov    edi,0x2e
    f58b:	e8 a0 1a ff ff       	call   1030 <putchar@plt>
    f590:	8b 05 6a 2b 00 00    	mov    eax,DWORD PTR [rip+0x2b6a]        # 12100 <fd>
    f596:	48 8d 8d 30 b7 ff ff 	lea    rcx,[rbp-0x48d0]
    f59d:	ba 05 00 00 00       	mov    edx,0x5
    f5a2:	48 89 ce             	mov    rsi,rcx
    f5a5:	89 c7                	mov    edi,eax
    f5a7:	e8 c4 1a ff ff       	call   1070 <write@plt>
    f5ac:	bf b8 0b 00 00       	mov    edi,0xbb8
    f5b1:	e8 9a 1b ff ff       	call   1150 <usleep@plt>
    f5b6:	bf 2e 00 00 00       	mov    edi,0x2e
    f5bb:	e8 70 1a ff ff       	call   1030 <putchar@plt>
    f5c0:	8b 05 3a 2b 00 00    	mov    eax,DWORD PTR [rip+0x2b3a]        # 12100 <fd>
    f5c6:	48 8d 8d 20 b6 ff ff 	lea    rcx,[rbp-0x49e0]
    f5cd:	ba 80 00 00 00       	mov    edx,0x80
    f5d2:	48 89 ce             	mov    rsi,rcx
    f5d5:	89 c7                	mov    edi,eax
    f5d7:	e8 94 1a ff ff       	call   1070 <write@plt>
    f5dc:	bf 60 ea 00 00       	mov    edi,0xea60
    f5e1:	e8 6a 1b ff ff       	call   1150 <usleep@plt>
    f5e6:	bf 2e 00 00 00       	mov    edi,0x2e
    f5eb:	e8 40 1a ff ff       	call   1030 <putchar@plt>
    f5f0:	8b 05 0a 2b 00 00    	mov    eax,DWORD PTR [rip+0x2b0a]        # 12100 <fd>
    f5f6:	48 8d 8d 10 b5 ff ff 	lea    rcx,[rbp-0x4af0]
    f5fd:	ba 05 00 00 00       	mov    edx,0x5
    f602:	48 89 ce             	mov    rsi,rcx
    f605:	89 c7                	mov    edi,eax
    f607:	e8 64 1a ff ff       	call   1070 <write@plt>
    f60c:	bf b8 0b 00 00       	mov    edi,0xbb8
    f611:	e8 3a 1b ff ff       	call   1150 <usleep@plt>
    f616:	bf 2e 00 00 00       	mov    edi,0x2e
    f61b:	e8 10 1a ff ff       	call   1030 <putchar@plt>
    f620:	8b 05 da 2a 00 00    	mov    eax,DWORD PTR [rip+0x2ada]        # 12100 <fd>
    f626:	48 8d 8d 00 b4 ff ff 	lea    rcx,[rbp-0x4c00]
    f62d:	ba 80 00 00 00       	mov    edx,0x80
    f632:	48 89 ce             	mov    rsi,rcx
    f635:	89 c7                	mov    edi,eax
    f637:	e8 34 1a ff ff       	call   1070 <write@plt>
    f63c:	bf 60 ea 00 00       	mov    edi,0xea60
    f641:	e8 0a 1b ff ff       	call   1150 <usleep@plt>
    f646:	bf 2e 00 00 00       	mov    edi,0x2e
    f64b:	e8 e0 19 ff ff       	call   1030 <putchar@plt>
    f650:	48 8d 3d 4b 0d 00 00 	lea    rdi,[rip+0xd4b]        # 103a2 <_IO_stdin_used+0x3a2>
    f657:	e8 f4 19 ff ff       	call   1050 <puts@plt>
    f65c:	48 8d 3d 43 0d 00 00 	lea    rdi,[rip+0xd43]        # 103a6 <_IO_stdin_used+0x3a6>
    f663:	b8 00 00 00 00       	mov    eax,0x0
    f668:	e8 33 1a ff ff       	call   10a0 <printf@plt>
    f66d:	c6 05 70 2a 00 00 00 	mov    BYTE PTR [rip+0x2a70],0x0        # 120e4 <i>
    f674:	eb 1f                	jmp    f695 <main+0xe2fc>
    f676:	e8 da 1b ff ff       	call   1255 <reset_card>
    f67b:	bf 2e 00 00 00       	mov    edi,0x2e
    f680:	e8 ab 19 ff ff       	call   1030 <putchar@plt>
    f685:	0f b6 05 58 2a 00 00 	movzx  eax,BYTE PTR [rip+0x2a58]        # 120e4 <i>
    f68c:	83 c0 01             	add    eax,0x1
    f68f:	88 05 4f 2a 00 00    	mov    BYTE PTR [rip+0x2a4f],al        # 120e4 <i>
    f695:	0f b6 05 48 2a 00 00 	movzx  eax,BYTE PTR [rip+0x2a48]        # 120e4 <i>
    f69c:	3c 02                	cmp    al,0x2
    f69e:	76 d6                	jbe    f676 <main+0xe2dd>
    f6a0:	48 8d 3d 0a 0d 00 00 	lea    rdi,[rip+0xd0a]        # 103b1 <_IO_stdin_used+0x3b1>
    f6a7:	e8 a4 19 ff ff       	call   1050 <puts@plt>
    f6ac:	8b 05 4e 2a 00 00    	mov    eax,DWORD PTR [rip+0x2a4e]        # 12100 <fd>
    f6b2:	89 c7                	mov    edi,eax
    f6b4:	e8 17 1a ff ff       	call   10d0 <close@plt>
    f6b9:	90                   	nop
    f6ba:	eb 01                	jmp    f6bd <main+0xe324>
    f6bc:	90                   	nop
    f6bd:	c9                   	leave
    f6be:	c3                   	ret
    f6bf:	90                   	nop

000000000000f6c0 <__libc_csu_init>:
    f6c0:	41 57                	push   r15
    f6c2:	49 89 d7             	mov    r15,rdx
    f6c5:	41 56                	push   r14
    f6c7:	49 89 f6             	mov    r14,rsi
    f6ca:	41 55                	push   r13
    f6cc:	41 89 fd             	mov    r13d,edi
    f6cf:	41 54                	push   r12
    f6d1:	4c 8d 25 10 27 00 00 	lea    r12,[rip+0x2710]        # 11de8 <__frame_dummy_init_array_entry>
    f6d8:	55                   	push   rbp
    f6d9:	48 8d 2d 10 27 00 00 	lea    rbp,[rip+0x2710]        # 11df0 <__do_global_dtors_aux_fini_array_entry>
    f6e0:	53                   	push   rbx
    f6e1:	4c 29 e5             	sub    rbp,r12
    f6e4:	48 83 ec 08          	sub    rsp,0x8
    f6e8:	e8 13 19 ff ff       	call   1000 <_init>
    f6ed:	48 c1 fd 03          	sar    rbp,0x3
    f6f1:	74 1b                	je     f70e <__libc_csu_init+0x4e>
    f6f3:	31 db                	xor    ebx,ebx
    f6f5:	0f 1f 00             	nop    DWORD PTR [rax]
    f6f8:	4c 89 fa             	mov    rdx,r15
    f6fb:	4c 89 f6             	mov    rsi,r14
    f6fe:	44 89 ef             	mov    edi,r13d
    f701:	41 ff 14 dc          	call   QWORD PTR [r12+rbx*8]
    f705:	48 83 c3 01          	add    rbx,0x1
    f709:	48 39 dd             	cmp    rbp,rbx
    f70c:	75 ea                	jne    f6f8 <__libc_csu_init+0x38>
    f70e:	48 83 c4 08          	add    rsp,0x8
    f712:	5b                   	pop    rbx
    f713:	5d                   	pop    rbp
    f714:	41 5c                	pop    r12
    f716:	41 5d                	pop    r13
    f718:	41 5e                	pop    r14
    f71a:	41 5f                	pop    r15
    f71c:	c3                   	ret
    f71d:	0f 1f 00             	nop    DWORD PTR [rax]

000000000000f720 <__libc_csu_fini>:
    f720:	c3                   	ret

Disassembly of section .fini:

000000000000f724 <_fini>:
    f724:	48 83 ec 08          	sub    rsp,0x8
    f728:	48 83 c4 08          	add    rsp,0x8
    f72c:	c3                   	ret
