
uploader_x64:     file format elf64-x86-64


Disassembly of section .init:

0000000000001000 <_init>:
    1000:	48 83 ec 08          	sub    rsp,0x8
    1004:	48 8b 05 dd 0f 01 00 	mov    rax,QWORD PTR [rip+0x10fdd]        # 11fe8 <__gmon_start__>
    100b:	48 85 c0             	test   rax,rax
    100e:	74 02                	je     1012 <_init+0x12>
    1010:	ff d0                	call   rax
    1012:	48 83 c4 08          	add    rsp,0x8
    1016:	c3                   	ret

Disassembly of section .plt:

0000000000001020 <.plt>:
    1020:	ff 35 e2 0f 01 00    	push   QWORD PTR [rip+0x10fe2]        # 12008 <_GLOBAL_OFFSET_TABLE_+0x8>
    1026:	ff 25 e4 0f 01 00    	jmp    QWORD PTR [rip+0x10fe4]        # 12010 <_GLOBAL_OFFSET_TABLE_+0x10>
    102c:	0f 1f 40 00          	nop    DWORD PTR [rax+0x0]

0000000000001030 <putchar@plt>:
    1030:	ff 25 e2 0f 01 00    	jmp    QWORD PTR [rip+0x10fe2]        # 12018 <putchar@GLIBC_2.2.5>
    1036:	68 00 00 00 00       	push   0x0
    103b:	e9 e0 ff ff ff       	jmp    1020 <.plt>

0000000000001040 <__errno_location@plt>:
    1040:	ff 25 da 0f 01 00    	jmp    QWORD PTR [rip+0x10fda]        # 12020 <__errno_location@GLIBC_2.2.5>
    1046:	68 01 00 00 00       	push   0x1
    104b:	e9 d0 ff ff ff       	jmp    1020 <.plt>

0000000000001050 <puts@plt>:
    1050:	ff 25 d2 0f 01 00    	jmp    QWORD PTR [rip+0x10fd2]        # 12028 <puts@GLIBC_2.2.5>
    1056:	68 02 00 00 00       	push   0x2
    105b:	e9 c0 ff ff ff       	jmp    1020 <.plt>

0000000000001060 <fread@plt>:
    1060:	ff 25 ca 0f 01 00    	jmp    QWORD PTR [rip+0x10fca]        # 12030 <fread@GLIBC_2.2.5>
    1066:	68 03 00 00 00       	push   0x3
    106b:	e9 b0 ff ff ff       	jmp    1020 <.plt>

0000000000001070 <write@plt>:
    1070:	ff 25 c2 0f 01 00    	jmp    QWORD PTR [rip+0x10fc2]        # 12038 <write@GLIBC_2.2.5>
    1076:	68 04 00 00 00       	push   0x4
    107b:	e9 a0 ff ff ff       	jmp    1020 <.plt>

0000000000001080 <fclose@plt>:
    1080:	ff 25 ba 0f 01 00    	jmp    QWORD PTR [rip+0x10fba]        # 12040 <fclose@GLIBC_2.2.5>
    1086:	68 05 00 00 00       	push   0x5
    108b:	e9 90 ff ff ff       	jmp    1020 <.plt>

0000000000001090 <cfsetospeed@plt>:
    1090:	ff 25 b2 0f 01 00    	jmp    QWORD PTR [rip+0x10fb2]        # 12048 <cfsetospeed@GLIBC_2.2.5>
    1096:	68 06 00 00 00       	push   0x6
    109b:	e9 80 ff ff ff       	jmp    1020 <.plt>

00000000000010a0 <printf@plt>:
    10a0:	ff 25 aa 0f 01 00    	jmp    QWORD PTR [rip+0x10faa]        # 12050 <printf@GLIBC_2.2.5>
    10a6:	68 07 00 00 00       	push   0x7
    10ab:	e9 70 ff ff ff       	jmp    1020 <.plt>

00000000000010b0 <ioctl@plt>:
    10b0:	ff 25 a2 0f 01 00    	jmp    QWORD PTR [rip+0x10fa2]        # 12058 <ioctl@GLIBC_2.2.5>
    10b6:	68 08 00 00 00       	push   0x8
    10bb:	e9 60 ff ff ff       	jmp    1020 <.plt>

00000000000010c0 <strncat@plt>:
    10c0:	ff 25 9a 0f 01 00    	jmp    QWORD PTR [rip+0x10f9a]        # 12060 <strncat@GLIBC_2.2.5>
    10c6:	68 09 00 00 00       	push   0x9
    10cb:	e9 50 ff ff ff       	jmp    1020 <.plt>

00000000000010d0 <close@plt>:
    10d0:	ff 25 92 0f 01 00    	jmp    QWORD PTR [rip+0x10f92]        # 12068 <close@GLIBC_2.2.5>
    10d6:	68 0a 00 00 00       	push   0xa
    10db:	e9 40 ff ff ff       	jmp    1020 <.plt>

00000000000010e0 <read@plt>:
    10e0:	ff 25 8a 0f 01 00    	jmp    QWORD PTR [rip+0x10f8a]        # 12070 <read@GLIBC_2.2.5>
    10e6:	68 0b 00 00 00       	push   0xb
    10eb:	e9 30 ff ff ff       	jmp    1020 <.plt>

00000000000010f0 <tcgetattr@plt>:
    10f0:	ff 25 82 0f 01 00    	jmp    QWORD PTR [rip+0x10f82]        # 12078 <tcgetattr@GLIBC_2.2.5>
    10f6:	68 0c 00 00 00       	push   0xc
    10fb:	e9 20 ff ff ff       	jmp    1020 <.plt>

0000000000001100 <tcsetattr@plt>:
    1100:	ff 25 7a 0f 01 00    	jmp    QWORD PTR [rip+0x10f7a]        # 12080 <tcsetattr@GLIBC_2.2.5>
    1106:	68 0d 00 00 00       	push   0xd
    110b:	e9 10 ff ff ff       	jmp    1020 <.plt>

0000000000001110 <open@plt>:
    1110:	ff 25 72 0f 01 00    	jmp    QWORD PTR [rip+0x10f72]        # 12088 <open@GLIBC_2.2.5>
    1116:	68 0e 00 00 00       	push   0xe
    111b:	e9 00 ff ff ff       	jmp    1020 <.plt>

0000000000001120 <fopen@plt>:
    1120:	ff 25 6a 0f 01 00    	jmp    QWORD PTR [rip+0x10f6a]        # 12090 <fopen@GLIBC_2.2.5>
    1126:	68 0f 00 00 00       	push   0xf
    112b:	e9 f0 fe ff ff       	jmp    1020 <.plt>

0000000000001130 <cfsetispeed@plt>:
    1130:	ff 25 62 0f 01 00    	jmp    QWORD PTR [rip+0x10f62]        # 12098 <cfsetispeed@GLIBC_2.2.5>
    1136:	68 10 00 00 00       	push   0x10
    113b:	e9 e0 fe ff ff       	jmp    1020 <.plt>

0000000000001140 <strerror@plt>:
    1140:	ff 25 5a 0f 01 00    	jmp    QWORD PTR [rip+0x10f5a]        # 120a0 <strerror@GLIBC_2.2.5>
    1146:	68 11 00 00 00       	push   0x11
    114b:	e9 d0 fe ff ff       	jmp    1020 <.plt>

0000000000001150 <usleep@plt>:
    1150:	ff 25 52 0f 01 00    	jmp    QWORD PTR [rip+0x10f52]        # 120a8 <usleep@GLIBC_2.2.5>
    1156:	68 12 00 00 00       	push   0x12
    115b:	e9 c0 fe ff ff       	jmp    1020 <.plt>

Disassembly of section .plt.got:

0000000000001160 <__cxa_finalize@plt>:
    1160:	ff 25 92 0e 01 00    	jmp    QWORD PTR [rip+0x10e92]        # 11ff8 <__cxa_finalize@GLIBC_2.2.5>
    1166:	66 90                	xchg   ax,ax

Disassembly of section .text:

0000000000001170 <_start>:
    1170:	31 ed                	xor    ebp,ebp
    1172:	49 89 d1             	mov    r9,rdx
    1175:	5e                   	pop    rsi
    1176:	48 89 e2             	mov    rdx,rsp
    1179:	48 83 e4 f0          	and    rsp,0xfffffffffffffff0
    117d:	50                   	push   rax
    117e:	54                   	push   rsp
    117f:	4c 8d 05 9a e5 00 00 	lea    r8,[rip+0xe59a]        # f720 <__libc_csu_fini>
    1186:	48 8d 0d 33 e5 00 00 	lea    rcx,[rip+0xe533]        # f6c0 <__libc_csu_init>
    118d:	48 8d 3d 05 02 00 00 	lea    rdi,[rip+0x205]        # 1399 <main>
    1194:	ff 15 46 0e 01 00    	call   QWORD PTR [rip+0x10e46]        # 11fe0 <__libc_start_main@GLIBC_2.2.5>
    119a:	f4                   	hlt
    119b:	0f 1f 44 00 00       	nop    DWORD PTR [rax+rax*1+0x0]

00000000000011a0 <deregister_tm_clones>:
    11a0:	48 8d 3d 29 0f 01 00 	lea    rdi,[rip+0x10f29]        # 120d0 <__TMC_END__>
    11a7:	48 8d 05 22 0f 01 00 	lea    rax,[rip+0x10f22]        # 120d0 <__TMC_END__>
    11ae:	48 39 f8             	cmp    rax,rdi
    11b1:	74 15                	je     11c8 <deregister_tm_clones+0x28>
    11b3:	48 8b 05 1e 0e 01 00 	mov    rax,QWORD PTR [rip+0x10e1e]        # 11fd8 <_ITM_deregisterTMCloneTable>
    11ba:	48 85 c0             	test   rax,rax
    11bd:	74 09                	je     11c8 <deregister_tm_clones+0x28>
    11bf:	ff e0                	jmp    rax
    11c1:	0f 1f 80 00 00 00 00 	nop    DWORD PTR [rax+0x0]
    11c8:	c3                   	ret
    11c9:	0f 1f 80 00 00 00 00 	nop    DWORD PTR [rax+0x0]

00000000000011d0 <register_tm_clones>:
    11d0:	48 8d 3d f9 0e 01 00 	lea    rdi,[rip+0x10ef9]        # 120d0 <__TMC_END__>
    11d7:	48 8d 35 f2 0e 01 00 	lea    rsi,[rip+0x10ef2]        # 120d0 <__TMC_END__>
    11de:	48 29 fe             	sub    rsi,rdi
    11e1:	48 c1 fe 03          	sar    rsi,0x3
    11e5:	48 89 f0             	mov    rax,rsi
    11e8:	48 c1 e8 3f          	shr    rax,0x3f
    11ec:	48 01 c6             	add    rsi,rax
    11ef:	48 d1 fe             	sar    rsi,1
    11f2:	74 14                	je     1208 <register_tm_clones+0x38>
    11f4:	48 8b 05 f5 0d 01 00 	mov    rax,QWORD PTR [rip+0x10df5]        # 11ff0 <_ITM_registerTMCloneTable>
    11fb:	48 85 c0             	test   rax,rax
    11fe:	74 08                	je     1208 <register_tm_clones+0x38>
    1200:	ff e0                	jmp    rax
    1202:	66 0f 1f 44 00 00    	nop    WORD PTR [rax+rax*1+0x0]
    1208:	c3                   	ret
    1209:	0f 1f 80 00 00 00 00 	nop    DWORD PTR [rax+0x0]

0000000000001210 <__do_global_dtors_aux>:
    1210:	80 3d b9 0e 01 00 00 	cmp    BYTE PTR [rip+0x10eb9],0x0        # 120d0 <__TMC_END__>
    1217:	75 2f                	jne    1248 <__do_global_dtors_aux+0x38>
    1219:	55                   	push   rbp
    121a:	48 83 3d d6 0d 01 00 	cmp    QWORD PTR [rip+0x10dd6],0x0        # 11ff8 <__cxa_finalize@GLIBC_2.2.5>
    1221:	00 
    1222:	48 89 e5             	mov    rbp,rsp
    1225:	74 0c                	je     1233 <__do_global_dtors_aux+0x23>
    1227:	48 8b 3d 8a 0e 01 00 	mov    rdi,QWORD PTR [rip+0x10e8a]        # 120b8 <__dso_handle>
    122e:	e8 2d ff ff ff       	call   1160 <__cxa_finalize@plt>
    1233:	e8 68 ff ff ff       	call   11a0 <deregister_tm_clones>
    1238:	c6 05 91 0e 01 00 01 	mov    BYTE PTR [rip+0x10e91],0x1        # 120d0 <__TMC_END__>
    123f:	5d                   	pop    rbp
    1240:	c3                   	ret
    1241:	0f 1f 80 00 00 00 00 	nop    DWORD PTR [rax+0x0]
    1248:	c3                   	ret
    1249:	0f 1f 80 00 00 00 00 	nop    DWORD PTR [rax+0x0]

0000000000001250 <frame_dummy>:
    1250:	e9 7b ff ff ff       	jmp    11d0 <register_tm_clones>

0000000000001255 <reset_card>:
    1255:	55                   	push   rbp
    1256:	48 89 e5             	mov    rbp,rsp
    1259:	8b 05 a1 0e 01 00    	mov    eax,DWORD PTR [rip+0x10ea1]        # 12100 <fd>
    125f:	48 8d 15 9e 0e 01 00 	lea    rdx,[rip+0x10e9e]        # 12104 <status>
    1266:	be 15 54 00 00       	mov    esi,0x5415
    126b:	89 c7                	mov    edi,eax
    126d:	b8 00 00 00 00       	mov    eax,0x0
    1272:	e8 39 fe ff ff       	call   10b0 <ioctl@plt>
    1277:	8b 05 87 0e 01 00    	mov    eax,DWORD PTR [rip+0x10e87]        # 12104 <status>
    127d:	83 c8 04             	or     eax,0x4
    1280:	89 05 7e 0e 01 00    	mov    DWORD PTR [rip+0x10e7e],eax        # 12104 <status>
    1286:	8b 05 74 0e 01 00    	mov    eax,DWORD PTR [rip+0x10e74]        # 12100 <fd>
    128c:	48 8d 15 71 0e 01 00 	lea    rdx,[rip+0x10e71]        # 12104 <status>
    1293:	be 18 54 00 00       	mov    esi,0x5418
    1298:	89 c7                	mov    edi,eax
    129a:	b8 00 00 00 00       	mov    eax,0x0
    129f:	e8 0c fe ff ff       	call   10b0 <ioctl@plt>
    12a4:	bf 50 c3 00 00       	mov    edi,0xc350
    12a9:	e8 a2 fe ff ff       	call   1150 <usleep@plt>
    12ae:	8b 05 4c 0e 01 00    	mov    eax,DWORD PTR [rip+0x10e4c]        # 12100 <fd>
    12b4:	48 8d 15 49 0e 01 00 	lea    rdx,[rip+0x10e49]        # 12104 <status>
    12bb:	be 15 54 00 00       	mov    esi,0x5415
    12c0:	89 c7                	mov    edi,eax
    12c2:	b8 00 00 00 00       	mov    eax,0x0
    12c7:	e8 e4 fd ff ff       	call   10b0 <ioctl@plt>
    12cc:	8b 05 32 0e 01 00    	mov    eax,DWORD PTR [rip+0x10e32]        # 12104 <status>
    12d2:	83 e0 fb             	and    eax,0xfffffffb
    12d5:	89 05 29 0e 01 00    	mov    DWORD PTR [rip+0x10e29],eax        # 12104 <status>
    12db:	8b 05 1f 0e 01 00    	mov    eax,DWORD PTR [rip+0x10e1f]        # 12100 <fd>
    12e1:	48 8d 15 1c 0e 01 00 	lea    rdx,[rip+0x10e1c]        # 12104 <status>
    12e8:	be 18 54 00 00       	mov    esi,0x5418
    12ed:	89 c7                	mov    edi,eax
    12ef:	b8 00 00 00 00       	mov    eax,0x0
    12f4:	e8 b7 fd ff ff       	call   10b0 <ioctl@plt>
    12f9:	bf 64 00 00 00       	mov    edi,0x64
    12fe:	e8 4d fe ff ff       	call   1150 <usleep@plt>
    1303:	90                   	nop
    1304:	5d                   	pop    rbp
    1305:	c3                   	ret

0000000000001306 <ReadData>:
    1306:	55                   	push   rbp
    1307:	48 89 e5             	mov    rbp,rsp
    130a:	48 83 ec 30          	sub    rsp,0x30
    130e:	89 7d dc             	mov    DWORD PTR [rbp-0x24],edi
    1311:	c6 45 ef 00          	mov    BYTE PTR [rbp-0x11],0x0
    1315:	c6 05 c8 0d 01 00 00 	mov    BYTE PTR [rip+0x10dc8],0x0        # 120e4 <i>
    131c:	eb 46                	jmp    1364 <ReadData+0x5e>
    131e:	8b 05 dc 0d 01 00    	mov    eax,DWORD PTR [rip+0x10ddc]        # 12100 <fd>
    1324:	48 8d 4d ef          	lea    rcx,[rbp-0x11]
    1328:	ba 01 00 00 00       	mov    edx,0x1
    132d:	48 89 ce             	mov    rsi,rcx
    1330:	89 c7                	mov    edi,eax
    1332:	e8 a9 fd ff ff       	call   10e0 <read@plt>
    1337:	89 45 fc             	mov    DWORD PTR [rbp-0x4],eax
    133a:	0f b6 05 a3 0d 01 00 	movzx  eax,BYTE PTR [rip+0x10da3]        # 120e4 <i>
    1341:	0f b6 c0             	movzx  eax,al
    1344:	0f b6 55 ef          	movzx  edx,BYTE PTR [rbp-0x11]
    1348:	48 98                	cdqe
    134a:	48 8d 0d 9f 0d 01 00 	lea    rcx,[rip+0x10d9f]        # 120f0 <rx>
    1351:	88 14 08             	mov    BYTE PTR [rax+rcx*1],dl
    1354:	0f b6 05 89 0d 01 00 	movzx  eax,BYTE PTR [rip+0x10d89]        # 120e4 <i>
    135b:	83 c0 01             	add    eax,0x1
    135e:	88 05 80 0d 01 00    	mov    BYTE PTR [rip+0x10d80],al        # 120e4 <i>
    1364:	0f b6 05 79 0d 01 00 	movzx  eax,BYTE PTR [rip+0x10d79]        # 120e4 <i>
    136b:	0f b6 c0             	movzx  eax,al
    136e:	39 45 dc             	cmp    DWORD PTR [rbp-0x24],eax
    1371:	7f ab                	jg     131e <ReadData+0x18>
    1373:	83 7d fc ff          	cmp    DWORD PTR [rbp-0x4],0xffffffff
    1377:	75 1e                	jne    1397 <ReadData+0x91>
    1379:	e8 c2 fc ff ff       	call   1040 <__errno_location@plt>
    137e:	8b 00                	mov    eax,DWORD PTR [rax]
    1380:	89 c7                	mov    edi,eax
    1382:	e8 b9 fd ff ff       	call   1140 <strerror@plt>
    1387:	48 89 45 f0          	mov    QWORD PTR [rbp-0x10],rax
    138b:	48 8b 45 f0          	mov    rax,QWORD PTR [rbp-0x10]
    138f:	48 89 c7             	mov    rdi,rax
    1392:	e8 b9 fc ff ff       	call   1050 <puts@plt>
    1397:	c9                   	leave
    1398:	c3                   	ret

0000000000001399 <main>:
    1399:	55                   	push   rbp
    139a:	48 89 e5             	mov    rbp,rsp
    139d:	48 81 ec 50 4c 00 00 	sub    rsp,0x4c50
    13a4:	89 bd bc b3 ff ff    	mov    DWORD PTR [rbp-0x4c44],edi
    13aa:	48 89 b5 b0 b3 ff ff 	mov    QWORD PTR [rbp-0x4c50],rsi
    13b1:	c6 85 7c ff ff ff 1a 	mov    BYTE PTR [rbp-0x84],0x1a
    13b8:	c6 85 7d ff ff ff 03 	mov    BYTE PTR [rbp-0x83],0x3
    13bf:	c6 85 7e ff ff ff 00 	mov    BYTE PTR [rbp-0x82],0x0
    13c6:	c6 85 7f ff ff ff 09 	mov    BYTE PTR [rbp-0x81],0x9
    13cd:	48 c7 45 f8 00 00 00 	mov    QWORD PTR [rbp-0x8],0x0
    13d4:	00 
    13d5:	48 c7 85 72 ff ff ff 	mov    QWORD PTR [rbp-0x8e],0x0
    13dc:	00 00 00 00 
    13e0:	66 c7 85 7a ff ff ff 	mov    WORD PTR [rbp-0x86],0x0
    13e7:	00 00 
    13e9:	c6 85 72 ff ff ff ff 	mov    BYTE PTR [rbp-0x8e],0xff
    13f0:	c6 85 73 ff ff ff 10 	mov    BYTE PTR [rbp-0x8d],0x10
    13f7:	c6 85 74 ff ff ff 96 	mov    BYTE PTR [rbp-0x8c],0x96
    13fe:	c6 85 75 ff ff ff 79 	mov    BYTE PTR [rbp-0x8b],0x79
    1405:	83 bd bc b3 ff ff 03 	cmp    DWORD PTR [rbp-0x4c44],0x3
    140c:	0f 84 86 00 00 00    	je     1498 <main+0xff>
    1412:	83 bd bc b3 ff ff 02 	cmp    DWORD PTR [rbp-0x4c44],0x2
    1419:	74 7d                	je     1498 <main+0xff>
    141b:	48 8d 3d e6 eb 00 00 	lea    rdi,[rip+0xebe6]        # 10008 <_IO_stdin_used+0x8>
    1422:	e8 29 fc ff ff       	call   1050 <puts@plt>
    1427:	48 8d 3d 22 ec 00 00 	lea    rdi,[rip+0xec22]        # 10050 <_IO_stdin_used+0x50>
    142e:	e8 1d fc ff ff       	call   1050 <puts@plt>
    1433:	48 8d 3d 5e ec 00 00 	lea    rdi,[rip+0xec5e]        # 10098 <_IO_stdin_used+0x98>
    143a:	e8 11 fc ff ff       	call   1050 <puts@plt>
    143f:	48 8d 3d 9a ec 00 00 	lea    rdi,[rip+0xec9a]        # 100e0 <_IO_stdin_used+0xe0>
    1446:	e8 05 fc ff ff       	call   1050 <puts@plt>
    144b:	48 8d 3d b6 eb 00 00 	lea    rdi,[rip+0xebb6]        # 10008 <_IO_stdin_used+0x8>
    1452:	e8 f9 fb ff ff       	call   1050 <puts@plt>
    1457:	48 8d 3d c3 ec 00 00 	lea    rdi,[rip+0xecc3]        # 10121 <_IO_stdin_used+0x121>
    145e:	e8 ed fb ff ff       	call   1050 <puts@plt>
    1463:	48 8d 3d be ec 00 00 	lea    rdi,[rip+0xecbe]        # 10128 <_IO_stdin_used+0x128>
    146a:	e8 e1 fb ff ff       	call   1050 <puts@plt>
    146f:	48 8d 3d e3 ec 00 00 	lea    rdi,[rip+0xece3]        # 10159 <_IO_stdin_used+0x159>
    1476:	e8 d5 fb ff ff       	call   1050 <puts@plt>
    147b:	48 8d 3d e6 ec 00 00 	lea    rdi,[rip+0xece6]        # 10168 <_IO_stdin_used+0x168>
    1482:	e8 c9 fb ff ff       	call   1050 <puts@plt>
    1487:	48 8d 3d 22 ed 00 00 	lea    rdi,[rip+0xed22]        # 101b0 <_IO_stdin_used+0x1b0>
    148e:	e8 bd fb ff ff       	call   1050 <puts@plt>
    1493:	e9 25 e2 00 00       	jmp    f6bd <main+0xe324>
    1498:	83 bd bc b3 ff ff 03 	cmp    DWORD PTR [rbp-0x4c44],0x3
    149f:	75 7b                	jne    151c <main+0x183>
    14a1:	48 8b 85 b0 b3 ff ff 	mov    rax,QWORD PTR [rbp-0x4c50]
    14a8:	48 83 c0 10          	add    rax,0x10
    14ac:	48 8b 00             	mov    rax,QWORD PTR [rax]
    14af:	48 8d 35 41 ed 00 00 	lea    rsi,[rip+0xed41]        # 101f7 <_IO_stdin_used+0x1f7>
    14b6:	48 89 c7             	mov    rdi,rax
    14b9:	e8 62 fc ff ff       	call   1120 <fopen@plt>
    14be:	48 89 45 f0          	mov    QWORD PTR [rbp-0x10],rax
    14c2:	48 83 7d f0 00       	cmp    QWORD PTR [rbp-0x10],0x0
    14c7:	75 11                	jne    14da <main+0x141>
    14c9:	48 8d 3d 2a ed 00 00 	lea    rdi,[rip+0xed2a]        # 101fa <_IO_stdin_used+0x1fa>
    14d0:	e8 7b fb ff ff       	call   1050 <puts@plt>
    14d5:	e9 e3 e1 00 00       	jmp    f6bd <main+0xe324>
    14da:	48 8b 55 f0          	mov    rdx,QWORD PTR [rbp-0x10]
    14de:	48 8d 45 80          	lea    rax,[rbp-0x80]
    14e2:	48 89 d1             	mov    rcx,rdx
    14e5:	ba 5a 00 00 00       	mov    edx,0x5a
    14ea:	be 04 00 00 00       	mov    esi,0x4
    14ef:	48 89 c7             	mov    rdi,rax
    14f2:	e8 69 fb ff ff       	call   1060 <fread@plt>
    14f7:	0f b6 45 80          	movzx  eax,BYTE PTR [rbp-0x80]
    14fb:	3c 7d                	cmp    al,0x7d
    14fd:	74 11                	je     1510 <main+0x177>
    14ff:	48 8d 3d 04 ed 00 00 	lea    rdi,[rip+0xed04]        # 1020a <_IO_stdin_used+0x20a>
    1506:	e8 45 fb ff ff       	call   1050 <puts@plt>
    150b:	e9 ad e1 00 00       	jmp    f6bd <main+0xe324>
    1510:	48 8b 45 f0          	mov    rax,QWORD PTR [rbp-0x10]
    1514:	48 89 c7             	mov    rdi,rax
    1517:	e8 64 fb ff ff       	call   1080 <fclose@plt>
    151c:	48 8d 95 60 fe ff ff 	lea    rdx,[rbp-0x1a0]
    1523:	b8 00 00 00 00       	mov    eax,0x0
    1528:	b9 21 00 00 00       	mov    ecx,0x21
    152d:	48 89 d7             	mov    rdi,rdx
    1530:	f3 48 ab             	rep stos QWORD PTR es:[rdi],rax
    1533:	48 89 fa             	mov    rdx,rdi
    1536:	89 02                	mov    DWORD PTR [rdx],eax
    1538:	48 83 c2 04          	add    rdx,0x4
    153c:	66 89 02             	mov    WORD PTR [rdx],ax
    153f:	48 83 c2 02          	add    rdx,0x2
    1543:	c6 85 61 fe ff ff 50 	mov    BYTE PTR [rbp-0x19f],0x50
    154a:	c6 85 63 fe ff ff 06 	mov    BYTE PTR [rbp-0x19d],0x6
    1551:	48 8d 95 50 fd ff ff 	lea    rdx,[rbp-0x2b0]
    1558:	b8 00 00 00 00       	mov    eax,0x0
    155d:	b9 21 00 00 00       	mov    ecx,0x21
    1562:	48 89 d7             	mov    rdi,rdx
    1565:	f3 48 ab             	rep stos QWORD PTR es:[rdi],rax
    1568:	48 89 fa             	mov    rdx,rdi
    156b:	89 02                	mov    DWORD PTR [rdx],eax
    156d:	48 83 c2 04          	add    rdx,0x4
    1571:	66 89 02             	mov    WORD PTR [rdx],ax
    1574:	48 83 c2 02          	add    rdx,0x2
    1578:	c6 85 51 fd ff ff 3e 	mov    BYTE PTR [rbp-0x2af],0x3e
    157f:	c6 85 52 fd ff ff 82 	mov    BYTE PTR [rbp-0x2ae],0x82
    1586:	c6 85 54 fd ff ff 02 	mov    BYTE PTR [rbp-0x2ac],0x2
    158d:	48 8d 95 40 fc ff ff 	lea    rdx,[rbp-0x3c0]
    1594:	b8 00 00 00 00       	mov    eax,0x0
    1599:	b9 21 00 00 00       	mov    ecx,0x21
    159e:	48 89 d7             	mov    rdi,rdx
    15a1:	f3 48 ab             	rep stos QWORD PTR es:[rdi],rax
    15a4:	48 89 fa             	mov    rdx,rdi
    15a7:	89 02                	mov    DWORD PTR [rdx],eax
    15a9:	48 83 c2 04          	add    rdx,0x4
    15ad:	66 89 02             	mov    WORD PTR [rdx],ax
    15b0:	48 83 c2 02          	add    rdx,0x2
    15b4:	c6 85 41 fc ff ff 0e 	mov    BYTE PTR [rbp-0x3bf],0xe
    15bb:	48 8d 95 30 fb ff ff 	lea    rdx,[rbp-0x4d0]
    15c2:	b8 00 00 00 00       	mov    eax,0x0
    15c7:	b9 21 00 00 00       	mov    ecx,0x21
    15cc:	48 89 d7             	mov    rdi,rdx
    15cf:	f3 48 ab             	rep stos QWORD PTR es:[rdi],rax
    15d2:	48 89 fa             	mov    rdx,rdi
    15d5:	89 02                	mov    DWORD PTR [rdx],eax
    15d7:	48 83 c2 04          	add    rdx,0x4
    15db:	66 89 02             	mov    WORD PTR [rdx],ax
    15de:	48 83 c2 02          	add    rdx,0x2
    15e2:	c6 85 31 fb ff ff 50 	mov    BYTE PTR [rbp-0x4cf],0x50
    15e9:	c6 85 33 fb ff ff 06 	mov    BYTE PTR [rbp-0x4cd],0x6
    15f0:	48 8d 95 20 fa ff ff 	lea    rdx,[rbp-0x5e0]
    15f7:	b8 00 00 00 00       	mov    eax,0x0
    15fc:	b9 21 00 00 00       	mov    ecx,0x21
    1601:	48 89 d7             	mov    rdi,rdx
    1604:	f3 48 ab             	rep stos QWORD PTR es:[rdi],rax
    1607:	48 89 fa             	mov    rdx,rdi
    160a:	89 02                	mov    DWORD PTR [rdx],eax
    160c:	48 83 c2 04          	add    rdx,0x4
    1610:	66 89 02             	mov    WORD PTR [rdx],ax
    1613:	48 83 c2 02          	add    rdx,0x2
    1617:	c6 85 21 fa ff ff 58 	mov    BYTE PTR [rbp-0x5df],0x58
    161e:	c6 85 22 fa ff ff 82 	mov    BYTE PTR [rbp-0x5de],0x82
    1625:	c6 85 24 fa ff ff ff 	mov    BYTE PTR [rbp-0x5dc],0xff
    162c:	48 8d 95 10 f9 ff ff 	lea    rdx,[rbp-0x6f0]
    1633:	b8 00 00 00 00       	mov    eax,0x0
    1638:	b9 21 00 00 00       	mov    ecx,0x21
    163d:	48 89 d7             	mov    rdi,rdx
    1640:	f3 48 ab             	rep stos QWORD PTR es:[rdi],rax
    1643:	48 89 fa             	mov    rdx,rdi
    1646:	89 02                	mov    DWORD PTR [rdx],eax
    1648:	48 83 c2 04          	add    rdx,0x4
    164c:	66 89 02             	mov    WORD PTR [rdx],ax
    164f:	48 83 c2 02          	add    rdx,0x2
    1653:	c6 85 10 f9 ff ff e4 	mov    BYTE PTR [rbp-0x6f0],0xe4
    165a:	c6 85 11 f9 ff ff 90 	mov    BYTE PTR [rbp-0x6ef],0x90
    1661:	c6 85 12 f9 ff ff 06 	mov    BYTE PTR [rbp-0x6ee],0x6
    1668:	c6 85 13 f9 ff ff a8 	mov    BYTE PTR [rbp-0x6ed],0xa8
    166f:	c6 85 14 f9 ff ff f0 	mov    BYTE PTR [rbp-0x6ec],0xf0
    1676:	c6 85 15 f9 ff ff 12 	mov    BYTE PTR [rbp-0x6eb],0x12
    167d:	c6 85 16 f9 ff ff 18 	mov    BYTE PTR [rbp-0x6ea],0x18
    1684:	c6 85 17 f9 ff ff e8 	mov    BYTE PTR [rbp-0x6e9],0xe8
    168b:	c6 85 18 f9 ff ff d2 	mov    BYTE PTR [rbp-0x6e8],0xd2
    1692:	c6 85 19 f9 ff ff af 	mov    BYTE PTR [rbp-0x6e7],0xaf
    1699:	c6 85 1a f9 ff ff f5 	mov    BYTE PTR [rbp-0x6e6],0xf5
    16a0:	c6 85 1b f9 ff ff b8 	mov    BYTE PTR [rbp-0x6e5],0xb8
    16a7:	c6 85 1c f9 ff ff 75 	mov    BYTE PTR [rbp-0x6e4],0x75
    16ae:	c6 85 1d f9 ff ff de 	mov    BYTE PTR [rbp-0x6e3],0xde
    16b5:	c6 85 1e f9 ff ff 03 	mov    BYTE PTR [rbp-0x6e2],0x3
    16bc:	c6 85 1f f9 ff ff 75 	mov    BYTE PTR [rbp-0x6e1],0x75
    16c3:	c6 85 20 f9 ff ff e1 	mov    BYTE PTR [rbp-0x6e0],0xe1
    16ca:	c6 85 21 f9 ff ff 01 	mov    BYTE PTR [rbp-0x6df],0x1
    16d1:	c6 85 22 f9 ff ff 75 	mov    BYTE PTR [rbp-0x6de],0x75
    16d8:	c6 85 23 f9 ff ff da 	mov    BYTE PTR [rbp-0x6dd],0xda
    16df:	c6 85 24 f9 ff ff 11 	mov    BYTE PTR [rbp-0x6dc],0x11
    16e6:	c6 85 25 f9 ff ff 7f 	mov    BYTE PTR [rbp-0x6db],0x7f
    16ed:	c6 85 26 f9 ff ff 3b 	mov    BYTE PTR [rbp-0x6da],0x3b
    16f4:	c6 85 27 f9 ff ff 12 	mov    BYTE PTR [rbp-0x6d9],0x12
    16fb:	c6 85 28 f9 ff ff 1d 	mov    BYTE PTR [rbp-0x6d8],0x1d
    1702:	c6 85 29 f9 ff ff d3 	mov    BYTE PTR [rbp-0x6d7],0xd3
    1709:	c6 85 2a f9 ff ff 7f 	mov    BYTE PTR [rbp-0x6d6],0x7f
    1710:	c6 85 2b f9 ff ff 24 	mov    BYTE PTR [rbp-0x6d5],0x24
    1717:	c6 85 2c f9 ff ff 12 	mov    BYTE PTR [rbp-0x6d4],0x12
    171e:	c6 85 2d f9 ff ff 1d 	mov    BYTE PTR [rbp-0x6d3],0x1d
    1725:	c6 85 2e f9 ff ff d3 	mov    BYTE PTR [rbp-0x6d2],0xd3
    172c:	c6 85 2f f9 ff ff e4 	mov    BYTE PTR [rbp-0x6d1],0xe4
    1733:	c6 85 30 f9 ff ff ff 	mov    BYTE PTR [rbp-0x6d0],0xff
    173a:	c6 85 31 f9 ff ff 12 	mov    BYTE PTR [rbp-0x6cf],0x12
    1741:	c6 85 32 f9 ff ff 0d 	mov    BYTE PTR [rbp-0x6ce],0xd
    1748:	c6 85 33 f9 ff ff 4c 	mov    BYTE PTR [rbp-0x6cd],0x4c
    174f:	c6 85 34 f9 ff ff 7f 	mov    BYTE PTR [rbp-0x6cc],0x7f
    1756:	c6 85 35 f9 ff ff 42 	mov    BYTE PTR [rbp-0x6cb],0x42
    175d:	c6 85 36 f9 ff ff 12 	mov    BYTE PTR [rbp-0x6ca],0x12
    1764:	c6 85 37 f9 ff ff 0d 	mov    BYTE PTR [rbp-0x6c9],0xd
    176b:	c6 85 38 f9 ff ff 4c 	mov    BYTE PTR [rbp-0x6c8],0x4c
    1772:	c6 85 39 f9 ff ff 7f 	mov    BYTE PTR [rbp-0x6c7],0x7f
    1779:	c6 85 3a f9 ff ff 30 	mov    BYTE PTR [rbp-0x6c6],0x30
    1780:	c6 85 3b f9 ff ff 12 	mov    BYTE PTR [rbp-0x6c5],0x12
    1787:	c6 85 3c f9 ff ff 1d 	mov    BYTE PTR [rbp-0x6c4],0x1d
    178e:	c6 85 3d f9 ff ff d3 	mov    BYTE PTR [rbp-0x6c3],0xd3
    1795:	c6 85 3e f9 ff ff 12 	mov    BYTE PTR [rbp-0x6c2],0x12
    179c:	c6 85 3f f9 ff ff 1b 	mov    BYTE PTR [rbp-0x6c1],0x1b
    17a3:	c6 85 40 f9 ff ff 98 	mov    BYTE PTR [rbp-0x6c0],0x98
    17aa:	c6 85 41 f9 ff ff 12 	mov    BYTE PTR [rbp-0x6bf],0x12
    17b1:	c6 85 42 f9 ff ff 1d 	mov    BYTE PTR [rbp-0x6be],0x1d
    17b8:	c6 85 43 f9 ff ff df 	mov    BYTE PTR [rbp-0x6bd],0xdf
    17bf:	c6 85 44 f9 ff ff 90 	mov    BYTE PTR [rbp-0x6bc],0x90
    17c6:	c6 85 46 f9 ff ff 0d 	mov    BYTE PTR [rbp-0x6ba],0xd
    17cd:	c6 85 47 f9 ff ff ef 	mov    BYTE PTR [rbp-0x6b9],0xef
    17d4:	c6 85 48 f9 ff ff f0 	mov    BYTE PTR [rbp-0x6b8],0xf0
    17db:	c6 85 49 f9 ff ff 12 	mov    BYTE PTR [rbp-0x6b7],0x12
    17e2:	c6 85 4a f9 ff ff 1d 	mov    BYTE PTR [rbp-0x6b6],0x1d
    17e9:	c6 85 4b f9 ff ff df 	mov    BYTE PTR [rbp-0x6b5],0xdf
    17f0:	c6 85 4c f9 ff ff 90 	mov    BYTE PTR [rbp-0x6b4],0x90
    17f7:	c6 85 4e f9 ff ff 0e 	mov    BYTE PTR [rbp-0x6b2],0xe
    17fe:	c6 85 4f f9 ff ff ef 	mov    BYTE PTR [rbp-0x6b1],0xef
    1805:	c6 85 50 f9 ff ff f0 	mov    BYTE PTR [rbp-0x6b0],0xf0
    180c:	c6 85 51 f9 ff ff 90 	mov    BYTE PTR [rbp-0x6af],0x90
    1813:	c6 85 53 f9 ff ff 0d 	mov    BYTE PTR [rbp-0x6ad],0xd
    181a:	c6 85 54 f9 ff ff e0 	mov    BYTE PTR [rbp-0x6ac],0xe0
    1821:	c6 85 55 f9 ff ff 64 	mov    BYTE PTR [rbp-0x6ab],0x64
    1828:	c6 85 56 f9 ff ff 66 	mov    BYTE PTR [rbp-0x6aa],0x66
    182f:	c6 85 57 f9 ff ff 60 	mov    BYTE PTR [rbp-0x6a9],0x60
    1836:	c6 85 58 f9 ff ff 08 	mov    BYTE PTR [rbp-0x6a8],0x8
    183d:	c6 85 59 f9 ff ff 12 	mov    BYTE PTR [rbp-0x6a7],0x12
    1844:	c6 85 5a f9 ff ff 1d 	mov    BYTE PTR [rbp-0x6a6],0x1d
    184b:	c6 85 5b f9 ff ff df 	mov    BYTE PTR [rbp-0x6a5],0xdf
    1852:	c6 85 5c f9 ff ff 90 	mov    BYTE PTR [rbp-0x6a4],0x90
    1859:	c6 85 5e f9 ff ff 0f 	mov    BYTE PTR [rbp-0x6a2],0xf
    1860:	c6 85 5f f9 ff ff ef 	mov    BYTE PTR [rbp-0x6a1],0xef
    1867:	c6 85 60 f9 ff ff f0 	mov    BYTE PTR [rbp-0x6a0],0xf0
    186e:	c6 85 61 f9 ff ff 90 	mov    BYTE PTR [rbp-0x69f],0x90
    1875:	c6 85 63 f9 ff ff 0d 	mov    BYTE PTR [rbp-0x69d],0xd
    187c:	c6 85 64 f9 ff ff e0 	mov    BYTE PTR [rbp-0x69c],0xe0
    1883:	c6 85 65 f9 ff ff 12 	mov    BYTE PTR [rbp-0x69b],0x12
    188a:	c6 85 66 f9 ff ff 14 	mov    BYTE PTR [rbp-0x69a],0x14
    1891:	c6 85 67 f9 ff ff 91 	mov    BYTE PTR [rbp-0x699],0x91
    1898:	c6 85 68 f9 ff ff 05 	mov    BYTE PTR [rbp-0x698],0x5
    189f:	c6 85 69 f9 ff ff 87 	mov    BYTE PTR [rbp-0x697],0x87
    18a6:	c6 85 6a f9 ff ff 10 	mov    BYTE PTR [rbp-0x696],0x10
    18ad:	c6 85 6b f9 ff ff 05 	mov    BYTE PTR [rbp-0x695],0x5
    18b4:	c6 85 6c f9 ff ff c8 	mov    BYTE PTR [rbp-0x694],0xc8
    18bb:	c6 85 6d f9 ff ff 11 	mov    BYTE PTR [rbp-0x693],0x11
    18c2:	c6 85 6e f9 ff ff 0a 	mov    BYTE PTR [rbp-0x692],0xa
    18c9:	c6 85 6f f9 ff ff eb 	mov    BYTE PTR [rbp-0x691],0xeb
    18d0:	c6 85 70 f9 ff ff 12 	mov    BYTE PTR [rbp-0x690],0x12
    18d7:	c6 85 71 f9 ff ff 08 	mov    BYTE PTR [rbp-0x68f],0x8
    18de:	c6 85 72 f9 ff ff 17 	mov    BYTE PTR [rbp-0x68e],0x17
    18e5:	c6 85 73 f9 ff ff 14 	mov    BYTE PTR [rbp-0x68d],0x14
    18ec:	c6 85 74 f9 ff ff 02 	mov    BYTE PTR [rbp-0x68c],0x2
    18f3:	c6 85 75 f9 ff ff 7a 	mov    BYTE PTR [rbp-0x68b],0x7a
    18fa:	c6 85 76 f9 ff ff 1a 	mov    BYTE PTR [rbp-0x68a],0x1a
    1901:	c6 85 77 f9 ff ff 06 	mov    BYTE PTR [rbp-0x689],0x6
    1908:	c6 85 78 f9 ff ff 92 	mov    BYTE PTR [rbp-0x688],0x92
    190f:	c6 85 79 f9 ff ff 1c 	mov    BYTE PTR [rbp-0x687],0x1c
    1916:	c6 85 7a f9 ff ff 04 	mov    BYTE PTR [rbp-0x686],0x4
    191d:	c6 85 7b f9 ff ff 62 	mov    BYTE PTR [rbp-0x685],0x62
    1924:	c6 85 7c f9 ff ff 1e 	mov    BYTE PTR [rbp-0x684],0x1e
    192b:	c6 85 7d f9 ff ff 04 	mov    BYTE PTR [rbp-0x683],0x4
    1932:	c6 85 7e f9 ff ff 34 	mov    BYTE PTR [rbp-0x682],0x34
    1939:	c6 85 7f f9 ff ff 1f 	mov    BYTE PTR [rbp-0x681],0x1f
    1940:	c6 85 80 f9 ff ff 0c 	mov    BYTE PTR [rbp-0x680],0xc
    1947:	c6 85 81 f9 ff ff b0 	mov    BYTE PTR [rbp-0x67f],0xb0
    194e:	c6 85 82 f9 ff ff 66 	mov    BYTE PTR [rbp-0x67e],0x66
    1955:	c6 85 83 f9 ff ff 04 	mov    BYTE PTR [rbp-0x67d],0x4
    195c:	c6 85 84 f9 ff ff b1 	mov    BYTE PTR [rbp-0x67c],0xb1
    1963:	c6 85 85 f9 ff ff dd 	mov    BYTE PTR [rbp-0x67b],0xdd
    196a:	c6 85 88 f9 ff ff 0c 	mov    BYTE PTR [rbp-0x678],0xc
    1971:	c6 85 89 f9 ff ff e5 	mov    BYTE PTR [rbp-0x677],0xe5
    1978:	c6 85 8a f9 ff ff 12 	mov    BYTE PTR [rbp-0x676],0x12
    197f:	c6 85 8b f9 ff ff 0d 	mov    BYTE PTR [rbp-0x675],0xd
    1986:	c6 85 8c f9 ff ff 21 	mov    BYTE PTR [rbp-0x674],0x21
    198d:	c6 85 8d f9 ff ff 90 	mov    BYTE PTR [rbp-0x673],0x90
    1994:	c6 85 8e f9 ff ff 02 	mov    BYTE PTR [rbp-0x672],0x2
    199b:	c6 85 8f f9 ff ff 14 	mov    BYTE PTR [rbp-0x671],0x14
    19a2:	c6 85 90 f9 ff ff e0 	mov    BYTE PTR [rbp-0x670],0xe0
    19a9:	c6 85 91 f9 ff ff 04 	mov    BYTE PTR [rbp-0x66f],0x4
    19b0:	c6 85 92 f9 ff ff f0 	mov    BYTE PTR [rbp-0x66e],0xf0
    19b7:	c6 85 93 f9 ff ff 90 	mov    BYTE PTR [rbp-0x66d],0x90
    19be:	c6 85 95 f9 ff ff 0e 	mov    BYTE PTR [rbp-0x66b],0xe
    19c5:	c6 85 96 f9 ff ff e0 	mov    BYTE PTR [rbp-0x66a],0xe0
    19cc:	c6 85 97 f9 ff ff 14 	mov    BYTE PTR [rbp-0x669],0x14
    19d3:	c6 85 98 f9 ff ff 70 	mov    BYTE PTR [rbp-0x668],0x70
    19da:	c6 85 99 f9 ff ff 03 	mov    BYTE PTR [rbp-0x667],0x3
    19e1:	c6 85 9a f9 ff ff 02 	mov    BYTE PTR [rbp-0x666],0x2
    19e8:	c6 85 9b f9 ff ff 03 	mov    BYTE PTR [rbp-0x665],0x3
    19ef:	c6 85 9c f9 ff ff 66 	mov    BYTE PTR [rbp-0x664],0x66
    19f6:	c6 85 9d f9 ff ff 14 	mov    BYTE PTR [rbp-0x663],0x14
    19fd:	c6 85 9e f9 ff ff 70 	mov    BYTE PTR [rbp-0x662],0x70
    1a04:	c6 85 9f f9 ff ff 03 	mov    BYTE PTR [rbp-0x661],0x3
    1a0b:	c6 85 a0 f9 ff ff 02 	mov    BYTE PTR [rbp-0x660],0x2
    1a12:	c6 85 a1 f9 ff ff 03 	mov    BYTE PTR [rbp-0x65f],0x3
    1a19:	c6 85 a2 f9 ff ff 94 	mov    BYTE PTR [rbp-0x65e],0x94
    1a20:	c6 85 a3 f9 ff ff 14 	mov    BYTE PTR [rbp-0x65d],0x14
    1a27:	c6 85 a4 f9 ff ff 70 	mov    BYTE PTR [rbp-0x65c],0x70
    1a2e:	c6 85 a5 f9 ff ff 03 	mov    BYTE PTR [rbp-0x65b],0x3
    1a35:	c6 85 a6 f9 ff ff 02 	mov    BYTE PTR [rbp-0x65a],0x2
    1a3c:	c6 85 a7 f9 ff ff 03 	mov    BYTE PTR [rbp-0x659],0x3
    1a43:	c6 85 a8 f9 ff ff bd 	mov    BYTE PTR [rbp-0x658],0xbd
    1a4a:	c6 85 a9 f9 ff ff 24 	mov    BYTE PTR [rbp-0x657],0x24
    1a51:	c6 85 aa f9 ff ff 03 	mov    BYTE PTR [rbp-0x656],0x3
    1a58:	c6 85 ab f9 ff ff 60 	mov    BYTE PTR [rbp-0x655],0x60
    1a5f:	c6 85 ac f9 ff ff 03 	mov    BYTE PTR [rbp-0x654],0x3
    1a66:	c6 85 ad f9 ff ff 02 	mov    BYTE PTR [rbp-0x653],0x2
    1a6d:	c6 85 ae f9 ff ff 04 	mov    BYTE PTR [rbp-0x652],0x4
    1a74:	c6 85 af f9 ff ff 32 	mov    BYTE PTR [rbp-0x651],0x32
    1a7b:	c6 85 b0 f9 ff ff 90 	mov    BYTE PTR [rbp-0x650],0x90
    1a82:	c6 85 b2 f9 ff ff 0f 	mov    BYTE PTR [rbp-0x64e],0xf
    1a89:	c6 85 b3 f9 ff ff e0 	mov    BYTE PTR [rbp-0x64d],0xe0
    1a90:	c6 85 b4 f9 ff ff f4 	mov    BYTE PTR [rbp-0x64c],0xf4
    1a97:	c6 85 b5 f9 ff ff 70 	mov    BYTE PTR [rbp-0x64b],0x70
    1a9e:	c6 85 b6 f9 ff ff 8a 	mov    BYTE PTR [rbp-0x64a],0x8a
    1aa5:	c6 85 b7 f9 ff ff 90 	mov    BYTE PTR [rbp-0x649],0x90
    1aac:	c6 85 b8 f9 ff ff 02 	mov    BYTE PTR [rbp-0x648],0x2
    1ab3:	c6 85 b9 f9 ff ff 14 	mov    BYTE PTR [rbp-0x647],0x14
    1aba:	c6 85 ba f9 ff ff e0 	mov    BYTE PTR [rbp-0x646],0xe0
    1ac1:	c6 85 bb f9 ff ff 64 	mov    BYTE PTR [rbp-0x645],0x64
    1ac8:	c6 85 bc f9 ff ff 01 	mov    BYTE PTR [rbp-0x644],0x1
    1acf:	c6 85 bd f9 ff ff 70 	mov    BYTE PTR [rbp-0x643],0x70
    1ad6:	c6 85 be f9 ff ff 82 	mov    BYTE PTR [rbp-0x642],0x82
    1add:	c6 85 bf f9 ff ff 7b 	mov    BYTE PTR [rbp-0x641],0x7b
    1ae4:	c6 85 c0 f9 ff ff 01 	mov    BYTE PTR [rbp-0x640],0x1
    1aeb:	c6 85 c1 f9 ff ff 7a 	mov    BYTE PTR [rbp-0x63f],0x7a
    1af2:	c6 85 c3 f9 ff ff 79 	mov    BYTE PTR [rbp-0x63d],0x79
    1af9:	c6 85 c4 f9 ff ff 12 	mov    BYTE PTR [rbp-0x63c],0x12
    1b00:	c6 85 c5 f9 ff ff fd 	mov    BYTE PTR [rbp-0x63b],0xfd
    1b07:	c6 85 c6 f9 ff ff fc 	mov    BYTE PTR [rbp-0x63a],0xfc
    1b0e:	c6 85 c7 f9 ff ff 12 	mov    BYTE PTR [rbp-0x639],0x12
    1b15:	c6 85 c8 f9 ff ff 1d 	mov    BYTE PTR [rbp-0x638],0x1d
    1b1c:	c6 85 c9 f9 ff ff 15 	mov    BYTE PTR [rbp-0x637],0x15
    1b23:	c6 85 ca f9 ff ff 12 	mov    BYTE PTR [rbp-0x636],0x12
    1b2a:	c6 85 cb f9 ff ff 1c 	mov    BYTE PTR [rbp-0x635],0x1c
    1b31:	c6 85 cc f9 ff ff 79 	mov    BYTE PTR [rbp-0x634],0x79
    1b38:	c6 85 cd f9 ff ff 7f 	mov    BYTE PTR [rbp-0x633],0x7f
    1b3f:	c6 85 ce f9 ff ff a1 	mov    BYTE PTR [rbp-0x632],0xa1
    1b46:	c6 85 cf f9 ff ff 12 	mov    BYTE PTR [rbp-0x631],0x12
    1b4d:	c6 85 d0 f9 ff ff 1d 	mov    BYTE PTR [rbp-0x630],0x1d
    1b54:	c6 85 d1 f9 ff ff d3 	mov    BYTE PTR [rbp-0x62f],0xd3
    1b5b:	c6 85 d2 f9 ff ff 12 	mov    BYTE PTR [rbp-0x62e],0x12
    1b62:	c6 85 d3 f9 ff ff 19 	mov    BYTE PTR [rbp-0x62d],0x19
    1b69:	c6 85 d4 f9 ff ff 33 	mov    BYTE PTR [rbp-0x62c],0x33
    1b70:	c6 85 d5 f9 ff ff 90 	mov    BYTE PTR [rbp-0x62b],0x90
    1b77:	c6 85 d6 f9 ff ff 06 	mov    BYTE PTR [rbp-0x62a],0x6
    1b7e:	c6 85 d7 f9 ff ff a8 	mov    BYTE PTR [rbp-0x629],0xa8
    1b85:	c6 85 d8 f9 ff ff e0 	mov    BYTE PTR [rbp-0x628],0xe0
    1b8c:	c6 85 d9 f9 ff ff fe 	mov    BYTE PTR [rbp-0x627],0xfe
    1b93:	c6 85 da f9 ff ff a3 	mov    BYTE PTR [rbp-0x626],0xa3
    1b9a:	c6 85 db f9 ff ff e0 	mov    BYTE PTR [rbp-0x625],0xe0
    1ba1:	c6 85 dc f9 ff ff ff 	mov    BYTE PTR [rbp-0x624],0xff
    1ba8:	c6 85 dd f9 ff ff c3 	mov    BYTE PTR [rbp-0x623],0xc3
    1baf:	c6 85 de f9 ff ff 94 	mov    BYTE PTR [rbp-0x622],0x94
    1bb6:	c6 85 df f9 ff ff ff 	mov    BYTE PTR [rbp-0x621],0xff
    1bbd:	c6 85 e0 f9 ff ff ee 	mov    BYTE PTR [rbp-0x620],0xee
    1bc4:	c6 85 e1 f9 ff ff 64 	mov    BYTE PTR [rbp-0x61f],0x64
    1bcb:	c6 85 e2 f9 ff ff 80 	mov    BYTE PTR [rbp-0x61e],0x80
    1bd2:	c6 85 e3 f9 ff ff 94 	mov    BYTE PTR [rbp-0x61d],0x94
    1bd9:	c6 85 e4 f9 ff ff 80 	mov    BYTE PTR [rbp-0x61c],0x80
    1be0:	c6 85 e5 f9 ff ff 40 	mov    BYTE PTR [rbp-0x61b],0x40
    1be7:	c6 85 e6 f9 ff ff 03 	mov    BYTE PTR [rbp-0x61a],0x3
    1bee:	c6 85 e7 f9 ff ff 02 	mov    BYTE PTR [rbp-0x619],0x2
    1bf5:	c6 85 e8 f9 ff ff 03 	mov    BYTE PTR [rbp-0x618],0x3
    1bfc:	c6 85 e9 f9 ff ff 58 	mov    BYTE PTR [rbp-0x617],0x58
    1c03:	c6 85 ea f9 ff ff ef 	mov    BYTE PTR [rbp-0x616],0xef
    1c0a:	c6 85 eb f9 ff ff 64 	mov    BYTE PTR [rbp-0x615],0x64
    1c11:	c6 85 ec f9 ff ff 87 	mov    BYTE PTR [rbp-0x614],0x87
    1c18:	c6 85 ed f9 ff ff 4e 	mov    BYTE PTR [rbp-0x613],0x4e
    1c1f:	c6 85 ee f9 ff ff 60 	mov    BYTE PTR [rbp-0x612],0x60
    1c26:	c6 85 ef f9 ff ff 06 	mov    BYTE PTR [rbp-0x611],0x6
    1c2d:	c6 85 f0 f9 ff ff ef 	mov    BYTE PTR [rbp-0x610],0xef
    1c34:	c6 85 f1 f9 ff ff 64 	mov    BYTE PTR [rbp-0x60f],0x64
    1c3b:	c6 85 f2 f9 ff ff da 	mov    BYTE PTR [rbp-0x60e],0xda
    1c42:	c6 85 f3 f9 ff ff 4e 	mov    BYTE PTR [rbp-0x60d],0x4e
    1c49:	c6 85 f4 f9 ff ff 70 	mov    BYTE PTR [rbp-0x60c],0x70
    1c50:	c6 85 f5 f9 ff ff 0d 	mov    BYTE PTR [rbp-0x60b],0xd
    1c57:	c6 85 f6 f9 ff ff 74 	mov    BYTE PTR [rbp-0x60a],0x74
    1c5e:	c6 85 f7 f9 ff ff 12 	mov    BYTE PTR [rbp-0x609],0x12
    1c65:	c6 85 f8 f9 ff ff 2f 	mov    BYTE PTR [rbp-0x608],0x2f
    1c6c:	c6 85 f9 f9 ff ff 12 	mov    BYTE PTR [rbp-0x607],0x12
    1c73:	c6 85 fa f9 ff ff 18 	mov    BYTE PTR [rbp-0x606],0x18
    1c7a:	c6 85 fb f9 ff ff d5 	mov    BYTE PTR [rbp-0x605],0xd5
    1c81:	c6 85 fc f9 ff ff ff 	mov    BYTE PTR [rbp-0x604],0xff
    1c88:	c6 85 fd f9 ff ff 90 	mov    BYTE PTR [rbp-0x603],0x90
    1c8f:	c6 85 fe f9 ff ff 06 	mov    BYTE PTR [rbp-0x602],0x6
    1c96:	c6 85 ff f9 ff ff f4 	mov    BYTE PTR [rbp-0x601],0xf4
    1c9d:	c6 85 00 fa ff ff e0 	mov    BYTE PTR [rbp-0x600],0xe0
    1ca4:	c6 85 01 fa ff ff 2f 	mov    BYTE PTR [rbp-0x5ff],0x2f
    1cab:	c6 85 02 fa ff ff f0 	mov    BYTE PTR [rbp-0x5fe],0xf0
    1cb2:	c6 85 03 fa ff ff 12 	mov    BYTE PTR [rbp-0x5fd],0x12
    1cb9:	c6 85 04 fa ff ff 18 	mov    BYTE PTR [rbp-0x5fc],0x18
    1cc0:	c6 85 05 fa ff ff cc 	mov    BYTE PTR [rbp-0x5fb],0xcc
    1cc7:	c6 85 06 fa ff ff ff 	mov    BYTE PTR [rbp-0x5fa],0xff
    1cce:	c6 85 07 fa ff ff 12 	mov    BYTE PTR [rbp-0x5f9],0x12
    1cd5:	c6 85 08 fa ff ff 1d 	mov    BYTE PTR [rbp-0x5f8],0x1d
    1cdc:	c6 85 09 fa ff ff d3 	mov    BYTE PTR [rbp-0x5f7],0xd3
    1ce3:	c6 85 0a fa ff ff 90 	mov    BYTE PTR [rbp-0x5f6],0x90
    1cea:	c6 85 0b fa ff ff 06 	mov    BYTE PTR [rbp-0x5f5],0x6
    1cf1:	c6 85 0c fa ff ff a8 	mov    BYTE PTR [rbp-0x5f4],0xa8
    1cf8:	c6 85 0d fa ff ff e0 	mov    BYTE PTR [rbp-0x5f3],0xe0
    1cff:	c6 85 0e fa ff ff fa 	mov    BYTE PTR [rbp-0x5f2],0xfa
    1d06:	48 8d 95 00 f8 ff ff 	lea    rdx,[rbp-0x800]
    1d0d:	b8 00 00 00 00       	mov    eax,0x0
    1d12:	b9 21 00 00 00       	mov    ecx,0x21
    1d17:	48 89 d7             	mov    rdi,rdx
    1d1a:	f3 48 ab             	rep stos QWORD PTR es:[rdi],rax
    1d1d:	48 89 fa             	mov    rdx,rdi
    1d20:	89 02                	mov    DWORD PTR [rdx],eax
    1d22:	48 83 c2 04          	add    rdx,0x4
    1d26:	66 89 02             	mov    WORD PTR [rdx],ax
    1d29:	48 83 c2 02          	add    rdx,0x2
    1d2d:	c6 85 01 f8 ff ff 58 	mov    BYTE PTR [rbp-0x7ff],0x58
    1d34:	c6 85 02 f8 ff ff 82 	mov    BYTE PTR [rbp-0x7fe],0x82
    1d3b:	c6 85 03 f8 ff ff ff 	mov    BYTE PTR [rbp-0x7fd],0xff
    1d42:	c6 85 04 f8 ff ff ff 	mov    BYTE PTR [rbp-0x7fc],0xff
    1d49:	48 8d 95 f0 f6 ff ff 	lea    rdx,[rbp-0x910]
    1d50:	b8 00 00 00 00       	mov    eax,0x0
    1d55:	b9 21 00 00 00       	mov    ecx,0x21
    1d5a:	48 89 d7             	mov    rdi,rdx
    1d5d:	f3 48 ab             	rep stos QWORD PTR es:[rdi],rax
    1d60:	48 89 fa             	mov    rdx,rdi
    1d63:	89 02                	mov    DWORD PTR [rdx],eax
    1d65:	48 83 c2 04          	add    rdx,0x4
    1d69:	66 89 02             	mov    WORD PTR [rdx],ax
    1d6c:	48 83 c2 02          	add    rdx,0x2
    1d70:	c6 85 f0 f6 ff ff a3 	mov    BYTE PTR [rbp-0x910],0xa3
    1d77:	c6 85 f1 f6 ff ff e0 	mov    BYTE PTR [rbp-0x90f],0xe0
    1d7e:	c6 85 f2 f6 ff ff fb 	mov    BYTE PTR [rbp-0x90e],0xfb
    1d85:	c6 85 f3 f6 ff ff 7c 	mov    BYTE PTR [rbp-0x90d],0x7c
    1d8c:	c6 85 f5 f6 ff ff 7d 	mov    BYTE PTR [rbp-0x90b],0x7d
    1d93:	c6 85 f6 f6 ff ff 02 	mov    BYTE PTR [rbp-0x90a],0x2
    1d9a:	c6 85 f7 f6 ff ff ff 	mov    BYTE PTR [rbp-0x909],0xff
    1da1:	c6 85 f8 f6 ff ff ae 	mov    BYTE PTR [rbp-0x908],0xae
    1da8:	c6 85 f9 f6 ff ff 02 	mov    BYTE PTR [rbp-0x907],0x2
    1daf:	c6 85 fa f6 ff ff 12 	mov    BYTE PTR [rbp-0x906],0x12
    1db6:	c6 85 fb f6 ff ff 13 	mov    BYTE PTR [rbp-0x905],0x13
    1dbd:	c6 85 fc f6 ff ff e6 	mov    BYTE PTR [rbp-0x904],0xe6
    1dc4:	c6 85 fd f6 ff ff ed 	mov    BYTE PTR [rbp-0x903],0xed
    1dcb:	c6 85 fe f6 ff ff 64 	mov    BYTE PTR [rbp-0x902],0x64
    1dd2:	c6 85 ff f6 ff ff 01 	mov    BYTE PTR [rbp-0x901],0x1
    1dd9:	c6 85 00 f7 ff ff 4c 	mov    BYTE PTR [rbp-0x900],0x4c
    1de0:	c6 85 01 f7 ff ff 70 	mov    BYTE PTR [rbp-0x8ff],0x70
    1de7:	c6 85 02 f7 ff ff 13 	mov    BYTE PTR [rbp-0x8fe],0x13
    1dee:	c6 85 03 f7 ff ff 74 	mov    BYTE PTR [rbp-0x8fd],0x74
    1df5:	c6 85 04 f7 ff ff 12 	mov    BYTE PTR [rbp-0x8fc],0x12
    1dfc:	c6 85 05 f7 ff ff 2b 	mov    BYTE PTR [rbp-0x8fb],0x2b
    1e03:	c6 85 06 f7 ff ff f5 	mov    BYTE PTR [rbp-0x8fa],0xf5
    1e0a:	c6 85 07 f7 ff ff 82 	mov    BYTE PTR [rbp-0x8f9],0x82
    1e11:	c6 85 08 f7 ff ff 74 	mov    BYTE PTR [rbp-0x8f8],0x74
    1e18:	c6 85 0a f7 ff ff 3a 	mov    BYTE PTR [rbp-0x8f6],0x3a
    1e1f:	c6 85 0b f7 ff ff f5 	mov    BYTE PTR [rbp-0x8f5],0xf5
    1e26:	c6 85 0c f7 ff ff 83 	mov    BYTE PTR [rbp-0x8f4],0x83
    1e2d:	c6 85 0d f7 ff ff e0 	mov    BYTE PTR [rbp-0x8f3],0xe0
    1e34:	c6 85 0e f7 ff ff 13 	mov    BYTE PTR [rbp-0x8f2],0x13
    1e3b:	c6 85 0f f7 ff ff 13 	mov    BYTE PTR [rbp-0x8f1],0x13
    1e42:	c6 85 10 f7 ff ff 13 	mov    BYTE PTR [rbp-0x8f0],0x13
    1e49:	c6 85 11 f7 ff ff 54 	mov    BYTE PTR [rbp-0x8ef],0x54
    1e50:	c6 85 12 f7 ff ff 1f 	mov    BYTE PTR [rbp-0x8ee],0x1f
    1e57:	c6 85 13 f7 ff ff f0 	mov    BYTE PTR [rbp-0x8ed],0xf0
    1e5e:	c6 85 14 f7 ff ff 80 	mov    BYTE PTR [rbp-0x8ec],0x80
    1e65:	c6 85 15 f7 ff ff 08 	mov    BYTE PTR [rbp-0x8eb],0x8
    1e6c:	c6 85 16 f7 ff ff 12 	mov    BYTE PTR [rbp-0x8ea],0x12
    1e73:	c6 85 17 f7 ff ff 18 	mov    BYTE PTR [rbp-0x8e9],0x18
    1e7a:	c6 85 18 f7 ff ff cc 	mov    BYTE PTR [rbp-0x8e8],0xcc
    1e81:	c6 85 19 f7 ff ff c4 	mov    BYTE PTR [rbp-0x8e7],0xc4
    1e88:	c6 85 1a f7 ff ff 13 	mov    BYTE PTR [rbp-0x8e6],0x13
    1e8f:	c6 85 1b f7 ff ff 54 	mov    BYTE PTR [rbp-0x8e5],0x54
    1e96:	c6 85 1c f7 ff ff 07 	mov    BYTE PTR [rbp-0x8e4],0x7
    1e9d:	c6 85 1d f7 ff ff f0 	mov    BYTE PTR [rbp-0x8e3],0xf0
    1ea4:	c6 85 1e f7 ff ff 90 	mov    BYTE PTR [rbp-0x8e2],0x90
    1eab:	c6 85 1f f7 ff ff 06 	mov    BYTE PTR [rbp-0x8e1],0x6
    1eb2:	c6 85 20 f7 ff ff a8 	mov    BYTE PTR [rbp-0x8e0],0xa8
    1eb9:	c6 85 21 f7 ff ff e0 	mov    BYTE PTR [rbp-0x8df],0xe0
    1ec0:	c6 85 22 f7 ff ff fe 	mov    BYTE PTR [rbp-0x8de],0xfe
    1ec7:	c6 85 23 f7 ff ff a3 	mov    BYTE PTR [rbp-0x8dd],0xa3
    1ece:	c6 85 24 f7 ff ff e0 	mov    BYTE PTR [rbp-0x8dc],0xe0
    1ed5:	c6 85 25 f7 ff ff ff 	mov    BYTE PTR [rbp-0x8db],0xff
    1edc:	c6 85 26 f7 ff ff 12 	mov    BYTE PTR [rbp-0x8da],0x12
    1ee3:	c6 85 27 f7 ff ff 18 	mov    BYTE PTR [rbp-0x8d9],0x18
    1eea:	c6 85 28 f7 ff ff d3 	mov    BYTE PTR [rbp-0x8d8],0xd3
    1ef1:	c6 85 29 f7 ff ff fd 	mov    BYTE PTR [rbp-0x8d7],0xfd
    1ef8:	c6 85 2a f7 ff ff 90 	mov    BYTE PTR [rbp-0x8d6],0x90
    1eff:	c6 85 2b f7 ff ff 02 	mov    BYTE PTR [rbp-0x8d5],0x2
    1f06:	c6 85 2c f7 ff ff 12 	mov    BYTE PTR [rbp-0x8d4],0x12
    1f0d:	c6 85 2d f7 ff ff e0 	mov    BYTE PTR [rbp-0x8d3],0xe0
    1f14:	c6 85 2e f7 ff ff 2d 	mov    BYTE PTR [rbp-0x8d2],0x2d
    1f1b:	c6 85 2f f7 ff ff f0 	mov    BYTE PTR [rbp-0x8d1],0xf0
    1f22:	c6 85 30 f7 ff ff 90 	mov    BYTE PTR [rbp-0x8d0],0x90
    1f29:	c6 85 31 f7 ff ff 02 	mov    BYTE PTR [rbp-0x8cf],0x2
    1f30:	c6 85 32 f7 ff ff 15 	mov    BYTE PTR [rbp-0x8ce],0x15
    1f37:	c6 85 33 f7 ff ff e0 	mov    BYTE PTR [rbp-0x8cd],0xe0
    1f3e:	c6 85 34 f7 ff ff fd 	mov    BYTE PTR [rbp-0x8cc],0xfd
    1f45:	c6 85 35 f7 ff ff 74 	mov    BYTE PTR [rbp-0x8cb],0x74
    1f4c:	c6 85 36 f7 ff ff 12 	mov    BYTE PTR [rbp-0x8ca],0x12
    1f53:	c6 85 37 f7 ff ff 2f 	mov    BYTE PTR [rbp-0x8c9],0x2f
    1f5a:	c6 85 38 f7 ff ff 12 	mov    BYTE PTR [rbp-0x8c8],0x12
    1f61:	c6 85 39 f7 ff ff 18 	mov    BYTE PTR [rbp-0x8c7],0x18
    1f68:	c6 85 3a f7 ff ff d5 	mov    BYTE PTR [rbp-0x8c6],0xd5
    1f6f:	c6 85 3b f7 ff ff ff 	mov    BYTE PTR [rbp-0x8c5],0xff
    1f76:	c6 85 3c f7 ff ff c3 	mov    BYTE PTR [rbp-0x8c4],0xc3
    1f7d:	c6 85 3d f7 ff ff ed 	mov    BYTE PTR [rbp-0x8c3],0xed
    1f84:	c6 85 3e f7 ff ff 9f 	mov    BYTE PTR [rbp-0x8c2],0x9f
    1f8b:	c6 85 3f f7 ff ff 90 	mov    BYTE PTR [rbp-0x8c1],0x90
    1f92:	c6 85 40 f7 ff ff 02 	mov    BYTE PTR [rbp-0x8c0],0x2
    1f99:	c6 85 41 f7 ff ff 15 	mov    BYTE PTR [rbp-0x8bf],0x15
    1fa0:	c6 85 42 f7 ff ff f0 	mov    BYTE PTR [rbp-0x8be],0xf0
    1fa7:	c6 85 43 f7 ff ff 12 	mov    BYTE PTR [rbp-0x8bd],0x12
    1fae:	c6 85 44 f7 ff ff 19 	mov    BYTE PTR [rbp-0x8bc],0x19
    1fb5:	c6 85 45 f7 ff ff 29 	mov    BYTE PTR [rbp-0x8bb],0x29
    1fbc:	c6 85 46 f7 ff ff 02 	mov    BYTE PTR [rbp-0x8ba],0x2
    1fc3:	c6 85 47 f7 ff ff 02 	mov    BYTE PTR [rbp-0x8b9],0x2
    1fca:	c6 85 48 f7 ff ff c5 	mov    BYTE PTR [rbp-0x8b8],0xc5
    1fd1:	c6 85 49 f7 ff ff 90 	mov    BYTE PTR [rbp-0x8b7],0x90
    1fd8:	c6 85 4a f7 ff ff 02 	mov    BYTE PTR [rbp-0x8b6],0x2
    1fdf:	c6 85 4b f7 ff ff 13 	mov    BYTE PTR [rbp-0x8b5],0x13
    1fe6:	c6 85 4c f7 ff ff 74 	mov    BYTE PTR [rbp-0x8b4],0x74
    1fed:	c6 85 4d f7 ff ff 01 	mov    BYTE PTR [rbp-0x8b3],0x1
    1ff4:	c6 85 4e f7 ff ff f0 	mov    BYTE PTR [rbp-0x8b2],0xf0
    1ffb:	c6 85 4f f7 ff ff 90 	mov    BYTE PTR [rbp-0x8b1],0x90
    2002:	c6 85 50 f7 ff ff 06 	mov    BYTE PTR [rbp-0x8b0],0x6
    2009:	c6 85 51 f7 ff ff f4 	mov    BYTE PTR [rbp-0x8af],0xf4
    2010:	c6 85 52 f7 ff ff e0 	mov    BYTE PTR [rbp-0x8ae],0xe0
    2017:	c6 85 53 f7 ff ff ff 	mov    BYTE PTR [rbp-0x8ad],0xff
    201e:	c6 85 54 f7 ff ff 02 	mov    BYTE PTR [rbp-0x8ac],0x2
    2025:	c6 85 55 f7 ff ff 04 	mov    BYTE PTR [rbp-0x8ab],0x4
    202c:	c6 85 56 f7 ff ff ab 	mov    BYTE PTR [rbp-0x8aa],0xab
    2033:	c6 85 57 f7 ff ff 12 	mov    BYTE PTR [rbp-0x8a9],0x12
    203a:	c6 85 58 f7 ff ff 0d 	mov    BYTE PTR [rbp-0x8a8],0xd
    2041:	c6 85 59 f7 ff ff 43 	mov    BYTE PTR [rbp-0x8a7],0x43
    2048:	c6 85 5a f7 ff ff 12 	mov    BYTE PTR [rbp-0x8a6],0x12
    204f:	c6 85 5b f7 ff ff 0d 	mov    BYTE PTR [rbp-0x8a5],0xd
    2056:	c6 85 5c f7 ff ff 70 	mov    BYTE PTR [rbp-0x8a4],0x70
    205d:	c6 85 5d f7 ff ff 60 	mov    BYTE PTR [rbp-0x8a3],0x60
    2064:	c6 85 5e f7 ff ff 24 	mov    BYTE PTR [rbp-0x8a2],0x24
    206b:	c6 85 5f f7 ff ff 12 	mov    BYTE PTR [rbp-0x8a1],0x12
    2072:	c6 85 60 f7 ff ff 19 	mov    BYTE PTR [rbp-0x8a0],0x19
    2079:	c6 85 61 f7 ff ff 66 	mov    BYTE PTR [rbp-0x89f],0x66
    2080:	c6 85 62 f7 ff ff 70 	mov    BYTE PTR [rbp-0x89e],0x70
    2087:	c6 85 63 f7 ff ff 1f 	mov    BYTE PTR [rbp-0x89d],0x1f
    208e:	c6 85 64 f7 ff ff 12 	mov    BYTE PTR [rbp-0x89c],0x12
    2095:	c6 85 65 f7 ff ff 19 	mov    BYTE PTR [rbp-0x89b],0x19
    209c:	c6 85 66 f7 ff ff 7c 	mov    BYTE PTR [rbp-0x89a],0x7c
    20a3:	c6 85 67 f7 ff ff 6f 	mov    BYTE PTR [rbp-0x899],0x6f
    20aa:	c6 85 68 f7 ff ff 70 	mov    BYTE PTR [rbp-0x898],0x70
    20b1:	c6 85 69 f7 ff ff 19 	mov    BYTE PTR [rbp-0x897],0x19
    20b8:	c6 85 6a f7 ff ff 90 	mov    BYTE PTR [rbp-0x896],0x90
    20bf:	c6 85 6b f7 ff ff 02 	mov    BYTE PTR [rbp-0x895],0x2
    20c6:	c6 85 6c f7 ff ff 13 	mov    BYTE PTR [rbp-0x894],0x13
    20cd:	c6 85 6d f7 ff ff e0 	mov    BYTE PTR [rbp-0x893],0xe0
    20d4:	c6 85 6e f7 ff ff 64 	mov    BYTE PTR [rbp-0x892],0x64
    20db:	c6 85 6f f7 ff ff 01 	mov    BYTE PTR [rbp-0x891],0x1
    20e2:	c6 85 70 f7 ff ff 70 	mov    BYTE PTR [rbp-0x890],0x70
    20e9:	c6 85 71 f7 ff ff 11 	mov    BYTE PTR [rbp-0x88f],0x11
    20f0:	c6 85 72 f7 ff ff a3 	mov    BYTE PTR [rbp-0x88e],0xa3
    20f7:	c6 85 73 f7 ff ff e0 	mov    BYTE PTR [rbp-0x88d],0xe0
    20fe:	c6 85 74 f7 ff ff 64 	mov    BYTE PTR [rbp-0x88c],0x64
    2105:	c6 85 75 f7 ff ff 02 	mov    BYTE PTR [rbp-0x88b],0x2
    210c:	c6 85 76 f7 ff ff 70 	mov    BYTE PTR [rbp-0x88a],0x70
    2113:	c6 85 77 f7 ff ff 0b 	mov    BYTE PTR [rbp-0x889],0xb
    211a:	c6 85 78 f7 ff ff 90 	mov    BYTE PTR [rbp-0x888],0x90
    2121:	c6 85 79 f7 ff ff 04 	mov    BYTE PTR [rbp-0x887],0x4
    2128:	c6 85 7a f7 ff ff 63 	mov    BYTE PTR [rbp-0x886],0x63
    212f:	c6 85 7b f7 ff ff 74 	mov    BYTE PTR [rbp-0x885],0x74
    2136:	c6 85 7c f7 ff ff ca 	mov    BYTE PTR [rbp-0x884],0xca
    213d:	c6 85 7d f7 ff ff 12 	mov    BYTE PTR [rbp-0x883],0x12
    2144:	c6 85 7e f7 ff ff 0c 	mov    BYTE PTR [rbp-0x882],0xc
    214b:	c6 85 7f f7 ff ff ff 	mov    BYTE PTR [rbp-0x881],0xff
    2152:	c6 85 80 f7 ff ff 02 	mov    BYTE PTR [rbp-0x880],0x2
    2159:	c6 85 81 f7 ff ff 02 	mov    BYTE PTR [rbp-0x87f],0x2
    2160:	c6 85 82 f7 ff ff 31 	mov    BYTE PTR [rbp-0x87e],0x31
    2167:	c6 85 83 f7 ff ff 80 	mov    BYTE PTR [rbp-0x87d],0x80
    216e:	c6 85 84 f7 ff ff fe 	mov    BYTE PTR [rbp-0x87c],0xfe
    2175:	c6 85 85 f7 ff ff 12 	mov    BYTE PTR [rbp-0x87b],0x12
    217c:	c6 85 86 f7 ff ff 0d 	mov    BYTE PTR [rbp-0x87a],0xd
    2183:	c6 85 87 f7 ff ff 43 	mov    BYTE PTR [rbp-0x879],0x43
    218a:	c6 85 88 f7 ff ff 12 	mov    BYTE PTR [rbp-0x878],0x12
    2191:	c6 85 89 f7 ff ff 0d 	mov    BYTE PTR [rbp-0x877],0xd
    2198:	c6 85 8a f7 ff ff 70 	mov    BYTE PTR [rbp-0x876],0x70
    219f:	c6 85 8b f7 ff ff 60 	mov    BYTE PTR [rbp-0x875],0x60
    21a6:	c6 85 8c f7 ff ff 1f 	mov    BYTE PTR [rbp-0x874],0x1f
    21ad:	c6 85 8d f7 ff ff 12 	mov    BYTE PTR [rbp-0x873],0x12
    21b4:	c6 85 8e f7 ff ff 19 	mov    BYTE PTR [rbp-0x872],0x19
    21bb:	c6 85 8f f7 ff ff 66 	mov    BYTE PTR [rbp-0x871],0x66
    21c2:	c6 85 90 f7 ff ff 70 	mov    BYTE PTR [rbp-0x870],0x70
    21c9:	c6 85 91 f7 ff ff 1a 	mov    BYTE PTR [rbp-0x86f],0x1a
    21d0:	c6 85 92 f7 ff ff 12 	mov    BYTE PTR [rbp-0x86e],0x12
    21d7:	c6 85 93 f7 ff ff 19 	mov    BYTE PTR [rbp-0x86d],0x19
    21de:	c6 85 94 f7 ff ff 7c 	mov    BYTE PTR [rbp-0x86c],0x7c
    21e5:	c6 85 95 f7 ff ff b5 	mov    BYTE PTR [rbp-0x86b],0xb5
    21ec:	c6 85 96 f7 ff ff 07 	mov    BYTE PTR [rbp-0x86a],0x7
    21f3:	c6 85 97 f7 ff ff 14 	mov    BYTE PTR [rbp-0x869],0x14
    21fa:	c6 85 98 f7 ff ff 90 	mov    BYTE PTR [rbp-0x868],0x90
    2201:	c6 85 99 f7 ff ff 02 	mov    BYTE PTR [rbp-0x867],0x2
    2208:	c6 85 9a f7 ff ff 13 	mov    BYTE PTR [rbp-0x866],0x13
    220f:	c6 85 9b f7 ff ff e0 	mov    BYTE PTR [rbp-0x865],0xe0
    2216:	c6 85 9c f7 ff ff 64 	mov    BYTE PTR [rbp-0x864],0x64
    221d:	c6 85 9d f7 ff ff 01 	mov    BYTE PTR [rbp-0x863],0x1
    2224:	c6 85 9e f7 ff ff 70 	mov    BYTE PTR [rbp-0x862],0x70
    222b:	c6 85 9f f7 ff ff 0c 	mov    BYTE PTR [rbp-0x861],0xc
    2232:	c6 85 a0 f7 ff ff a3 	mov    BYTE PTR [rbp-0x860],0xa3
    2239:	c6 85 a1 f7 ff ff e0 	mov    BYTE PTR [rbp-0x85f],0xe0
    2240:	c6 85 a2 f7 ff ff 64 	mov    BYTE PTR [rbp-0x85e],0x64
    2247:	c6 85 a3 f7 ff ff 03 	mov    BYTE PTR [rbp-0x85d],0x3
    224e:	c6 85 a4 f7 ff ff 70 	mov    BYTE PTR [rbp-0x85c],0x70
    2255:	c6 85 a5 f7 ff ff 06 	mov    BYTE PTR [rbp-0x85b],0x6
    225c:	c6 85 a6 f7 ff ff 12 	mov    BYTE PTR [rbp-0x85a],0x12
    2263:	c6 85 a7 f7 ff ff 1c 	mov    BYTE PTR [rbp-0x859],0x1c
    226a:	c6 85 a8 f7 ff ff d0 	mov    BYTE PTR [rbp-0x858],0xd0
    2271:	c6 85 a9 f7 ff ff 02 	mov    BYTE PTR [rbp-0x857],0x2
    2278:	c6 85 aa f7 ff ff 02 	mov    BYTE PTR [rbp-0x856],0x2
    227f:	c6 85 ab f7 ff ff 31 	mov    BYTE PTR [rbp-0x855],0x31
    2286:	c6 85 ac f7 ff ff 80 	mov    BYTE PTR [rbp-0x854],0x80
    228d:	c6 85 ad f7 ff ff fe 	mov    BYTE PTR [rbp-0x853],0xfe
    2294:	c6 85 ae f7 ff ff 12 	mov    BYTE PTR [rbp-0x852],0x12
    229b:	c6 85 af f7 ff ff 0d 	mov    BYTE PTR [rbp-0x851],0xd
    22a2:	c6 85 b0 f7 ff ff 7a 	mov    BYTE PTR [rbp-0x850],0x7a
    22a9:	c6 85 b1 f7 ff ff ef 	mov    BYTE PTR [rbp-0x84f],0xef
    22b0:	c6 85 b2 f7 ff ff f0 	mov    BYTE PTR [rbp-0x84e],0xf0
    22b7:	c6 85 b3 f7 ff ff 12 	mov    BYTE PTR [rbp-0x84d],0x12
    22be:	c6 85 b4 f7 ff ff 19 	mov    BYTE PTR [rbp-0x84c],0x19
    22c5:	c6 85 b5 f7 ff ff 33 	mov    BYTE PTR [rbp-0x84b],0x33
    22cc:	c6 85 b7 f7 ff ff 12 	mov    BYTE PTR [rbp-0x849],0x12
    22d3:	c6 85 b8 f7 ff ff 19 	mov    BYTE PTR [rbp-0x848],0x19
    22da:	c6 85 b9 f7 ff ff 29 	mov    BYTE PTR [rbp-0x847],0x29
    22e1:	c6 85 ba f7 ff ff 90 	mov    BYTE PTR [rbp-0x846],0x90
    22e8:	c6 85 bb f7 ff ff 06 	mov    BYTE PTR [rbp-0x845],0x6
    22ef:	c6 85 bc f7 ff ff a8 	mov    BYTE PTR [rbp-0x844],0xa8
    22f6:	c6 85 bd f7 ff ff e0 	mov    BYTE PTR [rbp-0x843],0xe0
    22fd:	c6 85 be f7 ff ff 70 	mov    BYTE PTR [rbp-0x842],0x70
    2304:	c6 85 bf f7 ff ff 04 	mov    BYTE PTR [rbp-0x841],0x4
    230b:	c6 85 c0 f7 ff ff a3 	mov    BYTE PTR [rbp-0x840],0xa3
    2312:	c6 85 c1 f7 ff ff e0 	mov    BYTE PTR [rbp-0x83f],0xe0
    2319:	c6 85 c2 f7 ff ff 64 	mov    BYTE PTR [rbp-0x83e],0x64
    2320:	c6 85 c3 f7 ff ff 64 	mov    BYTE PTR [rbp-0x83d],0x64
    2327:	c6 85 c4 f7 ff ff 70 	mov    BYTE PTR [rbp-0x83c],0x70
    232e:	c6 85 c5 f7 ff ff f0 	mov    BYTE PTR [rbp-0x83b],0xf0
    2335:	c6 85 c6 f7 ff ff 12 	mov    BYTE PTR [rbp-0x83a],0x12
    233c:	c6 85 c7 f7 ff ff 1c 	mov    BYTE PTR [rbp-0x839],0x1c
    2343:	c6 85 c8 f7 ff ff 79 	mov    BYTE PTR [rbp-0x838],0x79
    234a:	c6 85 c9 f7 ff ff 90 	mov    BYTE PTR [rbp-0x837],0x90
    2351:	c6 85 cb f7 ff ff 10 	mov    BYTE PTR [rbp-0x835],0x10
    2358:	c6 85 cc f7 ff ff e0 	mov    BYTE PTR [rbp-0x834],0xe0
    235f:	c6 85 cd f7 ff ff 64 	mov    BYTE PTR [rbp-0x833],0x64
    2366:	c6 85 ce f7 ff ff 09 	mov    BYTE PTR [rbp-0x832],0x9
    236d:	c6 85 cf f7 ff ff 70 	mov    BYTE PTR [rbp-0x831],0x70
    2374:	c6 85 d0 f7 ff ff 50 	mov    BYTE PTR [rbp-0x830],0x50
    237b:	c6 85 d1 f7 ff ff 90 	mov    BYTE PTR [rbp-0x82f],0x90
    2382:	c6 85 d2 f7 ff ff 02 	mov    BYTE PTR [rbp-0x82e],0x2
    2389:	c6 85 d3 f7 ff ff 14 	mov    BYTE PTR [rbp-0x82d],0x14
    2390:	c6 85 d4 f7 ff ff e0 	mov    BYTE PTR [rbp-0x82c],0xe0
    2397:	c6 85 d5 f7 ff ff 64 	mov    BYTE PTR [rbp-0x82b],0x64
    239e:	c6 85 d6 f7 ff ff 01 	mov    BYTE PTR [rbp-0x82a],0x1
    23a5:	c6 85 d7 f7 ff ff 70 	mov    BYTE PTR [rbp-0x829],0x70
    23ac:	c6 85 d8 f7 ff ff 48 	mov    BYTE PTR [rbp-0x828],0x48
    23b3:	c6 85 d9 f7 ff ff 90 	mov    BYTE PTR [rbp-0x827],0x90
    23ba:	c6 85 da f7 ff ff 06 	mov    BYTE PTR [rbp-0x826],0x6
    23c1:	c6 85 db f7 ff ff f0 	mov    BYTE PTR [rbp-0x825],0xf0
    23c8:	c6 85 dc f7 ff ff e0 	mov    BYTE PTR [rbp-0x824],0xe0
    23cf:	c6 85 dd f7 ff ff ff 	mov    BYTE PTR [rbp-0x823],0xff
    23d6:	c6 85 de f7 ff ff 12 	mov    BYTE PTR [rbp-0x822],0x12
    23dd:	c6 85 df f7 ff ff 1d 	mov    BYTE PTR [rbp-0x821],0x1d
    23e4:	c6 85 e0 f7 ff ff d3 	mov    BYTE PTR [rbp-0x820],0xd3
    23eb:	c6 85 e1 f7 ff ff 90 	mov    BYTE PTR [rbp-0x81f],0x90
    23f2:	c6 85 e2 f7 ff ff 06 	mov    BYTE PTR [rbp-0x81e],0x6
    23f9:	c6 85 e3 f7 ff ff f1 	mov    BYTE PTR [rbp-0x81d],0xf1
    2400:	c6 85 e4 f7 ff ff e0 	mov    BYTE PTR [rbp-0x81c],0xe0
    2407:	c6 85 e5 f7 ff ff ff 	mov    BYTE PTR [rbp-0x81b],0xff
    240e:	c6 85 e6 f7 ff ff 12 	mov    BYTE PTR [rbp-0x81a],0x12
    2415:	c6 85 e7 f7 ff ff 1d 	mov    BYTE PTR [rbp-0x819],0x1d
    241c:	c6 85 e8 f7 ff ff d3 	mov    BYTE PTR [rbp-0x818],0xd3
    2423:	c6 85 e9 f7 ff ff 90 	mov    BYTE PTR [rbp-0x817],0x90
    242a:	c6 85 ea f7 ff ff 06 	mov    BYTE PTR [rbp-0x816],0x6
    2431:	c6 85 eb f7 ff ff f2 	mov    BYTE PTR [rbp-0x815],0xf2
    2438:	c6 85 ec f7 ff ff e0 	mov    BYTE PTR [rbp-0x814],0xe0
    243f:	c6 85 ed f7 ff ff ff 	mov    BYTE PTR [rbp-0x813],0xff
    2446:	c6 85 ee f7 ff ff 12 	mov    BYTE PTR [rbp-0x812],0x12
    244d:	48 8d 95 e0 f5 ff ff 	lea    rdx,[rbp-0xa20]
    2454:	b8 00 00 00 00       	mov    eax,0x0
    2459:	b9 21 00 00 00       	mov    ecx,0x21
    245e:	48 89 d7             	mov    rdi,rdx
    2461:	f3 48 ab             	rep stos QWORD PTR es:[rdi],rax
    2464:	48 89 fa             	mov    rdx,rdi
    2467:	89 02                	mov    DWORD PTR [rdx],eax
    2469:	48 83 c2 04          	add    rdx,0x4
    246d:	66 89 02             	mov    WORD PTR [rdx],ax
    2470:	48 83 c2 02          	add    rdx,0x2
    2474:	c6 85 e1 f5 ff ff 58 	mov    BYTE PTR [rbp-0xa1f],0x58
    247b:	c6 85 e2 f5 ff ff 83 	mov    BYTE PTR [rbp-0xa1e],0x83
    2482:	c6 85 e3 f5 ff ff fe 	mov    BYTE PTR [rbp-0xa1d],0xfe
    2489:	c6 85 e4 f5 ff ff ff 	mov    BYTE PTR [rbp-0xa1c],0xff
    2490:	48 8d 95 d0 f4 ff ff 	lea    rdx,[rbp-0xb30]
    2497:	b8 00 00 00 00       	mov    eax,0x0
    249c:	b9 21 00 00 00       	mov    ecx,0x21
    24a1:	48 89 d7             	mov    rdi,rdx
    24a4:	f3 48 ab             	rep stos QWORD PTR es:[rdi],rax
    24a7:	48 89 fa             	mov    rdx,rdi
    24aa:	89 02                	mov    DWORD PTR [rdx],eax
    24ac:	48 83 c2 04          	add    rdx,0x4
    24b0:	66 89 02             	mov    WORD PTR [rdx],ax
    24b3:	48 83 c2 02          	add    rdx,0x2
    24b7:	c6 85 d0 f4 ff ff 1d 	mov    BYTE PTR [rbp-0xb30],0x1d
    24be:	c6 85 d1 f4 ff ff d3 	mov    BYTE PTR [rbp-0xb2f],0xd3
    24c5:	c6 85 d2 f4 ff ff 90 	mov    BYTE PTR [rbp-0xb2e],0x90
    24cc:	c6 85 d3 f4 ff ff 06 	mov    BYTE PTR [rbp-0xb2d],0x6
    24d3:	c6 85 d4 f4 ff ff f3 	mov    BYTE PTR [rbp-0xb2c],0xf3
    24da:	c6 85 d5 f4 ff ff e0 	mov    BYTE PTR [rbp-0xb2b],0xe0
    24e1:	c6 85 d6 f4 ff ff ff 	mov    BYTE PTR [rbp-0xb2a],0xff
    24e8:	c6 85 d7 f4 ff ff 12 	mov    BYTE PTR [rbp-0xb29],0x12
    24ef:	c6 85 d8 f4 ff ff 1d 	mov    BYTE PTR [rbp-0xb28],0x1d
    24f6:	c6 85 d9 f4 ff ff d3 	mov    BYTE PTR [rbp-0xb27],0xd3
    24fd:	c6 85 da f4 ff ff 90 	mov    BYTE PTR [rbp-0xb26],0x90
    2504:	c6 85 db f4 ff ff 06 	mov    BYTE PTR [rbp-0xb25],0x6
    250b:	c6 85 dc f4 ff ff dd 	mov    BYTE PTR [rbp-0xb24],0xdd
    2512:	c6 85 dd f4 ff ff e0 	mov    BYTE PTR [rbp-0xb23],0xe0
    2519:	c6 85 de f4 ff ff ff 	mov    BYTE PTR [rbp-0xb22],0xff
    2520:	c6 85 df f4 ff ff 12 	mov    BYTE PTR [rbp-0xb21],0x12
    2527:	c6 85 e0 f4 ff ff 1d 	mov    BYTE PTR [rbp-0xb20],0x1d
    252e:	c6 85 e1 f4 ff ff d3 	mov    BYTE PTR [rbp-0xb1f],0xd3
    2535:	c6 85 e2 f4 ff ff 90 	mov    BYTE PTR [rbp-0xb1e],0x90
    253c:	c6 85 e3 f4 ff ff 06 	mov    BYTE PTR [rbp-0xb1d],0x6
    2543:	c6 85 e4 f4 ff ff de 	mov    BYTE PTR [rbp-0xb1c],0xde
    254a:	c6 85 e5 f4 ff ff e0 	mov    BYTE PTR [rbp-0xb1b],0xe0
    2551:	c6 85 e6 f4 ff ff ff 	mov    BYTE PTR [rbp-0xb1a],0xff
    2558:	c6 85 e7 f4 ff ff 12 	mov    BYTE PTR [rbp-0xb19],0x12
    255f:	c6 85 e8 f4 ff ff 1d 	mov    BYTE PTR [rbp-0xb18],0x1d
    2566:	c6 85 e9 f4 ff ff d3 	mov    BYTE PTR [rbp-0xb17],0xd3
    256d:	c6 85 ea f4 ff ff 90 	mov    BYTE PTR [rbp-0xb16],0x90
    2574:	c6 85 eb f4 ff ff 06 	mov    BYTE PTR [rbp-0xb15],0x6
    257b:	c6 85 ec f4 ff ff df 	mov    BYTE PTR [rbp-0xb14],0xdf
    2582:	c6 85 ed f4 ff ff e0 	mov    BYTE PTR [rbp-0xb13],0xe0
    2589:	c6 85 ee f4 ff ff ff 	mov    BYTE PTR [rbp-0xb12],0xff
    2590:	c6 85 ef f4 ff ff 12 	mov    BYTE PTR [rbp-0xb11],0x12
    2597:	c6 85 f0 f4 ff ff 1d 	mov    BYTE PTR [rbp-0xb10],0x1d
    259e:	c6 85 f1 f4 ff ff d3 	mov    BYTE PTR [rbp-0xb0f],0xd3
    25a5:	c6 85 f2 f4 ff ff 90 	mov    BYTE PTR [rbp-0xb0e],0x90
    25ac:	c6 85 f3 f4 ff ff 06 	mov    BYTE PTR [rbp-0xb0d],0x6
    25b3:	c6 85 f4 f4 ff ff e0 	mov    BYTE PTR [rbp-0xb0c],0xe0
    25ba:	c6 85 f5 f4 ff ff e0 	mov    BYTE PTR [rbp-0xb0b],0xe0
    25c1:	c6 85 f6 f4 ff ff ff 	mov    BYTE PTR [rbp-0xb0a],0xff
    25c8:	c6 85 f7 f4 ff ff 12 	mov    BYTE PTR [rbp-0xb09],0x12
    25cf:	c6 85 f8 f4 ff ff 1d 	mov    BYTE PTR [rbp-0xb08],0x1d
    25d6:	c6 85 f9 f4 ff ff d3 	mov    BYTE PTR [rbp-0xb07],0xd3
    25dd:	c6 85 fa f4 ff ff 90 	mov    BYTE PTR [rbp-0xb06],0x90
    25e4:	c6 85 fb f4 ff ff 04 	mov    BYTE PTR [rbp-0xb05],0x4
    25eb:	c6 85 fc f4 ff ff 5d 	mov    BYTE PTR [rbp-0xb04],0x5d
    25f2:	c6 85 fd f4 ff ff e0 	mov    BYTE PTR [rbp-0xb03],0xe0
    25f9:	c6 85 fe f4 ff ff ff 	mov    BYTE PTR [rbp-0xb02],0xff
    2600:	c6 85 ff f4 ff ff 12 	mov    BYTE PTR [rbp-0xb01],0x12
    2607:	c6 85 00 f5 ff ff 1d 	mov    BYTE PTR [rbp-0xb00],0x1d
    260e:	c6 85 01 f5 ff ff d3 	mov    BYTE PTR [rbp-0xaff],0xd3
    2615:	c6 85 02 f5 ff ff 80 	mov    BYTE PTR [rbp-0xafe],0x80
    261c:	c6 85 03 f5 ff ff fe 	mov    BYTE PTR [rbp-0xafd],0xfe
    2623:	c6 85 04 f5 ff ff 80 	mov    BYTE PTR [rbp-0xafc],0x80
    262a:	c6 85 05 f5 ff ff fe 	mov    BYTE PTR [rbp-0xafb],0xfe
    2631:	c6 85 06 f5 ff ff 12 	mov    BYTE PTR [rbp-0xafa],0x12
    2638:	c6 85 07 f5 ff ff 0d 	mov    BYTE PTR [rbp-0xaf9],0xd
    263f:	c6 85 08 f5 ff ff 55 	mov    BYTE PTR [rbp-0xaf8],0x55
    2646:	c6 85 09 f5 ff ff 70 	mov    BYTE PTR [rbp-0xaf7],0x70
    264d:	c6 85 0a f5 ff ff 1d 	mov    BYTE PTR [rbp-0xaf6],0x1d
    2654:	c6 85 0b f5 ff ff 12 	mov    BYTE PTR [rbp-0xaf5],0x12
    265b:	c6 85 0c f5 ff ff 0d 	mov    BYTE PTR [rbp-0xaf4],0xd
    2662:	c6 85 0d f5 ff ff 81 	mov    BYTE PTR [rbp-0xaf3],0x81
    2669:	c6 85 0e f5 ff ff e0 	mov    BYTE PTR [rbp-0xaf2],0xe0
    2670:	c6 85 0f f5 ff ff 6f 	mov    BYTE PTR [rbp-0xaf1],0x6f
    2677:	c6 85 10 f5 ff ff 70 	mov    BYTE PTR [rbp-0xaf0],0x70
    267e:	c6 85 11 f5 ff ff 16 	mov    BYTE PTR [rbp-0xaef],0x16
    2685:	c6 85 12 f5 ff ff 12 	mov    BYTE PTR [rbp-0xaee],0x12
    268c:	c6 85 13 f5 ff ff 0d 	mov    BYTE PTR [rbp-0xaed],0xd
    2693:	c6 85 14 f5 ff ff 88 	mov    BYTE PTR [rbp-0xaec],0x88
    269a:	c6 85 15 f5 ff ff e0 	mov    BYTE PTR [rbp-0xaeb],0xe0
    26a1:	c6 85 16 f5 ff ff 6f 	mov    BYTE PTR [rbp-0xaea],0x6f
    26a8:	c6 85 17 f5 ff ff 70 	mov    BYTE PTR [rbp-0xae9],0x70
    26af:	c6 85 18 f5 ff ff 0f 	mov    BYTE PTR [rbp-0xae8],0xf
    26b6:	c6 85 19 f5 ff ff 12 	mov    BYTE PTR [rbp-0xae7],0x12
    26bd:	c6 85 1a f5 ff ff 0d 	mov    BYTE PTR [rbp-0xae6],0xd
    26c4:	c6 85 1b f5 ff ff 8f 	mov    BYTE PTR [rbp-0xae5],0x8f
    26cb:	c6 85 1c f5 ff ff e0 	mov    BYTE PTR [rbp-0xae4],0xe0
    26d2:	c6 85 1d f5 ff ff b5 	mov    BYTE PTR [rbp-0xae3],0xb5
    26d9:	c6 85 1e f5 ff ff 07 	mov    BYTE PTR [rbp-0xae2],0x7
    26e0:	c6 85 1f f5 ff ff 08 	mov    BYTE PTR [rbp-0xae1],0x8
    26e7:	c6 85 20 f5 ff ff 12 	mov    BYTE PTR [rbp-0xae0],0x12
    26ee:	c6 85 21 f5 ff ff 1d 	mov    BYTE PTR [rbp-0xadf],0x1d
    26f5:	c6 85 22 f5 ff ff df 	mov    BYTE PTR [rbp-0xade],0xdf
    26fc:	c6 85 23 f5 ff ff 90 	mov    BYTE PTR [rbp-0xadd],0x90
    2703:	c6 85 24 f5 ff ff 04 	mov    BYTE PTR [rbp-0xadc],0x4
    270a:	c6 85 25 f5 ff ff 98 	mov    BYTE PTR [rbp-0xadb],0x98
    2711:	c6 85 26 f5 ff ff 80 	mov    BYTE PTR [rbp-0xada],0x80
    2718:	c6 85 27 f5 ff ff 44 	mov    BYTE PTR [rbp-0xad9],0x44
    271f:	c6 85 28 f5 ff ff 12 	mov    BYTE PTR [rbp-0xad8],0x12
    2726:	c6 85 29 f5 ff ff 1d 	mov    BYTE PTR [rbp-0xad7],0x1d
    272d:	c6 85 2a f5 ff ff df 	mov    BYTE PTR [rbp-0xad6],0xdf
    2734:	c6 85 2b f5 ff ff 7f 	mov    BYTE PTR [rbp-0xad5],0x7f
    273b:	c6 85 2c f5 ff ff 90 	mov    BYTE PTR [rbp-0xad4],0x90
    2742:	c6 85 2d f5 ff ff 12 	mov    BYTE PTR [rbp-0xad3],0x12
    2749:	c6 85 2e f5 ff ff 1d 	mov    BYTE PTR [rbp-0xad2],0x1d
    2750:	c6 85 2f f5 ff ff d3 	mov    BYTE PTR [rbp-0xad1],0xd3
    2757:	c6 85 30 f5 ff ff 7f 	mov    BYTE PTR [rbp-0xad0],0x7f
    275e:	c6 85 31 f5 ff ff 17 	mov    BYTE PTR [rbp-0xacf],0x17
    2765:	c6 85 32 f5 ff ff 80 	mov    BYTE PTR [rbp-0xace],0x80
    276c:	c6 85 33 f5 ff ff 49 	mov    BYTE PTR [rbp-0xacd],0x49
    2773:	c6 85 34 f5 ff ff 12 	mov    BYTE PTR [rbp-0xacc],0x12
    277a:	c6 85 35 f5 ff ff 0d 	mov    BYTE PTR [rbp-0xacb],0xd
    2781:	c6 85 36 f5 ff ff 55 	mov    BYTE PTR [rbp-0xaca],0x55
    2788:	c6 85 37 f5 ff ff 70 	mov    BYTE PTR [rbp-0xac9],0x70
    278f:	c6 85 38 f5 ff ff 3a 	mov    BYTE PTR [rbp-0xac8],0x3a
    2796:	c6 85 39 f5 ff ff 12 	mov    BYTE PTR [rbp-0xac7],0x12
    279d:	c6 85 3a f5 ff ff 0d 	mov    BYTE PTR [rbp-0xac6],0xd
    27a4:	c6 85 3b f5 ff ff 81 	mov    BYTE PTR [rbp-0xac5],0x81
    27ab:	c6 85 3c f5 ff ff e0 	mov    BYTE PTR [rbp-0xac4],0xe0
    27b2:	c6 85 3d f5 ff ff 6f 	mov    BYTE PTR [rbp-0xac3],0x6f
    27b9:	c6 85 3e f5 ff ff 70 	mov    BYTE PTR [rbp-0xac2],0x70
    27c0:	c6 85 3f f5 ff ff 33 	mov    BYTE PTR [rbp-0xac1],0x33
    27c7:	c6 85 40 f5 ff ff 12 	mov    BYTE PTR [rbp-0xac0],0x12
    27ce:	c6 85 41 f5 ff ff 0d 	mov    BYTE PTR [rbp-0xabf],0xd
    27d5:	c6 85 42 f5 ff ff 88 	mov    BYTE PTR [rbp-0xabe],0x88
    27dc:	c6 85 43 f5 ff ff e0 	mov    BYTE PTR [rbp-0xabd],0xe0
    27e3:	c6 85 44 f5 ff ff 6f 	mov    BYTE PTR [rbp-0xabc],0x6f
    27ea:	c6 85 45 f5 ff ff 70 	mov    BYTE PTR [rbp-0xabb],0x70
    27f1:	c6 85 46 f5 ff ff 2c 	mov    BYTE PTR [rbp-0xaba],0x2c
    27f8:	c6 85 47 f5 ff ff 12 	mov    BYTE PTR [rbp-0xab9],0x12
    27ff:	c6 85 48 f5 ff ff 0d 	mov    BYTE PTR [rbp-0xab8],0xd
    2806:	c6 85 49 f5 ff ff 8f 	mov    BYTE PTR [rbp-0xab7],0x8f
    280d:	c6 85 4a f5 ff ff e0 	mov    BYTE PTR [rbp-0xab6],0xe0
    2814:	c6 85 4b f5 ff ff 6f 	mov    BYTE PTR [rbp-0xab5],0x6f
    281b:	c6 85 4c f5 ff ff 70 	mov    BYTE PTR [rbp-0xab4],0x70
    2822:	c6 85 4d f5 ff ff 25 	mov    BYTE PTR [rbp-0xab3],0x25
    2829:	c6 85 4e f5 ff ff 12 	mov    BYTE PTR [rbp-0xab2],0x12
    2830:	c6 85 4f f5 ff ff 1d 	mov    BYTE PTR [rbp-0xab1],0x1d
    2837:	c6 85 50 f5 ff ff df 	mov    BYTE PTR [rbp-0xab0],0xdf
    283e:	c6 85 51 f5 ff ff 90 	mov    BYTE PTR [rbp-0xaaf],0x90
    2845:	c6 85 52 f5 ff ff 04 	mov    BYTE PTR [rbp-0xaae],0x4
    284c:	c6 85 53 f5 ff ff 99 	mov    BYTE PTR [rbp-0xaad],0x99
    2853:	c6 85 54 f5 ff ff ef 	mov    BYTE PTR [rbp-0xaac],0xef
    285a:	c6 85 55 f5 ff ff f0 	mov    BYTE PTR [rbp-0xaab],0xf0
    2861:	c6 85 56 f5 ff ff 12 	mov    BYTE PTR [rbp-0xaaa],0x12
    2868:	c6 85 57 f5 ff ff 1d 	mov    BYTE PTR [rbp-0xaa9],0x1d
    286f:	c6 85 58 f5 ff ff df 	mov    BYTE PTR [rbp-0xaa8],0xdf
    2876:	c6 85 59 f5 ff ff 90 	mov    BYTE PTR [rbp-0xaa7],0x90
    287d:	c6 85 5a f5 ff ff 04 	mov    BYTE PTR [rbp-0xaa6],0x4
    2884:	c6 85 5b f5 ff ff 9a 	mov    BYTE PTR [rbp-0xaa5],0x9a
    288b:	c6 85 5c f5 ff ff ef 	mov    BYTE PTR [rbp-0xaa4],0xef
    2892:	c6 85 5d f5 ff ff f0 	mov    BYTE PTR [rbp-0xaa3],0xf0
    2899:	c6 85 5e f5 ff ff 12 	mov    BYTE PTR [rbp-0xaa2],0x12
    28a0:	c6 85 5f f5 ff ff 1d 	mov    BYTE PTR [rbp-0xaa1],0x1d
    28a7:	c6 85 60 f5 ff ff df 	mov    BYTE PTR [rbp-0xaa0],0xdf
    28ae:	c6 85 61 f5 ff ff 90 	mov    BYTE PTR [rbp-0xa9f],0x90
    28b5:	c6 85 62 f5 ff ff 04 	mov    BYTE PTR [rbp-0xa9e],0x4
    28bc:	c6 85 63 f5 ff ff 9b 	mov    BYTE PTR [rbp-0xa9d],0x9b
    28c3:	c6 85 64 f5 ff ff ef 	mov    BYTE PTR [rbp-0xa9c],0xef
    28ca:	c6 85 65 f5 ff ff f0 	mov    BYTE PTR [rbp-0xa9b],0xf0
    28d1:	c6 85 66 f5 ff ff 12 	mov    BYTE PTR [rbp-0xa9a],0x12
    28d8:	c6 85 67 f5 ff ff 1d 	mov    BYTE PTR [rbp-0xa99],0x1d
    28df:	c6 85 68 f5 ff ff df 	mov    BYTE PTR [rbp-0xa98],0xdf
    28e6:	c6 85 69 f5 ff ff 90 	mov    BYTE PTR [rbp-0xa97],0x90
    28ed:	c6 85 6a f5 ff ff 04 	mov    BYTE PTR [rbp-0xa96],0x4
    28f4:	c6 85 6b f5 ff ff 9c 	mov    BYTE PTR [rbp-0xa95],0x9c
    28fb:	c6 85 6c f5 ff ff ef 	mov    BYTE PTR [rbp-0xa94],0xef
    2902:	c6 85 6d f5 ff ff 12 	mov    BYTE PTR [rbp-0xa93],0x12
    2909:	c6 85 6e f5 ff ff 0c 	mov    BYTE PTR [rbp-0xa92],0xc
    2910:	c6 85 6f f5 ff ff ff 	mov    BYTE PTR [rbp-0xa91],0xff
    2917:	c6 85 70 f5 ff ff 02 	mov    BYTE PTR [rbp-0xa90],0x2
    291e:	c6 85 71 f5 ff ff 0c 	mov    BYTE PTR [rbp-0xa8f],0xc
    2925:	c6 85 72 f5 ff ff ac 	mov    BYTE PTR [rbp-0xa8e],0xac
    292c:	c6 85 73 f5 ff ff 12 	mov    BYTE PTR [rbp-0xa8d],0x12
    2933:	c6 85 74 f5 ff ff 0d 	mov    BYTE PTR [rbp-0xa8c],0xd
    293a:	c6 85 75 f5 ff ff 14 	mov    BYTE PTR [rbp-0xa8b],0x14
    2941:	c6 85 76 f5 ff ff 7f 	mov    BYTE PTR [rbp-0xa8a],0x7f
    2948:	c6 85 77 f5 ff ff 90 	mov    BYTE PTR [rbp-0xa89],0x90
    294f:	c6 85 78 f5 ff ff 12 	mov    BYTE PTR [rbp-0xa88],0x12
    2956:	c6 85 79 f5 ff ff 1d 	mov    BYTE PTR [rbp-0xa87],0x1d
    295d:	c6 85 7a f5 ff ff d3 	mov    BYTE PTR [rbp-0xa86],0xd3
    2964:	c6 85 7b f5 ff ff 7f 	mov    BYTE PTR [rbp-0xa85],0x7f
    296b:	c6 85 7c f5 ff ff 17 	mov    BYTE PTR [rbp-0xa84],0x17
    2972:	c6 85 7d f5 ff ff 12 	mov    BYTE PTR [rbp-0xa83],0x12
    2979:	c6 85 7e f5 ff ff 1d 	mov    BYTE PTR [rbp-0xa82],0x1d
    2980:	c6 85 7f f5 ff ff d3 	mov    BYTE PTR [rbp-0xa81],0xd3
    2987:	c6 85 80 f5 ff ff 02 	mov    BYTE PTR [rbp-0xa80],0x2
    298e:	c6 85 81 f5 ff ff 02 	mov    BYTE PTR [rbp-0xa7f],0x2
    2995:	c6 85 82 f5 ff ff 31 	mov    BYTE PTR [rbp-0xa7e],0x31
    299c:	c6 85 83 f5 ff ff 12 	mov    BYTE PTR [rbp-0xa7d],0x12
    29a3:	c6 85 84 f5 ff ff 0d 	mov    BYTE PTR [rbp-0xa7c],0xd
    29aa:	c6 85 85 f5 ff ff 7a 	mov    BYTE PTR [rbp-0xa7b],0x7a
    29b1:	c6 85 86 f5 ff ff ef 	mov    BYTE PTR [rbp-0xa7a],0xef
    29b8:	c6 85 87 f5 ff ff f0 	mov    BYTE PTR [rbp-0xa79],0xf0
    29bf:	c6 85 88 f5 ff ff 12 	mov    BYTE PTR [rbp-0xa78],0x12
    29c6:	c6 85 89 f5 ff ff 1d 	mov    BYTE PTR [rbp-0xa77],0x1d
    29cd:	c6 85 8a f5 ff ff df 	mov    BYTE PTR [rbp-0xa76],0xdf
    29d4:	c6 85 8b f5 ff ff 90 	mov    BYTE PTR [rbp-0xa75],0x90
    29db:	c6 85 8d f5 ff ff 11 	mov    BYTE PTR [rbp-0xa73],0x11
    29e2:	c6 85 8e f5 ff ff ef 	mov    BYTE PTR [rbp-0xa72],0xef
    29e9:	c6 85 8f f5 ff ff f0 	mov    BYTE PTR [rbp-0xa71],0xf0
    29f0:	c6 85 90 f5 ff ff 12 	mov    BYTE PTR [rbp-0xa70],0x12
    29f7:	c6 85 91 f5 ff ff 1c 	mov    BYTE PTR [rbp-0xa6f],0x1c
    29fe:	c6 85 92 f5 ff ff 79 	mov    BYTE PTR [rbp-0xa6e],0x79
    2a05:	c6 85 93 f5 ff ff 90 	mov    BYTE PTR [rbp-0xa6d],0x90
    2a0c:	c6 85 95 f5 ff ff 0e 	mov    BYTE PTR [rbp-0xa6b],0xe
    2a13:	c6 85 96 f5 ff ff e0 	mov    BYTE PTR [rbp-0xa6a],0xe0
    2a1a:	c6 85 97 f5 ff ff ff 	mov    BYTE PTR [rbp-0xa69],0xff
    2a21:	c6 85 98 f5 ff ff 12 	mov    BYTE PTR [rbp-0xa68],0x12
    2a28:	c6 85 99 f5 ff ff 1d 	mov    BYTE PTR [rbp-0xa67],0x1d
    2a2f:	c6 85 9a f5 ff ff d3 	mov    BYTE PTR [rbp-0xa66],0xd3
    2a36:	c6 85 9b f5 ff ff 90 	mov    BYTE PTR [rbp-0xa65],0x90
    2a3d:	c6 85 9d f5 ff ff 0e 	mov    BYTE PTR [rbp-0xa63],0xe
    2a44:	c6 85 9e f5 ff ff e0 	mov    BYTE PTR [rbp-0xa62],0xe0
    2a4b:	c6 85 9f f5 ff ff 24 	mov    BYTE PTR [rbp-0xa61],0x24
    2a52:	c6 85 a0 f5 ff ff ef 	mov    BYTE PTR [rbp-0xa60],0xef
    2a59:	c6 85 a1 f5 ff ff 60 	mov    BYTE PTR [rbp-0xa5f],0x60
    2a60:	c6 85 a2 f5 ff ff 40 	mov    BYTE PTR [rbp-0xa5e],0x40
    2a67:	c6 85 a3 f5 ff ff 24 	mov    BYTE PTR [rbp-0xa5d],0x24
    2a6e:	c6 85 a4 f5 ff ff 47 	mov    BYTE PTR [rbp-0xa5c],0x47
    2a75:	c6 85 a5 f5 ff ff 60 	mov    BYTE PTR [rbp-0xa5b],0x60
    2a7c:	c6 85 a6 f5 ff ff 0a 	mov    BYTE PTR [rbp-0xa5a],0xa
    2a83:	c6 85 a7 f5 ff ff 24 	mov    BYTE PTR [rbp-0xa59],0x24
    2a8a:	c6 85 a8 f5 ff ff 31 	mov    BYTE PTR [rbp-0xa58],0x31
    2a91:	c6 85 a9 f5 ff ff 60 	mov    BYTE PTR [rbp-0xa57],0x60
    2a98:	c6 85 aa f5 ff ff 03 	mov    BYTE PTR [rbp-0xa56],0x3
    2a9f:	c6 85 ab f5 ff ff 02 	mov    BYTE PTR [rbp-0xa55],0x2
    2aa6:	c6 85 ac f5 ff ff 02 	mov    BYTE PTR [rbp-0xa54],0x2
    2aad:	c6 85 ad f5 ff ff 31 	mov    BYTE PTR [rbp-0xa53],0x31
    2ab4:	c6 85 ae f5 ff ff 02 	mov    BYTE PTR [rbp-0xa52],0x2
    2abb:	c6 85 af f5 ff ff 0c 	mov    BYTE PTR [rbp-0xa51],0xc
    2ac2:	c6 85 b0 f5 ff ff ac 	mov    BYTE PTR [rbp-0xa50],0xac
    2ac9:	c6 85 b1 f5 ff ff 12 	mov    BYTE PTR [rbp-0xa4f],0x12
    2ad0:	c6 85 b2 f5 ff ff 19 	mov    BYTE PTR [rbp-0xa4e],0x19
    2ad7:	c6 85 b3 f5 ff ff 33 	mov    BYTE PTR [rbp-0xa4d],0x33
    2ade:	c6 85 b4 f5 ff ff 90 	mov    BYTE PTR [rbp-0xa4c],0x90
    2ae5:	c6 85 b6 f5 ff ff 11 	mov    BYTE PTR [rbp-0xa4a],0x11
    2aec:	c6 85 b7 f5 ff ff e0 	mov    BYTE PTR [rbp-0xa49],0xe0
    2af3:	c6 85 b8 f5 ff ff ff 	mov    BYTE PTR [rbp-0xa48],0xff
    2afa:	c6 85 b9 f5 ff ff 90 	mov    BYTE PTR [rbp-0xa47],0x90
    2b01:	c6 85 ba f5 ff ff 06 	mov    BYTE PTR [rbp-0xa46],0x6
    2b08:	c6 85 bb f5 ff ff a8 	mov    BYTE PTR [rbp-0xa45],0xa8
    2b0f:	c6 85 bc f5 ff ff e0 	mov    BYTE PTR [rbp-0xa44],0xe0
    2b16:	c6 85 bd f5 ff ff fc 	mov    BYTE PTR [rbp-0xa43],0xfc
    2b1d:	c6 85 be f5 ff ff a3 	mov    BYTE PTR [rbp-0xa42],0xa3
    2b24:	c6 85 bf f5 ff ff e0 	mov    BYTE PTR [rbp-0xa41],0xe0
    2b2b:	c6 85 c0 f5 ff ff fd 	mov    BYTE PTR [rbp-0xa40],0xfd
    2b32:	c6 85 c1 f5 ff ff c3 	mov    BYTE PTR [rbp-0xa3f],0xc3
    2b39:	c6 85 c2 f5 ff ff 9f 	mov    BYTE PTR [rbp-0xa3e],0x9f
    2b40:	c6 85 c3 f5 ff ff 74 	mov    BYTE PTR [rbp-0xa3d],0x74
    2b47:	c6 85 c4 f5 ff ff 80 	mov    BYTE PTR [rbp-0xa3c],0x80
    2b4e:	c6 85 c5 f5 ff ff f8 	mov    BYTE PTR [rbp-0xa3b],0xf8
    2b55:	c6 85 c6 f5 ff ff ec 	mov    BYTE PTR [rbp-0xa3a],0xec
    2b5c:	c6 85 c7 f5 ff ff 64 	mov    BYTE PTR [rbp-0xa39],0x64
    2b63:	c6 85 c8 f5 ff ff 80 	mov    BYTE PTR [rbp-0xa38],0x80
    2b6a:	c6 85 c9 f5 ff ff 98 	mov    BYTE PTR [rbp-0xa37],0x98
    2b71:	c6 85 ca f5 ff ff 50 	mov    BYTE PTR [rbp-0xa36],0x50
    2b78:	c6 85 cb f5 ff ff 14 	mov    BYTE PTR [rbp-0xa35],0x14
    2b7f:	c6 85 cc f5 ff ff 74 	mov    BYTE PTR [rbp-0xa34],0x74
    2b86:	c6 85 cd f5 ff ff 12 	mov    BYTE PTR [rbp-0xa33],0x12
    2b8d:	c6 85 ce f5 ff ff 2d 	mov    BYTE PTR [rbp-0xa32],0x2d
    2b94:	48 8d 95 c0 f3 ff ff 	lea    rdx,[rbp-0xc40]
    2b9b:	b8 00 00 00 00       	mov    eax,0x0
    2ba0:	b9 21 00 00 00       	mov    ecx,0x21
    2ba5:	48 89 d7             	mov    rdi,rdx
    2ba8:	f3 48 ab             	rep stos QWORD PTR es:[rdi],rax
    2bab:	48 89 fa             	mov    rdx,rdi
    2bae:	89 02                	mov    DWORD PTR [rdx],eax
    2bb0:	48 83 c2 04          	add    rdx,0x4
    2bb4:	66 89 02             	mov    WORD PTR [rdx],ax
    2bb7:	48 83 c2 02          	add    rdx,0x2
    2bbb:	c6 85 c1 f3 ff ff 58 	mov    BYTE PTR [rbp-0xc3f],0x58
    2bc2:	c6 85 c2 f3 ff ff 84 	mov    BYTE PTR [rbp-0xc3e],0x84
    2bc9:	c6 85 c3 f3 ff ff fd 	mov    BYTE PTR [rbp-0xc3d],0xfd
    2bd0:	c6 85 c4 f3 ff ff ff 	mov    BYTE PTR [rbp-0xc3c],0xff
    2bd7:	48 8d 95 b0 f2 ff ff 	lea    rdx,[rbp-0xd50]
    2bde:	b8 00 00 00 00       	mov    eax,0x0
    2be3:	b9 21 00 00 00       	mov    ecx,0x21
    2be8:	48 89 d7             	mov    rdi,rdx
    2beb:	f3 48 ab             	rep stos QWORD PTR es:[rdi],rax
    2bee:	48 89 fa             	mov    rdx,rdi
    2bf1:	89 02                	mov    DWORD PTR [rdx],eax
    2bf3:	48 83 c2 04          	add    rdx,0x4
    2bf7:	66 89 02             	mov    WORD PTR [rdx],ax
    2bfa:	48 83 c2 02          	add    rdx,0x2
    2bfe:	c6 85 b0 f2 ff ff f5 	mov    BYTE PTR [rbp-0xd50],0xf5
    2c05:	c6 85 b1 f2 ff ff 82 	mov    BYTE PTR [rbp-0xd4f],0x82
    2c0c:	c6 85 b2 f2 ff ff 74 	mov    BYTE PTR [rbp-0xd4e],0x74
    2c13:	c6 85 b4 f2 ff ff 3c 	mov    BYTE PTR [rbp-0xd4c],0x3c
    2c1a:	c6 85 b5 f2 ff ff f5 	mov    BYTE PTR [rbp-0xd4b],0xf5
    2c21:	c6 85 b6 f2 ff ff 83 	mov    BYTE PTR [rbp-0xd4a],0x83
    2c28:	c6 85 b7 f2 ff ff e0 	mov    BYTE PTR [rbp-0xd49],0xe0
    2c2f:	c6 85 b8 f2 ff ff ff 	mov    BYTE PTR [rbp-0xd48],0xff
    2c36:	c6 85 b9 f2 ff ff 12 	mov    BYTE PTR [rbp-0xd47],0x12
    2c3d:	c6 85 ba f2 ff ff 1d 	mov    BYTE PTR [rbp-0xd46],0x1d
    2c44:	c6 85 bb f2 ff ff d3 	mov    BYTE PTR [rbp-0xd45],0xd3
    2c4b:	c6 85 bc f2 ff ff 12 	mov    BYTE PTR [rbp-0xd44],0x12
    2c52:	c6 85 bd f2 ff ff 19 	mov    BYTE PTR [rbp-0xd43],0x19
    2c59:	c6 85 be f2 ff ff 29 	mov    BYTE PTR [rbp-0xd42],0x29
    2c60:	c6 85 bf f2 ff ff 80 	mov    BYTE PTR [rbp-0xd41],0x80
    2c67:	c6 85 c0 f2 ff ff d4 	mov    BYTE PTR [rbp-0xd40],0xd4
    2c6e:	c6 85 c1 f2 ff ff 02 	mov    BYTE PTR [rbp-0xd3f],0x2
    2c75:	c6 85 c2 f2 ff ff 0c 	mov    BYTE PTR [rbp-0xd3e],0xc
    2c7c:	c6 85 c3 f2 ff ff ac 	mov    BYTE PTR [rbp-0xd3d],0xac
    2c83:	c6 85 c4 f2 ff ff 90 	mov    BYTE PTR [rbp-0xd3c],0x90
    2c8a:	c6 85 c6 f2 ff ff 12 	mov    BYTE PTR [rbp-0xd3a],0x12
    2c91:	c6 85 c7 f2 ff ff 74 	mov    BYTE PTR [rbp-0xd39],0x74
    2c98:	c6 85 c8 f2 ff ff 7e 	mov    BYTE PTR [rbp-0xd38],0x7e
    2c9f:	c6 85 c9 f2 ff ff f0 	mov    BYTE PTR [rbp-0xd37],0xf0
    2ca6:	c6 85 ca f2 ff ff a3 	mov    BYTE PTR [rbp-0xd36],0xa3
    2cad:	c6 85 cb f2 ff ff 74 	mov    BYTE PTR [rbp-0xd35],0x74
    2cb4:	c6 85 cc f2 ff ff 33 	mov    BYTE PTR [rbp-0xd34],0x33
    2cbb:	c6 85 cd f2 ff ff f0 	mov    BYTE PTR [rbp-0xd33],0xf0
    2cc2:	c6 85 ce f2 ff ff a3 	mov    BYTE PTR [rbp-0xd32],0xa3
    2cc9:	c6 85 cf f2 ff ff 74 	mov    BYTE PTR [rbp-0xd31],0x74
    2cd0:	c6 85 d0 f2 ff ff a2 	mov    BYTE PTR [rbp-0xd30],0xa2
    2cd7:	c6 85 d1 f2 ff ff f0 	mov    BYTE PTR [rbp-0xd2f],0xf0
    2cde:	c6 85 d2 f2 ff ff a3 	mov    BYTE PTR [rbp-0xd2e],0xa3
    2ce5:	c6 85 d3 f2 ff ff 74 	mov    BYTE PTR [rbp-0xd2d],0x74
    2cec:	c6 85 d4 f2 ff ff 78 	mov    BYTE PTR [rbp-0xd2c],0x78
    2cf3:	c6 85 d5 f2 ff ff f0 	mov    BYTE PTR [rbp-0xd2b],0xf0
    2cfa:	c6 85 d6 f2 ff ff a3 	mov    BYTE PTR [rbp-0xd2a],0xa3
    2d01:	c6 85 d7 f2 ff ff 74 	mov    BYTE PTR [rbp-0xd29],0x74
    2d08:	c6 85 d8 f2 ff ff b3 	mov    BYTE PTR [rbp-0xd28],0xb3
    2d0f:	c6 85 d9 f2 ff ff f0 	mov    BYTE PTR [rbp-0xd27],0xf0
    2d16:	c6 85 da f2 ff ff a3 	mov    BYTE PTR [rbp-0xd26],0xa3
    2d1d:	c6 85 db f2 ff ff 74 	mov    BYTE PTR [rbp-0xd25],0x74
    2d24:	c6 85 dc f2 ff ff 61 	mov    BYTE PTR [rbp-0xd24],0x61
    2d2b:	c6 85 dd f2 ff ff f0 	mov    BYTE PTR [rbp-0xd23],0xf0
    2d32:	c6 85 de f2 ff ff a3 	mov    BYTE PTR [rbp-0xd22],0xa3
    2d39:	c6 85 df f2 ff ff 74 	mov    BYTE PTR [rbp-0xd21],0x74
    2d40:	c6 85 e0 f2 ff ff 7a 	mov    BYTE PTR [rbp-0xd20],0x7a
    2d47:	c6 85 e1 f2 ff ff f0 	mov    BYTE PTR [rbp-0xd1f],0xf0
    2d4e:	c6 85 e2 f2 ff ff a3 	mov    BYTE PTR [rbp-0xd1e],0xa3
    2d55:	c6 85 e3 f2 ff ff 74 	mov    BYTE PTR [rbp-0xd1d],0x74
    2d5c:	c6 85 e4 f2 ff ff 30 	mov    BYTE PTR [rbp-0xd1c],0x30
    2d63:	c6 85 e5 f2 ff ff f0 	mov    BYTE PTR [rbp-0xd1b],0xf0
    2d6a:	c6 85 e6 f2 ff ff a3 	mov    BYTE PTR [rbp-0xd1a],0xa3
    2d71:	c6 85 e7 f2 ff ff 74 	mov    BYTE PTR [rbp-0xd19],0x74
    2d78:	c6 85 e8 f2 ff ff 9b 	mov    BYTE PTR [rbp-0xd18],0x9b
    2d7f:	c6 85 e9 f2 ff ff f0 	mov    BYTE PTR [rbp-0xd17],0xf0
    2d86:	c6 85 ea f2 ff ff a3 	mov    BYTE PTR [rbp-0xd16],0xa3
    2d8d:	c6 85 eb f2 ff ff 74 	mov    BYTE PTR [rbp-0xd15],0x74
    2d94:	c6 85 ec f2 ff ff 18 	mov    BYTE PTR [rbp-0xd14],0x18
    2d9b:	c6 85 ed f2 ff ff f0 	mov    BYTE PTR [rbp-0xd13],0xf0
    2da2:	c6 85 ee f2 ff ff a3 	mov    BYTE PTR [rbp-0xd12],0xa3
    2da9:	c6 85 ef f2 ff ff 74 	mov    BYTE PTR [rbp-0xd11],0x74
    2db0:	c6 85 f0 f2 ff ff 22 	mov    BYTE PTR [rbp-0xd10],0x22
    2db7:	c6 85 f1 f2 ff ff 12 	mov    BYTE PTR [rbp-0xd0f],0x12
    2dbe:	c6 85 f2 f2 ff ff 19 	mov    BYTE PTR [rbp-0xd0e],0x19
    2dc5:	c6 85 f3 f2 ff ff 86 	mov    BYTE PTR [rbp-0xd0d],0x86
    2dcc:	c6 85 f4 f2 ff ff 74 	mov    BYTE PTR [rbp-0xd0c],0x74
    2dd3:	c6 85 f5 f2 ff ff 37 	mov    BYTE PTR [rbp-0xd0b],0x37
    2dda:	c6 85 f6 f2 ff ff f0 	mov    BYTE PTR [rbp-0xd0a],0xf0
    2de1:	c6 85 f7 f2 ff ff a3 	mov    BYTE PTR [rbp-0xd09],0xa3
    2de8:	c6 85 f8 f2 ff ff 74 	mov    BYTE PTR [rbp-0xd08],0x74
    2def:	c6 85 f9 f2 ff ff 2a 	mov    BYTE PTR [rbp-0xd07],0x2a
    2df6:	c6 85 fa f2 ff ff f0 	mov    BYTE PTR [rbp-0xd06],0xf0
    2dfd:	c6 85 fb f2 ff ff a3 	mov    BYTE PTR [rbp-0xd05],0xa3
    2e04:	c6 85 fc f2 ff ff 74 	mov    BYTE PTR [rbp-0xd04],0x74
    2e0b:	c6 85 fd f2 ff ff 23 	mov    BYTE PTR [rbp-0xd03],0x23
    2e12:	c6 85 fe f2 ff ff f0 	mov    BYTE PTR [rbp-0xd02],0xf0
    2e19:	c6 85 ff f2 ff ff a3 	mov    BYTE PTR [rbp-0xd01],0xa3
    2e20:	c6 85 00 f3 ff ff 74 	mov    BYTE PTR [rbp-0xd00],0x74
    2e27:	c6 85 01 f3 ff ff 19 	mov    BYTE PTR [rbp-0xcff],0x19
    2e2e:	c6 85 02 f3 ff ff f0 	mov    BYTE PTR [rbp-0xcfe],0xf0
    2e35:	c6 85 03 f3 ff ff a3 	mov    BYTE PTR [rbp-0xcfd],0xa3
    2e3c:	c6 85 04 f3 ff ff 74 	mov    BYTE PTR [rbp-0xcfc],0x74
    2e43:	c6 85 05 f3 ff ff 45 	mov    BYTE PTR [rbp-0xcfb],0x45
    2e4a:	c6 85 06 f3 ff ff f0 	mov    BYTE PTR [rbp-0xcfa],0xf0
    2e51:	c6 85 07 f3 ff ff a3 	mov    BYTE PTR [rbp-0xcf9],0xa3
    2e58:	c6 85 08 f3 ff ff 74 	mov    BYTE PTR [rbp-0xcf8],0x74
    2e5f:	c6 85 09 f3 ff ff 90 	mov    BYTE PTR [rbp-0xcf7],0x90
    2e66:	c6 85 0a f3 ff ff f0 	mov    BYTE PTR [rbp-0xcf6],0xf0
    2e6d:	c6 85 0b f3 ff ff a3 	mov    BYTE PTR [rbp-0xcf5],0xa3
    2e74:	c6 85 0c f3 ff ff 74 	mov    BYTE PTR [rbp-0xcf4],0x74
    2e7b:	c6 85 0d f3 ff ff 4c 	mov    BYTE PTR [rbp-0xcf3],0x4c
    2e82:	c6 85 0e f3 ff ff f0 	mov    BYTE PTR [rbp-0xcf2],0xf0
    2e89:	c6 85 0f f3 ff ff a3 	mov    BYTE PTR [rbp-0xcf1],0xa3
    2e90:	c6 85 10 f3 ff ff 74 	mov    BYTE PTR [rbp-0xcf0],0x74
    2e97:	c6 85 11 f3 ff ff 4a 	mov    BYTE PTR [rbp-0xcef],0x4a
    2e9e:	c6 85 12 f3 ff ff f0 	mov    BYTE PTR [rbp-0xcee],0xf0
    2ea5:	c6 85 13 f3 ff ff a3 	mov    BYTE PTR [rbp-0xced],0xa3
    2eac:	c6 85 14 f3 ff ff 74 	mov    BYTE PTR [rbp-0xcec],0x74
    2eb3:	c6 85 15 f3 ff ff d8 	mov    BYTE PTR [rbp-0xceb],0xd8
    2eba:	c6 85 16 f3 ff ff f0 	mov    BYTE PTR [rbp-0xcea],0xf0
    2ec1:	c6 85 17 f3 ff ff a3 	mov    BYTE PTR [rbp-0xce9],0xa3
    2ec8:	c6 85 18 f3 ff ff 74 	mov    BYTE PTR [rbp-0xce8],0x74
    2ecf:	c6 85 19 f3 ff ff 46 	mov    BYTE PTR [rbp-0xce7],0x46
    2ed6:	c6 85 1a f3 ff ff f0 	mov    BYTE PTR [rbp-0xce6],0xf0
    2edd:	c6 85 1b f3 ff ff a3 	mov    BYTE PTR [rbp-0xce5],0xa3
    2ee4:	c6 85 1c f3 ff ff 74 	mov    BYTE PTR [rbp-0xce4],0x74
    2eeb:	c6 85 1d f3 ff ff 54 	mov    BYTE PTR [rbp-0xce3],0x54
    2ef2:	c6 85 1e f3 ff ff f0 	mov    BYTE PTR [rbp-0xce2],0xf0
    2ef9:	c6 85 1f f3 ff ff a3 	mov    BYTE PTR [rbp-0xce1],0xa3
    2f00:	c6 85 20 f3 ff ff 74 	mov    BYTE PTR [rbp-0xce0],0x74
    2f07:	c6 85 21 f3 ff ff 99 	mov    BYTE PTR [rbp-0xcdf],0x99
    2f0e:	c6 85 22 f3 ff ff f0 	mov    BYTE PTR [rbp-0xcde],0xf0
    2f15:	c6 85 23 f3 ff ff 12 	mov    BYTE PTR [rbp-0xcdd],0x12
    2f1c:	c6 85 24 f3 ff ff 19 	mov    BYTE PTR [rbp-0xcdc],0x19
    2f23:	c6 85 25 f3 ff ff 3b 	mov    BYTE PTR [rbp-0xcdb],0x3b
    2f2a:	c6 85 26 f3 ff ff e4 	mov    BYTE PTR [rbp-0xcda],0xe4
    2f31:	c6 85 27 f3 ff ff fd 	mov    BYTE PTR [rbp-0xcd9],0xfd
    2f38:	c6 85 28 f3 ff ff 7f 	mov    BYTE PTR [rbp-0xcd8],0x7f
    2f3f:	c6 85 29 f3 ff ff 01 	mov    BYTE PTR [rbp-0xcd7],0x1
    2f46:	c6 85 2a f3 ff ff 12 	mov    BYTE PTR [rbp-0xcd6],0x12
    2f4d:	c6 85 2b f3 ff ff 11 	mov    BYTE PTR [rbp-0xcd5],0x11
    2f54:	c6 85 2c f3 ff ff e5 	mov    BYTE PTR [rbp-0xcd4],0xe5
    2f5b:	c6 85 2d f3 ff ff 12 	mov    BYTE PTR [rbp-0xcd3],0x12
    2f62:	c6 85 2e f3 ff ff 19 	mov    BYTE PTR [rbp-0xcd2],0x19
    2f69:	c6 85 2f f3 ff ff 3b 	mov    BYTE PTR [rbp-0xcd1],0x3b
    2f70:	c6 85 30 f3 ff ff 7d 	mov    BYTE PTR [rbp-0xcd0],0x7d
    2f77:	c6 85 31 f3 ff ff 10 	mov    BYTE PTR [rbp-0xccf],0x10
    2f7e:	c6 85 32 f3 ff ff 7f 	mov    BYTE PTR [rbp-0xcce],0x7f
    2f85:	c6 85 33 f3 ff ff 01 	mov    BYTE PTR [rbp-0xccd],0x1
    2f8c:	c6 85 34 f3 ff ff 12 	mov    BYTE PTR [rbp-0xccc],0x12
    2f93:	c6 85 35 f3 ff ff 11 	mov    BYTE PTR [rbp-0xccb],0x11
    2f9a:	c6 85 36 f3 ff ff e5 	mov    BYTE PTR [rbp-0xcca],0xe5
    2fa1:	c6 85 37 f3 ff ff 02 	mov    BYTE PTR [rbp-0xcc9],0x2
    2fa8:	c6 85 38 f3 ff ff 0c 	mov    BYTE PTR [rbp-0xcc8],0xc
    2faf:	c6 85 39 f3 ff ff ac 	mov    BYTE PTR [rbp-0xcc7],0xac
    2fb6:	c6 85 3a f3 ff ff 12 	mov    BYTE PTR [rbp-0xcc6],0x12
    2fbd:	c6 85 3b f3 ff ff 0d 	mov    BYTE PTR [rbp-0xcc5],0xd
    2fc4:	c6 85 3c f3 ff ff 96 	mov    BYTE PTR [rbp-0xcc4],0x96
    2fcb:	c6 85 3d f3 ff ff 74 	mov    BYTE PTR [rbp-0xcc3],0x74
    2fd2:	c6 85 3e f3 ff ff 20 	mov    BYTE PTR [rbp-0xcc2],0x20
    2fd9:	c6 85 3f f3 ff ff 12 	mov    BYTE PTR [rbp-0xcc1],0x12
    2fe0:	c6 85 40 f3 ff ff 19 	mov    BYTE PTR [rbp-0xcc0],0x19
    2fe7:	c6 85 41 f3 ff ff 8d 	mov    BYTE PTR [rbp-0xcbf],0x8d
    2fee:	c6 85 42 f3 ff ff 74 	mov    BYTE PTR [rbp-0xcbe],0x74
    2ff5:	c6 85 43 f3 ff ff 40 	mov    BYTE PTR [rbp-0xcbd],0x40
    2ffc:	c6 85 44 f3 ff ff f0 	mov    BYTE PTR [rbp-0xcbc],0xf0
    3003:	c6 85 45 f3 ff ff a3 	mov    BYTE PTR [rbp-0xcbb],0xa3
    300a:	c6 85 46 f3 ff ff 74 	mov    BYTE PTR [rbp-0xcba],0x74
    3011:	c6 85 47 f3 ff ff 28 	mov    BYTE PTR [rbp-0xcb9],0x28
    3018:	c6 85 48 f3 ff ff f0 	mov    BYTE PTR [rbp-0xcb8],0xf0
    301f:	c6 85 49 f3 ff ff 74 	mov    BYTE PTR [rbp-0xcb7],0x74
    3026:	c6 85 4a f3 ff ff 02 	mov    BYTE PTR [rbp-0xcb6],0x2
    302d:	c6 85 4b f3 ff ff 12 	mov    BYTE PTR [rbp-0xcb5],0x12
    3034:	c6 85 4c f3 ff ff 19 	mov    BYTE PTR [rbp-0xcb4],0x19
    303b:	c6 85 4d f3 ff ff 71 	mov    BYTE PTR [rbp-0xcb3],0x71
    3042:	c6 85 4e f3 ff ff 90 	mov    BYTE PTR [rbp-0xcb2],0x90
    3049:	c6 85 50 f3 ff ff 18 	mov    BYTE PTR [rbp-0xcb0],0x18
    3050:	c6 85 51 f3 ff ff 12 	mov    BYTE PTR [rbp-0xcaf],0x12
    3057:	c6 85 52 f3 ff ff 19 	mov    BYTE PTR [rbp-0xcae],0x19
    305e:	c6 85 53 f3 ff ff 86 	mov    BYTE PTR [rbp-0xcad],0x86
    3065:	c6 85 54 f3 ff ff 74 	mov    BYTE PTR [rbp-0xcac],0x74
    306c:	c6 85 55 f3 ff ff 02 	mov    BYTE PTR [rbp-0xcab],0x2
    3073:	c6 85 56 f3 ff ff f0 	mov    BYTE PTR [rbp-0xcaa],0xf0
    307a:	c6 85 57 f3 ff ff e4 	mov    BYTE PTR [rbp-0xca9],0xe4
    3081:	c6 85 58 f3 ff ff a3 	mov    BYTE PTR [rbp-0xca8],0xa3
    3088:	c6 85 59 f3 ff ff f0 	mov    BYTE PTR [rbp-0xca7],0xf0
    308f:	c6 85 5a f3 ff ff a3 	mov    BYTE PTR [rbp-0xca6],0xa3
    3096:	c6 85 5b f3 ff ff 74 	mov    BYTE PTR [rbp-0xca5],0x74
    309d:	c6 85 5c f3 ff ff 2c 	mov    BYTE PTR [rbp-0xca4],0x2c
    30a4:	c6 85 5d f3 ff ff f0 	mov    BYTE PTR [rbp-0xca3],0xf0
    30ab:	c6 85 5e f3 ff ff a3 	mov    BYTE PTR [rbp-0xca2],0xa3
    30b2:	c6 85 5f f3 ff ff 74 	mov    BYTE PTR [rbp-0xca1],0x74
    30b9:	c6 85 60 f3 ff ff 30 	mov    BYTE PTR [rbp-0xca0],0x30
    30c0:	c6 85 61 f3 ff ff f0 	mov    BYTE PTR [rbp-0xc9f],0xf0
    30c7:	c6 85 62 f3 ff ff a3 	mov    BYTE PTR [rbp-0xc9e],0xa3
    30ce:	c6 85 63 f3 ff ff 74 	mov    BYTE PTR [rbp-0xc9d],0x74
    30d5:	c6 85 64 f3 ff ff 01 	mov    BYTE PTR [rbp-0xc9c],0x1
    30dc:	c6 85 65 f3 ff ff f0 	mov    BYTE PTR [rbp-0xc9b],0xf0
    30e3:	c6 85 66 f3 ff ff 90 	mov    BYTE PTR [rbp-0xc9a],0x90
    30ea:	c6 85 67 f3 ff ff 04 	mov    BYTE PTR [rbp-0xc99],0x4
    30f1:	c6 85 68 f3 ff ff 98 	mov    BYTE PTR [rbp-0xc98],0x98
    30f8:	c6 85 69 f3 ff ff e0 	mov    BYTE PTR [rbp-0xc97],0xe0
    30ff:	c6 85 6a f3 ff ff 90 	mov    BYTE PTR [rbp-0xc96],0x90
    3106:	c6 85 6c f3 ff ff 1f 	mov    BYTE PTR [rbp-0xc94],0x1f
    310d:	c6 85 6d f3 ff ff f0 	mov    BYTE PTR [rbp-0xc93],0xf0
    3114:	c6 85 6e f3 ff ff a3 	mov    BYTE PTR [rbp-0xc92],0xa3
    311b:	c6 85 6f f3 ff ff 74 	mov    BYTE PTR [rbp-0xc91],0x74
    3122:	c6 85 70 f3 ff ff 23 	mov    BYTE PTR [rbp-0xc90],0x23
    3129:	c6 85 71 f3 ff ff 12 	mov    BYTE PTR [rbp-0xc8f],0x12
    3130:	c6 85 72 f3 ff ff 19 	mov    BYTE PTR [rbp-0xc8e],0x19
    3137:	c6 85 73 f3 ff ff 8d 	mov    BYTE PTR [rbp-0xc8d],0x8d
    313e:	c6 85 74 f3 ff ff 04 	mov    BYTE PTR [rbp-0xc8c],0x4
    3145:	c6 85 75 f3 ff ff f0 	mov    BYTE PTR [rbp-0xc8b],0xf0
    314c:	c6 85 76 f3 ff ff 7f 	mov    BYTE PTR [rbp-0xc8a],0x7f
    3153:	c6 85 77 f3 ff ff 11 	mov    BYTE PTR [rbp-0xc89],0x11
    315a:	c6 85 78 f3 ff ff 02 	mov    BYTE PTR [rbp-0xc88],0x2
    3161:	c6 85 79 f3 ff ff 0c 	mov    BYTE PTR [rbp-0xc87],0xc
    3168:	c6 85 7a f3 ff ff df 	mov    BYTE PTR [rbp-0xc86],0xdf
    316f:	c6 85 7b f3 ff ff 12 	mov    BYTE PTR [rbp-0xc85],0x12
    3176:	c6 85 7c f3 ff ff 19 	mov    BYTE PTR [rbp-0xc84],0x19
    317d:	c6 85 7d f3 ff ff 33 	mov    BYTE PTR [rbp-0xc83],0x33
    3184:	c6 85 7e f3 ff ff 12 	mov    BYTE PTR [rbp-0xc82],0x12
    318b:	c6 85 7f f3 ff ff 0d 	mov    BYTE PTR [rbp-0xc81],0xd
    3192:	c6 85 80 f3 ff ff 35 	mov    BYTE PTR [rbp-0xc80],0x35
    3199:	c6 85 81 f3 ff ff c3 	mov    BYTE PTR [rbp-0xc7f],0xc3
    31a0:	c6 85 82 f3 ff ff 90 	mov    BYTE PTR [rbp-0xc7e],0x90
    31a7:	c6 85 83 f3 ff ff 06 	mov    BYTE PTR [rbp-0xc7d],0x6
    31ae:	c6 85 84 f3 ff ff a9 	mov    BYTE PTR [rbp-0xc7c],0xa9
    31b5:	c6 85 85 f3 ff ff e0 	mov    BYTE PTR [rbp-0xc7b],0xe0
    31bc:	c6 85 86 f3 ff ff 94 	mov    BYTE PTR [rbp-0xc7a],0x94
    31c3:	c6 85 87 f3 ff ff 0b 	mov    BYTE PTR [rbp-0xc79],0xb
    31ca:	c6 85 88 f3 ff ff 90 	mov    BYTE PTR [rbp-0xc78],0x90
    31d1:	c6 85 89 f3 ff ff 06 	mov    BYTE PTR [rbp-0xc77],0x6
    31d8:	c6 85 8a f3 ff ff a8 	mov    BYTE PTR [rbp-0xc76],0xa8
    31df:	c6 85 8b f3 ff ff e0 	mov    BYTE PTR [rbp-0xc75],0xe0
    31e6:	c6 85 8c f3 ff ff 64 	mov    BYTE PTR [rbp-0xc74],0x64
    31ed:	c6 85 8d f3 ff ff 80 	mov    BYTE PTR [rbp-0xc73],0x80
    31f4:	c6 85 8e f3 ff ff 94 	mov    BYTE PTR [rbp-0xc72],0x94
    31fb:	c6 85 8f f3 ff ff 80 	mov    BYTE PTR [rbp-0xc71],0x80
    3202:	c6 85 90 f3 ff ff 40 	mov    BYTE PTR [rbp-0xc70],0x40
    3209:	c6 85 91 f3 ff ff ec 	mov    BYTE PTR [rbp-0xc6f],0xec
    3210:	c6 85 92 f3 ff ff 90 	mov    BYTE PTR [rbp-0xc6e],0x90
    3217:	c6 85 94 f3 ff ff 11 	mov    BYTE PTR [rbp-0xc6c],0x11
    321e:	c6 85 95 f3 ff ff e0 	mov    BYTE PTR [rbp-0xc6b],0xe0
    3225:	c6 85 96 f3 ff ff 64 	mov    BYTE PTR [rbp-0xc6a],0x64
    322c:	c6 85 97 f3 ff ff 0e 	mov    BYTE PTR [rbp-0xc69],0xe
    3233:	c6 85 98 f3 ff ff 70 	mov    BYTE PTR [rbp-0xc68],0x70
    323a:	c6 85 99 f3 ff ff 04 	mov    BYTE PTR [rbp-0xc67],0x4
    3241:	c6 85 9a f3 ff ff ff 	mov    BYTE PTR [rbp-0xc66],0xff
    3248:	c6 85 9b f3 ff ff 02 	mov    BYTE PTR [rbp-0xc65],0x2
    324f:	c6 85 9c f3 ff ff 0c 	mov    BYTE PTR [rbp-0xc64],0xc
    3256:	c6 85 9d f3 ff ff df 	mov    BYTE PTR [rbp-0xc63],0xdf
    325d:	c6 85 9e f3 ff ff 12 	mov    BYTE PTR [rbp-0xc62],0x12
    3264:	c6 85 9f f3 ff ff 1d 	mov    BYTE PTR [rbp-0xc61],0x1d
    326b:	c6 85 a0 f3 ff ff df 	mov    BYTE PTR [rbp-0xc60],0xdf
    3272:	c6 85 a1 f3 ff ff 90 	mov    BYTE PTR [rbp-0xc5f],0x90
    3279:	c6 85 a2 f3 ff ff 06 	mov    BYTE PTR [rbp-0xc5e],0x6
    3280:	c6 85 a3 f3 ff ff f4 	mov    BYTE PTR [rbp-0xc5d],0xf4
    3287:	c6 85 a4 f3 ff ff ef 	mov    BYTE PTR [rbp-0xc5c],0xef
    328e:	c6 85 a5 f3 ff ff f0 	mov    BYTE PTR [rbp-0xc5b],0xf0
    3295:	c6 85 a6 f3 ff ff 12 	mov    BYTE PTR [rbp-0xc5a],0x12
    329c:	c6 85 a7 f3 ff ff 1d 	mov    BYTE PTR [rbp-0xc59],0x1d
    32a3:	c6 85 a8 f3 ff ff df 	mov    BYTE PTR [rbp-0xc58],0xdf
    32aa:	c6 85 a9 f3 ff ff 90 	mov    BYTE PTR [rbp-0xc57],0x90
    32b1:	c6 85 aa f3 ff ff 06 	mov    BYTE PTR [rbp-0xc56],0x6
    32b8:	c6 85 ab f3 ff ff f5 	mov    BYTE PTR [rbp-0xc55],0xf5
    32bf:	c6 85 ac f3 ff ff ef 	mov    BYTE PTR [rbp-0xc54],0xef
    32c6:	c6 85 ad f3 ff ff f0 	mov    BYTE PTR [rbp-0xc53],0xf0
    32cd:	c6 85 ae f3 ff ff 12 	mov    BYTE PTR [rbp-0xc52],0x12
    32d4:	48 8d 95 a0 f1 ff ff 	lea    rdx,[rbp-0xe60]
    32db:	b8 00 00 00 00       	mov    eax,0x0
    32e0:	b9 21 00 00 00       	mov    ecx,0x21
    32e5:	48 89 d7             	mov    rdi,rdx
    32e8:	f3 48 ab             	rep stos QWORD PTR es:[rdi],rax
    32eb:	48 89 fa             	mov    rdx,rdi
    32ee:	89 02                	mov    DWORD PTR [rdx],eax
    32f0:	48 83 c2 04          	add    rdx,0x4
    32f4:	66 89 02             	mov    WORD PTR [rdx],ax
    32f7:	48 83 c2 02          	add    rdx,0x2
    32fb:	c6 85 a1 f1 ff ff 58 	mov    BYTE PTR [rbp-0xe5f],0x58
    3302:	c6 85 a2 f1 ff ff 85 	mov    BYTE PTR [rbp-0xe5e],0x85
    3309:	c6 85 a3 f1 ff ff fc 	mov    BYTE PTR [rbp-0xe5d],0xfc
    3310:	c6 85 a4 f1 ff ff ff 	mov    BYTE PTR [rbp-0xe5c],0xff
    3317:	48 8d 95 90 f0 ff ff 	lea    rdx,[rbp-0xf70]
    331e:	b8 00 00 00 00       	mov    eax,0x0
    3323:	b9 21 00 00 00       	mov    ecx,0x21
    3328:	48 89 d7             	mov    rdi,rdx
    332b:	f3 48 ab             	rep stos QWORD PTR es:[rdi],rax
    332e:	48 89 fa             	mov    rdx,rdi
    3331:	89 02                	mov    DWORD PTR [rdx],eax
    3333:	48 83 c2 04          	add    rdx,0x4
    3337:	66 89 02             	mov    WORD PTR [rdx],ax
    333a:	48 83 c2 02          	add    rdx,0x2
    333e:	c6 85 90 f0 ff ff 1d 	mov    BYTE PTR [rbp-0xf70],0x1d
    3345:	c6 85 91 f0 ff ff df 	mov    BYTE PTR [rbp-0xf6f],0xdf
    334c:	c6 85 92 f0 ff ff 90 	mov    BYTE PTR [rbp-0xf6e],0x90
    3353:	c6 85 93 f0 ff ff 06 	mov    BYTE PTR [rbp-0xf6d],0x6
    335a:	c6 85 94 f0 ff ff f6 	mov    BYTE PTR [rbp-0xf6c],0xf6
    3361:	c6 85 95 f0 ff ff ef 	mov    BYTE PTR [rbp-0xf6b],0xef
    3368:	c6 85 96 f0 ff ff f0 	mov    BYTE PTR [rbp-0xf6a],0xf0
    336f:	c6 85 97 f0 ff ff 90 	mov    BYTE PTR [rbp-0xf69],0x90
    3376:	c6 85 98 f0 ff ff 06 	mov    BYTE PTR [rbp-0xf68],0x6
    337d:	c6 85 99 f0 ff ff a8 	mov    BYTE PTR [rbp-0xf67],0xa8
    3384:	c6 85 9a f0 ff ff e4 	mov    BYTE PTR [rbp-0xf66],0xe4
    338b:	c6 85 9b f0 ff ff f0 	mov    BYTE PTR [rbp-0xf65],0xf0
    3392:	c6 85 9c f0 ff ff a3 	mov    BYTE PTR [rbp-0xf64],0xa3
    3399:	c6 85 9d f0 ff ff 74 	mov    BYTE PTR [rbp-0xf63],0x74
    33a0:	c6 85 9e f0 ff ff 11 	mov    BYTE PTR [rbp-0xf62],0x11
    33a7:	c6 85 9f f0 ff ff f0 	mov    BYTE PTR [rbp-0xf61],0xf0
    33ae:	c6 85 a0 f0 ff ff 90 	mov    BYTE PTR [rbp-0xf60],0x90
    33b5:	c6 85 a2 f0 ff ff 11 	mov    BYTE PTR [rbp-0xf5e],0x11
    33bc:	c6 85 a3 f0 ff ff e0 	mov    BYTE PTR [rbp-0xf5d],0xe0
    33c3:	c6 85 a4 f0 ff ff ff 	mov    BYTE PTR [rbp-0xf5c],0xff
    33ca:	c6 85 a5 f0 ff ff c3 	mov    BYTE PTR [rbp-0xf5b],0xc3
    33d1:	c6 85 a6 f0 ff ff 90 	mov    BYTE PTR [rbp-0xf5a],0x90
    33d8:	c6 85 a7 f0 ff ff 06 	mov    BYTE PTR [rbp-0xf59],0x6
    33df:	c6 85 a8 f0 ff ff a9 	mov    BYTE PTR [rbp-0xf58],0xa9
    33e6:	c6 85 a9 f0 ff ff e0 	mov    BYTE PTR [rbp-0xf57],0xe0
    33ed:	c6 85 aa f0 ff ff 9f 	mov    BYTE PTR [rbp-0xf56],0x9f
    33f4:	c6 85 ab f0 ff ff 74 	mov    BYTE PTR [rbp-0xf55],0x74
    33fb:	c6 85 ac f0 ff ff 80 	mov    BYTE PTR [rbp-0xf54],0x80
    3402:	c6 85 ad f0 ff ff f8 	mov    BYTE PTR [rbp-0xf53],0xf8
    3409:	c6 85 ae f0 ff ff 90 	mov    BYTE PTR [rbp-0xf52],0x90
    3410:	c6 85 af f0 ff ff 06 	mov    BYTE PTR [rbp-0xf51],0x6
    3417:	c6 85 b0 f0 ff ff a8 	mov    BYTE PTR [rbp-0xf50],0xa8
    341e:	c6 85 b1 f0 ff ff e0 	mov    BYTE PTR [rbp-0xf4f],0xe0
    3425:	c6 85 b2 f0 ff ff 64 	mov    BYTE PTR [rbp-0xf4e],0x64
    342c:	c6 85 b3 f0 ff ff 80 	mov    BYTE PTR [rbp-0xf4d],0x80
    3433:	c6 85 b4 f0 ff ff 98 	mov    BYTE PTR [rbp-0xf4c],0x98
    343a:	c6 85 b5 f0 ff ff 50 	mov    BYTE PTR [rbp-0xf4b],0x50
    3441:	c6 85 b6 f0 ff ff 05 	mov    BYTE PTR [rbp-0xf4a],0x5
    3448:	c6 85 b7 f0 ff ff 12 	mov    BYTE PTR [rbp-0xf49],0x12
    344f:	c6 85 b8 f0 ff ff 0d 	mov    BYTE PTR [rbp-0xf48],0xd
    3456:	c6 85 b9 f0 ff ff 35 	mov    BYTE PTR [rbp-0xf47],0x35
    345d:	c6 85 ba f0 ff ff 80 	mov    BYTE PTR [rbp-0xf46],0x80
    3464:	c6 85 bb f0 ff ff e4 	mov    BYTE PTR [rbp-0xf45],0xe4
    346b:	c6 85 bc f0 ff ff 12 	mov    BYTE PTR [rbp-0xf44],0x12
    3472:	c6 85 bd f0 ff ff 0d 	mov    BYTE PTR [rbp-0xf43],0xd
    3479:	c6 85 be f0 ff ff 96 	mov    BYTE PTR [rbp-0xf42],0x96
    3480:	c6 85 bf f0 ff ff 74 	mov    BYTE PTR [rbp-0xf41],0x74
    3487:	c6 85 c0 f0 ff ff 22 	mov    BYTE PTR [rbp-0xf40],0x22
    348e:	c6 85 c1 f0 ff ff f0 	mov    BYTE PTR [rbp-0xf3f],0xf0
    3495:	c6 85 c2 f0 ff ff a3 	mov    BYTE PTR [rbp-0xf3e],0xa3
    349c:	c6 85 c3 f0 ff ff 74 	mov    BYTE PTR [rbp-0xf3d],0x74
    34a3:	c6 85 c4 f0 ff ff 18 	mov    BYTE PTR [rbp-0xf3c],0x18
    34aa:	c6 85 c5 f0 ff ff f0 	mov    BYTE PTR [rbp-0xf3b],0xf0
    34b1:	c6 85 c6 f0 ff ff a3 	mov    BYTE PTR [rbp-0xf3a],0xa3
    34b8:	c6 85 c7 f0 ff ff 74 	mov    BYTE PTR [rbp-0xf39],0x74
    34bf:	c6 85 c8 f0 ff ff 09 	mov    BYTE PTR [rbp-0xf38],0x9
    34c6:	c6 85 c9 f0 ff ff f0 	mov    BYTE PTR [rbp-0xf37],0xf0
    34cd:	c6 85 ca f0 ff ff 74 	mov    BYTE PTR [rbp-0xf36],0x74
    34d4:	c6 85 cb f0 ff ff 04 	mov    BYTE PTR [rbp-0xf35],0x4
    34db:	c6 85 cc f0 ff ff 12 	mov    BYTE PTR [rbp-0xf34],0x12
    34e2:	c6 85 cd f0 ff ff 19 	mov    BYTE PTR [rbp-0xf33],0x19
    34e9:	c6 85 ce f0 ff ff 71 	mov    BYTE PTR [rbp-0xf32],0x71
    34f0:	c6 85 cf f0 ff ff 90 	mov    BYTE PTR [rbp-0xf31],0x90
    34f7:	c6 85 d1 f0 ff ff 17 	mov    BYTE PTR [rbp-0xf2f],0x17
    34fe:	c6 85 d2 f0 ff ff f0 	mov    BYTE PTR [rbp-0xf2e],0xf0
    3505:	c6 85 d3 f0 ff ff 90 	mov    BYTE PTR [rbp-0xf2d],0x90
    350c:	c6 85 d4 f0 ff ff 06 	mov    BYTE PTR [rbp-0xf2c],0x6
    3513:	c6 85 d5 f0 ff ff f4 	mov    BYTE PTR [rbp-0xf2b],0xf4
    351a:	c6 85 d6 f0 ff ff e0 	mov    BYTE PTR [rbp-0xf2a],0xe0
    3521:	c6 85 d7 f0 ff ff 90 	mov    BYTE PTR [rbp-0xf29],0x90
    3528:	c6 85 d9 f0 ff ff 18 	mov    BYTE PTR [rbp-0xf27],0x18
    352f:	c6 85 da f0 ff ff f0 	mov    BYTE PTR [rbp-0xf26],0xf0
    3536:	c6 85 db f0 ff ff 90 	mov    BYTE PTR [rbp-0xf25],0x90
    353d:	c6 85 dc f0 ff ff 06 	mov    BYTE PTR [rbp-0xf24],0x6
    3544:	c6 85 dd f0 ff ff f5 	mov    BYTE PTR [rbp-0xf23],0xf5
    354b:	c6 85 de f0 ff ff e0 	mov    BYTE PTR [rbp-0xf22],0xe0
    3552:	c6 85 df f0 ff ff 90 	mov    BYTE PTR [rbp-0xf21],0x90
    3559:	c6 85 e1 f0 ff ff 19 	mov    BYTE PTR [rbp-0xf1f],0x19
    3560:	c6 85 e2 f0 ff ff 12 	mov    BYTE PTR [rbp-0xf1e],0x12
    3567:	c6 85 e3 f0 ff ff 18 	mov    BYTE PTR [rbp-0xf1d],0x18
    356e:	c6 85 e4 f0 ff ff de 	mov    BYTE PTR [rbp-0xf1c],0xde
    3575:	c6 85 e5 f0 ff ff 90 	mov    BYTE PTR [rbp-0xf1b],0x90
    357c:	c6 85 e6 f0 ff ff 06 	mov    BYTE PTR [rbp-0xf1a],0x6
    3583:	c6 85 e7 f0 ff ff f0 	mov    BYTE PTR [rbp-0xf19],0xf0
    358a:	c6 85 e8 f0 ff ff e0 	mov    BYTE PTR [rbp-0xf18],0xe0
    3591:	c6 85 e9 f0 ff ff 90 	mov    BYTE PTR [rbp-0xf17],0x90
    3598:	c6 85 eb f0 ff ff 1f 	mov    BYTE PTR [rbp-0xf15],0x1f
    359f:	c6 85 ec f0 ff ff f0 	mov    BYTE PTR [rbp-0xf14],0xf0
    35a6:	c6 85 ed f0 ff ff 90 	mov    BYTE PTR [rbp-0xf13],0x90
    35ad:	c6 85 ee f0 ff ff 06 	mov    BYTE PTR [rbp-0xf12],0x6
    35b4:	c6 85 ef f0 ff ff f1 	mov    BYTE PTR [rbp-0xf11],0xf1
    35bb:	c6 85 f0 f0 ff ff e0 	mov    BYTE PTR [rbp-0xf10],0xe0
    35c2:	c6 85 f1 f0 ff ff 90 	mov    BYTE PTR [rbp-0xf0f],0x90
    35c9:	c6 85 f3 f0 ff ff 20 	mov    BYTE PTR [rbp-0xf0d],0x20
    35d0:	c6 85 f4 f0 ff ff f0 	mov    BYTE PTR [rbp-0xf0c],0xf0
    35d7:	c6 85 f5 f0 ff ff 90 	mov    BYTE PTR [rbp-0xf0b],0x90
    35de:	c6 85 f6 f0 ff ff 06 	mov    BYTE PTR [rbp-0xf0a],0x6
    35e5:	c6 85 f7 f0 ff ff f2 	mov    BYTE PTR [rbp-0xf09],0xf2
    35ec:	c6 85 f8 f0 ff ff e0 	mov    BYTE PTR [rbp-0xf08],0xe0
    35f3:	c6 85 f9 f0 ff ff 90 	mov    BYTE PTR [rbp-0xf07],0x90
    35fa:	c6 85 fb f0 ff ff 21 	mov    BYTE PTR [rbp-0xf05],0x21
    3601:	c6 85 fc f0 ff ff f0 	mov    BYTE PTR [rbp-0xf04],0xf0
    3608:	c6 85 fd f0 ff ff 90 	mov    BYTE PTR [rbp-0xf03],0x90
    360f:	c6 85 fe f0 ff ff 06 	mov    BYTE PTR [rbp-0xf02],0x6
    3616:	c6 85 ff f0 ff ff f3 	mov    BYTE PTR [rbp-0xf01],0xf3
    361d:	c6 85 00 f1 ff ff e0 	mov    BYTE PTR [rbp-0xf00],0xe0
    3624:	c6 85 01 f1 ff ff 90 	mov    BYTE PTR [rbp-0xeff],0x90
    362b:	c6 85 03 f1 ff ff 22 	mov    BYTE PTR [rbp-0xefd],0x22
    3632:	c6 85 04 f1 ff ff 12 	mov    BYTE PTR [rbp-0xefc],0x12
    3639:	c6 85 05 f1 ff ff 18 	mov    BYTE PTR [rbp-0xefb],0x18
    3640:	c6 85 06 f1 ff ff de 	mov    BYTE PTR [rbp-0xefa],0xde
    3647:	c6 85 07 f1 ff ff a3 	mov    BYTE PTR [rbp-0xef9],0xa3
    364e:	c6 85 08 f1 ff ff f0 	mov    BYTE PTR [rbp-0xef8],0xf0
    3655:	c6 85 09 f1 ff ff 90 	mov    BYTE PTR [rbp-0xef7],0x90
    365c:	c6 85 0a f1 ff ff 06 	mov    BYTE PTR [rbp-0xef6],0x6
    3663:	c6 85 0b f1 ff ff de 	mov    BYTE PTR [rbp-0xef5],0xde
    366a:	c6 85 0c f1 ff ff e0 	mov    BYTE PTR [rbp-0xef4],0xe0
    3671:	c6 85 0d f1 ff ff 90 	mov    BYTE PTR [rbp-0xef3],0x90
    3678:	c6 85 0f f1 ff ff 29 	mov    BYTE PTR [rbp-0xef1],0x29
    367f:	c6 85 10 f1 ff ff f0 	mov    BYTE PTR [rbp-0xef0],0xf0
    3686:	c6 85 11 f1 ff ff 90 	mov    BYTE PTR [rbp-0xeef],0x90
    368d:	c6 85 12 f1 ff ff 06 	mov    BYTE PTR [rbp-0xeee],0x6
    3694:	c6 85 13 f1 ff ff df 	mov    BYTE PTR [rbp-0xeed],0xdf
    369b:	c6 85 14 f1 ff ff e0 	mov    BYTE PTR [rbp-0xeec],0xe0
    36a2:	c6 85 15 f1 ff ff 90 	mov    BYTE PTR [rbp-0xeeb],0x90
    36a9:	c6 85 17 f1 ff ff 2a 	mov    BYTE PTR [rbp-0xee9],0x2a
    36b0:	c6 85 18 f1 ff ff f0 	mov    BYTE PTR [rbp-0xee8],0xf0
    36b7:	c6 85 19 f1 ff ff 90 	mov    BYTE PTR [rbp-0xee7],0x90
    36be:	c6 85 1a f1 ff ff 06 	mov    BYTE PTR [rbp-0xee6],0x6
    36c5:	c6 85 1b f1 ff ff e0 	mov    BYTE PTR [rbp-0xee5],0xe0
    36cc:	c6 85 1c f1 ff ff e0 	mov    BYTE PTR [rbp-0xee4],0xe0
    36d3:	c6 85 1d f1 ff ff 90 	mov    BYTE PTR [rbp-0xee3],0x90
    36da:	c6 85 1f f1 ff ff 2b 	mov    BYTE PTR [rbp-0xee1],0x2b
    36e1:	c6 85 20 f1 ff ff f0 	mov    BYTE PTR [rbp-0xee0],0xf0
    36e8:	c6 85 21 f1 ff ff 7f 	mov    BYTE PTR [rbp-0xedf],0x7f
    36ef:	c6 85 22 f1 ff ff 1a 	mov    BYTE PTR [rbp-0xede],0x1a
    36f6:	c6 85 23 f1 ff ff 02 	mov    BYTE PTR [rbp-0xedd],0x2
    36fd:	c6 85 24 f1 ff ff 0c 	mov    BYTE PTR [rbp-0xedc],0xc
    3704:	c6 85 25 f1 ff ff df 	mov    BYTE PTR [rbp-0xedb],0xdf
    370b:	c6 85 26 f1 ff ff 12 	mov    BYTE PTR [rbp-0xeda],0x12
    3712:	c6 85 27 f1 ff ff 1c 	mov    BYTE PTR [rbp-0xed9],0x1c
    3719:	c6 85 28 f1 ff ff 79 	mov    BYTE PTR [rbp-0xed8],0x79
    3720:	c6 85 29 f1 ff ff 90 	mov    BYTE PTR [rbp-0xed7],0x90
    3727:	c6 85 2b f1 ff ff 0f 	mov    BYTE PTR [rbp-0xed5],0xf
    372e:	c6 85 2c f1 ff ff e0 	mov    BYTE PTR [rbp-0xed4],0xe0
    3735:	c6 85 2d f1 ff ff 64 	mov    BYTE PTR [rbp-0xed3],0x64
    373c:	c6 85 2e f1 ff ff 01 	mov    BYTE PTR [rbp-0xed2],0x1
    3743:	c6 85 2f f1 ff ff 70 	mov    BYTE PTR [rbp-0xed1],0x70
    374a:	c6 85 30 f1 ff ff 04 	mov    BYTE PTR [rbp-0xed0],0x4
    3751:	c6 85 31 f1 ff ff ff 	mov    BYTE PTR [rbp-0xecf],0xff
    3758:	c6 85 32 f1 ff ff 02 	mov    BYTE PTR [rbp-0xece],0x2
    375f:	c6 85 33 f1 ff ff 0c 	mov    BYTE PTR [rbp-0xecd],0xc
    3766:	c6 85 34 f1 ff ff df 	mov    BYTE PTR [rbp-0xecc],0xdf
    376d:	c6 85 35 f1 ff ff 12 	mov    BYTE PTR [rbp-0xecb],0x12
    3774:	c6 85 36 f1 ff ff 0d 	mov    BYTE PTR [rbp-0xeca],0xd
    377b:	c6 85 37 f1 ff ff 21 	mov    BYTE PTR [rbp-0xec9],0x21
    3782:	c6 85 38 f1 ff ff 90 	mov    BYTE PTR [rbp-0xec8],0x90
    3789:	c6 85 3a f1 ff ff 12 	mov    BYTE PTR [rbp-0xec6],0x12
    3790:	c6 85 3b f1 ff ff 74 	mov    BYTE PTR [rbp-0xec5],0x74
    3797:	c6 85 3c f1 ff ff 32 	mov    BYTE PTR [rbp-0xec4],0x32
    379e:	c6 85 3d f1 ff ff 12 	mov    BYTE PTR [rbp-0xec3],0x12
    37a5:	c6 85 3e f1 ff ff 19 	mov    BYTE PTR [rbp-0xec2],0x19
    37ac:	c6 85 3f f1 ff ff 86 	mov    BYTE PTR [rbp-0xec1],0x86
    37b3:	c6 85 40 f1 ff ff 74 	mov    BYTE PTR [rbp-0xec0],0x74
    37ba:	c6 85 41 f1 ff ff 10 	mov    BYTE PTR [rbp-0xebf],0x10
    37c1:	c6 85 42 f1 ff ff f0 	mov    BYTE PTR [rbp-0xebe],0xf0
    37c8:	c6 85 43 f1 ff ff a3 	mov    BYTE PTR [rbp-0xebd],0xa3
    37cf:	c6 85 44 f1 ff ff 12 	mov    BYTE PTR [rbp-0xebc],0x12
    37d6:	c6 85 45 f1 ff ff 19 	mov    BYTE PTR [rbp-0xebb],0x19
    37dd:	c6 85 46 f1 ff ff 8d 	mov    BYTE PTR [rbp-0xeba],0x8d
    37e4:	c6 85 47 f1 ff ff 74 	mov    BYTE PTR [rbp-0xeb9],0x74
    37eb:	c6 85 48 f1 ff ff 0f 	mov    BYTE PTR [rbp-0xeb8],0xf
    37f2:	c6 85 49 f1 ff ff f0 	mov    BYTE PTR [rbp-0xeb7],0xf0
    37f9:	c6 85 4a f1 ff ff 90 	mov    BYTE PTR [rbp-0xeb6],0x90
    3800:	c6 85 4b f1 ff ff 04 	mov    BYTE PTR [rbp-0xeb5],0x4
    3807:	c6 85 4c f1 ff ff 63 	mov    BYTE PTR [rbp-0xeb4],0x63
    380e:	c6 85 4d f1 ff ff e0 	mov    BYTE PTR [rbp-0xeb3],0xe0
    3815:	c6 85 4e f1 ff ff 64 	mov    BYTE PTR [rbp-0xeb2],0x64
    381c:	c6 85 4f f1 ff ff 01 	mov    BYTE PTR [rbp-0xeb1],0x1
    3823:	c6 85 50 f1 ff ff 70 	mov    BYTE PTR [rbp-0xeb0],0x70
    382a:	c6 85 51 f1 ff ff 36 	mov    BYTE PTR [rbp-0xeaf],0x36
    3831:	c6 85 52 f1 ff ff 90 	mov    BYTE PTR [rbp-0xeae],0x90
    3838:	c6 85 54 f1 ff ff 18 	mov    BYTE PTR [rbp-0xeac],0x18
    383f:	c6 85 55 f1 ff ff 74 	mov    BYTE PTR [rbp-0xeab],0x74
    3846:	c6 85 56 f1 ff ff 43 	mov    BYTE PTR [rbp-0xeaa],0x43
    384d:	c6 85 57 f1 ff ff f0 	mov    BYTE PTR [rbp-0xea9],0xf0
    3854:	c6 85 58 f1 ff ff a3 	mov    BYTE PTR [rbp-0xea8],0xa3
    385b:	c6 85 59 f1 ff ff 74 	mov    BYTE PTR [rbp-0xea7],0x74
    3862:	c6 85 5a f1 ff ff 41 	mov    BYTE PTR [rbp-0xea6],0x41
    3869:	c6 85 5b f1 ff ff f0 	mov    BYTE PTR [rbp-0xea5],0xf0
    3870:	c6 85 5c f1 ff ff a3 	mov    BYTE PTR [rbp-0xea4],0xa3
    3877:	c6 85 5d f1 ff ff 74 	mov    BYTE PTR [rbp-0xea3],0x74
    387e:	c6 85 5e f1 ff ff 52 	mov    BYTE PTR [rbp-0xea2],0x52
    3885:	c6 85 5f f1 ff ff f0 	mov    BYTE PTR [rbp-0xea1],0xf0
    388c:	c6 85 60 f1 ff ff a3 	mov    BYTE PTR [rbp-0xea0],0xa3
    3893:	c6 85 61 f1 ff ff 74 	mov    BYTE PTR [rbp-0xe9f],0x74
    389a:	c6 85 62 f1 ff ff 44 	mov    BYTE PTR [rbp-0xe9e],0x44
    38a1:	c6 85 63 f1 ff ff 12 	mov    BYTE PTR [rbp-0xe9d],0x12
    38a8:	c6 85 64 f1 ff ff 19 	mov    BYTE PTR [rbp-0xe9c],0x19
    38af:	c6 85 65 f1 ff ff 53 	mov    BYTE PTR [rbp-0xe9b],0x53
    38b6:	c6 85 66 f1 ff ff 74 	mov    BYTE PTR [rbp-0xe9a],0x74
    38bd:	c6 85 67 f1 ff ff 42 	mov    BYTE PTR [rbp-0xe99],0x42
    38c4:	c6 85 68 f1 ff ff f0 	mov    BYTE PTR [rbp-0xe98],0xf0
    38cb:	c6 85 69 f1 ff ff a3 	mov    BYTE PTR [rbp-0xe97],0xa3
    38d2:	c6 85 6a f1 ff ff 74 	mov    BYTE PTR [rbp-0xe96],0x74
    38d9:	c6 85 6b f1 ff ff 4c 	mov    BYTE PTR [rbp-0xe95],0x4c
    38e0:	c6 85 6c f1 ff ff f0 	mov    BYTE PTR [rbp-0xe94],0xf0
    38e7:	c6 85 6d f1 ff ff a3 	mov    BYTE PTR [rbp-0xe93],0xa3
    38ee:	c6 85 6e f1 ff ff 74 	mov    BYTE PTR [rbp-0xe92],0x74
    38f5:	c6 85 6f f1 ff ff 4f 	mov    BYTE PTR [rbp-0xe91],0x4f
    38fc:	c6 85 70 f1 ff ff f0 	mov    BYTE PTR [rbp-0xe90],0xf0
    3903:	c6 85 71 f1 ff ff a3 	mov    BYTE PTR [rbp-0xe8f],0xa3
    390a:	c6 85 72 f1 ff ff 74 	mov    BYTE PTR [rbp-0xe8e],0x74
    3911:	c6 85 73 f1 ff ff 43 	mov    BYTE PTR [rbp-0xe8d],0x43
    3918:	c6 85 74 f1 ff ff f0 	mov    BYTE PTR [rbp-0xe8c],0xf0
    391f:	c6 85 75 f1 ff ff a3 	mov    BYTE PTR [rbp-0xe8b],0xa3
    3926:	c6 85 76 f1 ff ff 74 	mov    BYTE PTR [rbp-0xe8a],0x74
    392d:	c6 85 77 f1 ff ff 4b 	mov    BYTE PTR [rbp-0xe89],0x4b
    3934:	c6 85 78 f1 ff ff f0 	mov    BYTE PTR [rbp-0xe88],0xf0
    393b:	c6 85 79 f1 ff ff a3 	mov    BYTE PTR [rbp-0xe87],0xa3
    3942:	c6 85 7a f1 ff ff 74 	mov    BYTE PTR [rbp-0xe86],0x74
    3949:	c6 85 7b f1 ff ff 45 	mov    BYTE PTR [rbp-0xe85],0x45
    3950:	c6 85 7c f1 ff ff f0 	mov    BYTE PTR [rbp-0xe84],0xf0
    3957:	c6 85 7d f1 ff ff a3 	mov    BYTE PTR [rbp-0xe83],0xa3
    395e:	c6 85 7e f1 ff ff 14 	mov    BYTE PTR [rbp-0xe82],0x14
    3965:	c6 85 7f f1 ff ff 12 	mov    BYTE PTR [rbp-0xe81],0x12
    396c:	c6 85 80 f1 ff ff 19 	mov    BYTE PTR [rbp-0xe80],0x19
    3973:	c6 85 81 f1 ff ff 53 	mov    BYTE PTR [rbp-0xe7f],0x53
    397a:	c6 85 82 f1 ff ff f0 	mov    BYTE PTR [rbp-0xe7e],0xf0
    3981:	c6 85 83 f1 ff ff a3 	mov    BYTE PTR [rbp-0xe7d],0xa3
    3988:	c6 85 84 f1 ff ff f0 	mov    BYTE PTR [rbp-0xe7c],0xf0
    398f:	c6 85 85 f1 ff ff 02 	mov    BYTE PTR [rbp-0xe7b],0x2
    3996:	c6 85 86 f1 ff ff 07 	mov    BYTE PTR [rbp-0xe7a],0x7
    399d:	c6 85 87 f1 ff ff 7c 	mov    BYTE PTR [rbp-0xe79],0x7c
    39a4:	c6 85 88 f1 ff ff 90 	mov    BYTE PTR [rbp-0xe78],0x90
    39ab:	c6 85 89 f1 ff ff 06 	mov    BYTE PTR [rbp-0xe77],0x6
    39b2:	c6 85 8a f1 ff ff e1 	mov    BYTE PTR [rbp-0xe76],0xe1
    39b9:	c6 85 8b f1 ff ff e0 	mov    BYTE PTR [rbp-0xe75],0xe0
    39c0:	c6 85 8c f1 ff ff 90 	mov    BYTE PTR [rbp-0xe74],0x90
    39c7:	c6 85 8e f1 ff ff 18 	mov    BYTE PTR [rbp-0xe72],0x18
    39ce:	48 8d 95 80 ef ff ff 	lea    rdx,[rbp-0x1080]
    39d5:	b8 00 00 00 00       	mov    eax,0x0
    39da:	b9 21 00 00 00       	mov    ecx,0x21
    39df:	48 89 d7             	mov    rdi,rdx
    39e2:	f3 48 ab             	rep stos QWORD PTR es:[rdi],rax
    39e5:	48 89 fa             	mov    rdx,rdi
    39e8:	89 02                	mov    DWORD PTR [rdx],eax
    39ea:	48 83 c2 04          	add    rdx,0x4
    39ee:	66 89 02             	mov    WORD PTR [rdx],ax
    39f1:	48 83 c2 02          	add    rdx,0x2
    39f5:	c6 85 81 ef ff ff 58 	mov    BYTE PTR [rbp-0x107f],0x58
    39fc:	c6 85 82 ef ff ff 86 	mov    BYTE PTR [rbp-0x107e],0x86
    3a03:	c6 85 83 ef ff ff fb 	mov    BYTE PTR [rbp-0x107d],0xfb
    3a0a:	c6 85 84 ef ff ff ff 	mov    BYTE PTR [rbp-0x107c],0xff
    3a11:	48 8d 95 70 ee ff ff 	lea    rdx,[rbp-0x1190]
    3a18:	b8 00 00 00 00       	mov    eax,0x0
    3a1d:	b9 21 00 00 00       	mov    ecx,0x21
    3a22:	48 89 d7             	mov    rdi,rdx
    3a25:	f3 48 ab             	rep stos QWORD PTR es:[rdi],rax
    3a28:	48 89 fa             	mov    rdx,rdi
    3a2b:	89 02                	mov    DWORD PTR [rdx],eax
    3a2d:	48 83 c2 04          	add    rdx,0x4
    3a31:	66 89 02             	mov    WORD PTR [rdx],ax
    3a34:	48 83 c2 02          	add    rdx,0x2
    3a38:	c6 85 70 ee ff ff f0 	mov    BYTE PTR [rbp-0x1190],0xf0
    3a3f:	c6 85 71 ee ff ff 90 	mov    BYTE PTR [rbp-0x118f],0x90
    3a46:	c6 85 72 ee ff ff 06 	mov    BYTE PTR [rbp-0x118e],0x6
    3a4d:	c6 85 73 ee ff ff e2 	mov    BYTE PTR [rbp-0x118d],0xe2
    3a54:	c6 85 74 ee ff ff e0 	mov    BYTE PTR [rbp-0x118c],0xe0
    3a5b:	c6 85 75 ee ff ff 90 	mov    BYTE PTR [rbp-0x118b],0x90
    3a62:	c6 85 77 ee ff ff 19 	mov    BYTE PTR [rbp-0x1189],0x19
    3a69:	c6 85 78 ee ff ff f0 	mov    BYTE PTR [rbp-0x1188],0xf0
    3a70:	c6 85 79 ee ff ff 90 	mov    BYTE PTR [rbp-0x1187],0x90
    3a77:	c6 85 7a ee ff ff 06 	mov    BYTE PTR [rbp-0x1186],0x6
    3a7e:	c6 85 7b ee ff ff e3 	mov    BYTE PTR [rbp-0x1185],0xe3
    3a85:	c6 85 7c ee ff ff e0 	mov    BYTE PTR [rbp-0x1184],0xe0
    3a8c:	c6 85 7d ee ff ff 90 	mov    BYTE PTR [rbp-0x1183],0x90
    3a93:	c6 85 7f ee ff ff 1a 	mov    BYTE PTR [rbp-0x1181],0x1a
    3a9a:	c6 85 80 ee ff ff f0 	mov    BYTE PTR [rbp-0x1180],0xf0
    3aa1:	c6 85 81 ee ff ff 90 	mov    BYTE PTR [rbp-0x117f],0x90
    3aa8:	c6 85 82 ee ff ff 06 	mov    BYTE PTR [rbp-0x117e],0x6
    3aaf:	c6 85 83 ee ff ff e4 	mov    BYTE PTR [rbp-0x117d],0xe4
    3ab6:	c6 85 84 ee ff ff e0 	mov    BYTE PTR [rbp-0x117c],0xe0
    3abd:	c6 85 85 ee ff ff 90 	mov    BYTE PTR [rbp-0x117b],0x90
    3ac4:	c6 85 87 ee ff ff 1b 	mov    BYTE PTR [rbp-0x1179],0x1b
    3acb:	c6 85 88 ee ff ff f0 	mov    BYTE PTR [rbp-0x1178],0xf0
    3ad2:	c6 85 89 ee ff ff 90 	mov    BYTE PTR [rbp-0x1177],0x90
    3ad9:	c6 85 8a ee ff ff 06 	mov    BYTE PTR [rbp-0x1176],0x6
    3ae0:	c6 85 8b ee ff ff e5 	mov    BYTE PTR [rbp-0x1175],0xe5
    3ae7:	c6 85 8c ee ff ff e0 	mov    BYTE PTR [rbp-0x1174],0xe0
    3aee:	c6 85 8d ee ff ff 90 	mov    BYTE PTR [rbp-0x1173],0x90
    3af5:	c6 85 8f ee ff ff 1c 	mov    BYTE PTR [rbp-0x1171],0x1c
    3afc:	c6 85 90 ee ff ff f0 	mov    BYTE PTR [rbp-0x1170],0xf0
    3b03:	c6 85 91 ee ff ff 90 	mov    BYTE PTR [rbp-0x116f],0x90
    3b0a:	c6 85 92 ee ff ff 06 	mov    BYTE PTR [rbp-0x116e],0x6
    3b11:	c6 85 93 ee ff ff e6 	mov    BYTE PTR [rbp-0x116d],0xe6
    3b18:	c6 85 94 ee ff ff e0 	mov    BYTE PTR [rbp-0x116c],0xe0
    3b1f:	c6 85 95 ee ff ff 90 	mov    BYTE PTR [rbp-0x116b],0x90
    3b26:	c6 85 97 ee ff ff 1d 	mov    BYTE PTR [rbp-0x1169],0x1d
    3b2d:	c6 85 98 ee ff ff f0 	mov    BYTE PTR [rbp-0x1168],0xf0
    3b34:	c6 85 99 ee ff ff 90 	mov    BYTE PTR [rbp-0x1167],0x90
    3b3b:	c6 85 9a ee ff ff 06 	mov    BYTE PTR [rbp-0x1166],0x6
    3b42:	c6 85 9b ee ff ff e7 	mov    BYTE PTR [rbp-0x1165],0xe7
    3b49:	c6 85 9c ee ff ff e0 	mov    BYTE PTR [rbp-0x1164],0xe0
    3b50:	c6 85 9d ee ff ff 90 	mov    BYTE PTR [rbp-0x1163],0x90
    3b57:	c6 85 9f ee ff ff 1e 	mov    BYTE PTR [rbp-0x1161],0x1e
    3b5e:	c6 85 a0 ee ff ff f0 	mov    BYTE PTR [rbp-0x1160],0xf0
    3b65:	c6 85 a1 ee ff ff 90 	mov    BYTE PTR [rbp-0x115f],0x90
    3b6c:	c6 85 a2 ee ff ff 06 	mov    BYTE PTR [rbp-0x115e],0x6
    3b73:	c6 85 a3 ee ff ff e8 	mov    BYTE PTR [rbp-0x115d],0xe8
    3b7a:	c6 85 a4 ee ff ff e0 	mov    BYTE PTR [rbp-0x115c],0xe0
    3b81:	c6 85 a5 ee ff ff 90 	mov    BYTE PTR [rbp-0x115b],0x90
    3b88:	c6 85 a7 ee ff ff 1f 	mov    BYTE PTR [rbp-0x1159],0x1f
    3b8f:	c6 85 a8 ee ff ff f0 	mov    BYTE PTR [rbp-0x1158],0xf0
    3b96:	c6 85 a9 ee ff ff 90 	mov    BYTE PTR [rbp-0x1157],0x90
    3b9d:	c6 85 aa ee ff ff 06 	mov    BYTE PTR [rbp-0x1156],0x6
    3ba4:	c6 85 ab ee ff ff e9 	mov    BYTE PTR [rbp-0x1155],0xe9
    3bab:	c6 85 ac ee ff ff e0 	mov    BYTE PTR [rbp-0x1154],0xe0
    3bb2:	c6 85 ad ee ff ff 90 	mov    BYTE PTR [rbp-0x1153],0x90
    3bb9:	c6 85 af ee ff ff 20 	mov    BYTE PTR [rbp-0x1151],0x20
    3bc0:	c6 85 b0 ee ff ff f0 	mov    BYTE PTR [rbp-0x1150],0xf0
    3bc7:	c6 85 b1 ee ff ff 90 	mov    BYTE PTR [rbp-0x114f],0x90
    3bce:	c6 85 b2 ee ff ff 06 	mov    BYTE PTR [rbp-0x114e],0x6
    3bd5:	c6 85 b3 ee ff ff ea 	mov    BYTE PTR [rbp-0x114d],0xea
    3bdc:	c6 85 b4 ee ff ff e0 	mov    BYTE PTR [rbp-0x114c],0xe0
    3be3:	c6 85 b5 ee ff ff 90 	mov    BYTE PTR [rbp-0x114b],0x90
    3bea:	c6 85 b7 ee ff ff 21 	mov    BYTE PTR [rbp-0x1149],0x21
    3bf1:	c6 85 b8 ee ff ff f0 	mov    BYTE PTR [rbp-0x1148],0xf0
    3bf8:	c6 85 b9 ee ff ff 90 	mov    BYTE PTR [rbp-0x1147],0x90
    3bff:	c6 85 ba ee ff ff 06 	mov    BYTE PTR [rbp-0x1146],0x6
    3c06:	c6 85 bb ee ff ff eb 	mov    BYTE PTR [rbp-0x1145],0xeb
    3c0d:	c6 85 bc ee ff ff e0 	mov    BYTE PTR [rbp-0x1144],0xe0
    3c14:	c6 85 bd ee ff ff 90 	mov    BYTE PTR [rbp-0x1143],0x90
    3c1b:	c6 85 bf ee ff ff 22 	mov    BYTE PTR [rbp-0x1141],0x22
    3c22:	c6 85 c0 ee ff ff f0 	mov    BYTE PTR [rbp-0x1140],0xf0
    3c29:	c6 85 c1 ee ff ff 90 	mov    BYTE PTR [rbp-0x113f],0x90
    3c30:	c6 85 c2 ee ff ff 06 	mov    BYTE PTR [rbp-0x113e],0x6
    3c37:	c6 85 c3 ee ff ff ec 	mov    BYTE PTR [rbp-0x113d],0xec
    3c3e:	c6 85 c4 ee ff ff e0 	mov    BYTE PTR [rbp-0x113c],0xe0
    3c45:	c6 85 c5 ee ff ff 90 	mov    BYTE PTR [rbp-0x113b],0x90
    3c4c:	c6 85 c7 ee ff ff 23 	mov    BYTE PTR [rbp-0x1139],0x23
    3c53:	c6 85 c8 ee ff ff f0 	mov    BYTE PTR [rbp-0x1138],0xf0
    3c5a:	c6 85 c9 ee ff ff 90 	mov    BYTE PTR [rbp-0x1137],0x90
    3c61:	c6 85 ca ee ff ff 06 	mov    BYTE PTR [rbp-0x1136],0x6
    3c68:	c6 85 cb ee ff ff ed 	mov    BYTE PTR [rbp-0x1135],0xed
    3c6f:	c6 85 cc ee ff ff e0 	mov    BYTE PTR [rbp-0x1134],0xe0
    3c76:	c6 85 cd ee ff ff 90 	mov    BYTE PTR [rbp-0x1133],0x90
    3c7d:	c6 85 cf ee ff ff 24 	mov    BYTE PTR [rbp-0x1131],0x24
    3c84:	c6 85 d0 ee ff ff f0 	mov    BYTE PTR [rbp-0x1130],0xf0
    3c8b:	c6 85 d1 ee ff ff 90 	mov    BYTE PTR [rbp-0x112f],0x90
    3c92:	c6 85 d2 ee ff ff 06 	mov    BYTE PTR [rbp-0x112e],0x6
    3c99:	c6 85 d3 ee ff ff ee 	mov    BYTE PTR [rbp-0x112d],0xee
    3ca0:	c6 85 d4 ee ff ff e0 	mov    BYTE PTR [rbp-0x112c],0xe0
    3ca7:	c6 85 d5 ee ff ff 90 	mov    BYTE PTR [rbp-0x112b],0x90
    3cae:	c6 85 d7 ee ff ff 25 	mov    BYTE PTR [rbp-0x1129],0x25
    3cb5:	c6 85 d8 ee ff ff f0 	mov    BYTE PTR [rbp-0x1128],0xf0
    3cbc:	c6 85 d9 ee ff ff 90 	mov    BYTE PTR [rbp-0x1127],0x90
    3cc3:	c6 85 da ee ff ff 04 	mov    BYTE PTR [rbp-0x1126],0x4
    3cca:	c6 85 db ee ff ff 58 	mov    BYTE PTR [rbp-0x1125],0x58
    3cd1:	c6 85 dc ee ff ff e0 	mov    BYTE PTR [rbp-0x1124],0xe0
    3cd8:	c6 85 dd ee ff ff 64 	mov    BYTE PTR [rbp-0x1123],0x64
    3cdf:	c6 85 de ee ff ff 01 	mov    BYTE PTR [rbp-0x1122],0x1
    3ce6:	c6 85 df ee ff ff 70 	mov    BYTE PTR [rbp-0x1121],0x70
    3ced:	c6 85 e0 ee ff ff 08 	mov    BYTE PTR [rbp-0x1120],0x8
    3cf4:	c6 85 e1 ee ff ff 90 	mov    BYTE PTR [rbp-0x111f],0x90
    3cfb:	c6 85 e3 ee ff ff 26 	mov    BYTE PTR [rbp-0x111d],0x26
    3d02:	c6 85 e4 ee ff ff 74 	mov    BYTE PTR [rbp-0x111c],0x74
    3d09:	c6 85 e5 ee ff ff 2b 	mov    BYTE PTR [rbp-0x111b],0x2b
    3d10:	c6 85 e6 ee ff ff f0 	mov    BYTE PTR [rbp-0x111a],0xf0
    3d17:	c6 85 e7 ee ff ff 80 	mov    BYTE PTR [rbp-0x1119],0x80
    3d1e:	c6 85 e8 ee ff ff 08 	mov    BYTE PTR [rbp-0x1118],0x8
    3d25:	c6 85 e9 ee ff ff 90 	mov    BYTE PTR [rbp-0x1117],0x90
    3d2c:	c6 85 ea ee ff ff 06 	mov    BYTE PTR [rbp-0x1116],0x6
    3d33:	c6 85 eb ee ff ff ef 	mov    BYTE PTR [rbp-0x1115],0xef
    3d3a:	c6 85 ec ee ff ff e0 	mov    BYTE PTR [rbp-0x1114],0xe0
    3d41:	c6 85 ed ee ff ff 90 	mov    BYTE PTR [rbp-0x1113],0x90
    3d48:	c6 85 ef ee ff ff 26 	mov    BYTE PTR [rbp-0x1111],0x26
    3d4f:	c6 85 f0 ee ff ff f0 	mov    BYTE PTR [rbp-0x1110],0xf0
    3d56:	c6 85 f1 ee ff ff 90 	mov    BYTE PTR [rbp-0x110f],0x90
    3d5d:	c6 85 f3 ee ff ff 27 	mov    BYTE PTR [rbp-0x110d],0x27
    3d64:	c6 85 f4 ee ff ff 12 	mov    BYTE PTR [rbp-0x110c],0x12
    3d6b:	c6 85 f5 ee ff ff 18 	mov    BYTE PTR [rbp-0x110b],0x18
    3d72:	c6 85 f6 ee ff ff f1 	mov    BYTE PTR [rbp-0x110a],0xf1
    3d79:	c6 85 f7 ee ff ff 90 	mov    BYTE PTR [rbp-0x1109],0x90
    3d80:	c6 85 f8 ee ff ff 04 	mov    BYTE PTR [rbp-0x1108],0x4
    3d87:	c6 85 f9 ee ff ff 54 	mov    BYTE PTR [rbp-0x1107],0x54
    3d8e:	c6 85 fa ee ff ff e0 	mov    BYTE PTR [rbp-0x1106],0xe0
    3d95:	c6 85 fb ee ff ff 90 	mov    BYTE PTR [rbp-0x1105],0x90
    3d9c:	c6 85 fd ee ff ff 29 	mov    BYTE PTR [rbp-0x1103],0x29
    3da3:	c6 85 fe ee ff ff f0 	mov    BYTE PTR [rbp-0x1102],0xf0
    3daa:	c6 85 ff ee ff ff 90 	mov    BYTE PTR [rbp-0x1101],0x90
    3db1:	c6 85 00 ef ff ff 04 	mov    BYTE PTR [rbp-0x1100],0x4
    3db8:	c6 85 01 ef ff ff 55 	mov    BYTE PTR [rbp-0x10ff],0x55
    3dbf:	c6 85 02 ef ff ff e0 	mov    BYTE PTR [rbp-0x10fe],0xe0
    3dc6:	c6 85 03 ef ff ff 90 	mov    BYTE PTR [rbp-0x10fd],0x90
    3dcd:	c6 85 05 ef ff ff 2a 	mov    BYTE PTR [rbp-0x10fb],0x2a
    3dd4:	c6 85 06 ef ff ff 12 	mov    BYTE PTR [rbp-0x10fa],0x12
    3ddb:	c6 85 07 ef ff ff 18 	mov    BYTE PTR [rbp-0x10f9],0x18
    3de2:	c6 85 08 ef ff ff ef 	mov    BYTE PTR [rbp-0x10f8],0xef
    3de9:	c6 85 09 ef ff ff 90 	mov    BYTE PTR [rbp-0x10f7],0x90
    3df0:	c6 85 0a ef ff ff 04 	mov    BYTE PTR [rbp-0x10f6],0x4
    3df7:	c6 85 0b ef ff ff 56 	mov    BYTE PTR [rbp-0x10f5],0x56
    3dfe:	c6 85 0c ef ff ff e0 	mov    BYTE PTR [rbp-0x10f4],0xe0
    3e05:	c6 85 0d ef ff ff 90 	mov    BYTE PTR [rbp-0x10f3],0x90
    3e0c:	c6 85 0f ef ff ff 2d 	mov    BYTE PTR [rbp-0x10f1],0x2d
    3e13:	c6 85 10 ef ff ff f0 	mov    BYTE PTR [rbp-0x10f0],0xf0
    3e1a:	c6 85 11 ef ff ff 90 	mov    BYTE PTR [rbp-0x10ef],0x90
    3e21:	c6 85 12 ef ff ff 04 	mov    BYTE PTR [rbp-0x10ee],0x4
    3e28:	c6 85 13 ef ff ff 57 	mov    BYTE PTR [rbp-0x10ed],0x57
    3e2f:	c6 85 14 ef ff ff e0 	mov    BYTE PTR [rbp-0x10ec],0xe0
    3e36:	c6 85 15 ef ff ff 90 	mov    BYTE PTR [rbp-0x10eb],0x90
    3e3d:	c6 85 17 ef ff ff 2e 	mov    BYTE PTR [rbp-0x10e9],0x2e
    3e44:	c6 85 18 ef ff ff 12 	mov    BYTE PTR [rbp-0x10e8],0x12
    3e4b:	c6 85 19 ef ff ff 19 	mov    BYTE PTR [rbp-0x10e7],0x19
    3e52:	c6 85 1a ef ff ff 53 	mov    BYTE PTR [rbp-0x10e6],0x53
    3e59:	c6 85 1b ef ff ff 74 	mov    BYTE PTR [rbp-0x10e5],0x74
    3e60:	c6 85 1c ef ff ff 04 	mov    BYTE PTR [rbp-0x10e4],0x4
    3e67:	c6 85 1d ef ff ff f0 	mov    BYTE PTR [rbp-0x10e3],0xf0
    3e6e:	c6 85 1e ef ff ff 90 	mov    BYTE PTR [rbp-0x10e2],0x90
    3e75:	c6 85 1f ef ff ff 04 	mov    BYTE PTR [rbp-0x10e1],0x4
    3e7c:	c6 85 20 ef ff ff 50 	mov    BYTE PTR [rbp-0x10e0],0x50
    3e83:	c6 85 21 ef ff ff e0 	mov    BYTE PTR [rbp-0x10df],0xe0
    3e8a:	c6 85 22 ef ff ff 90 	mov    BYTE PTR [rbp-0x10de],0x90
    3e91:	c6 85 24 ef ff ff 31 	mov    BYTE PTR [rbp-0x10dc],0x31
    3e98:	c6 85 25 ef ff ff f0 	mov    BYTE PTR [rbp-0x10db],0xf0
    3e9f:	c6 85 26 ef ff ff 90 	mov    BYTE PTR [rbp-0x10da],0x90
    3ea6:	c6 85 27 ef ff ff 04 	mov    BYTE PTR [rbp-0x10d9],0x4
    3ead:	c6 85 28 ef ff ff 51 	mov    BYTE PTR [rbp-0x10d8],0x51
    3eb4:	c6 85 29 ef ff ff e0 	mov    BYTE PTR [rbp-0x10d7],0xe0
    3ebb:	c6 85 2a ef ff ff 90 	mov    BYTE PTR [rbp-0x10d6],0x90
    3ec2:	c6 85 2c ef ff ff 32 	mov    BYTE PTR [rbp-0x10d4],0x32
    3ec9:	c6 85 2d ef ff ff f0 	mov    BYTE PTR [rbp-0x10d3],0xf0
    3ed0:	c6 85 2e ef ff ff 90 	mov    BYTE PTR [rbp-0x10d2],0x90
    3ed7:	c6 85 2f ef ff ff 04 	mov    BYTE PTR [rbp-0x10d1],0x4
    3ede:	c6 85 30 ef ff ff 52 	mov    BYTE PTR [rbp-0x10d0],0x52
    3ee5:	c6 85 31 ef ff ff e0 	mov    BYTE PTR [rbp-0x10cf],0xe0
    3eec:	c6 85 32 ef ff ff 90 	mov    BYTE PTR [rbp-0x10ce],0x90
    3ef3:	c6 85 34 ef ff ff 33 	mov    BYTE PTR [rbp-0x10cc],0x33
    3efa:	c6 85 35 ef ff ff f0 	mov    BYTE PTR [rbp-0x10cb],0xf0
    3f01:	c6 85 36 ef ff ff 90 	mov    BYTE PTR [rbp-0x10ca],0x90
    3f08:	c6 85 37 ef ff ff 04 	mov    BYTE PTR [rbp-0x10c9],0x4
    3f0f:	c6 85 38 ef ff ff 53 	mov    BYTE PTR [rbp-0x10c8],0x53
    3f16:	c6 85 39 ef ff ff e0 	mov    BYTE PTR [rbp-0x10c7],0xe0
    3f1d:	c6 85 3a ef ff ff 90 	mov    BYTE PTR [rbp-0x10c6],0x90
    3f24:	c6 85 3c ef ff ff 34 	mov    BYTE PTR [rbp-0x10c4],0x34
    3f2b:	c6 85 3d ef ff ff 12 	mov    BYTE PTR [rbp-0x10c3],0x12
    3f32:	c6 85 3e ef ff ff 18 	mov    BYTE PTR [rbp-0x10c2],0x18
    3f39:	c6 85 3f ef ff ff ef 	mov    BYTE PTR [rbp-0x10c1],0xef
    3f40:	c6 85 40 ef ff ff 90 	mov    BYTE PTR [rbp-0x10c0],0x90
    3f47:	c6 85 41 ef ff ff 04 	mov    BYTE PTR [rbp-0x10bf],0x4
    3f4e:	c6 85 42 ef ff ff 54 	mov    BYTE PTR [rbp-0x10be],0x54
    3f55:	c6 85 43 ef ff ff e0 	mov    BYTE PTR [rbp-0x10bd],0xe0
    3f5c:	c6 85 44 ef ff ff 90 	mov    BYTE PTR [rbp-0x10bc],0x90
    3f63:	c6 85 46 ef ff ff 37 	mov    BYTE PTR [rbp-0x10ba],0x37
    3f6a:	c6 85 47 ef ff ff f0 	mov    BYTE PTR [rbp-0x10b9],0xf0
    3f71:	c6 85 48 ef ff ff 90 	mov    BYTE PTR [rbp-0x10b8],0x90
    3f78:	c6 85 49 ef ff ff 04 	mov    BYTE PTR [rbp-0x10b7],0x4
    3f7f:	c6 85 4a ef ff ff 55 	mov    BYTE PTR [rbp-0x10b6],0x55
    3f86:	c6 85 4b ef ff ff e0 	mov    BYTE PTR [rbp-0x10b5],0xe0
    3f8d:	c6 85 4c ef ff ff 90 	mov    BYTE PTR [rbp-0x10b4],0x90
    3f94:	c6 85 4e ef ff ff 38 	mov    BYTE PTR [rbp-0x10b2],0x38
    3f9b:	c6 85 4f ef ff ff 12 	mov    BYTE PTR [rbp-0x10b1],0x12
    3fa2:	c6 85 50 ef ff ff 18 	mov    BYTE PTR [rbp-0x10b0],0x18
    3fa9:	c6 85 51 ef ff ff ef 	mov    BYTE PTR [rbp-0x10af],0xef
    3fb0:	c6 85 52 ef ff ff 90 	mov    BYTE PTR [rbp-0x10ae],0x90
    3fb7:	c6 85 53 ef ff ff 04 	mov    BYTE PTR [rbp-0x10ad],0x4
    3fbe:	c6 85 54 ef ff ff 56 	mov    BYTE PTR [rbp-0x10ac],0x56
    3fc5:	c6 85 55 ef ff ff e0 	mov    BYTE PTR [rbp-0x10ab],0xe0
    3fcc:	c6 85 56 ef ff ff 90 	mov    BYTE PTR [rbp-0x10aa],0x90
    3fd3:	c6 85 58 ef ff ff 3b 	mov    BYTE PTR [rbp-0x10a8],0x3b
    3fda:	c6 85 59 ef ff ff f0 	mov    BYTE PTR [rbp-0x10a7],0xf0
    3fe1:	c6 85 5a ef ff ff 90 	mov    BYTE PTR [rbp-0x10a6],0x90
    3fe8:	c6 85 5b ef ff ff 04 	mov    BYTE PTR [rbp-0x10a5],0x4
    3fef:	c6 85 5c ef ff ff 57 	mov    BYTE PTR [rbp-0x10a4],0x57
    3ff6:	c6 85 5d ef ff ff e0 	mov    BYTE PTR [rbp-0x10a3],0xe0
    3ffd:	c6 85 5e ef ff ff 90 	mov    BYTE PTR [rbp-0x10a2],0x90
    4004:	c6 85 60 ef ff ff 3c 	mov    BYTE PTR [rbp-0x10a0],0x3c
    400b:	c6 85 61 ef ff ff 12 	mov    BYTE PTR [rbp-0x109f],0x12
    4012:	c6 85 62 ef ff ff 19 	mov    BYTE PTR [rbp-0x109e],0x19
    4019:	c6 85 63 ef ff ff 53 	mov    BYTE PTR [rbp-0x109d],0x53
    4020:	c6 85 64 ef ff ff 74 	mov    BYTE PTR [rbp-0x109c],0x74
    4027:	c6 85 65 ef ff ff 04 	mov    BYTE PTR [rbp-0x109b],0x4
    402e:	c6 85 66 ef ff ff f0 	mov    BYTE PTR [rbp-0x109a],0xf0
    4035:	c6 85 67 ef ff ff 90 	mov    BYTE PTR [rbp-0x1099],0x90
    403c:	c6 85 68 ef ff ff 04 	mov    BYTE PTR [rbp-0x1098],0x4
    4043:	c6 85 69 ef ff ff 5b 	mov    BYTE PTR [rbp-0x1097],0x5b
    404a:	c6 85 6a ef ff ff e0 	mov    BYTE PTR [rbp-0x1096],0xe0
    4051:	c6 85 6b ef ff ff 90 	mov    BYTE PTR [rbp-0x1095],0x90
    4058:	c6 85 6d ef ff ff 3f 	mov    BYTE PTR [rbp-0x1093],0x3f
    405f:	c6 85 6e ef ff ff f0 	mov    BYTE PTR [rbp-0x1092],0xf0
    4066:	48 8d 95 60 ed ff ff 	lea    rdx,[rbp-0x12a0]
    406d:	b8 00 00 00 00       	mov    eax,0x0
    4072:	b9 21 00 00 00       	mov    ecx,0x21
    4077:	48 89 d7             	mov    rdi,rdx
    407a:	f3 48 ab             	rep stos QWORD PTR es:[rdi],rax
    407d:	48 89 fa             	mov    rdx,rdi
    4080:	89 02                	mov    DWORD PTR [rdx],eax
    4082:	48 83 c2 04          	add    rdx,0x4
    4086:	66 89 02             	mov    WORD PTR [rdx],ax
    4089:	48 83 c2 02          	add    rdx,0x2
    408d:	c6 85 61 ed ff ff 58 	mov    BYTE PTR [rbp-0x129f],0x58
    4094:	c6 85 62 ed ff ff 87 	mov    BYTE PTR [rbp-0x129e],0x87
    409b:	c6 85 63 ed ff ff fa 	mov    BYTE PTR [rbp-0x129d],0xfa
    40a2:	c6 85 64 ed ff ff ff 	mov    BYTE PTR [rbp-0x129c],0xff
    40a9:	48 8d 95 50 ec ff ff 	lea    rdx,[rbp-0x13b0]
    40b0:	b8 00 00 00 00       	mov    eax,0x0
    40b5:	b9 21 00 00 00       	mov    ecx,0x21
    40ba:	48 89 d7             	mov    rdi,rdx
    40bd:	f3 48 ab             	rep stos QWORD PTR es:[rdi],rax
    40c0:	48 89 fa             	mov    rdx,rdi
    40c3:	89 02                	mov    DWORD PTR [rdx],eax
    40c5:	48 83 c2 04          	add    rdx,0x4
    40c9:	66 89 02             	mov    WORD PTR [rdx],ax
    40cc:	48 83 c2 02          	add    rdx,0x2
    40d0:	c6 85 50 ec ff ff 90 	mov    BYTE PTR [rbp-0x13b0],0x90
    40d7:	c6 85 51 ec ff ff 04 	mov    BYTE PTR [rbp-0x13af],0x4
    40de:	c6 85 52 ec ff ff 5f 	mov    BYTE PTR [rbp-0x13ae],0x5f
    40e5:	c6 85 53 ec ff ff e0 	mov    BYTE PTR [rbp-0x13ad],0xe0
    40ec:	c6 85 54 ec ff ff 90 	mov    BYTE PTR [rbp-0x13ac],0x90
    40f3:	c6 85 56 ec ff ff 40 	mov    BYTE PTR [rbp-0x13aa],0x40
    40fa:	c6 85 57 ec ff ff f0 	mov    BYTE PTR [rbp-0x13a9],0xf0
    4101:	c6 85 58 ec ff ff 90 	mov    BYTE PTR [rbp-0x13a8],0x90
    4108:	c6 85 59 ec ff ff 04 	mov    BYTE PTR [rbp-0x13a7],0x4
    410f:	c6 85 5a ec ff ff 60 	mov    BYTE PTR [rbp-0x13a6],0x60
    4116:	c6 85 5b ec ff ff e0 	mov    BYTE PTR [rbp-0x13a5],0xe0
    411d:	c6 85 5c ec ff ff 90 	mov    BYTE PTR [rbp-0x13a4],0x90
    4124:	c6 85 5e ec ff ff 41 	mov    BYTE PTR [rbp-0x13a2],0x41
    412b:	c6 85 5f ec ff ff f0 	mov    BYTE PTR [rbp-0x13a1],0xf0
    4132:	c6 85 60 ec ff ff 90 	mov    BYTE PTR [rbp-0x13a0],0x90
    4139:	c6 85 61 ec ff ff 04 	mov    BYTE PTR [rbp-0x139f],0x4
    4140:	c6 85 62 ec ff ff 5c 	mov    BYTE PTR [rbp-0x139e],0x5c
    4147:	c6 85 63 ec ff ff e0 	mov    BYTE PTR [rbp-0x139d],0xe0
    414e:	c6 85 64 ec ff ff 90 	mov    BYTE PTR [rbp-0x139c],0x90
    4155:	c6 85 66 ec ff ff 42 	mov    BYTE PTR [rbp-0x139a],0x42
    415c:	c6 85 67 ec ff ff f0 	mov    BYTE PTR [rbp-0x1399],0xf0
    4163:	c6 85 68 ec ff ff 7f 	mov    BYTE PTR [rbp-0x1398],0x7f
    416a:	c6 85 69 ec ff ff 31 	mov    BYTE PTR [rbp-0x1397],0x31
    4171:	c6 85 6a ec ff ff 02 	mov    BYTE PTR [rbp-0x1396],0x2
    4178:	c6 85 6b ec ff ff 0c 	mov    BYTE PTR [rbp-0x1395],0xc
    417f:	c6 85 6c ec ff ff df 	mov    BYTE PTR [rbp-0x1394],0xdf
    4186:	c6 85 6d ec ff ff 12 	mov    BYTE PTR [rbp-0x1393],0x12
    418d:	c6 85 6e ec ff ff 1d 	mov    BYTE PTR [rbp-0x1392],0x1d
    4194:	c6 85 6f ec ff ff df 	mov    BYTE PTR [rbp-0x1391],0xdf
    419b:	c6 85 70 ec ff ff 90 	mov    BYTE PTR [rbp-0x1390],0x90
    41a2:	c6 85 72 ec ff ff 10 	mov    BYTE PTR [rbp-0x138e],0x10
    41a9:	c6 85 73 ec ff ff 12 	mov    BYTE PTR [rbp-0x138d],0x12
    41b0:	c6 85 74 ec ff ff 0c 	mov    BYTE PTR [rbp-0x138c],0xc
    41b7:	c6 85 75 ec ff ff f0 	mov    BYTE PTR [rbp-0x138b],0xf0
    41be:	c6 85 76 ec ff ff 12 	mov    BYTE PTR [rbp-0x138a],0x12
    41c5:	c6 85 77 ec ff ff 1d 	mov    BYTE PTR [rbp-0x1389],0x1d
    41cc:	c6 85 78 ec ff ff df 	mov    BYTE PTR [rbp-0x1388],0xdf
    41d3:	c6 85 79 ec ff ff 12 	mov    BYTE PTR [rbp-0x1387],0x12
    41da:	c6 85 7a ec ff ff 1d 	mov    BYTE PTR [rbp-0x1386],0x1d
    41e1:	c6 85 7b ec ff ff df 	mov    BYTE PTR [rbp-0x1385],0xdf
    41e8:	c6 85 7c ec ff ff e4 	mov    BYTE PTR [rbp-0x1384],0xe4
    41ef:	c6 85 7d ec ff ff 90 	mov    BYTE PTR [rbp-0x1383],0x90
    41f6:	c6 85 7e ec ff ff 06 	mov    BYTE PTR [rbp-0x1382],0x6
    41fd:	c6 85 7f ec ff ff c2 	mov    BYTE PTR [rbp-0x1381],0xc2
    4204:	c6 85 80 ec ff ff 12 	mov    BYTE PTR [rbp-0x1380],0x12
    420b:	c6 85 81 ec ff ff 19 	mov    BYTE PTR [rbp-0x137f],0x19
    4212:	c6 85 82 ec ff ff 21 	mov    BYTE PTR [rbp-0x137e],0x21
    4219:	c6 85 83 ec ff ff a3 	mov    BYTE PTR [rbp-0x137d],0xa3
    4220:	c6 85 84 ec ff ff f0 	mov    BYTE PTR [rbp-0x137c],0xf0
    4227:	c6 85 85 ec ff ff fd 	mov    BYTE PTR [rbp-0x137b],0xfd
    422e:	c6 85 86 ec ff ff 7c 	mov    BYTE PTR [rbp-0x137a],0x7c
    4235:	c6 85 87 ec ff ff 70 	mov    BYTE PTR [rbp-0x1379],0x70
    423c:	c6 85 88 ec ff ff 12 	mov    BYTE PTR [rbp-0x1378],0x12
    4243:	c6 85 89 ec ff ff 1d 	mov    BYTE PTR [rbp-0x1377],0x1d
    424a:	c6 85 8a ec ff ff 4e 	mov    BYTE PTR [rbp-0x1376],0x4e
    4251:	c6 85 8b ec ff ff 12 	mov    BYTE PTR [rbp-0x1375],0x12
    4258:	c6 85 8c ec ff ff 17 	mov    BYTE PTR [rbp-0x1374],0x17
    425f:	c6 85 8d ec ff ff d3 	mov    BYTE PTR [rbp-0x1373],0xd3
    4266:	c6 85 8e ec ff ff 12 	mov    BYTE PTR [rbp-0x1372],0x12
    426d:	c6 85 8f ec ff ff 1c 	mov    BYTE PTR [rbp-0x1371],0x1c
    4274:	c6 85 90 ec ff ff 79 	mov    BYTE PTR [rbp-0x1370],0x79
    427b:	c6 85 91 ec ff ff 90 	mov    BYTE PTR [rbp-0x136f],0x90
    4282:	c6 85 92 ec ff ff 04 	mov    BYTE PTR [rbp-0x136e],0x4
    4289:	c6 85 93 ec ff ff 5c 	mov    BYTE PTR [rbp-0x136d],0x5c
    4290:	c6 85 94 ec ff ff e0 	mov    BYTE PTR [rbp-0x136c],0xe0
    4297:	c6 85 95 ec ff ff 04 	mov    BYTE PTR [rbp-0x136b],0x4
    429e:	c6 85 96 ec ff ff f0 	mov    BYTE PTR [rbp-0x136a],0xf0
    42a5:	c6 85 97 ec ff ff 90 	mov    BYTE PTR [rbp-0x1369],0x90
    42ac:	c6 85 98 ec ff ff 02 	mov    BYTE PTR [rbp-0x1368],0x2
    42b3:	c6 85 99 ec ff ff 16 	mov    BYTE PTR [rbp-0x1367],0x16
    42ba:	c6 85 9a ec ff ff e0 	mov    BYTE PTR [rbp-0x1366],0xe0
    42c1:	c6 85 9b ec ff ff 90 	mov    BYTE PTR [rbp-0x1365],0x90
    42c8:	c6 85 9c ec ff ff 06 	mov    BYTE PTR [rbp-0x1364],0x6
    42cf:	c6 85 9d ec ff ff ac 	mov    BYTE PTR [rbp-0x1363],0xac
    42d6:	c6 85 9e ec ff ff f0 	mov    BYTE PTR [rbp-0x1362],0xf0
    42dd:	c6 85 9f ec ff ff 90 	mov    BYTE PTR [rbp-0x1361],0x90
    42e4:	c6 85 a0 ec ff ff 02 	mov    BYTE PTR [rbp-0x1360],0x2
    42eb:	c6 85 a1 ec ff ff 17 	mov    BYTE PTR [rbp-0x135f],0x17
    42f2:	c6 85 a2 ec ff ff e0 	mov    BYTE PTR [rbp-0x135e],0xe0
    42f9:	c6 85 a3 ec ff ff 90 	mov    BYTE PTR [rbp-0x135d],0x90
    4300:	c6 85 a4 ec ff ff 06 	mov    BYTE PTR [rbp-0x135c],0x6
    4307:	c6 85 a5 ec ff ff ad 	mov    BYTE PTR [rbp-0x135b],0xad
    430e:	c6 85 a6 ec ff ff f0 	mov    BYTE PTR [rbp-0x135a],0xf0
    4315:	c6 85 a7 ec ff ff 90 	mov    BYTE PTR [rbp-0x1359],0x90
    431c:	c6 85 a8 ec ff ff 02 	mov    BYTE PTR [rbp-0x1358],0x2
    4323:	c6 85 a9 ec ff ff 18 	mov    BYTE PTR [rbp-0x1357],0x18
    432a:	c6 85 aa ec ff ff e0 	mov    BYTE PTR [rbp-0x1356],0xe0
    4331:	c6 85 ab ec ff ff 90 	mov    BYTE PTR [rbp-0x1355],0x90
    4338:	c6 85 ac ec ff ff 06 	mov    BYTE PTR [rbp-0x1354],0x6
    433f:	c6 85 ad ec ff ff ae 	mov    BYTE PTR [rbp-0x1353],0xae
    4346:	c6 85 ae ec ff ff f0 	mov    BYTE PTR [rbp-0x1352],0xf0
    434d:	c6 85 af ec ff ff 90 	mov    BYTE PTR [rbp-0x1351],0x90
    4354:	c6 85 b0 ec ff ff 02 	mov    BYTE PTR [rbp-0x1350],0x2
    435b:	c6 85 b1 ec ff ff 19 	mov    BYTE PTR [rbp-0x134f],0x19
    4362:	c6 85 b2 ec ff ff e0 	mov    BYTE PTR [rbp-0x134e],0xe0
    4369:	c6 85 b3 ec ff ff 90 	mov    BYTE PTR [rbp-0x134d],0x90
    4370:	c6 85 b4 ec ff ff 06 	mov    BYTE PTR [rbp-0x134c],0x6
    4377:	c6 85 b5 ec ff ff af 	mov    BYTE PTR [rbp-0x134b],0xaf
    437e:	c6 85 b6 ec ff ff f0 	mov    BYTE PTR [rbp-0x134a],0xf0
    4385:	c6 85 b7 ec ff ff 90 	mov    BYTE PTR [rbp-0x1349],0x90
    438c:	c6 85 b8 ec ff ff 04 	mov    BYTE PTR [rbp-0x1348],0x4
    4393:	c6 85 b9 ec ff ff 63 	mov    BYTE PTR [rbp-0x1347],0x63
    439a:	c6 85 ba ec ff ff e0 	mov    BYTE PTR [rbp-0x1346],0xe0
    43a1:	c6 85 bb ec ff ff 64 	mov    BYTE PTR [rbp-0x1345],0x64
    43a8:	c6 85 bc ec ff ff ca 	mov    BYTE PTR [rbp-0x1344],0xca
    43af:	c6 85 bd ec ff ff 70 	mov    BYTE PTR [rbp-0x1343],0x70
    43b6:	c6 85 be ec ff ff 06 	mov    BYTE PTR [rbp-0x1342],0x6
    43bd:	c6 85 c2 ec ff ff 02 	mov    BYTE PTR [rbp-0x133e],0x2
    43c4:	c6 85 c3 ec ff ff 09 	mov    BYTE PTR [rbp-0x133d],0x9
    43cb:	c6 85 c4 ec ff ff 25 	mov    BYTE PTR [rbp-0x133c],0x25
    43d2:	c6 85 c5 ec ff ff 90 	mov    BYTE PTR [rbp-0x133b],0x90
    43d9:	c6 85 c6 ec ff ff 04 	mov    BYTE PTR [rbp-0x133a],0x4
    43e0:	c6 85 c7 ec ff ff 63 	mov    BYTE PTR [rbp-0x1339],0x63
    43e7:	c6 85 c8 ec ff ff e0 	mov    BYTE PTR [rbp-0x1338],0xe0
    43ee:	c6 85 c9 ec ff ff 70 	mov    BYTE PTR [rbp-0x1337],0x70
    43f5:	c6 85 ca ec ff ff 6f 	mov    BYTE PTR [rbp-0x1336],0x6f
    43fc:	c6 85 cb ec ff ff 90 	mov    BYTE PTR [rbp-0x1335],0x90
    4403:	c6 85 cc ec ff ff 06 	mov    BYTE PTR [rbp-0x1334],0x6
    440a:	c6 85 cd ec ff ff af 	mov    BYTE PTR [rbp-0x1333],0xaf
    4411:	c6 85 ce ec ff ff e0 	mov    BYTE PTR [rbp-0x1332],0xe0
    4418:	c6 85 cf ec ff ff 90 	mov    BYTE PTR [rbp-0x1331],0x90
    441f:	c6 85 d0 ec ff ff 06 	mov    BYTE PTR [rbp-0x1330],0x6
    4426:	c6 85 d1 ec ff ff aa 	mov    BYTE PTR [rbp-0x132f],0xaa
    442d:	c6 85 d2 ec ff ff f0 	mov    BYTE PTR [rbp-0x132e],0xf0
    4434:	c6 85 d3 ec ff ff e0 	mov    BYTE PTR [rbp-0x132d],0xe0
    443b:	c6 85 d4 ec ff ff ff 	mov    BYTE PTR [rbp-0x132c],0xff
    4442:	c6 85 d5 ec ff ff d3 	mov    BYTE PTR [rbp-0x132b],0xd3
    4449:	c6 85 d6 ec ff ff 94 	mov    BYTE PTR [rbp-0x132a],0x94
    4450:	c6 85 d7 ec ff ff 1e 	mov    BYTE PTR [rbp-0x1329],0x1e
    4457:	c6 85 d8 ec ff ff 74 	mov    BYTE PTR [rbp-0x1328],0x74
    445e:	c6 85 d9 ec ff ff 80 	mov    BYTE PTR [rbp-0x1327],0x80
    4465:	c6 85 da ec ff ff 94 	mov    BYTE PTR [rbp-0x1326],0x94
    446c:	c6 85 db ec ff ff 80 	mov    BYTE PTR [rbp-0x1325],0x80
    4473:	c6 85 dc ec ff ff 40 	mov    BYTE PTR [rbp-0x1324],0x40
    447a:	c6 85 dd ec ff ff 12 	mov    BYTE PTR [rbp-0x1323],0x12
    4481:	c6 85 de ec ff ff 90 	mov    BYTE PTR [rbp-0x1322],0x90
    4488:	c6 85 df ec ff ff 04 	mov    BYTE PTR [rbp-0x1321],0x4
    448f:	c6 85 e0 ec ff ff 64 	mov    BYTE PTR [rbp-0x1320],0x64
    4496:	c6 85 e1 ec ff ff e0 	mov    BYTE PTR [rbp-0x131f],0xe0
    449d:	c6 85 e2 ec ff ff fe 	mov    BYTE PTR [rbp-0x131e],0xfe
    44a4:	c6 85 e3 ec ff ff ef 	mov    BYTE PTR [rbp-0x131d],0xef
    44ab:	c6 85 e4 ec ff ff d3 	mov    BYTE PTR [rbp-0x131c],0xd3
    44b2:	c6 85 e5 ec ff ff 9e 	mov    BYTE PTR [rbp-0x131b],0x9e
    44b9:	c6 85 e6 ec ff ff 50 	mov    BYTE PTR [rbp-0x131a],0x50
    44c0:	c6 85 e7 ec ff ff 08 	mov    BYTE PTR [rbp-0x1319],0x8
    44c7:	c6 85 e8 ec ff ff 90 	mov    BYTE PTR [rbp-0x1318],0x90
    44ce:	c6 85 e9 ec ff ff 04 	mov    BYTE PTR [rbp-0x1317],0x4
    44d5:	c6 85 ea ec ff ff 62 	mov    BYTE PTR [rbp-0x1316],0x62
    44dc:	c6 85 eb ec ff ff e0 	mov    BYTE PTR [rbp-0x1315],0xe0
    44e3:	c6 85 ec ec ff ff 04 	mov    BYTE PTR [rbp-0x1314],0x4
    44ea:	c6 85 ed ec ff ff f0 	mov    BYTE PTR [rbp-0x1313],0xf0
    44f1:	c6 85 ee ec ff ff 80 	mov    BYTE PTR [rbp-0x1312],0x80
    44f8:	c6 85 ef ec ff ff 0d 	mov    BYTE PTR [rbp-0x1311],0xd
    44ff:	c6 85 f0 ec ff ff 90 	mov    BYTE PTR [rbp-0x1310],0x90
    4506:	c6 85 f1 ec ff ff 04 	mov    BYTE PTR [rbp-0x130f],0x4
    450d:	c6 85 f2 ec ff ff 62 	mov    BYTE PTR [rbp-0x130e],0x62
    4514:	c6 85 f3 ec ff ff e0 	mov    BYTE PTR [rbp-0x130d],0xe0
    451b:	c6 85 f4 ec ff ff d3 	mov    BYTE PTR [rbp-0x130c],0xd3
    4522:	c6 85 f5 ec ff ff 12 	mov    BYTE PTR [rbp-0x130b],0x12
    4529:	c6 85 f6 ec ff ff 19 	mov    BYTE PTR [rbp-0x130a],0x19
    4530:	c6 85 f7 ec ff ff 15 	mov    BYTE PTR [rbp-0x1309],0x15
    4537:	c6 85 f8 ec ff ff 40 	mov    BYTE PTR [rbp-0x1308],0x40
    453e:	c6 85 f9 ec ff ff 03 	mov    BYTE PTR [rbp-0x1307],0x3
    4545:	c6 85 fa ec ff ff e0 	mov    BYTE PTR [rbp-0x1306],0xe0
    454c:	c6 85 fb ec ff ff 14 	mov    BYTE PTR [rbp-0x1305],0x14
    4553:	c6 85 fc ec ff ff f0 	mov    BYTE PTR [rbp-0x1304],0xf0
    455a:	c6 85 fd ec ff ff 90 	mov    BYTE PTR [rbp-0x1303],0x90
    4561:	c6 85 fe ec ff ff 06 	mov    BYTE PTR [rbp-0x1302],0x6
    4568:	c6 85 ff ec ff ff aa 	mov    BYTE PTR [rbp-0x1301],0xaa
    456f:	c6 85 00 ed ff ff e0 	mov    BYTE PTR [rbp-0x1300],0xe0
    4576:	c6 85 01 ed ff ff 24 	mov    BYTE PTR [rbp-0x12ff],0x24
    457d:	c6 85 02 ed ff ff 05 	mov    BYTE PTR [rbp-0x12fe],0x5
    4584:	c6 85 03 ed ff ff 90 	mov    BYTE PTR [rbp-0x12fd],0x90
    458b:	c6 85 04 ed ff ff 04 	mov    BYTE PTR [rbp-0x12fc],0x4
    4592:	c6 85 05 ed ff ff 64 	mov    BYTE PTR [rbp-0x12fb],0x64
    4599:	c6 85 06 ed ff ff f0 	mov    BYTE PTR [rbp-0x12fa],0xf0
    45a0:	c6 85 07 ed ff ff 90 	mov    BYTE PTR [rbp-0x12f9],0x90
    45a7:	c6 85 08 ed ff ff 04 	mov    BYTE PTR [rbp-0x12f8],0x4
    45ae:	c6 85 09 ed ff ff 62 	mov    BYTE PTR [rbp-0x12f7],0x62
    45b5:	c6 85 0a ed ff ff e0 	mov    BYTE PTR [rbp-0x12f6],0xe0
    45bc:	c6 85 0b ed ff ff d3 	mov    BYTE PTR [rbp-0x12f5],0xd3
    45c3:	c6 85 0c ed ff ff 94 	mov    BYTE PTR [rbp-0x12f4],0x94
    45ca:	c6 85 0d ed ff ff f0 	mov    BYTE PTR [rbp-0x12f3],0xf0
    45d1:	c6 85 0e ed ff ff 74 	mov    BYTE PTR [rbp-0x12f2],0x74
    45d8:	c6 85 0f ed ff ff 80 	mov    BYTE PTR [rbp-0x12f1],0x80
    45df:	c6 85 10 ed ff ff 94 	mov    BYTE PTR [rbp-0x12f0],0x94
    45e6:	c6 85 11 ed ff ff 80 	mov    BYTE PTR [rbp-0x12ef],0x80
    45ed:	c6 85 12 ed ff ff 40 	mov    BYTE PTR [rbp-0x12ee],0x40
    45f4:	c6 85 13 ed ff ff 67 	mov    BYTE PTR [rbp-0x12ed],0x67
    45fb:	c6 85 14 ed ff ff a3 	mov    BYTE PTR [rbp-0x12ec],0xa3
    4602:	c6 85 15 ed ff ff 74 	mov    BYTE PTR [rbp-0x12eb],0x74
    4609:	c6 85 16 ed ff ff 01 	mov    BYTE PTR [rbp-0x12ea],0x1
    4610:	c6 85 17 ed ff ff f0 	mov    BYTE PTR [rbp-0x12e9],0xf0
    4617:	c6 85 18 ed ff ff 90 	mov    BYTE PTR [rbp-0x12e8],0x90
    461e:	c6 85 19 ed ff ff 06 	mov    BYTE PTR [rbp-0x12e7],0x6
    4625:	c6 85 1a ed ff ff ac 	mov    BYTE PTR [rbp-0x12e6],0xac
    462c:	c6 85 1b ed ff ff e0 	mov    BYTE PTR [rbp-0x12e5],0xe0
    4633:	c6 85 1c ed ff ff 90 	mov    BYTE PTR [rbp-0x12e4],0x90
    463a:	c6 85 1d ed ff ff 04 	mov    BYTE PTR [rbp-0x12e3],0x4
    4641:	c6 85 1e ed ff ff 64 	mov    BYTE PTR [rbp-0x12e2],0x64
    4648:	c6 85 1f ed ff ff f0 	mov    BYTE PTR [rbp-0x12e1],0xf0
    464f:	c6 85 20 ed ff ff 90 	mov    BYTE PTR [rbp-0x12e0],0x90
    4656:	c6 85 21 ed ff ff 06 	mov    BYTE PTR [rbp-0x12df],0x6
    465d:	c6 85 22 ed ff ff ad 	mov    BYTE PTR [rbp-0x12de],0xad
    4664:	c6 85 23 ed ff ff e0 	mov    BYTE PTR [rbp-0x12dd],0xe0
    466b:	c6 85 24 ed ff ff 90 	mov    BYTE PTR [rbp-0x12dc],0x90
    4672:	c6 85 25 ed ff ff 04 	mov    BYTE PTR [rbp-0x12db],0x4
    4679:	c6 85 26 ed ff ff 65 	mov    BYTE PTR [rbp-0x12da],0x65
    4680:	c6 85 27 ed ff ff f0 	mov    BYTE PTR [rbp-0x12d9],0xf0
    4687:	c6 85 28 ed ff ff 90 	mov    BYTE PTR [rbp-0x12d8],0x90
    468e:	c6 85 29 ed ff ff 06 	mov    BYTE PTR [rbp-0x12d7],0x6
    4695:	c6 85 2a ed ff ff ae 	mov    BYTE PTR [rbp-0x12d6],0xae
    469c:	c6 85 2b ed ff ff e0 	mov    BYTE PTR [rbp-0x12d5],0xe0
    46a3:	c6 85 2c ed ff ff 90 	mov    BYTE PTR [rbp-0x12d4],0x90
    46aa:	c6 85 2d ed ff ff 04 	mov    BYTE PTR [rbp-0x12d3],0x4
    46b1:	c6 85 2e ed ff ff 66 	mov    BYTE PTR [rbp-0x12d2],0x66
    46b8:	c6 85 2f ed ff ff f0 	mov    BYTE PTR [rbp-0x12d1],0xf0
    46bf:	c6 85 30 ed ff ff 90 	mov    BYTE PTR [rbp-0x12d0],0x90
    46c6:	c6 85 31 ed ff ff 06 	mov    BYTE PTR [rbp-0x12cf],0x6
    46cd:	c6 85 32 ed ff ff af 	mov    BYTE PTR [rbp-0x12ce],0xaf
    46d4:	c6 85 33 ed ff ff e0 	mov    BYTE PTR [rbp-0x12cd],0xe0
    46db:	c6 85 34 ed ff ff 90 	mov    BYTE PTR [rbp-0x12cc],0x90
    46e2:	c6 85 35 ed ff ff 04 	mov    BYTE PTR [rbp-0x12cb],0x4
    46e9:	c6 85 36 ed ff ff 67 	mov    BYTE PTR [rbp-0x12ca],0x67
    46f0:	c6 85 37 ed ff ff f0 	mov    BYTE PTR [rbp-0x12c9],0xf0
    46f7:	c6 85 38 ed ff ff 80 	mov    BYTE PTR [rbp-0x12c8],0x80
    46fe:	c6 85 39 ed ff ff 41 	mov    BYTE PTR [rbp-0x12c7],0x41
    4705:	c6 85 3a ed ff ff 90 	mov    BYTE PTR [rbp-0x12c6],0x90
    470c:	c6 85 3b ed ff ff 04 	mov    BYTE PTR [rbp-0x12c5],0x4
    4713:	c6 85 3c ed ff ff 64 	mov    BYTE PTR [rbp-0x12c4],0x64
    471a:	c6 85 3d ed ff ff e0 	mov    BYTE PTR [rbp-0x12c3],0xe0
    4721:	c6 85 3e ed ff ff 90 	mov    BYTE PTR [rbp-0x12c2],0x90
    4728:	c6 85 3f ed ff ff 06 	mov    BYTE PTR [rbp-0x12c1],0x6
    472f:	c6 85 40 ed ff ff b8 	mov    BYTE PTR [rbp-0x12c0],0xb8
    4736:	c6 85 41 ed ff ff f0 	mov    BYTE PTR [rbp-0x12bf],0xf0
    473d:	c6 85 42 ed ff ff 90 	mov    BYTE PTR [rbp-0x12be],0x90
    4744:	c6 85 43 ed ff ff 04 	mov    BYTE PTR [rbp-0x12bd],0x4
    474b:	c6 85 44 ed ff ff 65 	mov    BYTE PTR [rbp-0x12bc],0x65
    4752:	c6 85 45 ed ff ff e0 	mov    BYTE PTR [rbp-0x12bb],0xe0
    4759:	c6 85 46 ed ff ff 90 	mov    BYTE PTR [rbp-0x12ba],0x90
    4760:	c6 85 47 ed ff ff 06 	mov    BYTE PTR [rbp-0x12b9],0x6
    4767:	c6 85 48 ed ff ff b9 	mov    BYTE PTR [rbp-0x12b8],0xb9
    476e:	c6 85 49 ed ff ff f0 	mov    BYTE PTR [rbp-0x12b7],0xf0
    4775:	c6 85 4a ed ff ff 90 	mov    BYTE PTR [rbp-0x12b6],0x90
    477c:	c6 85 4b ed ff ff 04 	mov    BYTE PTR [rbp-0x12b5],0x4
    4783:	c6 85 4c ed ff ff 66 	mov    BYTE PTR [rbp-0x12b4],0x66
    478a:	c6 85 4d ed ff ff e0 	mov    BYTE PTR [rbp-0x12b3],0xe0
    4791:	c6 85 4e ed ff ff 90 	mov    BYTE PTR [rbp-0x12b2],0x90
    4798:	48 8d 95 40 eb ff ff 	lea    rdx,[rbp-0x14c0]
    479f:	b8 00 00 00 00       	mov    eax,0x0
    47a4:	b9 21 00 00 00       	mov    ecx,0x21
    47a9:	48 89 d7             	mov    rdi,rdx
    47ac:	f3 48 ab             	rep stos QWORD PTR es:[rdi],rax
    47af:	48 89 fa             	mov    rdx,rdi
    47b2:	89 02                	mov    DWORD PTR [rdx],eax
    47b4:	48 83 c2 04          	add    rdx,0x4
    47b8:	66 89 02             	mov    WORD PTR [rdx],ax
    47bb:	48 83 c2 02          	add    rdx,0x2
    47bf:	c6 85 41 eb ff ff 58 	mov    BYTE PTR [rbp-0x14bf],0x58
    47c6:	c6 85 42 eb ff ff 88 	mov    BYTE PTR [rbp-0x14be],0x88
    47cd:	c6 85 43 eb ff ff f9 	mov    BYTE PTR [rbp-0x14bd],0xf9
    47d4:	c6 85 44 eb ff ff ff 	mov    BYTE PTR [rbp-0x14bc],0xff
    47db:	48 8d 95 30 ea ff ff 	lea    rdx,[rbp-0x15d0]
    47e2:	b8 00 00 00 00       	mov    eax,0x0
    47e7:	b9 21 00 00 00       	mov    ecx,0x21
    47ec:	48 89 d7             	mov    rdi,rdx
    47ef:	f3 48 ab             	rep stos QWORD PTR es:[rdi],rax
    47f2:	48 89 fa             	mov    rdx,rdi
    47f5:	89 02                	mov    DWORD PTR [rdx],eax
    47f7:	48 83 c2 04          	add    rdx,0x4
    47fb:	66 89 02             	mov    WORD PTR [rdx],ax
    47fe:	48 83 c2 02          	add    rdx,0x2
    4802:	c6 85 30 ea ff ff 06 	mov    BYTE PTR [rbp-0x15d0],0x6
    4809:	c6 85 31 ea ff ff ba 	mov    BYTE PTR [rbp-0x15cf],0xba
    4810:	c6 85 32 ea ff ff f0 	mov    BYTE PTR [rbp-0x15ce],0xf0
    4817:	c6 85 33 ea ff ff 90 	mov    BYTE PTR [rbp-0x15cd],0x90
    481e:	c6 85 34 ea ff ff 04 	mov    BYTE PTR [rbp-0x15cc],0x4
    4825:	c6 85 35 ea ff ff 67 	mov    BYTE PTR [rbp-0x15cb],0x67
    482c:	c6 85 36 ea ff ff e0 	mov    BYTE PTR [rbp-0x15ca],0xe0
    4833:	c6 85 37 ea ff ff 90 	mov    BYTE PTR [rbp-0x15c9],0x90
    483a:	c6 85 38 ea ff ff 06 	mov    BYTE PTR [rbp-0x15c8],0x6
    4841:	c6 85 39 ea ff ff bb 	mov    BYTE PTR [rbp-0x15c7],0xbb
    4848:	c6 85 3a ea ff ff f0 	mov    BYTE PTR [rbp-0x15c6],0xf0
    484f:	c6 85 3b ea ff ff 90 	mov    BYTE PTR [rbp-0x15c5],0x90
    4856:	c6 85 3c ea ff ff 06 	mov    BYTE PTR [rbp-0x15c4],0x6
    485d:	c6 85 3d ea ff ff b8 	mov    BYTE PTR [rbp-0x15c3],0xb8
    4864:	c6 85 3e ea ff ff 12 	mov    BYTE PTR [rbp-0x15c2],0x12
    486b:	c6 85 3f ea ff ff 14 	mov    BYTE PTR [rbp-0x15c1],0x14
    4872:	c6 85 40 ea ff ff 73 	mov    BYTE PTR [rbp-0x15c0],0x73
    4879:	c6 85 41 ea ff ff 12 	mov    BYTE PTR [rbp-0x15bf],0x12
    4880:	c6 85 42 ea ff ff 19 	mov    BYTE PTR [rbp-0x15be],0x19
    4887:	c6 85 43 ea ff ff 94 	mov    BYTE PTR [rbp-0x15bd],0x94
    488e:	c6 85 44 ea ff ff 12 	mov    BYTE PTR [rbp-0x15bc],0x12
    4895:	c6 85 45 ea ff ff 14 	mov    BYTE PTR [rbp-0x15bb],0x14
    489c:	c6 85 46 ea ff ff 32 	mov    BYTE PTR [rbp-0x15ba],0x32
    48a3:	c6 85 47 ea ff ff 7b 	mov    BYTE PTR [rbp-0x15b9],0x7b
    48aa:	c6 85 48 ea ff ff 80 	mov    BYTE PTR [rbp-0x15b8],0x80
    48b1:	c6 85 49 ea ff ff 7a 	mov    BYTE PTR [rbp-0x15b7],0x7a
    48b8:	c6 85 4a ea ff ff 3a 	mov    BYTE PTR [rbp-0x15b6],0x3a
    48bf:	c6 85 4b ea ff ff 79 	mov    BYTE PTR [rbp-0x15b5],0x79
    48c6:	c6 85 4c ea ff ff 09 	mov    BYTE PTR [rbp-0x15b4],0x9
    48cd:	c6 85 4d ea ff ff 78 	mov    BYTE PTR [rbp-0x15b3],0x78
    48d4:	c6 85 4f ea ff ff c3 	mov    BYTE PTR [rbp-0x15b1],0xc3
    48db:	c6 85 50 ea ff ff 12 	mov    BYTE PTR [rbp-0x15b0],0x12
    48e2:	c6 85 51 ea ff ff 14 	mov    BYTE PTR [rbp-0x15af],0x14
    48e9:	c6 85 52 ea ff ff 56 	mov    BYTE PTR [rbp-0x15ae],0x56
    48f0:	c6 85 53 ea ff ff 50 	mov    BYTE PTR [rbp-0x15ad],0x50
    48f7:	c6 85 54 ea ff ff 07 	mov    BYTE PTR [rbp-0x15ac],0x7
    48fe:	c6 85 55 ea ff ff e4 	mov    BYTE PTR [rbp-0x15ab],0xe4
    4905:	c6 85 56 ea ff ff 90 	mov    BYTE PTR [rbp-0x15aa],0x90
    490c:	c6 85 57 ea ff ff 04 	mov    BYTE PTR [rbp-0x15a9],0x4
    4913:	c6 85 58 ea ff ff 62 	mov    BYTE PTR [rbp-0x15a8],0x62
    491a:	c6 85 59 ea ff ff f0 	mov    BYTE PTR [rbp-0x15a7],0xf0
    4921:	c6 85 5a ea ff ff a3 	mov    BYTE PTR [rbp-0x15a6],0xa3
    4928:	c6 85 5b ea ff ff f0 	mov    BYTE PTR [rbp-0x15a5],0xf0
    492f:	c6 85 5c ea ff ff 12 	mov    BYTE PTR [rbp-0x15a4],0x12
    4936:	c6 85 5d ea ff ff 19 	mov    BYTE PTR [rbp-0x15a3],0x19
    493d:	c6 85 5e ea ff ff 1c 	mov    BYTE PTR [rbp-0x15a2],0x1c
    4944:	c6 85 5f ea ff ff 7f 	mov    BYTE PTR [rbp-0x15a1],0x7f
    494b:	c6 85 61 ea ff ff 7e 	mov    BYTE PTR [rbp-0x159f],0x7e
    4952:	c6 85 62 ea ff ff 70 	mov    BYTE PTR [rbp-0x159e],0x70
    4959:	c6 85 63 ea ff ff 12 	mov    BYTE PTR [rbp-0x159d],0x12
    4960:	c6 85 64 ea ff ff 10 	mov    BYTE PTR [rbp-0x159c],0x10
    4967:	c6 85 65 ea ff ff 42 	mov    BYTE PTR [rbp-0x159b],0x42
    496e:	c6 85 66 ea ff ff 90 	mov    BYTE PTR [rbp-0x159a],0x90
    4975:	c6 85 67 ea ff ff 04 	mov    BYTE PTR [rbp-0x1599],0x4
    497c:	c6 85 68 ea ff ff 48 	mov    BYTE PTR [rbp-0x1598],0x48
    4983:	c6 85 69 ea ff ff e0 	mov    BYTE PTR [rbp-0x1597],0xe0
    498a:	c6 85 6a ea ff ff 90 	mov    BYTE PTR [rbp-0x1596],0x90
    4991:	c6 85 6b ea ff ff 06 	mov    BYTE PTR [rbp-0x1595],0x6
    4998:	c6 85 6c ea ff ff b0 	mov    BYTE PTR [rbp-0x1594],0xb0
    499f:	c6 85 6d ea ff ff f0 	mov    BYTE PTR [rbp-0x1593],0xf0
    49a6:	c6 85 6e ea ff ff 90 	mov    BYTE PTR [rbp-0x1592],0x90
    49ad:	c6 85 6f ea ff ff 04 	mov    BYTE PTR [rbp-0x1591],0x4
    49b4:	c6 85 70 ea ff ff 49 	mov    BYTE PTR [rbp-0x1590],0x49
    49bb:	c6 85 71 ea ff ff e0 	mov    BYTE PTR [rbp-0x158f],0xe0
    49c2:	c6 85 72 ea ff ff 90 	mov    BYTE PTR [rbp-0x158e],0x90
    49c9:	c6 85 73 ea ff ff 06 	mov    BYTE PTR [rbp-0x158d],0x6
    49d0:	c6 85 74 ea ff ff b1 	mov    BYTE PTR [rbp-0x158c],0xb1
    49d7:	c6 85 75 ea ff ff f0 	mov    BYTE PTR [rbp-0x158b],0xf0
    49de:	c6 85 76 ea ff ff 90 	mov    BYTE PTR [rbp-0x158a],0x90
    49e5:	c6 85 77 ea ff ff 04 	mov    BYTE PTR [rbp-0x1589],0x4
    49ec:	c6 85 78 ea ff ff 4a 	mov    BYTE PTR [rbp-0x1588],0x4a
    49f3:	c6 85 79 ea ff ff e0 	mov    BYTE PTR [rbp-0x1587],0xe0
    49fa:	c6 85 7a ea ff ff 90 	mov    BYTE PTR [rbp-0x1586],0x90
    4a01:	c6 85 7b ea ff ff 06 	mov    BYTE PTR [rbp-0x1585],0x6
    4a08:	c6 85 7c ea ff ff b2 	mov    BYTE PTR [rbp-0x1584],0xb2
    4a0f:	c6 85 7d ea ff ff f0 	mov    BYTE PTR [rbp-0x1583],0xf0
    4a16:	c6 85 7e ea ff ff 90 	mov    BYTE PTR [rbp-0x1582],0x90
    4a1d:	c6 85 7f ea ff ff 04 	mov    BYTE PTR [rbp-0x1581],0x4
    4a24:	c6 85 80 ea ff ff 4b 	mov    BYTE PTR [rbp-0x1580],0x4b
    4a2b:	c6 85 81 ea ff ff e0 	mov    BYTE PTR [rbp-0x157f],0xe0
    4a32:	c6 85 82 ea ff ff 90 	mov    BYTE PTR [rbp-0x157e],0x90
    4a39:	c6 85 83 ea ff ff 06 	mov    BYTE PTR [rbp-0x157d],0x6
    4a40:	c6 85 84 ea ff ff b3 	mov    BYTE PTR [rbp-0x157c],0xb3
    4a47:	c6 85 85 ea ff ff f0 	mov    BYTE PTR [rbp-0x157b],0xf0
    4a4e:	c6 85 86 ea ff ff 90 	mov    BYTE PTR [rbp-0x157a],0x90
    4a55:	c6 85 87 ea ff ff 04 	mov    BYTE PTR [rbp-0x1579],0x4
    4a5c:	c6 85 88 ea ff ff 4c 	mov    BYTE PTR [rbp-0x1578],0x4c
    4a63:	c6 85 89 ea ff ff e0 	mov    BYTE PTR [rbp-0x1577],0xe0
    4a6a:	c6 85 8a ea ff ff 90 	mov    BYTE PTR [rbp-0x1576],0x90
    4a71:	c6 85 8b ea ff ff 06 	mov    BYTE PTR [rbp-0x1575],0x6
    4a78:	c6 85 8c ea ff ff b4 	mov    BYTE PTR [rbp-0x1574],0xb4
    4a7f:	c6 85 8d ea ff ff f0 	mov    BYTE PTR [rbp-0x1573],0xf0
    4a86:	c6 85 8e ea ff ff 90 	mov    BYTE PTR [rbp-0x1572],0x90
    4a8d:	c6 85 8f ea ff ff 04 	mov    BYTE PTR [rbp-0x1571],0x4
    4a94:	c6 85 90 ea ff ff 4d 	mov    BYTE PTR [rbp-0x1570],0x4d
    4a9b:	c6 85 91 ea ff ff e0 	mov    BYTE PTR [rbp-0x156f],0xe0
    4aa2:	c6 85 92 ea ff ff 90 	mov    BYTE PTR [rbp-0x156e],0x90
    4aa9:	c6 85 93 ea ff ff 06 	mov    BYTE PTR [rbp-0x156d],0x6
    4ab0:	c6 85 94 ea ff ff b5 	mov    BYTE PTR [rbp-0x156c],0xb5
    4ab7:	c6 85 95 ea ff ff f0 	mov    BYTE PTR [rbp-0x156b],0xf0
    4abe:	c6 85 96 ea ff ff 90 	mov    BYTE PTR [rbp-0x156a],0x90
    4ac5:	c6 85 97 ea ff ff 04 	mov    BYTE PTR [rbp-0x1569],0x4
    4acc:	c6 85 98 ea ff ff 4e 	mov    BYTE PTR [rbp-0x1568],0x4e
    4ad3:	c6 85 99 ea ff ff e0 	mov    BYTE PTR [rbp-0x1567],0xe0
    4ada:	c6 85 9a ea ff ff 90 	mov    BYTE PTR [rbp-0x1566],0x90
    4ae1:	c6 85 9b ea ff ff 06 	mov    BYTE PTR [rbp-0x1565],0x6
    4ae8:	c6 85 9c ea ff ff b6 	mov    BYTE PTR [rbp-0x1564],0xb6
    4aef:	c6 85 9d ea ff ff f0 	mov    BYTE PTR [rbp-0x1563],0xf0
    4af6:	c6 85 9e ea ff ff 90 	mov    BYTE PTR [rbp-0x1562],0x90
    4afd:	c6 85 9f ea ff ff 04 	mov    BYTE PTR [rbp-0x1561],0x4
    4b04:	c6 85 a0 ea ff ff 4f 	mov    BYTE PTR [rbp-0x1560],0x4f
    4b0b:	c6 85 a1 ea ff ff e0 	mov    BYTE PTR [rbp-0x155f],0xe0
    4b12:	c6 85 a2 ea ff ff 90 	mov    BYTE PTR [rbp-0x155e],0x90
    4b19:	c6 85 a3 ea ff ff 06 	mov    BYTE PTR [rbp-0x155d],0x6
    4b20:	c6 85 a4 ea ff ff b7 	mov    BYTE PTR [rbp-0x155c],0xb7
    4b27:	c6 85 a5 ea ff ff f0 	mov    BYTE PTR [rbp-0x155b],0xf0
    4b2e:	c6 85 a6 ea ff ff 12 	mov    BYTE PTR [rbp-0x155a],0x12
    4b35:	c6 85 a7 ea ff ff 19 	mov    BYTE PTR [rbp-0x1559],0x19
    4b3c:	c6 85 a8 ea ff ff 9a 	mov    BYTE PTR [rbp-0x1558],0x9a
    4b43:	c6 85 a9 ea ff ff 12 	mov    BYTE PTR [rbp-0x1557],0x12
    4b4a:	c6 85 aa ea ff ff 19 	mov    BYTE PTR [rbp-0x1556],0x19
    4b51:	c6 85 ab ea ff ff 5a 	mov    BYTE PTR [rbp-0x1555],0x5a
    4b58:	c6 85 ac ea ff ff 50 	mov    BYTE PTR [rbp-0x1554],0x50
    4b5f:	c6 85 ad ea ff ff 05 	mov    BYTE PTR [rbp-0x1553],0x5
    4b66:	c6 85 ae ea ff ff 12 	mov    BYTE PTR [rbp-0x1552],0x12
    4b6d:	c6 85 af ea ff ff 18 	mov    BYTE PTR [rbp-0x1551],0x18
    4b74:	c6 85 b0 ea ff ff f9 	mov    BYTE PTR [rbp-0x1550],0xf9
    4b7b:	c6 85 b1 ea ff ff 80 	mov    BYTE PTR [rbp-0x154f],0x80
    4b82:	c6 85 b2 ea ff ff f6 	mov    BYTE PTR [rbp-0x154e],0xf6
    4b89:	c6 85 b3 ea ff ff 90 	mov    BYTE PTR [rbp-0x154d],0x90
    4b90:	c6 85 b4 ea ff ff 04 	mov    BYTE PTR [rbp-0x154c],0x4
    4b97:	c6 85 b5 ea ff ff 63 	mov    BYTE PTR [rbp-0x154b],0x63
    4b9e:	c6 85 b6 ea ff ff e0 	mov    BYTE PTR [rbp-0x154a],0xe0
    4ba5:	c6 85 b7 ea ff ff 60 	mov    BYTE PTR [rbp-0x1549],0x60
    4bac:	c6 85 b8 ea ff ff 07 	mov    BYTE PTR [rbp-0x1548],0x7
    4bb3:	c6 85 b9 ea ff ff 64 	mov    BYTE PTR [rbp-0x1547],0x64
    4bba:	c6 85 ba ea ff ff ca 	mov    BYTE PTR [rbp-0x1546],0xca
    4bc1:	c6 85 bb ea ff ff 60 	mov    BYTE PTR [rbp-0x1545],0x60
    4bc8:	c6 85 bc ea ff ff 03 	mov    BYTE PTR [rbp-0x1544],0x3
    4bcf:	c6 85 bd ea ff ff 02 	mov    BYTE PTR [rbp-0x1543],0x2
    4bd6:	c6 85 be ea ff ff 0a 	mov    BYTE PTR [rbp-0x1542],0xa
    4bdd:	c6 85 bf ea ff ff db 	mov    BYTE PTR [rbp-0x1541],0xdb
    4be4:	c6 85 c0 ea ff ff 90 	mov    BYTE PTR [rbp-0x1540],0x90
    4beb:	c6 85 c1 ea ff ff 02 	mov    BYTE PTR [rbp-0x153f],0x2
    4bf2:	c6 85 c2 ea ff ff 45 	mov    BYTE PTR [rbp-0x153e],0x45
    4bf9:	c6 85 c3 ea ff ff e0 	mov    BYTE PTR [rbp-0x153d],0xe0
    4c00:	c6 85 c4 ea ff ff ff 	mov    BYTE PTR [rbp-0x153c],0xff
    4c07:	c6 85 c5 ea ff ff 90 	mov    BYTE PTR [rbp-0x153b],0x90
    4c0e:	c6 85 c6 ea ff ff 02 	mov    BYTE PTR [rbp-0x153a],0x2
    4c15:	c6 85 c7 ea ff ff 07 	mov    BYTE PTR [rbp-0x1539],0x7
    4c1c:	c6 85 c8 ea ff ff e0 	mov    BYTE PTR [rbp-0x1538],0xe0
    4c23:	c6 85 c9 ea ff ff 6f 	mov    BYTE PTR [rbp-0x1537],0x6f
    4c2a:	c6 85 ca ea ff ff 60 	mov    BYTE PTR [rbp-0x1536],0x60
    4c31:	c6 85 cb ea ff ff 03 	mov    BYTE PTR [rbp-0x1535],0x3
    4c38:	c6 85 cc ea ff ff 02 	mov    BYTE PTR [rbp-0x1534],0x2
    4c3f:	c6 85 cd ea ff ff 0a 	mov    BYTE PTR [rbp-0x1533],0xa
    4c46:	c6 85 ce ea ff ff db 	mov    BYTE PTR [rbp-0x1532],0xdb
    4c4d:	c6 85 cf ea ff ff 12 	mov    BYTE PTR [rbp-0x1531],0x12
    4c54:	c6 85 d0 ea ff ff 19 	mov    BYTE PTR [rbp-0x1530],0x19
    4c5b:	c6 85 d1 ea ff ff 94 	mov    BYTE PTR [rbp-0x152f],0x94
    4c62:	c6 85 d2 ea ff ff 90 	mov    BYTE PTR [rbp-0x152e],0x90
    4c69:	c6 85 d3 ea ff ff 06 	mov    BYTE PTR [rbp-0x152d],0x6
    4c70:	c6 85 d4 ea ff ff b0 	mov    BYTE PTR [rbp-0x152c],0xb0
    4c77:	c6 85 d5 ea ff ff 12 	mov    BYTE PTR [rbp-0x152b],0x12
    4c7e:	c6 85 d6 ea ff ff 14 	mov    BYTE PTR [rbp-0x152a],0x14
    4c85:	c6 85 d7 ea ff ff 73 	mov    BYTE PTR [rbp-0x1529],0x73
    4c8c:	c6 85 d8 ea ff ff c3 	mov    BYTE PTR [rbp-0x1528],0xc3
    4c93:	c6 85 d9 ea ff ff 12 	mov    BYTE PTR [rbp-0x1527],0x12
    4c9a:	c6 85 da ea ff ff 14 	mov    BYTE PTR [rbp-0x1526],0x14
    4ca1:	c6 85 db ea ff ff 56 	mov    BYTE PTR [rbp-0x1525],0x56
    4ca8:	c6 85 dc ea ff ff 40 	mov    BYTE PTR [rbp-0x1524],0x40
    4caf:	c6 85 dd ea ff ff 03 	mov    BYTE PTR [rbp-0x1523],0x3
    4cb6:	c6 85 de ea ff ff 02 	mov    BYTE PTR [rbp-0x1522],0x2
    4cbd:	c6 85 df ea ff ff 0a 	mov    BYTE PTR [rbp-0x1521],0xa
    4cc4:	c6 85 e0 ea ff ff db 	mov    BYTE PTR [rbp-0x1520],0xdb
    4ccb:	c6 85 e1 ea ff ff 12 	mov    BYTE PTR [rbp-0x151f],0x12
    4cd2:	c6 85 e2 ea ff ff 19 	mov    BYTE PTR [rbp-0x151e],0x19
    4cd9:	c6 85 e3 ea ff ff 94 	mov    BYTE PTR [rbp-0x151d],0x94
    4ce0:	c6 85 e4 ea ff ff 90 	mov    BYTE PTR [rbp-0x151c],0x90
    4ce7:	c6 85 e5 ea ff ff 06 	mov    BYTE PTR [rbp-0x151b],0x6
    4cee:	c6 85 e6 ea ff ff b4 	mov    BYTE PTR [rbp-0x151a],0xb4
    4cf5:	c6 85 e7 ea ff ff 12 	mov    BYTE PTR [rbp-0x1519],0x12
    4cfc:	c6 85 e8 ea ff ff 14 	mov    BYTE PTR [rbp-0x1518],0x14
    4d03:	c6 85 e9 ea ff ff 73 	mov    BYTE PTR [rbp-0x1517],0x73
    4d0a:	c6 85 ea ea ff ff d3 	mov    BYTE PTR [rbp-0x1516],0xd3
    4d11:	c6 85 eb ea ff ff 12 	mov    BYTE PTR [rbp-0x1515],0x12
    4d18:	c6 85 ec ea ff ff 14 	mov    BYTE PTR [rbp-0x1514],0x14
    4d1f:	c6 85 ed ea ff ff 56 	mov    BYTE PTR [rbp-0x1513],0x56
    4d26:	c6 85 ee ea ff ff 50 	mov    BYTE PTR [rbp-0x1512],0x50
    4d2d:	c6 85 ef ea ff ff 03 	mov    BYTE PTR [rbp-0x1511],0x3
    4d34:	c6 85 f0 ea ff ff 02 	mov    BYTE PTR [rbp-0x1510],0x2
    4d3b:	c6 85 f1 ea ff ff 0a 	mov    BYTE PTR [rbp-0x150f],0xa
    4d42:	c6 85 f2 ea ff ff db 	mov    BYTE PTR [rbp-0x150e],0xdb
    4d49:	c6 85 f3 ea ff ff 90 	mov    BYTE PTR [rbp-0x150d],0x90
    4d50:	c6 85 f4 ea ff ff 02 	mov    BYTE PTR [rbp-0x150c],0x2
    4d57:	c6 85 f5 ea ff ff 2a 	mov    BYTE PTR [rbp-0x150b],0x2a
    4d5e:	c6 85 f6 ea ff ff e0 	mov    BYTE PTR [rbp-0x150a],0xe0
    4d65:	c6 85 f7 ea ff ff ff 	mov    BYTE PTR [rbp-0x1509],0xff
    4d6c:	c6 85 f8 ea ff ff 90 	mov    BYTE PTR [rbp-0x1508],0x90
    4d73:	c6 85 f9 ea ff ff 04 	mov    BYTE PTR [rbp-0x1507],0x4
    4d7a:	c6 85 fa ea ff ff 50 	mov    BYTE PTR [rbp-0x1506],0x50
    4d81:	c6 85 fb ea ff ff e0 	mov    BYTE PTR [rbp-0x1505],0xe0
    4d88:	c6 85 fc ea ff ff 5f 	mov    BYTE PTR [rbp-0x1504],0x5f
    4d8f:	c6 85 fd ea ff ff d3 	mov    BYTE PTR [rbp-0x1503],0xd3
    4d96:	c6 85 fe ea ff ff 12 	mov    BYTE PTR [rbp-0x1502],0x12
    4d9d:	c6 85 ff ea ff ff 19 	mov    BYTE PTR [rbp-0x1501],0x19
    4da4:	c6 85 00 eb ff ff 15 	mov    BYTE PTR [rbp-0x1500],0x15
    4dab:	c6 85 01 eb ff ff 50 	mov    BYTE PTR [rbp-0x14ff],0x50
    4db2:	c6 85 02 eb ff ff 28 	mov    BYTE PTR [rbp-0x14fe],0x28
    4db9:	c6 85 03 eb ff ff 90 	mov    BYTE PTR [rbp-0x14fd],0x90
    4dc0:	c6 85 04 eb ff ff 02 	mov    BYTE PTR [rbp-0x14fc],0x2
    4dc7:	c6 85 05 eb ff ff 2b 	mov    BYTE PTR [rbp-0x14fb],0x2b
    4dce:	c6 85 06 eb ff ff e0 	mov    BYTE PTR [rbp-0x14fa],0xe0
    4dd5:	c6 85 07 eb ff ff 90 	mov    BYTE PTR [rbp-0x14f9],0x90
    4ddc:	c6 85 08 eb ff ff 04 	mov    BYTE PTR [rbp-0x14f8],0x4
    4de3:	c6 85 09 eb ff ff 51 	mov    BYTE PTR [rbp-0x14f7],0x51
    4dea:	c6 85 0a eb ff ff 12 	mov    BYTE PTR [rbp-0x14f6],0x12
    4df1:	c6 85 0b eb ff ff 19 	mov    BYTE PTR [rbp-0x14f5],0x19
    4df8:	c6 85 0c eb ff ff 12 	mov    BYTE PTR [rbp-0x14f4],0x12
    4dff:	c6 85 0d eb ff ff 50 	mov    BYTE PTR [rbp-0x14f3],0x50
    4e06:	c6 85 0e eb ff ff 1c 	mov    BYTE PTR [rbp-0x14f2],0x1c
    4e0d:	c6 85 0f eb ff ff 90 	mov    BYTE PTR [rbp-0x14f1],0x90
    4e14:	c6 85 10 eb ff ff 02 	mov    BYTE PTR [rbp-0x14f0],0x2
    4e1b:	c6 85 11 eb ff ff 2c 	mov    BYTE PTR [rbp-0x14ef],0x2c
    4e22:	c6 85 12 eb ff ff e0 	mov    BYTE PTR [rbp-0x14ee],0xe0
    4e29:	c6 85 13 eb ff ff 90 	mov    BYTE PTR [rbp-0x14ed],0x90
    4e30:	c6 85 14 eb ff ff 04 	mov    BYTE PTR [rbp-0x14ec],0x4
    4e37:	c6 85 15 eb ff ff 52 	mov    BYTE PTR [rbp-0x14eb],0x52
    4e3e:	c6 85 16 eb ff ff 12 	mov    BYTE PTR [rbp-0x14ea],0x12
    4e45:	c6 85 17 eb ff ff 19 	mov    BYTE PTR [rbp-0x14e9],0x19
    4e4c:	c6 85 18 eb ff ff 12 	mov    BYTE PTR [rbp-0x14e8],0x12
    4e53:	c6 85 19 eb ff ff 50 	mov    BYTE PTR [rbp-0x14e7],0x50
    4e5a:	c6 85 1a eb ff ff 10 	mov    BYTE PTR [rbp-0x14e6],0x10
    4e61:	c6 85 1b eb ff ff 90 	mov    BYTE PTR [rbp-0x14e5],0x90
    4e68:	c6 85 1c eb ff ff 02 	mov    BYTE PTR [rbp-0x14e4],0x2
    4e6f:	c6 85 1d eb ff ff 2d 	mov    BYTE PTR [rbp-0x14e3],0x2d
    4e76:	c6 85 1e eb ff ff e0 	mov    BYTE PTR [rbp-0x14e2],0xe0
    4e7d:	c6 85 1f eb ff ff ff 	mov    BYTE PTR [rbp-0x14e1],0xff
    4e84:	c6 85 20 eb ff ff 90 	mov    BYTE PTR [rbp-0x14e0],0x90
    4e8b:	c6 85 21 eb ff ff 04 	mov    BYTE PTR [rbp-0x14df],0x4
    4e92:	c6 85 22 eb ff ff 53 	mov    BYTE PTR [rbp-0x14de],0x53
    4e99:	c6 85 23 eb ff ff 12 	mov    BYTE PTR [rbp-0x14dd],0x12
    4ea0:	c6 85 24 eb ff ff 19 	mov    BYTE PTR [rbp-0x14dc],0x19
    4ea7:	c6 85 25 eb ff ff 13 	mov    BYTE PTR [rbp-0x14db],0x13
    4eae:	c6 85 26 eb ff ff 50 	mov    BYTE PTR [rbp-0x14da],0x50
    4eb5:	c6 85 27 eb ff ff 03 	mov    BYTE PTR [rbp-0x14d9],0x3
    4ebc:	c6 85 28 eb ff ff 02 	mov    BYTE PTR [rbp-0x14d8],0x2
    4ec3:	c6 85 29 eb ff ff 0a 	mov    BYTE PTR [rbp-0x14d7],0xa
    4eca:	c6 85 2a eb ff ff db 	mov    BYTE PTR [rbp-0x14d6],0xdb
    4ed1:	c6 85 2b eb ff ff 90 	mov    BYTE PTR [rbp-0x14d5],0x90
    4ed8:	c6 85 2c eb ff ff 04 	mov    BYTE PTR [rbp-0x14d4],0x4
    4edf:	c6 85 2d eb ff ff 58 	mov    BYTE PTR [rbp-0x14d3],0x58
    4ee6:	c6 85 2e eb ff ff e0 	mov    BYTE PTR [rbp-0x14d2],0xe0
    4eed:	48 8d 95 20 e9 ff ff 	lea    rdx,[rbp-0x16e0]
    4ef4:	b8 00 00 00 00       	mov    eax,0x0
    4ef9:	b9 21 00 00 00       	mov    ecx,0x21
    4efe:	48 89 d7             	mov    rdi,rdx
    4f01:	f3 48 ab             	rep stos QWORD PTR es:[rdi],rax
    4f04:	48 89 fa             	mov    rdx,rdi
    4f07:	89 02                	mov    DWORD PTR [rdx],eax
    4f09:	48 83 c2 04          	add    rdx,0x4
    4f0d:	66 89 02             	mov    WORD PTR [rdx],ax
    4f10:	48 83 c2 02          	add    rdx,0x2
    4f14:	c6 85 21 e9 ff ff 58 	mov    BYTE PTR [rbp-0x16df],0x58
    4f1b:	c6 85 22 e9 ff ff 89 	mov    BYTE PTR [rbp-0x16de],0x89
    4f22:	c6 85 23 e9 ff ff f8 	mov    BYTE PTR [rbp-0x16dd],0xf8
    4f29:	c6 85 24 e9 ff ff ff 	mov    BYTE PTR [rbp-0x16dc],0xff
    4f30:	48 8d 95 10 e8 ff ff 	lea    rdx,[rbp-0x17f0]
    4f37:	b8 00 00 00 00       	mov    eax,0x0
    4f3c:	b9 21 00 00 00       	mov    ecx,0x21
    4f41:	48 89 d7             	mov    rdi,rdx
    4f44:	f3 48 ab             	rep stos QWORD PTR es:[rdi],rax
    4f47:	48 89 fa             	mov    rdx,rdi
    4f4a:	89 02                	mov    DWORD PTR [rdx],eax
    4f4c:	48 83 c2 04          	add    rdx,0x4
    4f50:	66 89 02             	mov    WORD PTR [rdx],ax
    4f53:	48 83 c2 02          	add    rdx,0x2
    4f57:	c6 85 10 e8 ff ff 60 	mov    BYTE PTR [rbp-0x17f0],0x60
    4f5e:	c6 85 11 e8 ff ff 2d 	mov    BYTE PTR [rbp-0x17ef],0x2d
    4f65:	c6 85 12 e8 ff ff 90 	mov    BYTE PTR [rbp-0x17ee],0x90
    4f6c:	c6 85 13 e8 ff ff 06 	mov    BYTE PTR [rbp-0x17ed],0x6
    4f73:	c6 85 14 e8 ff ff f4 	mov    BYTE PTR [rbp-0x17ec],0xf4
    4f7a:	c6 85 15 e8 ff ff e0 	mov    BYTE PTR [rbp-0x17eb],0xe0
    4f81:	c6 85 16 e8 ff ff ff 	mov    BYTE PTR [rbp-0x17ea],0xff
    4f88:	c6 85 17 e8 ff ff 90 	mov    BYTE PTR [rbp-0x17e9],0x90
    4f8f:	c6 85 18 e8 ff ff 04 	mov    BYTE PTR [rbp-0x17e8],0x4
    4f96:	c6 85 19 e8 ff ff 59 	mov    BYTE PTR [rbp-0x17e7],0x59
    4f9d:	c6 85 1a e8 ff ff e0 	mov    BYTE PTR [rbp-0x17e6],0xe0
    4fa4:	c6 85 1b e8 ff ff 6f 	mov    BYTE PTR [rbp-0x17e5],0x6f
    4fab:	c6 85 1c e8 ff ff 60 	mov    BYTE PTR [rbp-0x17e4],0x60
    4fb2:	c6 85 1d e8 ff ff 03 	mov    BYTE PTR [rbp-0x17e3],0x3
    4fb9:	c6 85 1e e8 ff ff 02 	mov    BYTE PTR [rbp-0x17e2],0x2
    4fc0:	c6 85 1f e8 ff ff 0a 	mov    BYTE PTR [rbp-0x17e1],0xa
    4fc7:	c6 85 20 e8 ff ff db 	mov    BYTE PTR [rbp-0x17e0],0xdb
    4fce:	c6 85 21 e8 ff ff 90 	mov    BYTE PTR [rbp-0x17df],0x90
    4fd5:	c6 85 22 e8 ff ff 06 	mov    BYTE PTR [rbp-0x17de],0x6
    4fdc:	c6 85 23 e8 ff ff f5 	mov    BYTE PTR [rbp-0x17dd],0xf5
    4fe3:	c6 85 24 e8 ff ff e0 	mov    BYTE PTR [rbp-0x17dc],0xe0
    4fea:	c6 85 25 e8 ff ff ff 	mov    BYTE PTR [rbp-0x17db],0xff
    4ff1:	c6 85 26 e8 ff ff 90 	mov    BYTE PTR [rbp-0x17da],0x90
    4ff8:	c6 85 27 e8 ff ff 04 	mov    BYTE PTR [rbp-0x17d9],0x4
    4fff:	c6 85 28 e8 ff ff 5a 	mov    BYTE PTR [rbp-0x17d8],0x5a
    5006:	c6 85 29 e8 ff ff e0 	mov    BYTE PTR [rbp-0x17d7],0xe0
    500d:	c6 85 2a e8 ff ff 6f 	mov    BYTE PTR [rbp-0x17d6],0x6f
    5014:	c6 85 2b e8 ff ff 60 	mov    BYTE PTR [rbp-0x17d5],0x60
    501b:	c6 85 2c e8 ff ff 03 	mov    BYTE PTR [rbp-0x17d4],0x3
    5022:	c6 85 2d e8 ff ff 02 	mov    BYTE PTR [rbp-0x17d3],0x2
    5029:	c6 85 2e e8 ff ff 0a 	mov    BYTE PTR [rbp-0x17d2],0xa
    5030:	c6 85 2f e8 ff ff db 	mov    BYTE PTR [rbp-0x17d1],0xdb
    5037:	c6 85 30 e8 ff ff 90 	mov    BYTE PTR [rbp-0x17d0],0x90
    503e:	c6 85 31 e8 ff ff 06 	mov    BYTE PTR [rbp-0x17cf],0x6
    5045:	c6 85 32 e8 ff ff f6 	mov    BYTE PTR [rbp-0x17ce],0xf6
    504c:	c6 85 33 e8 ff ff e0 	mov    BYTE PTR [rbp-0x17cd],0xe0
    5053:	c6 85 34 e8 ff ff ff 	mov    BYTE PTR [rbp-0x17cc],0xff
    505a:	c6 85 35 e8 ff ff 90 	mov    BYTE PTR [rbp-0x17cb],0x90
    5061:	c6 85 36 e8 ff ff 04 	mov    BYTE PTR [rbp-0x17ca],0x4
    5068:	c6 85 37 e8 ff ff 61 	mov    BYTE PTR [rbp-0x17c9],0x61
    506f:	c6 85 38 e8 ff ff e0 	mov    BYTE PTR [rbp-0x17c8],0xe0
    5076:	c6 85 39 e8 ff ff 6f 	mov    BYTE PTR [rbp-0x17c7],0x6f
    507d:	c6 85 3a e8 ff ff 60 	mov    BYTE PTR [rbp-0x17c6],0x60
    5084:	c6 85 3b e8 ff ff 03 	mov    BYTE PTR [rbp-0x17c5],0x3
    508b:	c6 85 3c e8 ff ff 02 	mov    BYTE PTR [rbp-0x17c4],0x2
    5092:	c6 85 3d e8 ff ff 0a 	mov    BYTE PTR [rbp-0x17c3],0xa
    5099:	c6 85 3e e8 ff ff db 	mov    BYTE PTR [rbp-0x17c2],0xdb
    50a0:	c6 85 3f e8 ff ff 90 	mov    BYTE PTR [rbp-0x17c1],0x90
    50a7:	c6 85 41 e8 ff ff 12 	mov    BYTE PTR [rbp-0x17bf],0x12
    50ae:	c6 85 42 e8 ff ff 74 	mov    BYTE PTR [rbp-0x17be],0x74
    50b5:	c6 85 43 e8 ff ff 25 	mov    BYTE PTR [rbp-0x17bd],0x25
    50bc:	c6 85 44 e8 ff ff f0 	mov    BYTE PTR [rbp-0x17bc],0xf0
    50c3:	c6 85 45 e8 ff ff a3 	mov    BYTE PTR [rbp-0x17bb],0xa3
    50ca:	c6 85 46 e8 ff ff 74 	mov    BYTE PTR [rbp-0x17ba],0x74
    50d1:	c6 85 47 e8 ff ff 0d 	mov    BYTE PTR [rbp-0x17b9],0xd
    50d8:	c6 85 48 e8 ff ff f0 	mov    BYTE PTR [rbp-0x17b8],0xf0
    50df:	c6 85 49 e8 ff ff e4 	mov    BYTE PTR [rbp-0x17b7],0xe4
    50e6:	c6 85 4a e8 ff ff a3 	mov    BYTE PTR [rbp-0x17b6],0xa3
    50ed:	c6 85 4b e8 ff ff f0 	mov    BYTE PTR [rbp-0x17b5],0xf0
    50f4:	c6 85 4c e8 ff ff a3 	mov    BYTE PTR [rbp-0x17b4],0xa3
    50fb:	c6 85 4d e8 ff ff f0 	mov    BYTE PTR [rbp-0x17b3],0xf0
    5102:	c6 85 4e e8 ff ff a3 	mov    BYTE PTR [rbp-0x17b2],0xa3
    5109:	c6 85 4f e8 ff ff 04 	mov    BYTE PTR [rbp-0x17b1],0x4
    5110:	c6 85 50 e8 ff ff f0 	mov    BYTE PTR [rbp-0x17b0],0xf0
    5117:	c6 85 51 e8 ff ff e4 	mov    BYTE PTR [rbp-0x17af],0xe4
    511e:	c6 85 52 e8 ff ff a3 	mov    BYTE PTR [rbp-0x17ae],0xa3
    5125:	c6 85 53 e8 ff ff f0 	mov    BYTE PTR [rbp-0x17ad],0xf0
    512c:	c6 85 54 e8 ff ff a3 	mov    BYTE PTR [rbp-0x17ac],0xa3
    5133:	c6 85 55 e8 ff ff f0 	mov    BYTE PTR [rbp-0x17ab],0xf0
    513a:	c6 85 56 e8 ff ff 90 	mov    BYTE PTR [rbp-0x17aa],0x90
    5141:	c6 85 57 e8 ff ff 02 	mov    BYTE PTR [rbp-0x17a9],0x2
    5148:	c6 85 58 e8 ff ff 1a 	mov    BYTE PTR [rbp-0x17a8],0x1a
    514f:	c6 85 59 e8 ff ff e0 	mov    BYTE PTR [rbp-0x17a7],0xe0
    5156:	c6 85 5a e8 ff ff 90 	mov    BYTE PTR [rbp-0x17a6],0x90
    515d:	c6 85 5c e8 ff ff 19 	mov    BYTE PTR [rbp-0x17a4],0x19
    5164:	c6 85 5d e8 ff ff f0 	mov    BYTE PTR [rbp-0x17a3],0xf0
    516b:	c6 85 5e e8 ff ff 90 	mov    BYTE PTR [rbp-0x17a2],0x90
    5172:	c6 85 5f e8 ff ff 02 	mov    BYTE PTR [rbp-0x17a1],0x2
    5179:	c6 85 60 e8 ff ff 1b 	mov    BYTE PTR [rbp-0x17a0],0x1b
    5180:	c6 85 61 e8 ff ff e0 	mov    BYTE PTR [rbp-0x179f],0xe0
    5187:	c6 85 62 e8 ff ff 90 	mov    BYTE PTR [rbp-0x179e],0x90
    518e:	c6 85 64 e8 ff ff 1a 	mov    BYTE PTR [rbp-0x179c],0x1a
    5195:	c6 85 65 e8 ff ff f0 	mov    BYTE PTR [rbp-0x179b],0xf0
    519c:	c6 85 66 e8 ff ff 90 	mov    BYTE PTR [rbp-0x179a],0x90
    51a3:	c6 85 67 e8 ff ff 02 	mov    BYTE PTR [rbp-0x1799],0x2
    51aa:	c6 85 68 e8 ff ff 1c 	mov    BYTE PTR [rbp-0x1798],0x1c
    51b1:	c6 85 69 e8 ff ff e0 	mov    BYTE PTR [rbp-0x1797],0xe0
    51b8:	c6 85 6a e8 ff ff 90 	mov    BYTE PTR [rbp-0x1796],0x90
    51bf:	c6 85 6c e8 ff ff 1b 	mov    BYTE PTR [rbp-0x1794],0x1b
    51c6:	c6 85 6d e8 ff ff f0 	mov    BYTE PTR [rbp-0x1793],0xf0
    51cd:	c6 85 6e e8 ff ff 90 	mov    BYTE PTR [rbp-0x1792],0x90
    51d4:	c6 85 6f e8 ff ff 02 	mov    BYTE PTR [rbp-0x1791],0x2
    51db:	c6 85 70 e8 ff ff 1d 	mov    BYTE PTR [rbp-0x1790],0x1d
    51e2:	c6 85 71 e8 ff ff e0 	mov    BYTE PTR [rbp-0x178f],0xe0
    51e9:	c6 85 72 e8 ff ff 90 	mov    BYTE PTR [rbp-0x178e],0x90
    51f0:	c6 85 74 e8 ff ff 1c 	mov    BYTE PTR [rbp-0x178c],0x1c
    51f7:	c6 85 75 e8 ff ff f0 	mov    BYTE PTR [rbp-0x178b],0xf0
    51fe:	c6 85 76 e8 ff ff 90 	mov    BYTE PTR [rbp-0x178a],0x90
    5205:	c6 85 77 e8 ff ff 02 	mov    BYTE PTR [rbp-0x1789],0x2
    520c:	c6 85 78 e8 ff ff 1e 	mov    BYTE PTR [rbp-0x1788],0x1e
    5213:	c6 85 79 e8 ff ff e0 	mov    BYTE PTR [rbp-0x1787],0xe0
    521a:	c6 85 7a e8 ff ff 90 	mov    BYTE PTR [rbp-0x1786],0x90
    5221:	c6 85 7c e8 ff ff 1d 	mov    BYTE PTR [rbp-0x1784],0x1d
    5228:	c6 85 7d e8 ff ff f0 	mov    BYTE PTR [rbp-0x1783],0xf0
    522f:	c6 85 7e e8 ff ff 90 	mov    BYTE PTR [rbp-0x1782],0x90
    5236:	c6 85 7f e8 ff ff 02 	mov    BYTE PTR [rbp-0x1781],0x2
    523d:	c6 85 80 e8 ff ff 1f 	mov    BYTE PTR [rbp-0x1780],0x1f
    5244:	c6 85 81 e8 ff ff e0 	mov    BYTE PTR [rbp-0x177f],0xe0
    524b:	c6 85 82 e8 ff ff 90 	mov    BYTE PTR [rbp-0x177e],0x90
    5252:	c6 85 84 e8 ff ff 1e 	mov    BYTE PTR [rbp-0x177c],0x1e
    5259:	c6 85 85 e8 ff ff f0 	mov    BYTE PTR [rbp-0x177b],0xf0
    5260:	c6 85 86 e8 ff ff 90 	mov    BYTE PTR [rbp-0x177a],0x90
    5267:	c6 85 87 e8 ff ff 02 	mov    BYTE PTR [rbp-0x1779],0x2
    526e:	c6 85 88 e8 ff ff 20 	mov    BYTE PTR [rbp-0x1778],0x20
    5275:	c6 85 89 e8 ff ff e0 	mov    BYTE PTR [rbp-0x1777],0xe0
    527c:	c6 85 8a e8 ff ff 90 	mov    BYTE PTR [rbp-0x1776],0x90
    5283:	c6 85 8c e8 ff ff 1f 	mov    BYTE PTR [rbp-0x1774],0x1f
    528a:	c6 85 8d e8 ff ff f0 	mov    BYTE PTR [rbp-0x1773],0xf0
    5291:	c6 85 8e e8 ff ff 90 	mov    BYTE PTR [rbp-0x1772],0x90
    5298:	c6 85 8f e8 ff ff 02 	mov    BYTE PTR [rbp-0x1771],0x2
    529f:	c6 85 90 e8 ff ff 21 	mov    BYTE PTR [rbp-0x1770],0x21
    52a6:	c6 85 91 e8 ff ff e0 	mov    BYTE PTR [rbp-0x176f],0xe0
    52ad:	c6 85 92 e8 ff ff 90 	mov    BYTE PTR [rbp-0x176e],0x90
    52b4:	c6 85 94 e8 ff ff 20 	mov    BYTE PTR [rbp-0x176c],0x20
    52bb:	c6 85 95 e8 ff ff f0 	mov    BYTE PTR [rbp-0x176b],0xf0
    52c2:	c6 85 96 e8 ff ff a3 	mov    BYTE PTR [rbp-0x176a],0xa3
    52c9:	c6 85 97 e8 ff ff 74 	mov    BYTE PTR [rbp-0x1769],0x74
    52d0:	c6 85 98 e8 ff ff 25 	mov    BYTE PTR [rbp-0x1768],0x25
    52d7:	c6 85 99 e8 ff ff f0 	mov    BYTE PTR [rbp-0x1767],0xf0
    52de:	c6 85 9a e8 ff ff 74 	mov    BYTE PTR [rbp-0x1766],0x74
    52e5:	c6 85 9b e8 ff ff 0d 	mov    BYTE PTR [rbp-0x1765],0xd
    52ec:	c6 85 9c e8 ff ff 12 	mov    BYTE PTR [rbp-0x1764],0x12
    52f3:	c6 85 9d e8 ff ff 18 	mov    BYTE PTR [rbp-0x1763],0x18
    52fa:	c6 85 9e e8 ff ff e5 	mov    BYTE PTR [rbp-0x1762],0xe5
    5301:	c6 85 9f e8 ff ff a3 	mov    BYTE PTR [rbp-0x1761],0xa3
    5308:	c6 85 a0 e8 ff ff f0 	mov    BYTE PTR [rbp-0x1760],0xf0
    530f:	c6 85 a1 e8 ff ff a3 	mov    BYTE PTR [rbp-0x175f],0xa3
    5316:	c6 85 a2 e8 ff ff f0 	mov    BYTE PTR [rbp-0x175e],0xf0
    531d:	c6 85 a3 e8 ff ff 90 	mov    BYTE PTR [rbp-0x175d],0x90
    5324:	c6 85 a4 e8 ff ff 02 	mov    BYTE PTR [rbp-0x175c],0x2
    532b:	c6 85 a5 e8 ff ff 22 	mov    BYTE PTR [rbp-0x175b],0x22
    5332:	c6 85 a6 e8 ff ff e0 	mov    BYTE PTR [rbp-0x175a],0xe0
    5339:	c6 85 a7 e8 ff ff 90 	mov    BYTE PTR [rbp-0x1759],0x90
    5340:	c6 85 a9 e8 ff ff 28 	mov    BYTE PTR [rbp-0x1757],0x28
    5347:	c6 85 aa e8 ff ff f0 	mov    BYTE PTR [rbp-0x1756],0xf0
    534e:	c6 85 ab e8 ff ff 90 	mov    BYTE PTR [rbp-0x1755],0x90
    5355:	c6 85 ac e8 ff ff 02 	mov    BYTE PTR [rbp-0x1754],0x2
    535c:	c6 85 ad e8 ff ff 23 	mov    BYTE PTR [rbp-0x1753],0x23
    5363:	c6 85 ae e8 ff ff e0 	mov    BYTE PTR [rbp-0x1752],0xe0
    536a:	c6 85 af e8 ff ff 90 	mov    BYTE PTR [rbp-0x1751],0x90
    5371:	c6 85 b1 e8 ff ff 29 	mov    BYTE PTR [rbp-0x174f],0x29
    5378:	c6 85 b2 e8 ff ff f0 	mov    BYTE PTR [rbp-0x174e],0xf0
    537f:	c6 85 b3 e8 ff ff 90 	mov    BYTE PTR [rbp-0x174d],0x90
    5386:	c6 85 b4 e8 ff ff 02 	mov    BYTE PTR [rbp-0x174c],0x2
    538d:	c6 85 b5 e8 ff ff 24 	mov    BYTE PTR [rbp-0x174b],0x24
    5394:	c6 85 b6 e8 ff ff e0 	mov    BYTE PTR [rbp-0x174a],0xe0
    539b:	c6 85 b7 e8 ff ff 90 	mov    BYTE PTR [rbp-0x1749],0x90
    53a2:	c6 85 b9 e8 ff ff 2a 	mov    BYTE PTR [rbp-0x1747],0x2a
    53a9:	c6 85 ba e8 ff ff f0 	mov    BYTE PTR [rbp-0x1746],0xf0
    53b0:	c6 85 bb e8 ff ff 90 	mov    BYTE PTR [rbp-0x1745],0x90
    53b7:	c6 85 bc e8 ff ff 02 	mov    BYTE PTR [rbp-0x1744],0x2
    53be:	c6 85 bd e8 ff ff 25 	mov    BYTE PTR [rbp-0x1743],0x25
    53c5:	c6 85 be e8 ff ff e0 	mov    BYTE PTR [rbp-0x1742],0xe0
    53cc:	c6 85 bf e8 ff ff 90 	mov    BYTE PTR [rbp-0x1741],0x90
    53d3:	c6 85 c1 e8 ff ff 2b 	mov    BYTE PTR [rbp-0x173f],0x2b
    53da:	c6 85 c2 e8 ff ff f0 	mov    BYTE PTR [rbp-0x173e],0xf0
    53e1:	c6 85 c3 e8 ff ff 90 	mov    BYTE PTR [rbp-0x173d],0x90
    53e8:	c6 85 c4 e8 ff ff 02 	mov    BYTE PTR [rbp-0x173c],0x2
    53ef:	c6 85 c5 e8 ff ff 26 	mov    BYTE PTR [rbp-0x173b],0x26
    53f6:	c6 85 c6 e8 ff ff e0 	mov    BYTE PTR [rbp-0x173a],0xe0
    53fd:	c6 85 c7 e8 ff ff 90 	mov    BYTE PTR [rbp-0x1739],0x90
    5404:	c6 85 c9 e8 ff ff 2c 	mov    BYTE PTR [rbp-0x1737],0x2c
    540b:	c6 85 ca e8 ff ff f0 	mov    BYTE PTR [rbp-0x1736],0xf0
    5412:	c6 85 cb e8 ff ff 90 	mov    BYTE PTR [rbp-0x1735],0x90
    5419:	c6 85 cc e8 ff ff 02 	mov    BYTE PTR [rbp-0x1734],0x2
    5420:	c6 85 cd e8 ff ff 27 	mov    BYTE PTR [rbp-0x1733],0x27
    5427:	c6 85 ce e8 ff ff e0 	mov    BYTE PTR [rbp-0x1732],0xe0
    542e:	c6 85 cf e8 ff ff 90 	mov    BYTE PTR [rbp-0x1731],0x90
    5435:	c6 85 d1 e8 ff ff 2d 	mov    BYTE PTR [rbp-0x172f],0x2d
    543c:	c6 85 d2 e8 ff ff f0 	mov    BYTE PTR [rbp-0x172e],0xf0
    5443:	c6 85 d3 e8 ff ff 90 	mov    BYTE PTR [rbp-0x172d],0x90
    544a:	c6 85 d4 e8 ff ff 02 	mov    BYTE PTR [rbp-0x172c],0x2
    5451:	c6 85 d5 e8 ff ff 28 	mov    BYTE PTR [rbp-0x172b],0x28
    5458:	c6 85 d6 e8 ff ff e0 	mov    BYTE PTR [rbp-0x172a],0xe0
    545f:	c6 85 d7 e8 ff ff 90 	mov    BYTE PTR [rbp-0x1729],0x90
    5466:	c6 85 d9 e8 ff ff 2e 	mov    BYTE PTR [rbp-0x1727],0x2e
    546d:	c6 85 da e8 ff ff f0 	mov    BYTE PTR [rbp-0x1726],0xf0
    5474:	c6 85 db e8 ff ff 90 	mov    BYTE PTR [rbp-0x1725],0x90
    547b:	c6 85 dc e8 ff ff 02 	mov    BYTE PTR [rbp-0x1724],0x2
    5482:	c6 85 dd e8 ff ff 29 	mov    BYTE PTR [rbp-0x1723],0x29
    5489:	c6 85 de e8 ff ff e0 	mov    BYTE PTR [rbp-0x1722],0xe0
    5490:	c6 85 df e8 ff ff 90 	mov    BYTE PTR [rbp-0x1721],0x90
    5497:	c6 85 e1 e8 ff ff 2f 	mov    BYTE PTR [rbp-0x171f],0x2f
    549e:	c6 85 e2 e8 ff ff f0 	mov    BYTE PTR [rbp-0x171e],0xf0
    54a5:	c6 85 e3 e8 ff ff a3 	mov    BYTE PTR [rbp-0x171d],0xa3
    54ac:	c6 85 e4 e8 ff ff 12 	mov    BYTE PTR [rbp-0x171c],0x12
    54b3:	c6 85 e5 e8 ff ff 19 	mov    BYTE PTR [rbp-0x171b],0x19
    54ba:	c6 85 e6 e8 ff ff 4b 	mov    BYTE PTR [rbp-0x171a],0x4b
    54c1:	c6 85 e7 e8 ff ff a3 	mov    BYTE PTR [rbp-0x1719],0xa3
    54c8:	c6 85 e8 e8 ff ff 74 	mov    BYTE PTR [rbp-0x1718],0x74
    54cf:	c6 85 e9 e8 ff ff 40 	mov    BYTE PTR [rbp-0x1717],0x40
    54d6:	c6 85 ea e8 ff ff f0 	mov    BYTE PTR [rbp-0x1716],0xf0
    54dd:	c6 85 eb e8 ff ff e4 	mov    BYTE PTR [rbp-0x1715],0xe4
    54e4:	c6 85 ec e8 ff ff a3 	mov    BYTE PTR [rbp-0x1714],0xa3
    54eb:	c6 85 ed e8 ff ff f0 	mov    BYTE PTR [rbp-0x1713],0xf0
    54f2:	c6 85 ee e8 ff ff 7f 	mov    BYTE PTR [rbp-0x1712],0x7f
    54f9:	c6 85 ef e8 ff ff 22 	mov    BYTE PTR [rbp-0x1711],0x22
    5500:	c6 85 f0 e8 ff ff 02 	mov    BYTE PTR [rbp-0x1710],0x2
    5507:	c6 85 f1 e8 ff ff 0c 	mov    BYTE PTR [rbp-0x170f],0xc
    550e:	c6 85 f2 e8 ff ff df 	mov    BYTE PTR [rbp-0x170e],0xdf
    5515:	c6 85 f3 e8 ff ff 90 	mov    BYTE PTR [rbp-0x170d],0x90
    551c:	c6 85 f5 e8 ff ff 12 	mov    BYTE PTR [rbp-0x170b],0x12
    5523:	c6 85 f6 e8 ff ff 12 	mov    BYTE PTR [rbp-0x170a],0x12
    552a:	c6 85 f7 e8 ff ff 19 	mov    BYTE PTR [rbp-0x1709],0x19
    5531:	c6 85 f8 e8 ff ff 4b 	mov    BYTE PTR [rbp-0x1708],0x4b
    5538:	c6 85 f9 e8 ff ff e4 	mov    BYTE PTR [rbp-0x1707],0xe4
    553f:	c6 85 fa e8 ff ff a3 	mov    BYTE PTR [rbp-0x1706],0xa3
    5546:	c6 85 fb e8 ff ff f0 	mov    BYTE PTR [rbp-0x1705],0xf0
    554d:	c6 85 fc e8 ff ff a3 	mov    BYTE PTR [rbp-0x1704],0xa3
    5554:	c6 85 fd e8 ff ff f0 	mov    BYTE PTR [rbp-0x1703],0xf0
    555b:	c6 85 fe e8 ff ff 7f 	mov    BYTE PTR [rbp-0x1702],0x7f
    5562:	c6 85 ff e8 ff ff 04 	mov    BYTE PTR [rbp-0x1701],0x4
    5569:	c6 85 00 e9 ff ff 02 	mov    BYTE PTR [rbp-0x1700],0x2
    5570:	c6 85 01 e9 ff ff 0c 	mov    BYTE PTR [rbp-0x16ff],0xc
    5577:	c6 85 02 e9 ff ff df 	mov    BYTE PTR [rbp-0x16fe],0xdf
    557e:	c6 85 03 e9 ff ff 90 	mov    BYTE PTR [rbp-0x16fd],0x90
    5585:	c6 85 05 e9 ff ff 0f 	mov    BYTE PTR [rbp-0x16fb],0xf
    558c:	c6 85 06 e9 ff ff e0 	mov    BYTE PTR [rbp-0x16fa],0xe0
    5593:	c6 85 07 e9 ff ff a3 	mov    BYTE PTR [rbp-0x16f9],0xa3
    559a:	c6 85 08 e9 ff ff f0 	mov    BYTE PTR [rbp-0x16f8],0xf0
    55a1:	c6 85 09 e9 ff ff 64 	mov    BYTE PTR [rbp-0x16f7],0x64
    55a8:	c6 85 0a e9 ff ff 82 	mov    BYTE PTR [rbp-0x16f6],0x82
    55af:	c6 85 0b e9 ff ff 60 	mov    BYTE PTR [rbp-0x16f5],0x60
    55b6:	c6 85 0c e9 ff ff 03 	mov    BYTE PTR [rbp-0x16f4],0x3
    55bd:	c6 85 0d e9 ff ff 02 	mov    BYTE PTR [rbp-0x16f3],0x2
    55c4:	c6 85 0e e9 ff ff 0c 	mov    BYTE PTR [rbp-0x16f2],0xc
    55cb:	48 8d 95 00 e7 ff ff 	lea    rdx,[rbp-0x1900]
    55d2:	b8 00 00 00 00       	mov    eax,0x0
    55d7:	b9 21 00 00 00       	mov    ecx,0x21
    55dc:	48 89 d7             	mov    rdi,rdx
    55df:	f3 48 ab             	rep stos QWORD PTR es:[rdi],rax
    55e2:	48 89 fa             	mov    rdx,rdi
    55e5:	89 02                	mov    DWORD PTR [rdx],eax
    55e7:	48 83 c2 04          	add    rdx,0x4
    55eb:	66 89 02             	mov    WORD PTR [rdx],ax
    55ee:	48 83 c2 02          	add    rdx,0x2
    55f2:	c6 85 01 e7 ff ff 58 	mov    BYTE PTR [rbp-0x18ff],0x58
    55f9:	c6 85 02 e7 ff ff 8a 	mov    BYTE PTR [rbp-0x18fe],0x8a
    5600:	c6 85 03 e7 ff ff f7 	mov    BYTE PTR [rbp-0x18fd],0xf7
    5607:	c6 85 04 e7 ff ff ff 	mov    BYTE PTR [rbp-0x18fc],0xff
    560e:	48 8d 95 f0 e5 ff ff 	lea    rdx,[rbp-0x1a10]
    5615:	b8 00 00 00 00       	mov    eax,0x0
    561a:	b9 21 00 00 00       	mov    ecx,0x21
    561f:	48 89 d7             	mov    rdi,rdx
    5622:	f3 48 ab             	rep stos QWORD PTR es:[rdi],rax
    5625:	48 89 fa             	mov    rdx,rdi
    5628:	89 02                	mov    DWORD PTR [rdx],eax
    562a:	48 83 c2 04          	add    rdx,0x4
    562e:	66 89 02             	mov    WORD PTR [rdx],ax
    5631:	48 83 c2 02          	add    rdx,0x2
    5635:	c6 85 f0 e5 ff ff a9 	mov    BYTE PTR [rbp-0x1a10],0xa9
    563c:	c6 85 f1 e5 ff ff 12 	mov    BYTE PTR [rbp-0x1a0f],0x12
    5643:	c6 85 f2 e5 ff ff 0d 	mov    BYTE PTR [rbp-0x1a0e],0xd
    564a:	c6 85 f3 e5 ff ff 14 	mov    BYTE PTR [rbp-0x1a0d],0x14
    5651:	c6 85 f4 e5 ff ff 12 	mov    BYTE PTR [rbp-0x1a0c],0x12
    5658:	c6 85 f5 e5 ff ff 1d 	mov    BYTE PTR [rbp-0x1a0b],0x1d
    565f:	c6 85 f6 e5 ff ff df 	mov    BYTE PTR [rbp-0x1a0a],0xdf
    5666:	c6 85 f7 e5 ff ff 12 	mov    BYTE PTR [rbp-0x1a09],0x12
    566d:	c6 85 f8 e5 ff ff 1d 	mov    BYTE PTR [rbp-0x1a08],0x1d
    5674:	c6 85 f9 e5 ff ff df 	mov    BYTE PTR [rbp-0x1a07],0xdf
    567b:	c6 85 fa e5 ff ff 90 	mov    BYTE PTR [rbp-0x1a06],0x90
    5682:	c6 85 fb e5 ff ff 06 	mov    BYTE PTR [rbp-0x1a05],0x6
    5689:	c6 85 fc e5 ff ff dd 	mov    BYTE PTR [rbp-0x1a04],0xdd
    5690:	c6 85 fd e5 ff ff ef 	mov    BYTE PTR [rbp-0x1a03],0xef
    5697:	c6 85 fe e5 ff ff f0 	mov    BYTE PTR [rbp-0x1a02],0xf0
    569e:	c6 85 ff e5 ff ff 12 	mov    BYTE PTR [rbp-0x1a01],0x12
    56a5:	c6 85 00 e6 ff ff 1d 	mov    BYTE PTR [rbp-0x1a00],0x1d
    56ac:	c6 85 01 e6 ff ff df 	mov    BYTE PTR [rbp-0x19ff],0xdf
    56b3:	c6 85 02 e6 ff ff 90 	mov    BYTE PTR [rbp-0x19fe],0x90
    56ba:	c6 85 03 e6 ff ff 06 	mov    BYTE PTR [rbp-0x19fd],0x6
    56c1:	c6 85 04 e6 ff ff de 	mov    BYTE PTR [rbp-0x19fc],0xde
    56c8:	c6 85 05 e6 ff ff ef 	mov    BYTE PTR [rbp-0x19fb],0xef
    56cf:	c6 85 06 e6 ff ff f0 	mov    BYTE PTR [rbp-0x19fa],0xf0
    56d6:	c6 85 07 e6 ff ff 12 	mov    BYTE PTR [rbp-0x19f9],0x12
    56dd:	c6 85 08 e6 ff ff 1d 	mov    BYTE PTR [rbp-0x19f8],0x1d
    56e4:	c6 85 09 e6 ff ff df 	mov    BYTE PTR [rbp-0x19f7],0xdf
    56eb:	c6 85 0a e6 ff ff 90 	mov    BYTE PTR [rbp-0x19f6],0x90
    56f2:	c6 85 0b e6 ff ff 06 	mov    BYTE PTR [rbp-0x19f5],0x6
    56f9:	c6 85 0c e6 ff ff df 	mov    BYTE PTR [rbp-0x19f4],0xdf
    5700:	c6 85 0d e6 ff ff ef 	mov    BYTE PTR [rbp-0x19f3],0xef
    5707:	c6 85 0e e6 ff ff f0 	mov    BYTE PTR [rbp-0x19f2],0xf0
    570e:	c6 85 0f e6 ff ff 12 	mov    BYTE PTR [rbp-0x19f1],0x12
    5715:	c6 85 10 e6 ff ff 1d 	mov    BYTE PTR [rbp-0x19f0],0x1d
    571c:	c6 85 11 e6 ff ff df 	mov    BYTE PTR [rbp-0x19ef],0xdf
    5723:	c6 85 12 e6 ff ff 90 	mov    BYTE PTR [rbp-0x19ee],0x90
    572a:	c6 85 13 e6 ff ff 06 	mov    BYTE PTR [rbp-0x19ed],0x6
    5731:	c6 85 14 e6 ff ff e0 	mov    BYTE PTR [rbp-0x19ec],0xe0
    5738:	c6 85 15 e6 ff ff 12 	mov    BYTE PTR [rbp-0x19eb],0x12
    573f:	c6 85 16 e6 ff ff 0c 	mov    BYTE PTR [rbp-0x19ea],0xc
    5746:	c6 85 17 e6 ff ff f0 	mov    BYTE PTR [rbp-0x19e9],0xf0
    574d:	c6 85 18 e6 ff ff 12 	mov    BYTE PTR [rbp-0x19e8],0x12
    5754:	c6 85 19 e6 ff ff 19 	mov    BYTE PTR [rbp-0x19e7],0x19
    575b:	c6 85 1a e6 ff ff a4 	mov    BYTE PTR [rbp-0x19e6],0xa4
    5762:	c6 85 1b e6 ff ff e4 	mov    BYTE PTR [rbp-0x19e5],0xe4
    5769:	c6 85 1c e6 ff ff 12 	mov    BYTE PTR [rbp-0x19e4],0x12
    5770:	c6 85 1d e6 ff ff 0d 	mov    BYTE PTR [rbp-0x19e3],0xd
    5777:	c6 85 1e e6 ff ff 63 	mov    BYTE PTR [rbp-0x19e2],0x63
    577e:	c6 85 1f e6 ff ff 12 	mov    BYTE PTR [rbp-0x19e1],0x12
    5785:	c6 85 20 e6 ff ff 17 	mov    BYTE PTR [rbp-0x19e0],0x17
    578c:	c6 85 21 e6 ff ff d3 	mov    BYTE PTR [rbp-0x19df],0xd3
    5793:	c6 85 22 e6 ff ff 90 	mov    BYTE PTR [rbp-0x19de],0x90
    579a:	c6 85 23 e6 ff ff 06 	mov    BYTE PTR [rbp-0x19dd],0x6
    57a1:	c6 85 24 e6 ff ff f0 	mov    BYTE PTR [rbp-0x19dc],0xf0
    57a8:	c6 85 25 e6 ff ff e0 	mov    BYTE PTR [rbp-0x19db],0xe0
    57af:	c6 85 26 e6 ff ff ff 	mov    BYTE PTR [rbp-0x19da],0xff
    57b6:	c6 85 27 e6 ff ff 90 	mov    BYTE PTR [rbp-0x19d9],0x90
    57bd:	c6 85 28 e6 ff ff 06 	mov    BYTE PTR [rbp-0x19d8],0x6
    57c4:	c6 85 29 e6 ff ff dd 	mov    BYTE PTR [rbp-0x19d7],0xdd
    57cb:	c6 85 2a e6 ff ff e0 	mov    BYTE PTR [rbp-0x19d6],0xe0
    57d2:	c6 85 2b e6 ff ff 6f 	mov    BYTE PTR [rbp-0x19d5],0x6f
    57d9:	c6 85 2c e6 ff ff 60 	mov    BYTE PTR [rbp-0x19d4],0x60
    57e0:	c6 85 2d e6 ff ff 03 	mov    BYTE PTR [rbp-0x19d3],0x3
    57e7:	c6 85 2e e6 ff ff 02 	mov    BYTE PTR [rbp-0x19d2],0x2
    57ee:	c6 85 2f e6 ff ff 0c 	mov    BYTE PTR [rbp-0x19d1],0xc
    57f5:	c6 85 30 e6 ff ff a9 	mov    BYTE PTR [rbp-0x19d0],0xa9
    57fc:	c6 85 31 e6 ff ff 90 	mov    BYTE PTR [rbp-0x19cf],0x90
    5803:	c6 85 32 e6 ff ff 06 	mov    BYTE PTR [rbp-0x19ce],0x6
    580a:	c6 85 33 e6 ff ff f1 	mov    BYTE PTR [rbp-0x19cd],0xf1
    5811:	c6 85 34 e6 ff ff e0 	mov    BYTE PTR [rbp-0x19cc],0xe0
    5818:	c6 85 35 e6 ff ff ff 	mov    BYTE PTR [rbp-0x19cb],0xff
    581f:	c6 85 36 e6 ff ff 90 	mov    BYTE PTR [rbp-0x19ca],0x90
    5826:	c6 85 37 e6 ff ff 06 	mov    BYTE PTR [rbp-0x19c9],0x6
    582d:	c6 85 38 e6 ff ff de 	mov    BYTE PTR [rbp-0x19c8],0xde
    5834:	c6 85 39 e6 ff ff e0 	mov    BYTE PTR [rbp-0x19c7],0xe0
    583b:	c6 85 3a e6 ff ff 6f 	mov    BYTE PTR [rbp-0x19c6],0x6f
    5842:	c6 85 3b e6 ff ff 60 	mov    BYTE PTR [rbp-0x19c5],0x60
    5849:	c6 85 3c e6 ff ff 03 	mov    BYTE PTR [rbp-0x19c4],0x3
    5850:	c6 85 3d e6 ff ff 02 	mov    BYTE PTR [rbp-0x19c3],0x2
    5857:	c6 85 3e e6 ff ff 0c 	mov    BYTE PTR [rbp-0x19c2],0xc
    585e:	c6 85 3f e6 ff ff a9 	mov    BYTE PTR [rbp-0x19c1],0xa9
    5865:	c6 85 40 e6 ff ff 90 	mov    BYTE PTR [rbp-0x19c0],0x90
    586c:	c6 85 41 e6 ff ff 06 	mov    BYTE PTR [rbp-0x19bf],0x6
    5873:	c6 85 42 e6 ff ff f2 	mov    BYTE PTR [rbp-0x19be],0xf2
    587a:	c6 85 43 e6 ff ff e0 	mov    BYTE PTR [rbp-0x19bd],0xe0
    5881:	c6 85 44 e6 ff ff ff 	mov    BYTE PTR [rbp-0x19bc],0xff
    5888:	c6 85 45 e6 ff ff 90 	mov    BYTE PTR [rbp-0x19bb],0x90
    588f:	c6 85 46 e6 ff ff 06 	mov    BYTE PTR [rbp-0x19ba],0x6
    5896:	c6 85 47 e6 ff ff df 	mov    BYTE PTR [rbp-0x19b9],0xdf
    589d:	c6 85 48 e6 ff ff e0 	mov    BYTE PTR [rbp-0x19b8],0xe0
    58a4:	c6 85 49 e6 ff ff 6f 	mov    BYTE PTR [rbp-0x19b7],0x6f
    58ab:	c6 85 4a e6 ff ff 60 	mov    BYTE PTR [rbp-0x19b6],0x60
    58b2:	c6 85 4b e6 ff ff 03 	mov    BYTE PTR [rbp-0x19b5],0x3
    58b9:	c6 85 4c e6 ff ff 02 	mov    BYTE PTR [rbp-0x19b4],0x2
    58c0:	c6 85 4d e6 ff ff 0c 	mov    BYTE PTR [rbp-0x19b3],0xc
    58c7:	c6 85 4e e6 ff ff a9 	mov    BYTE PTR [rbp-0x19b2],0xa9
    58ce:	c6 85 4f e6 ff ff 90 	mov    BYTE PTR [rbp-0x19b1],0x90
    58d5:	c6 85 50 e6 ff ff 06 	mov    BYTE PTR [rbp-0x19b0],0x6
    58dc:	c6 85 51 e6 ff ff f3 	mov    BYTE PTR [rbp-0x19af],0xf3
    58e3:	c6 85 52 e6 ff ff e0 	mov    BYTE PTR [rbp-0x19ae],0xe0
    58ea:	c6 85 53 e6 ff ff ff 	mov    BYTE PTR [rbp-0x19ad],0xff
    58f1:	c6 85 54 e6 ff ff 90 	mov    BYTE PTR [rbp-0x19ac],0x90
    58f8:	c6 85 55 e6 ff ff 06 	mov    BYTE PTR [rbp-0x19ab],0x6
    58ff:	c6 85 56 e6 ff ff e0 	mov    BYTE PTR [rbp-0x19aa],0xe0
    5906:	c6 85 57 e6 ff ff e0 	mov    BYTE PTR [rbp-0x19a9],0xe0
    590d:	c6 85 58 e6 ff ff 6f 	mov    BYTE PTR [rbp-0x19a8],0x6f
    5914:	c6 85 59 e6 ff ff 60 	mov    BYTE PTR [rbp-0x19a7],0x60
    591b:	c6 85 5a e6 ff ff 03 	mov    BYTE PTR [rbp-0x19a6],0x3
    5922:	c6 85 5b e6 ff ff 02 	mov    BYTE PTR [rbp-0x19a5],0x2
    5929:	c6 85 5c e6 ff ff 0c 	mov    BYTE PTR [rbp-0x19a4],0xc
    5930:	c6 85 5d e6 ff ff a9 	mov    BYTE PTR [rbp-0x19a3],0xa9
    5937:	c6 85 5e e6 ff ff 12 	mov    BYTE PTR [rbp-0x19a2],0x12
    593e:	c6 85 5f e6 ff ff 19 	mov    BYTE PTR [rbp-0x19a1],0x19
    5945:	c6 85 60 e6 ff ff a4 	mov    BYTE PTR [rbp-0x19a0],0xa4
    594c:	c6 85 61 e6 ff ff 12 	mov    BYTE PTR [rbp-0x199f],0x12
    5953:	c6 85 62 e6 ff ff 0d 	mov    BYTE PTR [rbp-0x199e],0xd
    595a:	c6 85 63 e6 ff ff 63 	mov    BYTE PTR [rbp-0x199d],0x63
    5961:	c6 85 64 e6 ff ff 90 	mov    BYTE PTR [rbp-0x199c],0x90
    5968:	c6 85 65 e6 ff ff 04 	mov    BYTE PTR [rbp-0x199b],0x4
    596f:	c6 85 66 e6 ff ff 5b 	mov    BYTE PTR [rbp-0x199a],0x5b
    5976:	c6 85 67 e6 ff ff e0 	mov    BYTE PTR [rbp-0x1999],0xe0
    597d:	c6 85 68 e6 ff ff 04 	mov    BYTE PTR [rbp-0x1998],0x4
    5984:	c6 85 69 e6 ff ff f0 	mov    BYTE PTR [rbp-0x1997],0xf0
    598b:	c6 85 6a e6 ff ff 12 	mov    BYTE PTR [rbp-0x1996],0x12
    5992:	c6 85 6b e6 ff ff 19 	mov    BYTE PTR [rbp-0x1995],0x19
    5999:	c6 85 6c e6 ff ff 9a 	mov    BYTE PTR [rbp-0x1994],0x9a
    59a0:	c6 85 6d e6 ff ff 12 	mov    BYTE PTR [rbp-0x1993],0x12
    59a7:	c6 85 6e e6 ff ff 19 	mov    BYTE PTR [rbp-0x1992],0x19
    59ae:	c6 85 6f e6 ff ff 5a 	mov    BYTE PTR [rbp-0x1991],0x5a
    59b5:	c6 85 70 e6 ff ff 50 	mov    BYTE PTR [rbp-0x1990],0x50
    59bc:	c6 85 71 e6 ff ff 05 	mov    BYTE PTR [rbp-0x198f],0x5
    59c3:	c6 85 72 e6 ff ff 12 	mov    BYTE PTR [rbp-0x198e],0x12
    59ca:	c6 85 73 e6 ff ff 18 	mov    BYTE PTR [rbp-0x198d],0x18
    59d1:	c6 85 74 e6 ff ff f9 	mov    BYTE PTR [rbp-0x198c],0xf9
    59d8:	c6 85 75 e6 ff ff 80 	mov    BYTE PTR [rbp-0x198b],0x80
    59df:	c6 85 76 e6 ff ff f6 	mov    BYTE PTR [rbp-0x198a],0xf6
    59e6:	c6 85 77 e6 ff ff 90 	mov    BYTE PTR [rbp-0x1989],0x90
    59ed:	c6 85 78 e6 ff ff 02 	mov    BYTE PTR [rbp-0x1988],0x2
    59f4:	c6 85 79 e6 ff ff 16 	mov    BYTE PTR [rbp-0x1987],0x16
    59fb:	c6 85 7a e6 ff ff e0 	mov    BYTE PTR [rbp-0x1986],0xe0
    5a02:	c6 85 7b e6 ff ff ff 	mov    BYTE PTR [rbp-0x1985],0xff
    5a09:	c6 85 7c e6 ff ff 90 	mov    BYTE PTR [rbp-0x1984],0x90
    5a10:	c6 85 7d e6 ff ff 06 	mov    BYTE PTR [rbp-0x1983],0x6
    5a17:	c6 85 7e e6 ff ff f0 	mov    BYTE PTR [rbp-0x1982],0xf0
    5a1e:	c6 85 7f e6 ff ff e0 	mov    BYTE PTR [rbp-0x1981],0xe0
    5a25:	c6 85 80 e6 ff ff 6f 	mov    BYTE PTR [rbp-0x1980],0x6f
    5a2c:	c6 85 81 e6 ff ff 60 	mov    BYTE PTR [rbp-0x197f],0x60
    5a33:	c6 85 82 e6 ff ff 03 	mov    BYTE PTR [rbp-0x197e],0x3
    5a3a:	c6 85 83 e6 ff ff 02 	mov    BYTE PTR [rbp-0x197d],0x2
    5a41:	c6 85 84 e6 ff ff 0c 	mov    BYTE PTR [rbp-0x197c],0xc
    5a48:	c6 85 85 e6 ff ff 8f 	mov    BYTE PTR [rbp-0x197b],0x8f
    5a4f:	c6 85 86 e6 ff ff 90 	mov    BYTE PTR [rbp-0x197a],0x90
    5a56:	c6 85 87 e6 ff ff 02 	mov    BYTE PTR [rbp-0x1979],0x2
    5a5d:	c6 85 88 e6 ff ff 17 	mov    BYTE PTR [rbp-0x1978],0x17
    5a64:	c6 85 89 e6 ff ff e0 	mov    BYTE PTR [rbp-0x1977],0xe0
    5a6b:	c6 85 8a e6 ff ff ff 	mov    BYTE PTR [rbp-0x1976],0xff
    5a72:	c6 85 8b e6 ff ff 90 	mov    BYTE PTR [rbp-0x1975],0x90
    5a79:	c6 85 8c e6 ff ff 06 	mov    BYTE PTR [rbp-0x1974],0x6
    5a80:	c6 85 8d e6 ff ff f1 	mov    BYTE PTR [rbp-0x1973],0xf1
    5a87:	c6 85 8e e6 ff ff e0 	mov    BYTE PTR [rbp-0x1972],0xe0
    5a8e:	c6 85 8f e6 ff ff 6f 	mov    BYTE PTR [rbp-0x1971],0x6f
    5a95:	c6 85 90 e6 ff ff 60 	mov    BYTE PTR [rbp-0x1970],0x60
    5a9c:	c6 85 91 e6 ff ff 03 	mov    BYTE PTR [rbp-0x196f],0x3
    5aa3:	c6 85 92 e6 ff ff 02 	mov    BYTE PTR [rbp-0x196e],0x2
    5aaa:	c6 85 93 e6 ff ff 0c 	mov    BYTE PTR [rbp-0x196d],0xc
    5ab1:	c6 85 94 e6 ff ff 8f 	mov    BYTE PTR [rbp-0x196c],0x8f
    5ab8:	c6 85 95 e6 ff ff 90 	mov    BYTE PTR [rbp-0x196b],0x90
    5abf:	c6 85 96 e6 ff ff 02 	mov    BYTE PTR [rbp-0x196a],0x2
    5ac6:	c6 85 97 e6 ff ff 18 	mov    BYTE PTR [rbp-0x1969],0x18
    5acd:	c6 85 98 e6 ff ff e0 	mov    BYTE PTR [rbp-0x1968],0xe0
    5ad4:	c6 85 99 e6 ff ff ff 	mov    BYTE PTR [rbp-0x1967],0xff
    5adb:	c6 85 9a e6 ff ff 90 	mov    BYTE PTR [rbp-0x1966],0x90
    5ae2:	c6 85 9b e6 ff ff 06 	mov    BYTE PTR [rbp-0x1965],0x6
    5ae9:	c6 85 9c e6 ff ff f2 	mov    BYTE PTR [rbp-0x1964],0xf2
    5af0:	c6 85 9d e6 ff ff e0 	mov    BYTE PTR [rbp-0x1963],0xe0
    5af7:	c6 85 9e e6 ff ff 6f 	mov    BYTE PTR [rbp-0x1962],0x6f
    5afe:	c6 85 9f e6 ff ff 60 	mov    BYTE PTR [rbp-0x1961],0x60
    5b05:	c6 85 a0 e6 ff ff 03 	mov    BYTE PTR [rbp-0x1960],0x3
    5b0c:	c6 85 a1 e6 ff ff 02 	mov    BYTE PTR [rbp-0x195f],0x2
    5b13:	c6 85 a2 e6 ff ff 0c 	mov    BYTE PTR [rbp-0x195e],0xc
    5b1a:	c6 85 a3 e6 ff ff 8f 	mov    BYTE PTR [rbp-0x195d],0x8f
    5b21:	c6 85 a4 e6 ff ff 90 	mov    BYTE PTR [rbp-0x195c],0x90
    5b28:	c6 85 a5 e6 ff ff 02 	mov    BYTE PTR [rbp-0x195b],0x2
    5b2f:	c6 85 a6 e6 ff ff 19 	mov    BYTE PTR [rbp-0x195a],0x19
    5b36:	c6 85 a7 e6 ff ff e0 	mov    BYTE PTR [rbp-0x1959],0xe0
    5b3d:	c6 85 a8 e6 ff ff ff 	mov    BYTE PTR [rbp-0x1958],0xff
    5b44:	c6 85 a9 e6 ff ff 90 	mov    BYTE PTR [rbp-0x1957],0x90
    5b4b:	c6 85 aa e6 ff ff 06 	mov    BYTE PTR [rbp-0x1956],0x6
    5b52:	c6 85 ab e6 ff ff f3 	mov    BYTE PTR [rbp-0x1955],0xf3
    5b59:	c6 85 ac e6 ff ff e0 	mov    BYTE PTR [rbp-0x1954],0xe0
    5b60:	c6 85 ad e6 ff ff 6f 	mov    BYTE PTR [rbp-0x1953],0x6f
    5b67:	c6 85 ae e6 ff ff 60 	mov    BYTE PTR [rbp-0x1952],0x60
    5b6e:	c6 85 af e6 ff ff 03 	mov    BYTE PTR [rbp-0x1951],0x3
    5b75:	c6 85 b0 e6 ff ff 02 	mov    BYTE PTR [rbp-0x1950],0x2
    5b7c:	c6 85 b1 e6 ff ff 0c 	mov    BYTE PTR [rbp-0x194f],0xc
    5b83:	c6 85 b2 e6 ff ff 8f 	mov    BYTE PTR [rbp-0x194e],0x8f
    5b8a:	c6 85 b3 e6 ff ff 90 	mov    BYTE PTR [rbp-0x194d],0x90
    5b91:	c6 85 b4 e6 ff ff 02 	mov    BYTE PTR [rbp-0x194c],0x2
    5b98:	c6 85 b5 e6 ff ff 1a 	mov    BYTE PTR [rbp-0x194b],0x1a
    5b9f:	c6 85 b6 e6 ff ff e0 	mov    BYTE PTR [rbp-0x194a],0xe0
    5ba6:	c6 85 b7 e6 ff ff 90 	mov    BYTE PTR [rbp-0x1949],0x90
    5bad:	c6 85 b8 e6 ff ff 04 	mov    BYTE PTR [rbp-0x1948],0x4
    5bb4:	c6 85 b9 e6 ff ff 50 	mov    BYTE PTR [rbp-0x1947],0x50
    5bbb:	c6 85 ba e6 ff ff f0 	mov    BYTE PTR [rbp-0x1946],0xf0
    5bc2:	c6 85 bb e6 ff ff 90 	mov    BYTE PTR [rbp-0x1945],0x90
    5bc9:	c6 85 bc e6 ff ff 02 	mov    BYTE PTR [rbp-0x1944],0x2
    5bd0:	c6 85 bd e6 ff ff 1b 	mov    BYTE PTR [rbp-0x1943],0x1b
    5bd7:	c6 85 be e6 ff ff e0 	mov    BYTE PTR [rbp-0x1942],0xe0
    5bde:	c6 85 bf e6 ff ff 90 	mov    BYTE PTR [rbp-0x1941],0x90
    5be5:	c6 85 c0 e6 ff ff 04 	mov    BYTE PTR [rbp-0x1940],0x4
    5bec:	c6 85 c1 e6 ff ff 51 	mov    BYTE PTR [rbp-0x193f],0x51
    5bf3:	c6 85 c2 e6 ff ff f0 	mov    BYTE PTR [rbp-0x193e],0xf0
    5bfa:	c6 85 c3 e6 ff ff 90 	mov    BYTE PTR [rbp-0x193d],0x90
    5c01:	c6 85 c4 e6 ff ff 02 	mov    BYTE PTR [rbp-0x193c],0x2
    5c08:	c6 85 c5 e6 ff ff 1c 	mov    BYTE PTR [rbp-0x193b],0x1c
    5c0f:	c6 85 c6 e6 ff ff e0 	mov    BYTE PTR [rbp-0x193a],0xe0
    5c16:	c6 85 c7 e6 ff ff 90 	mov    BYTE PTR [rbp-0x1939],0x90
    5c1d:	c6 85 c8 e6 ff ff 04 	mov    BYTE PTR [rbp-0x1938],0x4
    5c24:	c6 85 c9 e6 ff ff 52 	mov    BYTE PTR [rbp-0x1937],0x52
    5c2b:	c6 85 ca e6 ff ff f0 	mov    BYTE PTR [rbp-0x1936],0xf0
    5c32:	c6 85 cb e6 ff ff 90 	mov    BYTE PTR [rbp-0x1935],0x90
    5c39:	c6 85 cc e6 ff ff 02 	mov    BYTE PTR [rbp-0x1934],0x2
    5c40:	c6 85 cd e6 ff ff 1d 	mov    BYTE PTR [rbp-0x1933],0x1d
    5c47:	c6 85 ce e6 ff ff e0 	mov    BYTE PTR [rbp-0x1932],0xe0
    5c4e:	c6 85 cf e6 ff ff 90 	mov    BYTE PTR [rbp-0x1931],0x90
    5c55:	c6 85 d0 e6 ff ff 04 	mov    BYTE PTR [rbp-0x1930],0x4
    5c5c:	c6 85 d1 e6 ff ff 53 	mov    BYTE PTR [rbp-0x192f],0x53
    5c63:	c6 85 d2 e6 ff ff f0 	mov    BYTE PTR [rbp-0x192e],0xf0
    5c6a:	c6 85 d3 e6 ff ff 90 	mov    BYTE PTR [rbp-0x192d],0x90
    5c71:	c6 85 d4 e6 ff ff 02 	mov    BYTE PTR [rbp-0x192c],0x2
    5c78:	c6 85 d5 e6 ff ff 1e 	mov    BYTE PTR [rbp-0x192b],0x1e
    5c7f:	c6 85 d6 e6 ff ff e0 	mov    BYTE PTR [rbp-0x192a],0xe0
    5c86:	c6 85 d7 e6 ff ff 90 	mov    BYTE PTR [rbp-0x1929],0x90
    5c8d:	c6 85 d8 e6 ff ff 04 	mov    BYTE PTR [rbp-0x1928],0x4
    5c94:	c6 85 d9 e6 ff ff 48 	mov    BYTE PTR [rbp-0x1927],0x48
    5c9b:	c6 85 da e6 ff ff f0 	mov    BYTE PTR [rbp-0x1926],0xf0
    5ca2:	c6 85 db e6 ff ff 90 	mov    BYTE PTR [rbp-0x1925],0x90
    5ca9:	c6 85 dc e6 ff ff 02 	mov    BYTE PTR [rbp-0x1924],0x2
    5cb0:	c6 85 dd e6 ff ff 1f 	mov    BYTE PTR [rbp-0x1923],0x1f
    5cb7:	c6 85 de e6 ff ff e0 	mov    BYTE PTR [rbp-0x1922],0xe0
    5cbe:	c6 85 df e6 ff ff 90 	mov    BYTE PTR [rbp-0x1921],0x90
    5cc5:	c6 85 e0 e6 ff ff 04 	mov    BYTE PTR [rbp-0x1920],0x4
    5ccc:	c6 85 e1 e6 ff ff 49 	mov    BYTE PTR [rbp-0x191f],0x49
    5cd3:	c6 85 e2 e6 ff ff f0 	mov    BYTE PTR [rbp-0x191e],0xf0
    5cda:	c6 85 e3 e6 ff ff 90 	mov    BYTE PTR [rbp-0x191d],0x90
    5ce1:	c6 85 e4 e6 ff ff 02 	mov    BYTE PTR [rbp-0x191c],0x2
    5ce8:	c6 85 e5 e6 ff ff 20 	mov    BYTE PTR [rbp-0x191b],0x20
    5cef:	c6 85 e6 e6 ff ff e0 	mov    BYTE PTR [rbp-0x191a],0xe0
    5cf6:	c6 85 e7 e6 ff ff 90 	mov    BYTE PTR [rbp-0x1919],0x90
    5cfd:	c6 85 e8 e6 ff ff 04 	mov    BYTE PTR [rbp-0x1918],0x4
    5d04:	c6 85 e9 e6 ff ff 4a 	mov    BYTE PTR [rbp-0x1917],0x4a
    5d0b:	c6 85 ea e6 ff ff f0 	mov    BYTE PTR [rbp-0x1916],0xf0
    5d12:	c6 85 eb e6 ff ff 90 	mov    BYTE PTR [rbp-0x1915],0x90
    5d19:	c6 85 ec e6 ff ff 02 	mov    BYTE PTR [rbp-0x1914],0x2
    5d20:	c6 85 ed e6 ff ff 21 	mov    BYTE PTR [rbp-0x1913],0x21
    5d27:	c6 85 ee e6 ff ff e0 	mov    BYTE PTR [rbp-0x1912],0xe0
    5d2e:	48 8d 95 e0 e4 ff ff 	lea    rdx,[rbp-0x1b20]
    5d35:	b8 00 00 00 00       	mov    eax,0x0
    5d3a:	b9 21 00 00 00       	mov    ecx,0x21
    5d3f:	48 89 d7             	mov    rdi,rdx
    5d42:	f3 48 ab             	rep stos QWORD PTR es:[rdi],rax
    5d45:	48 89 fa             	mov    rdx,rdi
    5d48:	89 02                	mov    DWORD PTR [rdx],eax
    5d4a:	48 83 c2 04          	add    rdx,0x4
    5d4e:	66 89 02             	mov    WORD PTR [rdx],ax
    5d51:	48 83 c2 02          	add    rdx,0x2
    5d55:	c6 85 e1 e4 ff ff 58 	mov    BYTE PTR [rbp-0x1b1f],0x58
    5d5c:	c6 85 e2 e4 ff ff 8b 	mov    BYTE PTR [rbp-0x1b1e],0x8b
    5d63:	c6 85 e3 e4 ff ff f6 	mov    BYTE PTR [rbp-0x1b1d],0xf6
    5d6a:	c6 85 e4 e4 ff ff ff 	mov    BYTE PTR [rbp-0x1b1c],0xff
    5d71:	48 8d 95 d0 e3 ff ff 	lea    rdx,[rbp-0x1c30]
    5d78:	b8 00 00 00 00       	mov    eax,0x0
    5d7d:	b9 21 00 00 00       	mov    ecx,0x21
    5d82:	48 89 d7             	mov    rdi,rdx
    5d85:	f3 48 ab             	rep stos QWORD PTR es:[rdi],rax
    5d88:	48 89 fa             	mov    rdx,rdi
    5d8b:	89 02                	mov    DWORD PTR [rdx],eax
    5d8d:	48 83 c2 04          	add    rdx,0x4
    5d91:	66 89 02             	mov    WORD PTR [rdx],ax
    5d94:	48 83 c2 02          	add    rdx,0x2
    5d98:	c6 85 d0 e3 ff ff 90 	mov    BYTE PTR [rbp-0x1c30],0x90
    5d9f:	c6 85 d1 e3 ff ff 04 	mov    BYTE PTR [rbp-0x1c2f],0x4
    5da6:	c6 85 d2 e3 ff ff 4b 	mov    BYTE PTR [rbp-0x1c2e],0x4b
    5dad:	c6 85 d3 e3 ff ff f0 	mov    BYTE PTR [rbp-0x1c2d],0xf0
    5db4:	c6 85 d4 e3 ff ff 90 	mov    BYTE PTR [rbp-0x1c2c],0x90
    5dbb:	c6 85 d5 e3 ff ff 02 	mov    BYTE PTR [rbp-0x1c2b],0x2
    5dc2:	c6 85 d6 e3 ff ff 22 	mov    BYTE PTR [rbp-0x1c2a],0x22
    5dc9:	c6 85 d7 e3 ff ff e0 	mov    BYTE PTR [rbp-0x1c29],0xe0
    5dd0:	c6 85 d8 e3 ff ff 90 	mov    BYTE PTR [rbp-0x1c28],0x90
    5dd7:	c6 85 d9 e3 ff ff 04 	mov    BYTE PTR [rbp-0x1c27],0x4
    5dde:	c6 85 da e3 ff ff 4c 	mov    BYTE PTR [rbp-0x1c26],0x4c
    5de5:	c6 85 db e3 ff ff f0 	mov    BYTE PTR [rbp-0x1c25],0xf0
    5dec:	c6 85 dc e3 ff ff 90 	mov    BYTE PTR [rbp-0x1c24],0x90
    5df3:	c6 85 dd e3 ff ff 02 	mov    BYTE PTR [rbp-0x1c23],0x2
    5dfa:	c6 85 de e3 ff ff 23 	mov    BYTE PTR [rbp-0x1c22],0x23
    5e01:	c6 85 df e3 ff ff e0 	mov    BYTE PTR [rbp-0x1c21],0xe0
    5e08:	c6 85 e0 e3 ff ff 90 	mov    BYTE PTR [rbp-0x1c20],0x90
    5e0f:	c6 85 e1 e3 ff ff 04 	mov    BYTE PTR [rbp-0x1c1f],0x4
    5e16:	c6 85 e2 e3 ff ff 4d 	mov    BYTE PTR [rbp-0x1c1e],0x4d
    5e1d:	c6 85 e3 e3 ff ff f0 	mov    BYTE PTR [rbp-0x1c1d],0xf0
    5e24:	c6 85 e4 e3 ff ff 90 	mov    BYTE PTR [rbp-0x1c1c],0x90
    5e2b:	c6 85 e5 e3 ff ff 02 	mov    BYTE PTR [rbp-0x1c1b],0x2
    5e32:	c6 85 e6 e3 ff ff 24 	mov    BYTE PTR [rbp-0x1c1a],0x24
    5e39:	c6 85 e7 e3 ff ff e0 	mov    BYTE PTR [rbp-0x1c19],0xe0
    5e40:	c6 85 e8 e3 ff ff 90 	mov    BYTE PTR [rbp-0x1c18],0x90
    5e47:	c6 85 e9 e3 ff ff 04 	mov    BYTE PTR [rbp-0x1c17],0x4
    5e4e:	c6 85 ea e3 ff ff 4e 	mov    BYTE PTR [rbp-0x1c16],0x4e
    5e55:	c6 85 eb e3 ff ff f0 	mov    BYTE PTR [rbp-0x1c15],0xf0
    5e5c:	c6 85 ec e3 ff ff 90 	mov    BYTE PTR [rbp-0x1c14],0x90
    5e63:	c6 85 ed e3 ff ff 02 	mov    BYTE PTR [rbp-0x1c13],0x2
    5e6a:	c6 85 ee e3 ff ff 25 	mov    BYTE PTR [rbp-0x1c12],0x25
    5e71:	c6 85 ef e3 ff ff e0 	mov    BYTE PTR [rbp-0x1c11],0xe0
    5e78:	c6 85 f0 e3 ff ff 90 	mov    BYTE PTR [rbp-0x1c10],0x90
    5e7f:	c6 85 f1 e3 ff ff 04 	mov    BYTE PTR [rbp-0x1c0f],0x4
    5e86:	c6 85 f2 e3 ff ff 4f 	mov    BYTE PTR [rbp-0x1c0e],0x4f
    5e8d:	c6 85 f3 e3 ff ff f0 	mov    BYTE PTR [rbp-0x1c0d],0xf0
    5e94:	c6 85 f4 e3 ff ff 90 	mov    BYTE PTR [rbp-0x1c0c],0x90
    5e9b:	c6 85 f5 e3 ff ff 02 	mov    BYTE PTR [rbp-0x1c0b],0x2
    5ea2:	c6 85 f6 e3 ff ff 26 	mov    BYTE PTR [rbp-0x1c0a],0x26
    5ea9:	c6 85 f7 e3 ff ff e0 	mov    BYTE PTR [rbp-0x1c09],0xe0
    5eb0:	c6 85 f8 e3 ff ff 90 	mov    BYTE PTR [rbp-0x1c08],0x90
    5eb7:	c6 85 f9 e3 ff ff 04 	mov    BYTE PTR [rbp-0x1c07],0x4
    5ebe:	c6 85 fa e3 ff ff 54 	mov    BYTE PTR [rbp-0x1c06],0x54
    5ec5:	c6 85 fb e3 ff ff f0 	mov    BYTE PTR [rbp-0x1c05],0xf0
    5ecc:	c6 85 fc e3 ff ff 90 	mov    BYTE PTR [rbp-0x1c04],0x90
    5ed3:	c6 85 fd e3 ff ff 02 	mov    BYTE PTR [rbp-0x1c03],0x2
    5eda:	c6 85 fe e3 ff ff 27 	mov    BYTE PTR [rbp-0x1c02],0x27
    5ee1:	c6 85 ff e3 ff ff e0 	mov    BYTE PTR [rbp-0x1c01],0xe0
    5ee8:	c6 85 00 e4 ff ff 90 	mov    BYTE PTR [rbp-0x1c00],0x90
    5eef:	c6 85 01 e4 ff ff 04 	mov    BYTE PTR [rbp-0x1bff],0x4
    5ef6:	c6 85 02 e4 ff ff 55 	mov    BYTE PTR [rbp-0x1bfe],0x55
    5efd:	c6 85 03 e4 ff ff f0 	mov    BYTE PTR [rbp-0x1bfd],0xf0
    5f04:	c6 85 04 e4 ff ff 90 	mov    BYTE PTR [rbp-0x1bfc],0x90
    5f0b:	c6 85 05 e4 ff ff 02 	mov    BYTE PTR [rbp-0x1bfb],0x2
    5f12:	c6 85 06 e4 ff ff 28 	mov    BYTE PTR [rbp-0x1bfa],0x28
    5f19:	c6 85 07 e4 ff ff e0 	mov    BYTE PTR [rbp-0x1bf9],0xe0
    5f20:	c6 85 08 e4 ff ff 90 	mov    BYTE PTR [rbp-0x1bf8],0x90
    5f27:	c6 85 09 e4 ff ff 04 	mov    BYTE PTR [rbp-0x1bf7],0x4
    5f2e:	c6 85 0a e4 ff ff 56 	mov    BYTE PTR [rbp-0x1bf6],0x56
    5f35:	c6 85 0b e4 ff ff f0 	mov    BYTE PTR [rbp-0x1bf5],0xf0
    5f3c:	c6 85 0c e4 ff ff 90 	mov    BYTE PTR [rbp-0x1bf4],0x90
    5f43:	c6 85 0d e4 ff ff 02 	mov    BYTE PTR [rbp-0x1bf3],0x2
    5f4a:	c6 85 0e e4 ff ff 29 	mov    BYTE PTR [rbp-0x1bf2],0x29
    5f51:	c6 85 0f e4 ff ff e0 	mov    BYTE PTR [rbp-0x1bf1],0xe0
    5f58:	c6 85 10 e4 ff ff 90 	mov    BYTE PTR [rbp-0x1bf0],0x90
    5f5f:	c6 85 11 e4 ff ff 04 	mov    BYTE PTR [rbp-0x1bef],0x4
    5f66:	c6 85 12 e4 ff ff 57 	mov    BYTE PTR [rbp-0x1bee],0x57
    5f6d:	c6 85 13 e4 ff ff f0 	mov    BYTE PTR [rbp-0x1bed],0xf0
    5f74:	c6 85 14 e4 ff ff 90 	mov    BYTE PTR [rbp-0x1bec],0x90
    5f7b:	c6 85 15 e4 ff ff 02 	mov    BYTE PTR [rbp-0x1beb],0x2
    5f82:	c6 85 16 e4 ff ff 2a 	mov    BYTE PTR [rbp-0x1bea],0x2a
    5f89:	c6 85 17 e4 ff ff e0 	mov    BYTE PTR [rbp-0x1be9],0xe0
    5f90:	c6 85 18 e4 ff ff 90 	mov    BYTE PTR [rbp-0x1be8],0x90
    5f97:	c6 85 19 e4 ff ff 04 	mov    BYTE PTR [rbp-0x1be7],0x4
    5f9e:	c6 85 1a e4 ff ff 58 	mov    BYTE PTR [rbp-0x1be6],0x58
    5fa5:	c6 85 1b e4 ff ff f0 	mov    BYTE PTR [rbp-0x1be5],0xf0
    5fac:	c6 85 1c e4 ff ff 90 	mov    BYTE PTR [rbp-0x1be4],0x90
    5fb3:	c6 85 1d e4 ff ff 02 	mov    BYTE PTR [rbp-0x1be3],0x2
    5fba:	c6 85 1e e4 ff ff 2b 	mov    BYTE PTR [rbp-0x1be2],0x2b
    5fc1:	c6 85 1f e4 ff ff e0 	mov    BYTE PTR [rbp-0x1be1],0xe0
    5fc8:	c6 85 20 e4 ff ff 64 	mov    BYTE PTR [rbp-0x1be0],0x64
    5fcf:	c6 85 21 e4 ff ff 01 	mov    BYTE PTR [rbp-0x1bdf],0x1
    5fd6:	c6 85 22 e4 ff ff 70 	mov    BYTE PTR [rbp-0x1bde],0x70
    5fdd:	c6 85 23 e4 ff ff 09 	mov    BYTE PTR [rbp-0x1bdd],0x9
    5fe4:	c6 85 24 e4 ff ff 90 	mov    BYTE PTR [rbp-0x1bdc],0x90
    5feb:	c6 85 25 e4 ff ff 04 	mov    BYTE PTR [rbp-0x1bdb],0x4
    5ff2:	c6 85 26 e4 ff ff 63 	mov    BYTE PTR [rbp-0x1bda],0x63
    5ff9:	c6 85 27 e4 ff ff e0 	mov    BYTE PTR [rbp-0x1bd9],0xe0
    6000:	c6 85 28 e4 ff ff 64 	mov    BYTE PTR [rbp-0x1bd8],0x64
    6007:	c6 85 29 e4 ff ff ca 	mov    BYTE PTR [rbp-0x1bd7],0xca
    600e:	c6 85 2a e4 ff ff 70 	mov    BYTE PTR [rbp-0x1bd6],0x70
    6015:	c6 85 2b e4 ff ff 01 	mov    BYTE PTR [rbp-0x1bd5],0x1
    601c:	c6 85 2c e4 ff ff f0 	mov    BYTE PTR [rbp-0x1bd4],0xf0
    6023:	c6 85 2d e4 ff ff 90 	mov    BYTE PTR [rbp-0x1bd3],0x90
    602a:	c6 85 2e e4 ff ff 02 	mov    BYTE PTR [rbp-0x1bd2],0x2
    6031:	c6 85 2f e4 ff ff 2b 	mov    BYTE PTR [rbp-0x1bd1],0x2b
    6038:	c6 85 30 e4 ff ff e0 	mov    BYTE PTR [rbp-0x1bd0],0xe0
    603f:	c6 85 31 e4 ff ff 90 	mov    BYTE PTR [rbp-0x1bcf],0x90
    6046:	c6 85 32 e4 ff ff 04 	mov    BYTE PTR [rbp-0x1bce],0x4
    604d:	c6 85 33 e4 ff ff 5d 	mov    BYTE PTR [rbp-0x1bcd],0x5d
    6054:	c6 85 34 e4 ff ff f0 	mov    BYTE PTR [rbp-0x1bcc],0xf0
    605b:	c6 85 35 e4 ff ff 90 	mov    BYTE PTR [rbp-0x1bcb],0x90
    6062:	c6 85 36 e4 ff ff 02 	mov    BYTE PTR [rbp-0x1bca],0x2
    6069:	c6 85 37 e4 ff ff 2c 	mov    BYTE PTR [rbp-0x1bc9],0x2c
    6070:	c6 85 38 e4 ff ff e0 	mov    BYTE PTR [rbp-0x1bc8],0xe0
    6077:	c6 85 39 e4 ff ff 90 	mov    BYTE PTR [rbp-0x1bc7],0x90
    607e:	c6 85 3a e4 ff ff 04 	mov    BYTE PTR [rbp-0x1bc6],0x4
    6085:	c6 85 3b e4 ff ff 5e 	mov    BYTE PTR [rbp-0x1bc5],0x5e
    608c:	c6 85 3c e4 ff ff f0 	mov    BYTE PTR [rbp-0x1bc4],0xf0
    6093:	c6 85 3d e4 ff ff 90 	mov    BYTE PTR [rbp-0x1bc3],0x90
    609a:	c6 85 3e e4 ff ff 04 	mov    BYTE PTR [rbp-0x1bc2],0x4
    60a1:	c6 85 3f e4 ff ff 58 	mov    BYTE PTR [rbp-0x1bc1],0x58
    60a8:	c6 85 40 e4 ff ff e0 	mov    BYTE PTR [rbp-0x1bc0],0xe0
    60af:	c6 85 41 e4 ff ff 60 	mov    BYTE PTR [rbp-0x1bbf],0x60
    60b6:	c6 85 42 e4 ff ff 0e 	mov    BYTE PTR [rbp-0x1bbe],0xe
    60bd:	c6 85 43 e4 ff ff a3 	mov    BYTE PTR [rbp-0x1bbd],0xa3
    60c4:	c6 85 44 e4 ff ff e0 	mov    BYTE PTR [rbp-0x1bbc],0xe0
    60cb:	c6 85 45 e4 ff ff 70 	mov    BYTE PTR [rbp-0x1bbb],0x70
    60d2:	c6 85 46 e4 ff ff 22 	mov    BYTE PTR [rbp-0x1bba],0x22
    60d9:	c6 85 47 e4 ff ff a3 	mov    BYTE PTR [rbp-0x1bb9],0xa3
    60e0:	c6 85 48 e4 ff ff e0 	mov    BYTE PTR [rbp-0x1bb8],0xe0
    60e7:	c6 85 49 e4 ff ff 70 	mov    BYTE PTR [rbp-0x1bb7],0x70
    60ee:	c6 85 4a e4 ff ff 1e 	mov    BYTE PTR [rbp-0x1bb6],0x1e
    60f5:	c6 85 4b e4 ff ff 90 	mov    BYTE PTR [rbp-0x1bb5],0x90
    60fc:	c6 85 4c e4 ff ff 04 	mov    BYTE PTR [rbp-0x1bb4],0x4
    6103:	c6 85 4d e4 ff ff 61 	mov    BYTE PTR [rbp-0x1bb3],0x61
    610a:	c6 85 4e e4 ff ff e0 	mov    BYTE PTR [rbp-0x1bb2],0xe0
    6111:	c6 85 4f e4 ff ff 70 	mov    BYTE PTR [rbp-0x1bb1],0x70
    6118:	c6 85 50 e4 ff ff 18 	mov    BYTE PTR [rbp-0x1bb0],0x18
    611f:	c6 85 51 e4 ff ff 90 	mov    BYTE PTR [rbp-0x1baf],0x90
    6126:	c6 85 52 e4 ff ff 06 	mov    BYTE PTR [rbp-0x1bae],0x6
    612d:	c6 85 53 e4 ff ff f4 	mov    BYTE PTR [rbp-0x1bad],0xf4
    6134:	c6 85 54 e4 ff ff e0 	mov    BYTE PTR [rbp-0x1bac],0xe0
    613b:	c6 85 55 e4 ff ff 90 	mov    BYTE PTR [rbp-0x1bab],0x90
    6142:	c6 85 56 e4 ff ff 04 	mov    BYTE PTR [rbp-0x1baa],0x4
    6149:	c6 85 57 e4 ff ff 59 	mov    BYTE PTR [rbp-0x1ba9],0x59
    6150:	c6 85 58 e4 ff ff f0 	mov    BYTE PTR [rbp-0x1ba8],0xf0
    6157:	c6 85 59 e4 ff ff 90 	mov    BYTE PTR [rbp-0x1ba7],0x90
    615e:	c6 85 5a e4 ff ff 06 	mov    BYTE PTR [rbp-0x1ba6],0x6
    6165:	c6 85 5b e4 ff ff f5 	mov    BYTE PTR [rbp-0x1ba5],0xf5
    616c:	c6 85 5c e4 ff ff e0 	mov    BYTE PTR [rbp-0x1ba4],0xe0
    6173:	c6 85 5d e4 ff ff 90 	mov    BYTE PTR [rbp-0x1ba3],0x90
    617a:	c6 85 5e e4 ff ff 04 	mov    BYTE PTR [rbp-0x1ba2],0x4
    6181:	c6 85 5f e4 ff ff 5a 	mov    BYTE PTR [rbp-0x1ba1],0x5a
    6188:	c6 85 60 e4 ff ff f0 	mov    BYTE PTR [rbp-0x1ba0],0xf0
    618f:	c6 85 61 e4 ff ff 90 	mov    BYTE PTR [rbp-0x1b9f],0x90
    6196:	c6 85 62 e4 ff ff 06 	mov    BYTE PTR [rbp-0x1b9e],0x6
    619d:	c6 85 63 e4 ff ff f6 	mov    BYTE PTR [rbp-0x1b9d],0xf6
    61a4:	c6 85 64 e4 ff ff e0 	mov    BYTE PTR [rbp-0x1b9c],0xe0
    61ab:	c6 85 65 e4 ff ff 90 	mov    BYTE PTR [rbp-0x1b9b],0x90
    61b2:	c6 85 66 e4 ff ff 04 	mov    BYTE PTR [rbp-0x1b9a],0x4
    61b9:	c6 85 67 e4 ff ff 61 	mov    BYTE PTR [rbp-0x1b99],0x61
    61c0:	c6 85 68 e4 ff ff f0 	mov    BYTE PTR [rbp-0x1b98],0xf0
    61c7:	c6 85 69 e4 ff ff 90 	mov    BYTE PTR [rbp-0x1b97],0x90
    61ce:	c6 85 6a e4 ff ff 02 	mov    BYTE PTR [rbp-0x1b96],0x2
    61d5:	c6 85 6b e4 ff ff 07 	mov    BYTE PTR [rbp-0x1b95],0x7
    61dc:	c6 85 6c e4 ff ff e0 	mov    BYTE PTR [rbp-0x1b94],0xe0
    61e3:	c6 85 6d e4 ff ff 90 	mov    BYTE PTR [rbp-0x1b93],0x90
    61ea:	c6 85 6e e4 ff ff 04 	mov    BYTE PTR [rbp-0x1b92],0x4
    61f1:	c6 85 6f e4 ff ff 5f 	mov    BYTE PTR [rbp-0x1b91],0x5f
    61f8:	c6 85 70 e4 ff ff f0 	mov    BYTE PTR [rbp-0x1b90],0xf0
    61ff:	c6 85 71 e4 ff ff 90 	mov    BYTE PTR [rbp-0x1b8f],0x90
    6206:	c6 85 72 e4 ff ff 02 	mov    BYTE PTR [rbp-0x1b8e],0x2
    620d:	c6 85 73 e4 ff ff 45 	mov    BYTE PTR [rbp-0x1b8d],0x45
    6214:	c6 85 74 e4 ff ff e0 	mov    BYTE PTR [rbp-0x1b8c],0xe0
    621b:	c6 85 75 e4 ff ff 90 	mov    BYTE PTR [rbp-0x1b8b],0x90
    6222:	c6 85 76 e4 ff ff 04 	mov    BYTE PTR [rbp-0x1b8a],0x4
    6229:	c6 85 77 e4 ff ff 60 	mov    BYTE PTR [rbp-0x1b89],0x60
    6230:	c6 85 78 e4 ff ff f0 	mov    BYTE PTR [rbp-0x1b88],0xf0
    6237:	c6 85 79 e4 ff ff 12 	mov    BYTE PTR [rbp-0x1b87],0x12
    623e:	c6 85 7a e4 ff ff 19 	mov    BYTE PTR [rbp-0x1b86],0x19
    6245:	c6 85 7b e4 ff ff 1c 	mov    BYTE PTR [rbp-0x1b85],0x1c
    624c:	c6 85 7c e4 ff ff 7f 	mov    BYTE PTR [rbp-0x1b84],0x7f
    6253:	c6 85 7e e4 ff ff 7e 	mov    BYTE PTR [rbp-0x1b82],0x7e
    625a:	c6 85 7f e4 ff ff 70 	mov    BYTE PTR [rbp-0x1b81],0x70
    6261:	c6 85 80 e4 ff ff 12 	mov    BYTE PTR [rbp-0x1b80],0x12
    6268:	c6 85 81 e4 ff ff 10 	mov    BYTE PTR [rbp-0x1b7f],0x10
    626f:	c6 85 82 e4 ff ff 42 	mov    BYTE PTR [rbp-0x1b7e],0x42
    6276:	c6 85 83 e4 ff ff 12 	mov    BYTE PTR [rbp-0x1b7d],0x12
    627d:	c6 85 84 e4 ff ff 1c 	mov    BYTE PTR [rbp-0x1b7c],0x1c
    6284:	c6 85 85 e4 ff ff 79 	mov    BYTE PTR [rbp-0x1b7b],0x79
    628b:	c6 85 86 e4 ff ff e4 	mov    BYTE PTR [rbp-0x1b7a],0xe4
    6292:	c6 85 87 e4 ff ff ff 	mov    BYTE PTR [rbp-0x1b79],0xff
    6299:	c6 85 88 e4 ff ff 80 	mov    BYTE PTR [rbp-0x1b78],0x80
    62a0:	c6 85 89 e4 ff ff 2f 	mov    BYTE PTR [rbp-0x1b77],0x2f
    62a7:	c6 85 8a e4 ff ff 12 	mov    BYTE PTR [rbp-0x1b76],0x12
    62ae:	c6 85 8b e4 ff ff 1c 	mov    BYTE PTR [rbp-0x1b75],0x1c
    62b5:	c6 85 8c e4 ff ff 79 	mov    BYTE PTR [rbp-0x1b74],0x79
    62bc:	c6 85 8d e4 ff ff 90 	mov    BYTE PTR [rbp-0x1b73],0x90
    62c3:	c6 85 8f e4 ff ff 12 	mov    BYTE PTR [rbp-0x1b71],0x12
    62ca:	c6 85 90 e4 ff ff 74 	mov    BYTE PTR [rbp-0x1b70],0x74
    62d1:	c6 85 91 e4 ff ff 74 	mov    BYTE PTR [rbp-0x1b6f],0x74
    62d8:	c6 85 92 e4 ff ff f0 	mov    BYTE PTR [rbp-0x1b6e],0xf0
    62df:	c6 85 93 e4 ff ff a3 	mov    BYTE PTR [rbp-0x1b6d],0xa3
    62e6:	c6 85 94 e4 ff ff 74 	mov    BYTE PTR [rbp-0x1b6c],0x74
    62ed:	c6 85 95 e4 ff ff 04 	mov    BYTE PTR [rbp-0x1b6b],0x4
    62f4:	c6 85 96 e4 ff ff f0 	mov    BYTE PTR [rbp-0x1b6a],0xf0
    62fb:	c6 85 97 e4 ff ff 90 	mov    BYTE PTR [rbp-0x1b69],0x90
    6302:	c6 85 98 e4 ff ff 06 	mov    BYTE PTR [rbp-0x1b68],0x6
    6309:	c6 85 99 e4 ff ff f0 	mov    BYTE PTR [rbp-0x1b67],0xf0
    6310:	c6 85 9a e4 ff ff e0 	mov    BYTE PTR [rbp-0x1b66],0xe0
    6317:	c6 85 9b e4 ff ff 90 	mov    BYTE PTR [rbp-0x1b65],0x90
    631e:	c6 85 9d e4 ff ff 14 	mov    BYTE PTR [rbp-0x1b63],0x14
    6325:	c6 85 9e e4 ff ff f0 	mov    BYTE PTR [rbp-0x1b62],0xf0
    632c:	c6 85 9f e4 ff ff 90 	mov    BYTE PTR [rbp-0x1b61],0x90
    6333:	c6 85 a0 e4 ff ff 06 	mov    BYTE PTR [rbp-0x1b60],0x6
    633a:	c6 85 a1 e4 ff ff f1 	mov    BYTE PTR [rbp-0x1b5f],0xf1
    6341:	c6 85 a2 e4 ff ff e0 	mov    BYTE PTR [rbp-0x1b5e],0xe0
    6348:	c6 85 a3 e4 ff ff 90 	mov    BYTE PTR [rbp-0x1b5d],0x90
    634f:	c6 85 a5 e4 ff ff 15 	mov    BYTE PTR [rbp-0x1b5b],0x15
    6356:	c6 85 a6 e4 ff ff f0 	mov    BYTE PTR [rbp-0x1b5a],0xf0
    635d:	c6 85 a7 e4 ff ff 90 	mov    BYTE PTR [rbp-0x1b59],0x90
    6364:	c6 85 a8 e4 ff ff 06 	mov    BYTE PTR [rbp-0x1b58],0x6
    636b:	c6 85 a9 e4 ff ff f2 	mov    BYTE PTR [rbp-0x1b57],0xf2
    6372:	c6 85 aa e4 ff ff e0 	mov    BYTE PTR [rbp-0x1b56],0xe0
    6379:	c6 85 ab e4 ff ff 90 	mov    BYTE PTR [rbp-0x1b55],0x90
    6380:	c6 85 ad e4 ff ff 16 	mov    BYTE PTR [rbp-0x1b53],0x16
    6387:	c6 85 ae e4 ff ff f0 	mov    BYTE PTR [rbp-0x1b52],0xf0
    638e:	c6 85 af e4 ff ff 90 	mov    BYTE PTR [rbp-0x1b51],0x90
    6395:	c6 85 b0 e4 ff ff 06 	mov    BYTE PTR [rbp-0x1b50],0x6
    639c:	c6 85 b1 e4 ff ff f3 	mov    BYTE PTR [rbp-0x1b4f],0xf3
    63a3:	c6 85 b2 e4 ff ff e0 	mov    BYTE PTR [rbp-0x1b4e],0xe0
    63aa:	c6 85 b3 e4 ff ff 90 	mov    BYTE PTR [rbp-0x1b4d],0x90
    63b1:	c6 85 b5 e4 ff ff 17 	mov    BYTE PTR [rbp-0x1b4b],0x17
    63b8:	c6 85 b6 e4 ff ff f0 	mov    BYTE PTR [rbp-0x1b4a],0xf0
    63bf:	c6 85 b7 e4 ff ff 7f 	mov    BYTE PTR [rbp-0x1b49],0x7f
    63c6:	c6 85 b8 e4 ff ff 06 	mov    BYTE PTR [rbp-0x1b48],0x6
    63cd:	c6 85 b9 e4 ff ff 12 	mov    BYTE PTR [rbp-0x1b47],0x12
    63d4:	c6 85 ba e4 ff ff 1d 	mov    BYTE PTR [rbp-0x1b46],0x1d
    63db:	c6 85 bb e4 ff ff b5 	mov    BYTE PTR [rbp-0x1b45],0xb5
    63e2:	c6 85 bc e4 ff ff 02 	mov    BYTE PTR [rbp-0x1b44],0x2
    63e9:	c6 85 bd e4 ff ff 02 	mov    BYTE PTR [rbp-0x1b43],0x2
    63f0:	c6 85 be e4 ff ff 31 	mov    BYTE PTR [rbp-0x1b42],0x31
    63f7:	c6 85 bf e4 ff ff 12 	mov    BYTE PTR [rbp-0x1b41],0x12
    63fe:	c6 85 c0 e4 ff ff 1c 	mov    BYTE PTR [rbp-0x1b40],0x1c
    6405:	c6 85 c1 e4 ff ff 79 	mov    BYTE PTR [rbp-0x1b3f],0x79
    640c:	c6 85 c2 e4 ff ff e4 	mov    BYTE PTR [rbp-0x1b3e],0xe4
    6413:	c6 85 c3 e4 ff ff ff 	mov    BYTE PTR [rbp-0x1b3d],0xff
    641a:	c6 85 c4 e4 ff ff 12 	mov    BYTE PTR [rbp-0x1b3c],0x12
    6421:	c6 85 c5 e4 ff ff 1d 	mov    BYTE PTR [rbp-0x1b3b],0x1d
    6428:	c6 85 c6 e4 ff ff b5 	mov    BYTE PTR [rbp-0x1b3a],0xb5
    642f:	c6 85 c7 e4 ff ff 02 	mov    BYTE PTR [rbp-0x1b39],0x2
    6436:	c6 85 c8 e4 ff ff 02 	mov    BYTE PTR [rbp-0x1b38],0x2
    643d:	c6 85 c9 e4 ff ff 31 	mov    BYTE PTR [rbp-0x1b37],0x31
    6444:	c6 85 ca e4 ff ff ef 	mov    BYTE PTR [rbp-0x1b36],0xef
    644b:	c6 85 cb e4 ff ff f0 	mov    BYTE PTR [rbp-0x1b35],0xf0
    6452:	c6 85 cc e4 ff ff 12 	mov    BYTE PTR [rbp-0x1b34],0x12
    6459:	c6 85 cd e4 ff ff 1d 	mov    BYTE PTR [rbp-0x1b33],0x1d
    6460:	c6 85 ce e4 ff ff df 	mov    BYTE PTR [rbp-0x1b32],0xdf
    6467:	48 8d 95 c0 e2 ff ff 	lea    rdx,[rbp-0x1d40]
    646e:	b8 00 00 00 00       	mov    eax,0x0
    6473:	b9 21 00 00 00       	mov    ecx,0x21
    6478:	48 89 d7             	mov    rdi,rdx
    647b:	f3 48 ab             	rep stos QWORD PTR es:[rdi],rax
    647e:	48 89 fa             	mov    rdx,rdi
    6481:	89 02                	mov    DWORD PTR [rdx],eax
    6483:	48 83 c2 04          	add    rdx,0x4
    6487:	66 89 02             	mov    WORD PTR [rdx],ax
    648a:	48 83 c2 02          	add    rdx,0x2
    648e:	c6 85 c1 e2 ff ff 58 	mov    BYTE PTR [rbp-0x1d3f],0x58
    6495:	c6 85 c2 e2 ff ff 8c 	mov    BYTE PTR [rbp-0x1d3e],0x8c
    649c:	c6 85 c3 e2 ff ff f5 	mov    BYTE PTR [rbp-0x1d3d],0xf5
    64a3:	c6 85 c4 e2 ff ff ff 	mov    BYTE PTR [rbp-0x1d3c],0xff
    64aa:	48 8d 95 b0 e1 ff ff 	lea    rdx,[rbp-0x1e50]
    64b1:	b8 00 00 00 00       	mov    eax,0x0
    64b6:	b9 21 00 00 00       	mov    ecx,0x21
    64bb:	48 89 d7             	mov    rdi,rdx
    64be:	f3 48 ab             	rep stos QWORD PTR es:[rdi],rax
    64c1:	48 89 fa             	mov    rdx,rdi
    64c4:	89 02                	mov    DWORD PTR [rdx],eax
    64c6:	48 83 c2 04          	add    rdx,0x4
    64ca:	66 89 02             	mov    WORD PTR [rdx],ax
    64cd:	48 83 c2 02          	add    rdx,0x2
    64d1:	c6 85 b0 e1 ff ff 12 	mov    BYTE PTR [rbp-0x1e50],0x12
    64d8:	c6 85 b1 e1 ff ff 1d 	mov    BYTE PTR [rbp-0x1e4f],0x1d
    64df:	c6 85 b2 e1 ff ff df 	mov    BYTE PTR [rbp-0x1e4e],0xdf
    64e6:	c6 85 b3 e1 ff ff 12 	mov    BYTE PTR [rbp-0x1e4d],0x12
    64ed:	c6 85 b4 e1 ff ff 1d 	mov    BYTE PTR [rbp-0x1e4c],0x1d
    64f4:	c6 85 b5 e1 ff ff df 	mov    BYTE PTR [rbp-0x1e4b],0xdf
    64fb:	c6 85 b6 e1 ff ff 12 	mov    BYTE PTR [rbp-0x1e4a],0x12
    6502:	c6 85 b7 e1 ff ff 1d 	mov    BYTE PTR [rbp-0x1e49],0x1d
    6509:	c6 85 b8 e1 ff ff df 	mov    BYTE PTR [rbp-0x1e48],0xdf
    6510:	c6 85 b9 e1 ff ff 22 	mov    BYTE PTR [rbp-0x1e47],0x22
    6517:	c6 85 ba e1 ff ff f0 	mov    BYTE PTR [rbp-0x1e46],0xf0
    651e:	c6 85 bb e1 ff ff 7b 	mov    BYTE PTR [rbp-0x1e45],0x7b
    6525:	c6 85 bc e1 ff ff 01 	mov    BYTE PTR [rbp-0x1e44],0x1
    652c:	c6 85 bd e1 ff ff 7a 	mov    BYTE PTR [rbp-0x1e43],0x7a
    6533:	c6 85 be e1 ff ff 04 	mov    BYTE PTR [rbp-0x1e42],0x4
    653a:	c6 85 bf e1 ff ff 79 	mov    BYTE PTR [rbp-0x1e41],0x79
    6541:	c6 85 c0 e1 ff ff 48 	mov    BYTE PTR [rbp-0x1e40],0x48
    6548:	c6 85 c1 e1 ff ff 90 	mov    BYTE PTR [rbp-0x1e3f],0x90
    654f:	c6 85 c2 e1 ff ff 06 	mov    BYTE PTR [rbp-0x1e3e],0x6
    6556:	c6 85 c3 e1 ff ff c2 	mov    BYTE PTR [rbp-0x1e3d],0xc2
    655d:	c6 85 c4 e1 ff ff 74 	mov    BYTE PTR [rbp-0x1e3c],0x74
    6564:	c6 85 c5 e1 ff ff ff 	mov    BYTE PTR [rbp-0x1e3b],0xff
    656b:	c6 85 c6 e1 ff ff f0 	mov    BYTE PTR [rbp-0x1e3a],0xf0
    6572:	c6 85 c7 e1 ff ff 7f 	mov    BYTE PTR [rbp-0x1e39],0x7f
    6579:	c6 85 c9 e1 ff ff 7e 	mov    BYTE PTR [rbp-0x1e37],0x7e
    6580:	c6 85 ca e1 ff ff 70 	mov    BYTE PTR [rbp-0x1e36],0x70
    6587:	c6 85 cb e1 ff ff 12 	mov    BYTE PTR [rbp-0x1e35],0x12
    658e:	c6 85 cc e1 ff ff 10 	mov    BYTE PTR [rbp-0x1e34],0x10
    6595:	c6 85 cd e1 ff ff 42 	mov    BYTE PTR [rbp-0x1e33],0x42
    659c:	c6 85 ce e1 ff ff 22 	mov    BYTE PTR [rbp-0x1e32],0x22
    65a3:	c6 85 cf e1 ff ff 12 	mov    BYTE PTR [rbp-0x1e31],0x12
    65aa:	c6 85 d0 e1 ff ff 1d 	mov    BYTE PTR [rbp-0x1e30],0x1d
    65b1:	c6 85 d1 e1 ff ff df 	mov    BYTE PTR [rbp-0x1e2f],0xdf
    65b8:	c6 85 d2 e1 ff ff 12 	mov    BYTE PTR [rbp-0x1e2e],0x12
    65bf:	c6 85 d3 e1 ff ff 1d 	mov    BYTE PTR [rbp-0x1e2d],0x1d
    65c6:	c6 85 d4 e1 ff ff df 	mov    BYTE PTR [rbp-0x1e2c],0xdf
    65cd:	c6 85 d5 e1 ff ff 12 	mov    BYTE PTR [rbp-0x1e2b],0x12
    65d4:	c6 85 d6 e1 ff ff 1d 	mov    BYTE PTR [rbp-0x1e2a],0x1d
    65db:	c6 85 d7 e1 ff ff df 	mov    BYTE PTR [rbp-0x1e29],0xdf
    65e2:	c6 85 d8 e1 ff ff 12 	mov    BYTE PTR [rbp-0x1e28],0x12
    65e9:	c6 85 d9 e1 ff ff 1d 	mov    BYTE PTR [rbp-0x1e27],0x1d
    65f0:	c6 85 da e1 ff ff df 	mov    BYTE PTR [rbp-0x1e26],0xdf
    65f7:	c6 85 db e1 ff ff 22 	mov    BYTE PTR [rbp-0x1e25],0x22
    65fe:	c6 85 dc e1 ff ff 7b 	mov    BYTE PTR [rbp-0x1e24],0x7b
    6605:	c6 85 dd e1 ff ff 01 	mov    BYTE PTR [rbp-0x1e23],0x1
    660c:	c6 85 de e1 ff ff 7a 	mov    BYTE PTR [rbp-0x1e22],0x7a
    6613:	c6 85 df e1 ff ff 04 	mov    BYTE PTR [rbp-0x1e21],0x4
    661a:	c6 85 e0 e1 ff ff 79 	mov    BYTE PTR [rbp-0x1e20],0x79
    6621:	c6 85 e1 e1 ff ff 48 	mov    BYTE PTR [rbp-0x1e1f],0x48
    6628:	c6 85 e2 e1 ff ff e4 	mov    BYTE PTR [rbp-0x1e1e],0xe4
    662f:	c6 85 e3 e1 ff ff 90 	mov    BYTE PTR [rbp-0x1e1d],0x90
    6636:	c6 85 e4 e1 ff ff 06 	mov    BYTE PTR [rbp-0x1e1c],0x6
    663d:	c6 85 e5 e1 ff ff c2 	mov    BYTE PTR [rbp-0x1e1b],0xc2
    6644:	c6 85 e6 e1 ff ff f0 	mov    BYTE PTR [rbp-0x1e1a],0xf0
    664b:	c6 85 e7 e1 ff ff a3 	mov    BYTE PTR [rbp-0x1e19],0xa3
    6652:	c6 85 e8 e1 ff ff f0 	mov    BYTE PTR [rbp-0x1e18],0xf0
    6659:	c6 85 e9 e1 ff ff fd 	mov    BYTE PTR [rbp-0x1e17],0xfd
    6660:	c6 85 ea e1 ff ff 7c 	mov    BYTE PTR [rbp-0x1e16],0x7c
    6667:	c6 85 eb e1 ff ff 70 	mov    BYTE PTR [rbp-0x1e15],0x70
    666e:	c6 85 ec e1 ff ff 12 	mov    BYTE PTR [rbp-0x1e14],0x12
    6675:	c6 85 ed e1 ff ff 1d 	mov    BYTE PTR [rbp-0x1e13],0x1d
    667c:	c6 85 ee e1 ff ff 4e 	mov    BYTE PTR [rbp-0x1e12],0x4e
    6683:	c6 85 ef e1 ff ff 22 	mov    BYTE PTR [rbp-0x1e11],0x22
    668a:	c6 85 f0 e1 ff ff 12 	mov    BYTE PTR [rbp-0x1e10],0x12
    6691:	c6 85 f1 e1 ff ff 1d 	mov    BYTE PTR [rbp-0x1e0f],0x1d
    6698:	c6 85 f2 e1 ff ff df 	mov    BYTE PTR [rbp-0x1e0e],0xdf
    669f:	c6 85 f3 e1 ff ff 90 	mov    BYTE PTR [rbp-0x1e0d],0x90
    66a6:	c6 85 f4 e1 ff ff 06 	mov    BYTE PTR [rbp-0x1e0c],0x6
    66ad:	c6 85 f5 e1 ff ff a8 	mov    BYTE PTR [rbp-0x1e0b],0xa8
    66b4:	c6 85 f6 e1 ff ff e4 	mov    BYTE PTR [rbp-0x1e0a],0xe4
    66bb:	c6 85 f7 e1 ff ff 75 	mov    BYTE PTR [rbp-0x1e09],0x75
    66c2:	c6 85 f8 e1 ff ff f0 	mov    BYTE PTR [rbp-0x1e08],0xf0
    66c9:	c6 85 f9 e1 ff ff 01 	mov    BYTE PTR [rbp-0x1e07],0x1
    66d0:	c6 85 fa e1 ff ff 12 	mov    BYTE PTR [rbp-0x1e06],0x12
    66d7:	c6 85 fb e1 ff ff 14 	mov    BYTE PTR [rbp-0x1e05],0x14
    66de:	c6 85 fc e1 ff ff 1c 	mov    BYTE PTR [rbp-0x1e04],0x1c
    66e5:	c6 85 fd e1 ff ff 22 	mov    BYTE PTR [rbp-0x1e03],0x22
    66ec:	c6 85 fe e1 ff ff 12 	mov    BYTE PTR [rbp-0x1e02],0x12
    66f3:	c6 85 ff e1 ff ff 1d 	mov    BYTE PTR [rbp-0x1e01],0x1d
    66fa:	c6 85 00 e2 ff ff df 	mov    BYTE PTR [rbp-0x1e00],0xdf
    6701:	c6 85 01 e2 ff ff 90 	mov    BYTE PTR [rbp-0x1dff],0x90
    6708:	c6 85 03 e2 ff ff 10 	mov    BYTE PTR [rbp-0x1dfd],0x10
    670f:	c6 85 04 e2 ff ff ef 	mov    BYTE PTR [rbp-0x1dfc],0xef
    6716:	c6 85 05 e2 ff ff f0 	mov    BYTE PTR [rbp-0x1dfb],0xf0
    671d:	c6 85 06 e2 ff ff 22 	mov    BYTE PTR [rbp-0x1dfa],0x22
    6724:	c6 85 07 e2 ff ff 12 	mov    BYTE PTR [rbp-0x1df9],0x12
    672b:	c6 85 08 e2 ff ff 1d 	mov    BYTE PTR [rbp-0x1df8],0x1d
    6732:	c6 85 09 e2 ff ff d3 	mov    BYTE PTR [rbp-0x1df7],0xd3
    6739:	c6 85 0a e2 ff ff 7f 	mov    BYTE PTR [rbp-0x1df6],0x7f
    6740:	c6 85 0b e2 ff ff 30 	mov    BYTE PTR [rbp-0x1df5],0x30
    6747:	c6 85 0c e2 ff ff 12 	mov    BYTE PTR [rbp-0x1df4],0x12
    674e:	c6 85 0d e2 ff ff 1d 	mov    BYTE PTR [rbp-0x1df3],0x1d
    6755:	c6 85 0e e2 ff ff d3 	mov    BYTE PTR [rbp-0x1df2],0xd3
    675c:	c6 85 0f e2 ff ff 22 	mov    BYTE PTR [rbp-0x1df1],0x22
    6763:	c6 85 10 e2 ff ff 12 	mov    BYTE PTR [rbp-0x1df0],0x12
    676a:	c6 85 11 e2 ff ff 1c 	mov    BYTE PTR [rbp-0x1def],0x1c
    6771:	c6 85 12 e2 ff ff 79 	mov    BYTE PTR [rbp-0x1dee],0x79
    6778:	c6 85 13 e2 ff ff 90 	mov    BYTE PTR [rbp-0x1ded],0x90
    677f:	c6 85 14 e2 ff ff 04 	mov    BYTE PTR [rbp-0x1dec],0x4
    6786:	c6 85 15 e2 ff ff 99 	mov    BYTE PTR [rbp-0x1deb],0x99
    678d:	c6 85 16 e2 ff ff e0 	mov    BYTE PTR [rbp-0x1dea],0xe0
    6794:	c6 85 17 e2 ff ff ff 	mov    BYTE PTR [rbp-0x1de9],0xff
    679b:	c6 85 18 e2 ff ff 90 	mov    BYTE PTR [rbp-0x1de8],0x90
    67a2:	c6 85 1a e2 ff ff 0f 	mov    BYTE PTR [rbp-0x1de6],0xf
    67a9:	c6 85 1b e2 ff ff e0 	mov    BYTE PTR [rbp-0x1de5],0xe0
    67b0:	c6 85 1c e2 ff ff 6f 	mov    BYTE PTR [rbp-0x1de4],0x6f
    67b7:	c6 85 1d e2 ff ff 22 	mov    BYTE PTR [rbp-0x1de3],0x22
    67be:	c6 85 1e e2 ff ff f0 	mov    BYTE PTR [rbp-0x1de2],0xf0
    67c5:	c6 85 1f e2 ff ff a3 	mov    BYTE PTR [rbp-0x1de1],0xa3
    67cc:	c6 85 20 e2 ff ff 74 	mov    BYTE PTR [rbp-0x1de0],0x74
    67d3:	c6 85 21 e2 ff ff ff 	mov    BYTE PTR [rbp-0x1ddf],0xff
    67da:	c6 85 22 e2 ff ff f0 	mov    BYTE PTR [rbp-0x1dde],0xf0
    67e1:	c6 85 23 e2 ff ff 7d 	mov    BYTE PTR [rbp-0x1ddd],0x7d
    67e8:	c6 85 25 e2 ff ff 7c 	mov    BYTE PTR [rbp-0x1ddb],0x7c
    67ef:	c6 85 26 e2 ff ff 70 	mov    BYTE PTR [rbp-0x1dda],0x70
    67f6:	c6 85 27 e2 ff ff 12 	mov    BYTE PTR [rbp-0x1dd9],0x12
    67fd:	c6 85 28 e2 ff ff 1d 	mov    BYTE PTR [rbp-0x1dd8],0x1d
    6804:	c6 85 29 e2 ff ff 4e 	mov    BYTE PTR [rbp-0x1dd7],0x4e
    680b:	c6 85 2a e2 ff ff 22 	mov    BYTE PTR [rbp-0x1dd6],0x22
    6812:	c6 85 2b e2 ff ff 12 	mov    BYTE PTR [rbp-0x1dd5],0x12
    6819:	c6 85 2c e2 ff ff 1c 	mov    BYTE PTR [rbp-0x1dd4],0x1c
    6820:	c6 85 2d e2 ff ff 79 	mov    BYTE PTR [rbp-0x1dd3],0x79
    6827:	c6 85 2e e2 ff ff 90 	mov    BYTE PTR [rbp-0x1dd2],0x90
    682e:	c6 85 2f e2 ff ff 04 	mov    BYTE PTR [rbp-0x1dd1],0x4
    6835:	c6 85 30 e2 ff ff 5d 	mov    BYTE PTR [rbp-0x1dd0],0x5d
    683c:	c6 85 31 e2 ff ff e0 	mov    BYTE PTR [rbp-0x1dcf],0xe0
    6843:	c6 85 32 e2 ff ff 64 	mov    BYTE PTR [rbp-0x1dce],0x64
    684a:	c6 85 33 e2 ff ff 01 	mov    BYTE PTR [rbp-0x1dcd],0x1
    6851:	c6 85 34 e2 ff ff 22 	mov    BYTE PTR [rbp-0x1dcc],0x22
    6858:	c6 85 35 e2 ff ff 12 	mov    BYTE PTR [rbp-0x1dcb],0x12
    685f:	c6 85 36 e2 ff ff 1d 	mov    BYTE PTR [rbp-0x1dca],0x1d
    6866:	c6 85 37 e2 ff ff df 	mov    BYTE PTR [rbp-0x1dc9],0xdf
    686d:	c6 85 38 e2 ff ff 90 	mov    BYTE PTR [rbp-0x1dc8],0x90
    6874:	c6 85 3a e2 ff ff 10 	mov    BYTE PTR [rbp-0x1dc6],0x10
    687b:	c6 85 3b e2 ff ff 22 	mov    BYTE PTR [rbp-0x1dc5],0x22
    6882:	c6 85 3c e2 ff ff 12 	mov    BYTE PTR [rbp-0x1dc4],0x12
    6889:	c6 85 3d e2 ff ff 1d 	mov    BYTE PTR [rbp-0x1dc3],0x1d
    6890:	c6 85 3e e2 ff ff df 	mov    BYTE PTR [rbp-0x1dc2],0xdf
    6897:	c6 85 3f e2 ff ff 90 	mov    BYTE PTR [rbp-0x1dc1],0x90
    689e:	c6 85 40 e2 ff ff 04 	mov    BYTE PTR [rbp-0x1dc0],0x4
    68a5:	c6 85 41 e2 ff ff 9a 	mov    BYTE PTR [rbp-0x1dbf],0x9a
    68ac:	c6 85 42 e2 ff ff 22 	mov    BYTE PTR [rbp-0x1dbe],0x22
    68b3:	c6 85 43 e2 ff ff 12 	mov    BYTE PTR [rbp-0x1dbd],0x12
    68ba:	c6 85 44 e2 ff ff 1d 	mov    BYTE PTR [rbp-0x1dbc],0x1d
    68c1:	c6 85 45 e2 ff ff df 	mov    BYTE PTR [rbp-0x1dbb],0xdf
    68c8:	c6 85 46 e2 ff ff 90 	mov    BYTE PTR [rbp-0x1dba],0x90
    68cf:	c6 85 47 e2 ff ff 04 	mov    BYTE PTR [rbp-0x1db9],0x4
    68d6:	c6 85 48 e2 ff ff 9b 	mov    BYTE PTR [rbp-0x1db8],0x9b
    68dd:	c6 85 49 e2 ff ff 22 	mov    BYTE PTR [rbp-0x1db7],0x22
    68e4:	c6 85 4a e2 ff ff 12 	mov    BYTE PTR [rbp-0x1db6],0x12
    68eb:	c6 85 4b e2 ff ff 1d 	mov    BYTE PTR [rbp-0x1db5],0x1d
    68f2:	c6 85 4c e2 ff ff df 	mov    BYTE PTR [rbp-0x1db4],0xdf
    68f9:	c6 85 4d e2 ff ff 90 	mov    BYTE PTR [rbp-0x1db3],0x90
    6900:	c6 85 4e e2 ff ff 04 	mov    BYTE PTR [rbp-0x1db2],0x4
    6907:	c6 85 4f e2 ff ff 9c 	mov    BYTE PTR [rbp-0x1db1],0x9c
    690e:	c6 85 50 e2 ff ff 22 	mov    BYTE PTR [rbp-0x1db0],0x22
    6915:	c6 85 51 e2 ff ff 12 	mov    BYTE PTR [rbp-0x1daf],0x12
    691c:	c6 85 52 e2 ff ff 1c 	mov    BYTE PTR [rbp-0x1dae],0x1c
    6923:	c6 85 53 e2 ff ff 79 	mov    BYTE PTR [rbp-0x1dad],0x79
    692a:	c6 85 54 e2 ff ff 90 	mov    BYTE PTR [rbp-0x1dac],0x90
    6931:	c6 85 56 e2 ff ff 12 	mov    BYTE PTR [rbp-0x1daa],0x12
    6938:	c6 85 57 e2 ff ff 22 	mov    BYTE PTR [rbp-0x1da9],0x22
    693f:	c6 85 58 e2 ff ff 44 	mov    BYTE PTR [rbp-0x1da8],0x44
    6946:	c6 85 59 e2 ff ff 06 	mov    BYTE PTR [rbp-0x1da7],0x6
    694d:	c6 85 5a e2 ff ff f0 	mov    BYTE PTR [rbp-0x1da6],0xf0
    6954:	0f b6 45 80          	movzx  eax,BYTE PTR [rbp-0x80]
    6958:	88 85 5b e2 ff ff    	mov    BYTE PTR [rbp-0x1da5],al
    695e:	0f b6 45 81          	movzx  eax,BYTE PTR [rbp-0x7f]
    6962:	88 85 5c e2 ff ff    	mov    BYTE PTR [rbp-0x1da4],al
    6968:	0f b6 45 82          	movzx  eax,BYTE PTR [rbp-0x7e]
    696c:	88 85 5d e2 ff ff    	mov    BYTE PTR [rbp-0x1da3],al
    6972:	0f b6 45 83          	movzx  eax,BYTE PTR [rbp-0x7d]
    6976:	88 85 5e e2 ff ff    	mov    BYTE PTR [rbp-0x1da2],al
    697c:	c6 85 5f e2 ff ff 44 	mov    BYTE PTR [rbp-0x1da1],0x44
    6983:	c6 85 60 e2 ff ff 06 	mov    BYTE PTR [rbp-0x1da0],0x6
    698a:	c6 85 61 e2 ff ff dd 	mov    BYTE PTR [rbp-0x1d9f],0xdd
    6991:	0f b6 45 84          	movzx  eax,BYTE PTR [rbp-0x7c]
    6995:	88 85 62 e2 ff ff    	mov    BYTE PTR [rbp-0x1d9e],al
    699b:	0f b6 45 85          	movzx  eax,BYTE PTR [rbp-0x7b]
    699f:	88 85 63 e2 ff ff    	mov    BYTE PTR [rbp-0x1d9d],al
    69a5:	0f b6 45 86          	movzx  eax,BYTE PTR [rbp-0x7a]
    69a9:	88 85 64 e2 ff ff    	mov    BYTE PTR [rbp-0x1d9c],al
    69af:	0f b6 45 87          	movzx  eax,BYTE PTR [rbp-0x79]
    69b3:	88 85 65 e2 ff ff    	mov    BYTE PTR [rbp-0x1d9b],al
    69b9:	c6 85 66 e2 ff ff 4f 	mov    BYTE PTR [rbp-0x1d9a],0x4f
    69c0:	c6 85 67 e2 ff ff 06 	mov    BYTE PTR [rbp-0x1d99],0x6
    69c7:	c6 85 68 e2 ff ff e1 	mov    BYTE PTR [rbp-0x1d98],0xe1
    69ce:	0f b6 45 88          	movzx  eax,BYTE PTR [rbp-0x78]
    69d2:	88 85 69 e2 ff ff    	mov    BYTE PTR [rbp-0x1d97],al
    69d8:	0f b6 45 89          	movzx  eax,BYTE PTR [rbp-0x77]
    69dc:	88 85 6a e2 ff ff    	mov    BYTE PTR [rbp-0x1d96],al
    69e2:	0f b6 45 8a          	movzx  eax,BYTE PTR [rbp-0x76]
    69e6:	88 85 6b e2 ff ff    	mov    BYTE PTR [rbp-0x1d95],al
    69ec:	0f b6 45 8b          	movzx  eax,BYTE PTR [rbp-0x75]
    69f0:	88 85 6c e2 ff ff    	mov    BYTE PTR [rbp-0x1d94],al
    69f6:	0f b6 45 8c          	movzx  eax,BYTE PTR [rbp-0x74]
    69fa:	88 85 6d e2 ff ff    	mov    BYTE PTR [rbp-0x1d93],al
    6a00:	0f b6 45 8d          	movzx  eax,BYTE PTR [rbp-0x73]
    6a04:	88 85 6e e2 ff ff    	mov    BYTE PTR [rbp-0x1d92],al
    6a0a:	0f b6 45 8e          	movzx  eax,BYTE PTR [rbp-0x72]
    6a0e:	88 85 6f e2 ff ff    	mov    BYTE PTR [rbp-0x1d91],al
    6a14:	0f b6 45 8f          	movzx  eax,BYTE PTR [rbp-0x71]
    6a18:	88 85 70 e2 ff ff    	mov    BYTE PTR [rbp-0x1d90],al
    6a1e:	0f b6 45 90          	movzx  eax,BYTE PTR [rbp-0x70]
    6a22:	88 85 71 e2 ff ff    	mov    BYTE PTR [rbp-0x1d8f],al
    6a28:	0f b6 45 91          	movzx  eax,BYTE PTR [rbp-0x6f]
    6a2c:	88 85 72 e2 ff ff    	mov    BYTE PTR [rbp-0x1d8e],al
    6a32:	0f b6 45 92          	movzx  eax,BYTE PTR [rbp-0x6e]
    6a36:	88 85 73 e2 ff ff    	mov    BYTE PTR [rbp-0x1d8d],al
    6a3c:	0f b6 45 93          	movzx  eax,BYTE PTR [rbp-0x6d]
    6a40:	88 85 74 e2 ff ff    	mov    BYTE PTR [rbp-0x1d8c],al
    6a46:	0f b6 45 94          	movzx  eax,BYTE PTR [rbp-0x6c]
    6a4a:	88 85 75 e2 ff ff    	mov    BYTE PTR [rbp-0x1d8b],al
    6a50:	0f b6 45 95          	movzx  eax,BYTE PTR [rbp-0x6b]
    6a54:	88 85 76 e2 ff ff    	mov    BYTE PTR [rbp-0x1d8a],al
    6a5a:	0f b6 45 96          	movzx  eax,BYTE PTR [rbp-0x6a]
    6a5e:	88 85 77 e2 ff ff    	mov    BYTE PTR [rbp-0x1d89],al
    6a64:	c6 85 78 e2 ff ff 43 	mov    BYTE PTR [rbp-0x1d88],0x43
    6a6b:	c6 85 79 e2 ff ff 06 	mov    BYTE PTR [rbp-0x1d87],0x6
    6a72:	c6 85 7a e2 ff ff f4 	mov    BYTE PTR [rbp-0x1d86],0xf4
    6a79:	c6 85 7e e2 ff ff 60 	mov    BYTE PTR [rbp-0x1d82],0x60
    6a80:	c6 85 7f e2 ff ff 60 	mov    BYTE PTR [rbp-0x1d81],0x60
    6a87:	c6 85 80 e2 ff ff 06 	mov    BYTE PTR [rbp-0x1d80],0x6
    6a8e:	c6 85 81 e2 ff ff 48 	mov    BYTE PTR [rbp-0x1d7f],0x48
    6a95:	c6 85 82 e2 ff ff 02 	mov    BYTE PTR [rbp-0x1d7e],0x2
    6a9c:	c6 85 84 e2 ff ff 3b 	mov    BYTE PTR [rbp-0x1d7c],0x3b
    6aa3:	c6 85 85 e2 ff ff 32 	mov    BYTE PTR [rbp-0x1d7b],0x32
    6aaa:	c6 85 8d e2 ff ff 32 	mov    BYTE PTR [rbp-0x1d73],0x32
    6ab1:	c6 85 95 e2 ff ff 32 	mov    BYTE PTR [rbp-0x1d6b],0x32
    6ab8:	c6 85 9d e2 ff ff 32 	mov    BYTE PTR [rbp-0x1d63],0x32
    6abf:	c6 85 a5 e2 ff ff 32 	mov    BYTE PTR [rbp-0x1d5b],0x32
    6ac6:	c6 85 ad e2 ff ff 32 	mov    BYTE PTR [rbp-0x1d53],0x32
    6acd:	48 8d 95 a0 e0 ff ff 	lea    rdx,[rbp-0x1f60]
    6ad4:	b8 00 00 00 00       	mov    eax,0x0
    6ad9:	b9 21 00 00 00       	mov    ecx,0x21
    6ade:	48 89 d7             	mov    rdi,rdx
    6ae1:	f3 48 ab             	rep stos QWORD PTR es:[rdi],rax
    6ae4:	48 89 fa             	mov    rdx,rdi
    6ae7:	89 02                	mov    DWORD PTR [rdx],eax
    6ae9:	48 83 c2 04          	add    rdx,0x4
    6aed:	66 89 02             	mov    WORD PTR [rdx],ax
    6af0:	48 83 c2 02          	add    rdx,0x2
    6af4:	c6 85 a1 e0 ff ff 58 	mov    BYTE PTR [rbp-0x1f5f],0x58
    6afb:	c6 85 a2 e0 ff ff 8d 	mov    BYTE PTR [rbp-0x1f5e],0x8d
    6b02:	c6 85 a3 e0 ff ff f4 	mov    BYTE PTR [rbp-0x1f5d],0xf4
    6b09:	c6 85 a4 e0 ff ff ff 	mov    BYTE PTR [rbp-0x1f5c],0xff
    6b10:	48 8d 95 90 df ff ff 	lea    rdx,[rbp-0x2070]
    6b17:	b8 00 00 00 00       	mov    eax,0x0
    6b1c:	b9 21 00 00 00       	mov    ecx,0x21
    6b21:	48 89 d7             	mov    rdi,rdx
    6b24:	f3 48 ab             	rep stos QWORD PTR es:[rdi],rax
    6b27:	48 89 fa             	mov    rdx,rdi
    6b2a:	89 02                	mov    DWORD PTR [rdx],eax
    6b2c:	48 83 c2 04          	add    rdx,0x4
    6b30:	66 89 02             	mov    WORD PTR [rdx],ax
    6b33:	48 83 c2 02          	add    rdx,0x2
    6b37:	c6 85 96 df ff ff 32 	mov    BYTE PTR [rbp-0x206a],0x32
    6b3e:	c6 85 9e df ff ff 78 	mov    BYTE PTR [rbp-0x2062],0x78
    6b45:	c6 85 9f df ff ff ff 	mov    BYTE PTR [rbp-0x2061],0xff
    6b4c:	c6 85 a0 df ff ff e4 	mov    BYTE PTR [rbp-0x2060],0xe4
    6b53:	c6 85 a1 df ff ff f6 	mov    BYTE PTR [rbp-0x205f],0xf6
    6b5a:	c6 85 a2 df ff ff d8 	mov    BYTE PTR [rbp-0x205e],0xd8
    6b61:	c6 85 a3 df ff ff fd 	mov    BYTE PTR [rbp-0x205d],0xfd
    6b68:	c6 85 a4 df ff ff 90 	mov    BYTE PTR [rbp-0x205c],0x90
    6b6f:	c6 85 a7 df ff ff 7f 	mov    BYTE PTR [rbp-0x2059],0x7f
    6b76:	c6 85 a8 df ff ff 1c 	mov    BYTE PTR [rbp-0x2058],0x1c
    6b7d:	c6 85 a9 df ff ff 7e 	mov    BYTE PTR [rbp-0x2057],0x7e
    6b84:	c6 85 aa df ff ff 04 	mov    BYTE PTR [rbp-0x2056],0x4
    6b8b:	c6 85 ab df ff ff ef 	mov    BYTE PTR [rbp-0x2055],0xef
    6b92:	c6 85 ac df ff ff 70 	mov    BYTE PTR [rbp-0x2054],0x70
    6b99:	c6 85 ad df ff ff 03 	mov    BYTE PTR [rbp-0x2053],0x3
    6ba0:	c6 85 ae df ff ff ee 	mov    BYTE PTR [rbp-0x2052],0xee
    6ba7:	c6 85 af df ff ff 60 	mov    BYTE PTR [rbp-0x2051],0x60
    6bae:	c6 85 b0 df ff ff 08 	mov    BYTE PTR [rbp-0x2050],0x8
    6bb5:	c6 85 b1 df ff ff 0e 	mov    BYTE PTR [rbp-0x204f],0xe
    6bbc:	c6 85 b2 df ff ff e4 	mov    BYTE PTR [rbp-0x204e],0xe4
    6bc3:	c6 85 b3 df ff ff f0 	mov    BYTE PTR [rbp-0x204d],0xf0
    6bca:	c6 85 b4 df ff ff a3 	mov    BYTE PTR [rbp-0x204c],0xa3
    6bd1:	c6 85 b5 df ff ff df 	mov    BYTE PTR [rbp-0x204b],0xdf
    6bd8:	c6 85 b6 df ff ff fc 	mov    BYTE PTR [rbp-0x204a],0xfc
    6bdf:	c6 85 b7 df ff ff de 	mov    BYTE PTR [rbp-0x2049],0xde
    6be6:	c6 85 b8 df ff ff fa 	mov    BYTE PTR [rbp-0x2048],0xfa
    6bed:	c6 85 b9 df ff ff 75 	mov    BYTE PTR [rbp-0x2047],0x75
    6bf4:	c6 85 ba df ff ff 90 	mov    BYTE PTR [rbp-0x2046],0x90
    6bfb:	c6 85 bb df ff ff 03 	mov    BYTE PTR [rbp-0x2045],0x3
    6c02:	c6 85 bc df ff ff 75 	mov    BYTE PTR [rbp-0x2044],0x75
    6c09:	c6 85 bd df ff ff c3 	mov    BYTE PTR [rbp-0x2043],0xc3
    6c10:	c6 85 be df ff ff 01 	mov    BYTE PTR [rbp-0x2042],0x1
    6c17:	c6 85 bf df ff ff 02 	mov    BYTE PTR [rbp-0x2041],0x2
    6c1e:	c6 85 c0 df ff ff 80 	mov    BYTE PTR [rbp-0x2040],0x80
    6c25:	c6 85 c2 df ff ff ff 	mov    BYTE PTR [rbp-0x203e],0xff
    6c2c:	c6 85 c3 df ff ff 62 	mov    BYTE PTR [rbp-0x203d],0x62
    6c33:	c6 85 c6 df ff ff 12 	mov    BYTE PTR [rbp-0x203a],0x12
    6c3a:	0f b6 45 97          	movzx  eax,BYTE PTR [rbp-0x69]
    6c3e:	88 85 c7 df ff ff    	mov    BYTE PTR [rbp-0x2039],al
    6c44:	0f b6 45 98          	movzx  eax,BYTE PTR [rbp-0x68]
    6c48:	88 85 c8 df ff ff    	mov    BYTE PTR [rbp-0x2038],al
    6c4e:	0f b6 45 99          	movzx  eax,BYTE PTR [rbp-0x67]
    6c52:	88 85 c9 df ff ff    	mov    BYTE PTR [rbp-0x2037],al
    6c58:	0f b6 45 9a          	movzx  eax,BYTE PTR [rbp-0x66]
    6c5c:	88 85 ca df ff ff    	mov    BYTE PTR [rbp-0x2036],al
    6c62:	0f b6 45 9b          	movzx  eax,BYTE PTR [rbp-0x65]
    6c66:	88 85 cb df ff ff    	mov    BYTE PTR [rbp-0x2035],al
    6c6c:	0f b6 45 9c          	movzx  eax,BYTE PTR [rbp-0x64]
    6c70:	88 85 cc df ff ff    	mov    BYTE PTR [rbp-0x2034],al
    6c76:	0f b6 45 9d          	movzx  eax,BYTE PTR [rbp-0x63]
    6c7a:	88 85 cd df ff ff    	mov    BYTE PTR [rbp-0x2033],al
    6c80:	0f b6 45 9e          	movzx  eax,BYTE PTR [rbp-0x62]
    6c84:	88 85 ce df ff ff    	mov    BYTE PTR [rbp-0x2032],al
    6c8a:	0f b6 45 9f          	movzx  eax,BYTE PTR [rbp-0x61]
    6c8e:	88 85 cf df ff ff    	mov    BYTE PTR [rbp-0x2031],al
    6c94:	0f b6 45 a0          	movzx  eax,BYTE PTR [rbp-0x60]
    6c98:	88 85 d0 df ff ff    	mov    BYTE PTR [rbp-0x2030],al
    6c9e:	0f b6 45 a1          	movzx  eax,BYTE PTR [rbp-0x5f]
    6ca2:	88 85 d1 df ff ff    	mov    BYTE PTR [rbp-0x202f],al
    6ca8:	0f b6 45 a2          	movzx  eax,BYTE PTR [rbp-0x5e]
    6cac:	88 85 d2 df ff ff    	mov    BYTE PTR [rbp-0x202e],al
    6cb2:	0f b6 45 a3          	movzx  eax,BYTE PTR [rbp-0x5d]
    6cb6:	88 85 d3 df ff ff    	mov    BYTE PTR [rbp-0x202d],al
    6cbc:	0f b6 45 a4          	movzx  eax,BYTE PTR [rbp-0x5c]
    6cc0:	88 85 d4 df ff ff    	mov    BYTE PTR [rbp-0x202c],al
    6cc6:	0f b6 45 a5          	movzx  eax,BYTE PTR [rbp-0x5b]
    6cca:	88 85 d5 df ff ff    	mov    BYTE PTR [rbp-0x202b],al
    6cd0:	0f b6 45 a6          	movzx  eax,BYTE PTR [rbp-0x5a]
    6cd4:	88 85 d6 df ff ff    	mov    BYTE PTR [rbp-0x202a],al
    6cda:	0f b6 45 a7          	movzx  eax,BYTE PTR [rbp-0x59]
    6cde:	88 85 d7 df ff ff    	mov    BYTE PTR [rbp-0x2029],al
    6ce4:	0f b6 45 a8          	movzx  eax,BYTE PTR [rbp-0x58]
    6ce8:	88 85 dc df ff ff    	mov    BYTE PTR [rbp-0x2024],al
    6cee:	0f b6 45 a9          	movzx  eax,BYTE PTR [rbp-0x57]
    6cf2:	88 85 dd df ff ff    	mov    BYTE PTR [rbp-0x2023],al
    6cf8:	c6 85 de df ff ff ff 	mov    BYTE PTR [rbp-0x2022],0xff
    6cff:	c6 85 df df ff ff ff 	mov    BYTE PTR [rbp-0x2021],0xff
    6d06:	0f b6 45 aa          	movzx  eax,BYTE PTR [rbp-0x56]
    6d0a:	88 85 e7 df ff ff    	mov    BYTE PTR [rbp-0x2019],al
    6d10:	0f b6 45 ab          	movzx  eax,BYTE PTR [rbp-0x55]
    6d14:	88 85 e8 df ff ff    	mov    BYTE PTR [rbp-0x2018],al
    6d1a:	0f b6 45 ac          	movzx  eax,BYTE PTR [rbp-0x54]
    6d1e:	88 85 e9 df ff ff    	mov    BYTE PTR [rbp-0x2017],al
    6d24:	0f b6 45 ad          	movzx  eax,BYTE PTR [rbp-0x53]
    6d28:	88 85 ea df ff ff    	mov    BYTE PTR [rbp-0x2016],al
    6d2e:	0f b6 45 ae          	movzx  eax,BYTE PTR [rbp-0x52]
    6d32:	88 85 eb df ff ff    	mov    BYTE PTR [rbp-0x2015],al
    6d38:	0f b6 45 af          	movzx  eax,BYTE PTR [rbp-0x51]
    6d3c:	88 85 ec df ff ff    	mov    BYTE PTR [rbp-0x2014],al
    6d42:	0f b6 45 b0          	movzx  eax,BYTE PTR [rbp-0x50]
    6d46:	88 85 ed df ff ff    	mov    BYTE PTR [rbp-0x2013],al
    6d4c:	0f b6 45 b1          	movzx  eax,BYTE PTR [rbp-0x4f]
    6d50:	88 85 ee df ff ff    	mov    BYTE PTR [rbp-0x2012],al
    6d56:	0f b6 45 b2          	movzx  eax,BYTE PTR [rbp-0x4e]
    6d5a:	88 85 ef df ff ff    	mov    BYTE PTR [rbp-0x2011],al
    6d60:	0f b6 45 b3          	movzx  eax,BYTE PTR [rbp-0x4d]
    6d64:	88 85 f0 df ff ff    	mov    BYTE PTR [rbp-0x2010],al
    6d6a:	0f b6 45 b4          	movzx  eax,BYTE PTR [rbp-0x4c]
    6d6e:	88 85 f1 df ff ff    	mov    BYTE PTR [rbp-0x200f],al
    6d74:	0f b6 45 b5          	movzx  eax,BYTE PTR [rbp-0x4b]
    6d78:	88 85 f2 df ff ff    	mov    BYTE PTR [rbp-0x200e],al
    6d7e:	0f b6 45 b6          	movzx  eax,BYTE PTR [rbp-0x4a]
    6d82:	88 85 f3 df ff ff    	mov    BYTE PTR [rbp-0x200d],al
    6d88:	0f b6 45 b7          	movzx  eax,BYTE PTR [rbp-0x49]
    6d8c:	88 85 f4 df ff ff    	mov    BYTE PTR [rbp-0x200c],al
    6d92:	0f b6 45 b8          	movzx  eax,BYTE PTR [rbp-0x48]
    6d96:	88 85 f5 df ff ff    	mov    BYTE PTR [rbp-0x200b],al
    6d9c:	0f b6 45 b9          	movzx  eax,BYTE PTR [rbp-0x47]
    6da0:	88 85 f6 df ff ff    	mov    BYTE PTR [rbp-0x200a],al
    6da6:	0f b6 45 ba          	movzx  eax,BYTE PTR [rbp-0x46]
    6daa:	88 85 f7 df ff ff    	mov    BYTE PTR [rbp-0x2009],al
    6db0:	0f b6 45 bb          	movzx  eax,BYTE PTR [rbp-0x45]
    6db4:	88 85 f8 df ff ff    	mov    BYTE PTR [rbp-0x2008],al
    6dba:	0f b6 45 bc          	movzx  eax,BYTE PTR [rbp-0x44]
    6dbe:	88 85 f9 df ff ff    	mov    BYTE PTR [rbp-0x2007],al
    6dc4:	0f b6 45 bd          	movzx  eax,BYTE PTR [rbp-0x43]
    6dc8:	88 85 fa df ff ff    	mov    BYTE PTR [rbp-0x2006],al
    6dce:	0f b6 45 be          	movzx  eax,BYTE PTR [rbp-0x42]
    6dd2:	88 85 fb df ff ff    	mov    BYTE PTR [rbp-0x2005],al
    6dd8:	0f b6 45 bf          	movzx  eax,BYTE PTR [rbp-0x41]
    6ddc:	88 85 fc df ff ff    	mov    BYTE PTR [rbp-0x2004],al
    6de2:	0f b6 45 c0          	movzx  eax,BYTE PTR [rbp-0x40]
    6de6:	88 85 fd df ff ff    	mov    BYTE PTR [rbp-0x2003],al
    6dec:	0f b6 45 c1          	movzx  eax,BYTE PTR [rbp-0x3f]
    6df0:	88 85 fe df ff ff    	mov    BYTE PTR [rbp-0x2002],al
    6df6:	0f b6 45 c2          	movzx  eax,BYTE PTR [rbp-0x3e]
    6dfa:	88 85 ff df ff ff    	mov    BYTE PTR [rbp-0x2001],al
    6e00:	0f b6 45 c3          	movzx  eax,BYTE PTR [rbp-0x3d]
    6e04:	88 85 00 e0 ff ff    	mov    BYTE PTR [rbp-0x2000],al
    6e0a:	0f b6 45 c4          	movzx  eax,BYTE PTR [rbp-0x3c]
    6e0e:	88 85 01 e0 ff ff    	mov    BYTE PTR [rbp-0x1fff],al
    6e14:	0f b6 45 c5          	movzx  eax,BYTE PTR [rbp-0x3b]
    6e18:	88 85 02 e0 ff ff    	mov    BYTE PTR [rbp-0x1ffe],al
    6e1e:	0f b6 45 c6          	movzx  eax,BYTE PTR [rbp-0x3a]
    6e22:	88 85 03 e0 ff ff    	mov    BYTE PTR [rbp-0x1ffd],al
    6e28:	0f b6 45 c7          	movzx  eax,BYTE PTR [rbp-0x39]
    6e2c:	88 85 04 e0 ff ff    	mov    BYTE PTR [rbp-0x1ffc],al
    6e32:	0f b6 45 c8          	movzx  eax,BYTE PTR [rbp-0x38]
    6e36:	88 85 05 e0 ff ff    	mov    BYTE PTR [rbp-0x1ffb],al
    6e3c:	0f b6 45 c9          	movzx  eax,BYTE PTR [rbp-0x37]
    6e40:	88 85 06 e0 ff ff    	mov    BYTE PTR [rbp-0x1ffa],al
    6e46:	0f b6 45 ca          	movzx  eax,BYTE PTR [rbp-0x36]
    6e4a:	88 85 07 e0 ff ff    	mov    BYTE PTR [rbp-0x1ff9],al
    6e50:	0f b6 45 cb          	movzx  eax,BYTE PTR [rbp-0x35]
    6e54:	88 85 08 e0 ff ff    	mov    BYTE PTR [rbp-0x1ff8],al
    6e5a:	0f b6 45 cc          	movzx  eax,BYTE PTR [rbp-0x34]
    6e5e:	88 85 09 e0 ff ff    	mov    BYTE PTR [rbp-0x1ff7],al
    6e64:	0f b6 45 cd          	movzx  eax,BYTE PTR [rbp-0x33]
    6e68:	88 85 0a e0 ff ff    	mov    BYTE PTR [rbp-0x1ff6],al
    6e6e:	0f b6 45 ce          	movzx  eax,BYTE PTR [rbp-0x32]
    6e72:	88 85 0b e0 ff ff    	mov    BYTE PTR [rbp-0x1ff5],al
    6e78:	0f b6 45 cf          	movzx  eax,BYTE PTR [rbp-0x31]
    6e7c:	88 85 0c e0 ff ff    	mov    BYTE PTR [rbp-0x1ff4],al
    6e82:	0f b6 45 d0          	movzx  eax,BYTE PTR [rbp-0x30]
    6e86:	88 85 0d e0 ff ff    	mov    BYTE PTR [rbp-0x1ff3],al
    6e8c:	0f b6 45 d1          	movzx  eax,BYTE PTR [rbp-0x2f]
    6e90:	88 85 0e e0 ff ff    	mov    BYTE PTR [rbp-0x1ff2],al
    6e96:	0f b6 45 d2          	movzx  eax,BYTE PTR [rbp-0x2e]
    6e9a:	88 85 0f e0 ff ff    	mov    BYTE PTR [rbp-0x1ff1],al
    6ea0:	0f b6 45 d3          	movzx  eax,BYTE PTR [rbp-0x2d]
    6ea4:	88 85 10 e0 ff ff    	mov    BYTE PTR [rbp-0x1ff0],al
    6eaa:	0f b6 45 d4          	movzx  eax,BYTE PTR [rbp-0x2c]
    6eae:	88 85 11 e0 ff ff    	mov    BYTE PTR [rbp-0x1fef],al
    6eb4:	0f b6 45 d5          	movzx  eax,BYTE PTR [rbp-0x2b]
    6eb8:	88 85 12 e0 ff ff    	mov    BYTE PTR [rbp-0x1fee],al
    6ebe:	0f b6 45 d6          	movzx  eax,BYTE PTR [rbp-0x2a]
    6ec2:	88 85 13 e0 ff ff    	mov    BYTE PTR [rbp-0x1fed],al
    6ec8:	0f b6 45 d7          	movzx  eax,BYTE PTR [rbp-0x29]
    6ecc:	88 85 14 e0 ff ff    	mov    BYTE PTR [rbp-0x1fec],al
    6ed2:	0f b6 45 d8          	movzx  eax,BYTE PTR [rbp-0x28]
    6ed6:	88 85 15 e0 ff ff    	mov    BYTE PTR [rbp-0x1feb],al
    6edc:	0f b6 45 d9          	movzx  eax,BYTE PTR [rbp-0x27]
    6ee0:	88 85 16 e0 ff ff    	mov    BYTE PTR [rbp-0x1fea],al
    6ee6:	c6 85 17 e0 ff ff 02 	mov    BYTE PTR [rbp-0x1fe9],0x2
    6eed:	c6 85 18 e0 ff ff 31 	mov    BYTE PTR [rbp-0x1fe8],0x31
    6ef4:	c6 85 19 e0 ff ff 32 	mov    BYTE PTR [rbp-0x1fe7],0x32
    6efb:	c6 85 1a e0 ff ff 33 	mov    BYTE PTR [rbp-0x1fe6],0x33
    6f02:	c6 85 1b e0 ff ff 34 	mov    BYTE PTR [rbp-0x1fe5],0x34
    6f09:	48 8d 95 80 de ff ff 	lea    rdx,[rbp-0x2180]
    6f10:	b8 00 00 00 00       	mov    eax,0x0
    6f15:	b9 21 00 00 00       	mov    ecx,0x21
    6f1a:	48 89 d7             	mov    rdi,rdx
    6f1d:	f3 48 ab             	rep stos QWORD PTR es:[rdi],rax
    6f20:	48 89 fa             	mov    rdx,rdi
    6f23:	89 02                	mov    DWORD PTR [rdx],eax
    6f25:	48 83 c2 04          	add    rdx,0x4
    6f29:	66 89 02             	mov    WORD PTR [rdx],ax
    6f2c:	48 83 c2 02          	add    rdx,0x2
    6f30:	c6 85 81 de ff ff 58 	mov    BYTE PTR [rbp-0x217f],0x58
    6f37:	c6 85 82 de ff ff 8e 	mov    BYTE PTR [rbp-0x217e],0x8e
    6f3e:	c6 85 83 de ff ff f3 	mov    BYTE PTR [rbp-0x217d],0xf3
    6f45:	c6 85 84 de ff ff ff 	mov    BYTE PTR [rbp-0x217c],0xff
    6f4c:	48 8d 95 70 dd ff ff 	lea    rdx,[rbp-0x2290]
    6f53:	b8 00 00 00 00       	mov    eax,0x0
    6f58:	b9 21 00 00 00       	mov    ecx,0x21
    6f5d:	48 89 d7             	mov    rdi,rdx
    6f60:	f3 48 ab             	rep stos QWORD PTR es:[rdi],rax
    6f63:	48 89 fa             	mov    rdx,rdi
    6f66:	89 02                	mov    DWORD PTR [rdx],eax
    6f68:	48 83 c2 04          	add    rdx,0x4
    6f6c:	66 89 02             	mov    WORD PTR [rdx],ax
    6f6f:	48 83 c2 02          	add    rdx,0x2
    6f73:	48 8d 95 60 dc ff ff 	lea    rdx,[rbp-0x23a0]
    6f7a:	b8 00 00 00 00       	mov    eax,0x0
    6f7f:	b9 21 00 00 00       	mov    ecx,0x21
    6f84:	48 89 d7             	mov    rdi,rdx
    6f87:	f3 48 ab             	rep stos QWORD PTR es:[rdi],rax
    6f8a:	48 89 fa             	mov    rdx,rdi
    6f8d:	89 02                	mov    DWORD PTR [rdx],eax
    6f8f:	48 83 c2 04          	add    rdx,0x4
    6f93:	66 89 02             	mov    WORD PTR [rdx],ax
    6f96:	48 83 c2 02          	add    rdx,0x2
    6f9a:	c6 85 61 dc ff ff 58 	mov    BYTE PTR [rbp-0x239f],0x58
    6fa1:	c6 85 62 dc ff ff 8f 	mov    BYTE PTR [rbp-0x239e],0x8f
    6fa8:	c6 85 63 dc ff ff f2 	mov    BYTE PTR [rbp-0x239d],0xf2
    6faf:	c6 85 64 dc ff ff ff 	mov    BYTE PTR [rbp-0x239c],0xff
    6fb6:	48 8d 95 50 db ff ff 	lea    rdx,[rbp-0x24b0]
    6fbd:	b8 00 00 00 00       	mov    eax,0x0
    6fc2:	b9 21 00 00 00       	mov    ecx,0x21
    6fc7:	48 89 d7             	mov    rdi,rdx
    6fca:	f3 48 ab             	rep stos QWORD PTR es:[rdi],rax
    6fcd:	48 89 fa             	mov    rdx,rdi
    6fd0:	89 02                	mov    DWORD PTR [rdx],eax
    6fd2:	48 83 c2 04          	add    rdx,0x4
    6fd6:	66 89 02             	mov    WORD PTR [rdx],ax
    6fd9:	48 83 c2 02          	add    rdx,0x2
    6fdd:	c6 85 89 db ff ff 44 	mov    BYTE PTR [rbp-0x2477],0x44
    6fe4:	c6 85 8a db ff ff 02 	mov    BYTE PTR [rbp-0x2476],0x2
    6feb:	c6 85 8b db ff ff 12 	mov    BYTE PTR [rbp-0x2475],0x12
    6ff2:	c6 85 90 db ff ff 4c 	mov    BYTE PTR [rbp-0x2470],0x4c
    6ff9:	c6 85 92 db ff ff 01 	mov    BYTE PTR [rbp-0x246e],0x1
    7000:	c6 85 93 db ff ff 0b 	mov    BYTE PTR [rbp-0x246d],0xb
    7007:	c6 85 94 db ff ff 11 	mov    BYTE PTR [rbp-0x246c],0x11
    700e:	c6 85 95 db ff ff 12 	mov    BYTE PTR [rbp-0x246b],0x12
    7015:	c6 85 96 db ff ff 13 	mov    BYTE PTR [rbp-0x246a],0x13
    701c:	c6 85 97 db ff ff 18 	mov    BYTE PTR [rbp-0x2469],0x18
    7023:	c6 85 98 db ff ff 91 	mov    BYTE PTR [rbp-0x2468],0x91
    702a:	c6 85 99 db ff ff 92 	mov    BYTE PTR [rbp-0x2467],0x92
    7031:	c6 85 9a db ff ff 93 	mov    BYTE PTR [rbp-0x2466],0x93
    7038:	c6 85 9b db ff ff 94 	mov    BYTE PTR [rbp-0x2465],0x94
    703f:	c6 85 9c db ff ff 95 	mov    BYTE PTR [rbp-0x2464],0x95
    7046:	c6 85 9d db ff ff 96 	mov    BYTE PTR [rbp-0x2463],0x96
    704d:	c6 85 9e db ff ff 97 	mov    BYTE PTR [rbp-0x2462],0x97
    7054:	c6 85 a0 db ff ff 90 	mov    BYTE PTR [rbp-0x2460],0x90
    705b:	c6 85 a1 db ff ff 06 	mov    BYTE PTR [rbp-0x245f],0x6
    7062:	c6 85 a2 db ff ff bd 	mov    BYTE PTR [rbp-0x245e],0xbd
    7069:	c6 85 a3 db ff ff ee 	mov    BYTE PTR [rbp-0x245d],0xee
    7070:	c6 85 a4 db ff ff f0 	mov    BYTE PTR [rbp-0x245c],0xf0
    7077:	c6 85 a5 db ff ff a3 	mov    BYTE PTR [rbp-0x245b],0xa3
    707e:	c6 85 a6 db ff ff ef 	mov    BYTE PTR [rbp-0x245a],0xef
    7085:	c6 85 a7 db ff ff f0 	mov    BYTE PTR [rbp-0x2459],0xf0
    708c:	c6 85 a8 db ff ff a3 	mov    BYTE PTR [rbp-0x2458],0xa3
    7093:	c6 85 a9 db ff ff 12 	mov    BYTE PTR [rbp-0x2457],0x12
    709a:	c6 85 aa db ff ff 14 	mov    BYTE PTR [rbp-0x2456],0x14
    70a1:	c6 85 ab db ff ff 88 	mov    BYTE PTR [rbp-0x2455],0x88
    70a8:	c6 85 ac db ff ff e4 	mov    BYTE PTR [rbp-0x2454],0xe4
    70af:	c6 85 ad db ff ff 90 	mov    BYTE PTR [rbp-0x2453],0x90
    70b6:	c6 85 ae db ff ff 06 	mov    BYTE PTR [rbp-0x2452],0x6
    70bd:	c6 85 af db ff ff c7 	mov    BYTE PTR [rbp-0x2451],0xc7
    70c4:	c6 85 b0 db ff ff f0 	mov    BYTE PTR [rbp-0x2450],0xf0
    70cb:	c6 85 b1 db ff ff a3 	mov    BYTE PTR [rbp-0x244f],0xa3
    70d2:	c6 85 b2 db ff ff f0 	mov    BYTE PTR [rbp-0x244e],0xf0
    70d9:	c6 85 b3 db ff ff a3 	mov    BYTE PTR [rbp-0x244d],0xa3
    70e0:	c6 85 b4 db ff ff f0 	mov    BYTE PTR [rbp-0x244c],0xf0
    70e7:	c6 85 b5 db ff ff a3 	mov    BYTE PTR [rbp-0x244b],0xa3
    70ee:	c6 85 b6 db ff ff f0 	mov    BYTE PTR [rbp-0x244a],0xf0
    70f5:	c6 85 b7 db ff ff a3 	mov    BYTE PTR [rbp-0x2449],0xa3
    70fc:	c6 85 b8 db ff ff f0 	mov    BYTE PTR [rbp-0x2448],0xf0
    7103:	c6 85 b9 db ff ff a3 	mov    BYTE PTR [rbp-0x2447],0xa3
    710a:	c6 85 ba db ff ff f0 	mov    BYTE PTR [rbp-0x2446],0xf0
    7111:	c6 85 bb db ff ff 90 	mov    BYTE PTR [rbp-0x2445],0x90
    7118:	c6 85 bc db ff ff 06 	mov    BYTE PTR [rbp-0x2444],0x6
    711f:	c6 85 bd db ff ff bd 	mov    BYTE PTR [rbp-0x2443],0xbd
    7126:	c6 85 be db ff ff e0 	mov    BYTE PTR [rbp-0x2442],0xe0
    712d:	c6 85 bf db ff ff fa 	mov    BYTE PTR [rbp-0x2441],0xfa
    7134:	c6 85 c0 db ff ff a3 	mov    BYTE PTR [rbp-0x2440],0xa3
    713b:	c6 85 c1 db ff ff e0 	mov    BYTE PTR [rbp-0x243f],0xe0
    7142:	c6 85 c2 db ff ff fb 	mov    BYTE PTR [rbp-0x243e],0xfb
    7149:	c6 85 c3 db ff ff 90 	mov    BYTE PTR [rbp-0x243d],0x90
    7150:	c6 85 c4 db ff ff 06 	mov    BYTE PTR [rbp-0x243c],0x6
    7157:	c6 85 c5 db ff ff c3 	mov    BYTE PTR [rbp-0x243b],0xc3
    715e:	c6 85 c6 db ff ff ea 	mov    BYTE PTR [rbp-0x243a],0xea
    7165:	c6 85 c7 db ff ff f0 	mov    BYTE PTR [rbp-0x2439],0xf0
    716c:	c6 85 c8 db ff ff fe 	mov    BYTE PTR [rbp-0x2438],0xfe
    7173:	c6 85 c9 db ff ff a3 	mov    BYTE PTR [rbp-0x2437],0xa3
    717a:	c6 85 ca db ff ff eb 	mov    BYTE PTR [rbp-0x2436],0xeb
    7181:	c6 85 cb db ff ff f0 	mov    BYTE PTR [rbp-0x2435],0xf0
    7188:	c6 85 cc db ff ff ff 	mov    BYTE PTR [rbp-0x2434],0xff
    718f:	c6 85 cd db ff ff 90 	mov    BYTE PTR [rbp-0x2433],0x90
    7196:	c6 85 ce db ff ff 06 	mov    BYTE PTR [rbp-0x2432],0x6
    719d:	c6 85 cf db ff ff c2 	mov    BYTE PTR [rbp-0x2431],0xc2
    71a4:	c6 85 d0 db ff ff e0 	mov    BYTE PTR [rbp-0x2430],0xe0
    71ab:	c6 85 d1 db ff ff 2f 	mov    BYTE PTR [rbp-0x242f],0x2f
    71b2:	c6 85 d2 db ff ff ff 	mov    BYTE PTR [rbp-0x242e],0xff
    71b9:	c6 85 d3 db ff ff e4 	mov    BYTE PTR [rbp-0x242d],0xe4
    71c0:	c6 85 d4 db ff ff 3e 	mov    BYTE PTR [rbp-0x242c],0x3e
    71c7:	c6 85 d5 db ff ff cf 	mov    BYTE PTR [rbp-0x242b],0xcf
    71ce:	c6 85 d6 db ff ff 24 	mov    BYTE PTR [rbp-0x242a],0x24
    71d5:	c6 85 d7 db ff ff ff 	mov    BYTE PTR [rbp-0x2429],0xff
    71dc:	c6 85 d8 db ff ff cf 	mov    BYTE PTR [rbp-0x2428],0xcf
    71e3:	c6 85 d9 db ff ff 34 	mov    BYTE PTR [rbp-0x2427],0x34
    71ea:	c6 85 da db ff ff ff 	mov    BYTE PTR [rbp-0x2426],0xff
    71f1:	c6 85 db db ff ff 90 	mov    BYTE PTR [rbp-0x2425],0x90
    71f8:	c6 85 dc db ff ff 06 	mov    BYTE PTR [rbp-0x2424],0x6
    71ff:	c6 85 dd db ff ff c5 	mov    BYTE PTR [rbp-0x2423],0xc5
    7206:	c6 85 de db ff ff f0 	mov    BYTE PTR [rbp-0x2422],0xf0
    720d:	c6 85 df db ff ff a3 	mov    BYTE PTR [rbp-0x2421],0xa3
    7214:	c6 85 e0 db ff ff ef 	mov    BYTE PTR [rbp-0x2420],0xef
    721b:	c6 85 e1 db ff ff f0 	mov    BYTE PTR [rbp-0x241f],0xf0
    7222:	c6 85 e2 db ff ff c3 	mov    BYTE PTR [rbp-0x241e],0xc3
    7229:	c6 85 e3 db ff ff ea 	mov    BYTE PTR [rbp-0x241d],0xea
    7230:	c6 85 e4 db ff ff 94 	mov    BYTE PTR [rbp-0x241c],0x94
    7237:	c6 85 e6 db ff ff 40 	mov    BYTE PTR [rbp-0x241a],0x40
    723e:	c6 85 e7 db ff ff 22 	mov    BYTE PTR [rbp-0x2419],0x22
    7245:	c6 85 e8 db ff ff 90 	mov    BYTE PTR [rbp-0x2418],0x90
    724c:	c6 85 e9 db ff ff 06 	mov    BYTE PTR [rbp-0x2417],0x6
    7253:	c6 85 ea db ff ff bd 	mov    BYTE PTR [rbp-0x2416],0xbd
    725a:	c6 85 eb db ff ff a3 	mov    BYTE PTR [rbp-0x2415],0xa3
    7261:	c6 85 ec db ff ff e0 	mov    BYTE PTR [rbp-0x2414],0xe0
